Archive member included to satisfy reference by file (symbol)

../RansacSoftware_bsp//newlib/nios2-elf/lib\libm.a(lib_a-s_atan.o)
                              obj/default/ransac.o (atan)
../RansacSoftware_bsp//newlib/nios2-elf/lib\libm.a(lib_a-s_fabs.o)
                              ../RansacSoftware_bsp//newlib/nios2-elf/lib\libm.a(lib_a-s_atan.o) (fabs)
c:/intelfpga_lite/18.1/nios2eds/bin/gnu/h-x86_64-mingw32/bin/../lib/gcc/nios2-elf/5.3.0/mno-hw-mul\libgcc.a(lib2-divmod.o)
                              obj/default/ransac.o (__divsi3)
c:/intelfpga_lite/18.1/nios2eds/bin/gnu/h-x86_64-mingw32/bin/../lib/gcc/nios2-elf/5.3.0/mno-hw-mul\libgcc.a(lib2-mul.o)
                              obj/default/ransac.o (__mulsi3)
c:/intelfpga_lite/18.1/nios2eds/bin/gnu/h-x86_64-mingw32/bin/../lib/gcc/nios2-elf/5.3.0/mno-hw-mul\libgcc.a(adddf3.o)
                              obj/default/ransac.o (__adddf3)
c:/intelfpga_lite/18.1/nios2eds/bin/gnu/h-x86_64-mingw32/bin/../lib/gcc/nios2-elf/5.3.0/mno-hw-mul\libgcc.a(divdf3.o)
                              ../RansacSoftware_bsp//newlib/nios2-elf/lib\libm.a(lib_a-s_atan.o) (__divdf3)
c:/intelfpga_lite/18.1/nios2eds/bin/gnu/h-x86_64-mingw32/bin/../lib/gcc/nios2-elf/5.3.0/mno-hw-mul\libgcc.a(gedf2.o)
                              obj/default/main.o (__gtdf2)
c:/intelfpga_lite/18.1/nios2eds/bin/gnu/h-x86_64-mingw32/bin/../lib/gcc/nios2-elf/5.3.0/mno-hw-mul\libgcc.a(ledf2.o)
                              obj/default/main.o (__ltdf2)
c:/intelfpga_lite/18.1/nios2eds/bin/gnu/h-x86_64-mingw32/bin/../lib/gcc/nios2-elf/5.3.0/mno-hw-mul\libgcc.a(muldf3.o)
                              obj/default/ransac.o (__muldf3)
c:/intelfpga_lite/18.1/nios2eds/bin/gnu/h-x86_64-mingw32/bin/../lib/gcc/nios2-elf/5.3.0/mno-hw-mul\libgcc.a(subdf3.o)
                              ../RansacSoftware_bsp//newlib/nios2-elf/lib\libm.a(lib_a-s_atan.o) (__subdf3)
c:/intelfpga_lite/18.1/nios2eds/bin/gnu/h-x86_64-mingw32/bin/../lib/gcc/nios2-elf/5.3.0/mno-hw-mul\libgcc.a(fixdfsi.o)
                              obj/default/ransac.o (__fixdfsi)
c:/intelfpga_lite/18.1/nios2eds/bin/gnu/h-x86_64-mingw32/bin/../lib/gcc/nios2-elf/5.3.0/mno-hw-mul\libgcc.a(floatsidf.o)
                              obj/default/ransac.o (__floatsidf)
c:/intelfpga_lite/18.1/nios2eds/bin/gnu/h-x86_64-mingw32/bin/../lib/gcc/nios2-elf/5.3.0/mno-hw-mul\libgcc.a(extendsfdf2.o)
                              obj/default/main.o (__extendsfdf2)
c:/intelfpga_lite/18.1/nios2eds/bin/gnu/h-x86_64-mingw32/bin/../lib/gcc/nios2-elf/5.3.0/mno-hw-mul\libgcc.a(truncdfsf2.o)
                              obj/default/ransac.o (__truncdfsf2)
c:/intelfpga_lite/18.1/nios2eds/bin/gnu/h-x86_64-mingw32/bin/../lib/gcc/nios2-elf/5.3.0/mno-hw-mul\libgcc.a(_clzsi2.o)
                              c:/intelfpga_lite/18.1/nios2eds/bin/gnu/h-x86_64-mingw32/bin/../lib/gcc/nios2-elf/5.3.0/mno-hw-mul\libgcc.a(adddf3.o) (__clzsi2)
c:/intelfpga_lite/18.1/nios2eds/bin/gnu/h-x86_64-mingw32/bin/../lib/gcc/nios2-elf/5.3.0/mno-hw-mul\libgcc.a(_clz.o)
                              c:/intelfpga_lite/18.1/nios2eds/bin/gnu/h-x86_64-mingw32/bin/../lib/gcc/nios2-elf/5.3.0/mno-hw-mul\libgcc.a(_clzsi2.o) (__clz_tab)
../RansacSoftware_bsp//newlib/nios2-elf/lib\libc.a(lib_a-exit.o)
                              obj/default/main.o (exit)
../RansacSoftware_bsp//newlib/nios2-elf/lib\libc.a(lib_a-fclose.o)
                              obj/default/main.o (fclose)
../RansacSoftware_bsp//newlib/nios2-elf/lib\libc.a(lib_a-fflush.o)
                              ../RansacSoftware_bsp//newlib/nios2-elf/lib\libc.a(lib_a-fclose.o) (__sflush_r)
../RansacSoftware_bsp//newlib/nios2-elf/lib\libc.a(lib_a-findfp.o)
                              ../RansacSoftware_bsp//newlib/nios2-elf/lib\libc.a(lib_a-fclose.o) (__sfp_lock_acquire)
../RansacSoftware_bsp//newlib/nios2-elf/lib\libc.a(lib_a-fopen.o)
                              obj/default/main.o (fopen)
../RansacSoftware_bsp//newlib/nios2-elf/lib\libc.a(lib_a-fprintf.o)
                              obj/default/main.o (fprintf)
../RansacSoftware_bsp//newlib/nios2-elf/lib\libc.a(lib_a-fputc.o)
                              obj/default/main.o (fputc)
../RansacSoftware_bsp//newlib/nios2-elf/lib\libc.a(lib_a-freer.o)
                              ../RansacSoftware_bsp//newlib/nios2-elf/lib\libc.a(lib_a-fclose.o) (_free_r)
../RansacSoftware_bsp//newlib/nios2-elf/lib\libc.a(lib_a-fscanf.o)
                              obj/default/main.o (fscanf)
../RansacSoftware_bsp//newlib/nios2-elf/lib\libc.a(lib_a-fseek.o)
                              ../RansacSoftware_bsp//newlib/nios2-elf/lib\libc.a(lib_a-fopen.o) (_fseek_r)
../RansacSoftware_bsp//newlib/nios2-elf/lib\libc.a(lib_a-fseeko.o)
                              ../RansacSoftware_bsp//newlib/nios2-elf/lib\libc.a(lib_a-fseek.o) (_fseeko_r)
../RansacSoftware_bsp//newlib/nios2-elf/lib\libc.a(lib_a-fstatr.o)
                              ../RansacSoftware_bsp//newlib/nios2-elf/lib\libc.a(lib_a-fseeko.o) (_fstat_r)
../RansacSoftware_bsp//newlib/nios2-elf/lib\libc.a(lib_a-fwalk.o)
                              ../RansacSoftware_bsp//newlib/nios2-elf/lib\libc.a(lib_a-findfp.o) (_fwalk)
../RansacSoftware_bsp//newlib/nios2-elf/lib\libc.a(lib_a-fwrite.o)
                              obj/default/main.o (fwrite)
../RansacSoftware_bsp//newlib/nios2-elf/lib\libc.a(lib_a-impure.o)
                              ../RansacSoftware_bsp//newlib/nios2-elf/lib\libc.a(lib_a-fclose.o) (_impure_ptr)
../RansacSoftware_bsp//newlib/nios2-elf/lib\libc.a(lib_a-int_errno.o)
                              ../RansacSoftware_bsp//newlib/nios2-elf/lib\libc.a(lib_a-fstatr.o) (errno)
../RansacSoftware_bsp//newlib/nios2-elf/lib\libc.a(lib_a-makebuf.o)
                              ../RansacSoftware_bsp//newlib/nios2-elf/lib\libc.a(lib_a-fseeko.o) (__smakebuf_r)
../RansacSoftware_bsp//newlib/nios2-elf/lib\libc.a(lib_a-mallocr.o)
                              ../RansacSoftware_bsp//newlib/nios2-elf/lib\libc.a(lib_a-freer.o) (__malloc_av_)
../RansacSoftware_bsp//newlib/nios2-elf/lib\libc.a(lib_a-memset.o)
                              ../RansacSoftware_bsp//newlib/nios2-elf/lib\libc.a(lib_a-findfp.o) (memset)
../RansacSoftware_bsp//newlib/nios2-elf/lib\libc.a(lib_a-openr.o)
                              ../RansacSoftware_bsp//newlib/nios2-elf/lib\libc.a(lib_a-fopen.o) (_open_r)
../RansacSoftware_bsp//newlib/nios2-elf/lib\libc.a(lib_a-putc.o)
                              ../RansacSoftware_bsp//newlib/nios2-elf/lib\libc.a(lib_a-fputc.o) (_putc_r)
../RansacSoftware_bsp//newlib/nios2-elf/lib\libc.a(lib_a-puts.o)
                              obj/default/main.o (puts)
../RansacSoftware_bsp//newlib/nios2-elf/lib\libc.a(lib_a-rand.o)
                              obj/default/ransac.o (rand)
../RansacSoftware_bsp//newlib/nios2-elf/lib\libc.a(lib_a-refill.o)
                              ../RansacSoftware_bsp//newlib/nios2-elf/lib\libc.a(lib_a-fseeko.o) (__srefill_r)
../RansacSoftware_bsp//newlib/nios2-elf/lib\libc.a(lib_a-sbrkr.o)
                              ../RansacSoftware_bsp//newlib/nios2-elf/lib\libc.a(lib_a-freer.o) (_sbrk_r)
../RansacSoftware_bsp//newlib/nios2-elf/lib\libc.a(lib_a-stdio.o)
                              ../RansacSoftware_bsp//newlib/nios2-elf/lib\libc.a(lib_a-findfp.o) (__sread)
../RansacSoftware_bsp//newlib/nios2-elf/lib\libc.a(lib_a-strlen.o)
                              ../RansacSoftware_bsp//newlib/nios2-elf/lib\libc.a(lib_a-puts.o) (strlen)
../RansacSoftware_bsp//newlib/nios2-elf/lib\libc.a(lib_a-vfprintf.o)
                              ../RansacSoftware_bsp//newlib/nios2-elf/lib\libc.a(lib_a-fprintf.o) (__vfprintf_internal)
../RansacSoftware_bsp//newlib/nios2-elf/lib\libc.a(lib_a-vfscanf.o)
                              ../RansacSoftware_bsp//newlib/nios2-elf/lib\libc.a(lib_a-fscanf.o) (_vfscanf_r)
../RansacSoftware_bsp//newlib/nios2-elf/lib\libc.a(lib_a-wbuf.o)
                              ../RansacSoftware_bsp//newlib/nios2-elf/lib\libc.a(lib_a-putc.o) (__swbuf_r)
../RansacSoftware_bsp//newlib/nios2-elf/lib\libc.a(lib_a-writer.o)
                              ../RansacSoftware_bsp//newlib/nios2-elf/lib\libc.a(lib_a-stdio.o) (_write_r)
../RansacSoftware_bsp//newlib/nios2-elf/lib\libc.a(lib_a-wsetup.o)
                              ../RansacSoftware_bsp//newlib/nios2-elf/lib\libc.a(lib_a-vfprintf.o) (__swsetup_r)
../RansacSoftware_bsp//newlib/nios2-elf/lib\libc.a(closer.o)
                              ../RansacSoftware_bsp//newlib/nios2-elf/lib\libc.a(lib_a-stdio.o) (_close_r)
../RansacSoftware_bsp//newlib/nios2-elf/lib\libc.a(lib_a-__call_atexit.o)
                              ../RansacSoftware_bsp//newlib/nios2-elf/lib\libc.a(lib_a-exit.o) (__call_exitprocs)
../RansacSoftware_bsp//newlib/nios2-elf/lib\libc.a(lib_a-ctype_.o)
                              ../RansacSoftware_bsp//newlib/nios2-elf/lib\libc.a(lib_a-vfscanf.o) (__ctype_ptr__)
../RansacSoftware_bsp//newlib/nios2-elf/lib\libc.a(lib_a-dtoa.o)
                              ../RansacSoftware_bsp//newlib/nios2-elf/lib\libc.a(lib_a-vfprintf.o) (_dtoa_r)
../RansacSoftware_bsp//newlib/nios2-elf/lib\libc.a(lib_a-flags.o)
                              ../RansacSoftware_bsp//newlib/nios2-elf/lib\libc.a(lib_a-fopen.o) (__sflags)
../RansacSoftware_bsp//newlib/nios2-elf/lib\libc.a(lib_a-fread.o)
                              ../RansacSoftware_bsp//newlib/nios2-elf/lib\libc.a(lib_a-vfscanf.o) (_fread_r)
../RansacSoftware_bsp//newlib/nios2-elf/lib\libc.a(lib_a-fvwrite.o)
                              ../RansacSoftware_bsp//newlib/nios2-elf/lib\libc.a(lib_a-fwrite.o) (__sfvwrite_r)
../RansacSoftware_bsp//newlib/nios2-elf/lib\libc.a(lib_a-isattyr.o)
                              ../RansacSoftware_bsp//newlib/nios2-elf/lib\libc.a(lib_a-makebuf.o) (_isatty_r)
../RansacSoftware_bsp//newlib/nios2-elf/lib\libc.a(lib_a-iswspace.o)
                              ../RansacSoftware_bsp//newlib/nios2-elf/lib\libc.a(lib_a-vfscanf.o) (iswspace)
../RansacSoftware_bsp//newlib/nios2-elf/lib\libc.a(lib_a-locale.o)
                              ../RansacSoftware_bsp//newlib/nios2-elf/lib\libc.a(lib_a-vfscanf.o) (__locale_mb_cur_max)
../RansacSoftware_bsp//newlib/nios2-elf/lib\libc.a(lib_a-lseekr.o)
                              ../RansacSoftware_bsp//newlib/nios2-elf/lib\libc.a(lib_a-stdio.o) (_lseek_r)
../RansacSoftware_bsp//newlib/nios2-elf/lib\libc.a(lib_a-mbrtowc.o)
                              ../RansacSoftware_bsp//newlib/nios2-elf/lib\libc.a(lib_a-vfscanf.o) (_mbrtowc_r)
../RansacSoftware_bsp//newlib/nios2-elf/lib\libc.a(lib_a-mbtowc_r.o)
                              ../RansacSoftware_bsp//newlib/nios2-elf/lib\libc.a(lib_a-mbrtowc.o) (__mbtowc)
../RansacSoftware_bsp//newlib/nios2-elf/lib\libc.a(lib_a-memchr.o)
                              ../RansacSoftware_bsp//newlib/nios2-elf/lib\libc.a(lib_a-vfprintf.o) (memchr)
../RansacSoftware_bsp//newlib/nios2-elf/lib\libc.a(lib_a-memcpy.o)
                              ../RansacSoftware_bsp//newlib/nios2-elf/lib\libc.a(lib_a-dtoa.o) (memcpy)
../RansacSoftware_bsp//newlib/nios2-elf/lib\libc.a(lib_a-memmove.o)
                              ../RansacSoftware_bsp//newlib/nios2-elf/lib\libc.a(lib_a-fvwrite.o) (memmove)
../RansacSoftware_bsp//newlib/nios2-elf/lib\libc.a(lib_a-mprec.o)
                              ../RansacSoftware_bsp//newlib/nios2-elf/lib\libc.a(lib_a-dtoa.o) (_Balloc)
../RansacSoftware_bsp//newlib/nios2-elf/lib\libc.a(lib_a-readr.o)
                              ../RansacSoftware_bsp//newlib/nios2-elf/lib\libc.a(lib_a-stdio.o) (_read_r)
../RansacSoftware_bsp//newlib/nios2-elf/lib\libc.a(lib_a-reallocr.o)
                              ../RansacSoftware_bsp//newlib/nios2-elf/lib\libc.a(lib_a-fvwrite.o) (_realloc_r)
../RansacSoftware_bsp//newlib/nios2-elf/lib\libc.a(lib_a-s_fpclassify.o)
                              ../RansacSoftware_bsp//newlib/nios2-elf/lib\libc.a(lib_a-vfprintf.o) (__fpclassifyd)
../RansacSoftware_bsp//newlib/nios2-elf/lib\libc.a(lib_a-sccl.o)
                              ../RansacSoftware_bsp//newlib/nios2-elf/lib\libc.a(lib_a-vfscanf.o) (__sccl)
../RansacSoftware_bsp//newlib/nios2-elf/lib\libc.a(lib_a-sf_nan.o)
                              ../RansacSoftware_bsp//newlib/nios2-elf/lib\libc.a(lib_a-vfscanf.o) (nanf)
../RansacSoftware_bsp//newlib/nios2-elf/lib\libc.a(lib_a-sprintf.o)
                              ../RansacSoftware_bsp//newlib/nios2-elf/lib\libc.a(lib_a-vfscanf.o) (sprintf)
../RansacSoftware_bsp//newlib/nios2-elf/lib\libc.a(lib_a-strcmp.o)
                              ../RansacSoftware_bsp//newlib/nios2-elf/lib\libc.a(lib_a-locale.o) (strcmp)
../RansacSoftware_bsp//newlib/nios2-elf/lib\libc.a(lib_a-strtod.o)
                              ../RansacSoftware_bsp//newlib/nios2-elf/lib\libc.a(lib_a-vfscanf.o) (_strtod_r)
../RansacSoftware_bsp//newlib/nios2-elf/lib\libc.a(lib_a-strtol.o)
                              ../RansacSoftware_bsp//newlib/nios2-elf/lib\libc.a(lib_a-vfscanf.o) (_strtol_r)
../RansacSoftware_bsp//newlib/nios2-elf/lib\libc.a(lib_a-strtoll_r.o)
                              ../RansacSoftware_bsp//newlib/nios2-elf/lib\libc.a(lib_a-vfscanf.o) (_strtoll_r)
../RansacSoftware_bsp//newlib/nios2-elf/lib\libc.a(lib_a-strtoul.o)
                              ../RansacSoftware_bsp//newlib/nios2-elf/lib\libc.a(lib_a-vfscanf.o) (_strtoul_r)
../RansacSoftware_bsp//newlib/nios2-elf/lib\libc.a(lib_a-strtoull_r.o)
                              ../RansacSoftware_bsp//newlib/nios2-elf/lib\libc.a(lib_a-vfscanf.o) (_strtoull_r)
../RansacSoftware_bsp//newlib/nios2-elf/lib\libc.a(lib_a-svfprintf.o)
                              ../RansacSoftware_bsp//newlib/nios2-elf/lib\libc.a(lib_a-sprintf.o) (___svfprintf_internal_r)
../RansacSoftware_bsp//newlib/nios2-elf/lib\libc.a(lib_a-ungetc.o)
                              ../RansacSoftware_bsp//newlib/nios2-elf/lib\libc.a(lib_a-vfscanf.o) (_ungetc_r)
../RansacSoftware_bsp//newlib/nios2-elf/lib\libc.a(lib_a-vfiprintf.o)
                              ../RansacSoftware_bsp//newlib/nios2-elf/lib\libc.a(lib_a-vfprintf.o) (__sprint_r)
../RansacSoftware_bsp//newlib/nios2-elf/lib\libc.a(lib_a-callocr.o)
                              ../RansacSoftware_bsp//newlib/nios2-elf/lib\libc.a(lib_a-mprec.o) (_calloc_r)
../RansacSoftware_bsp//newlib/nios2-elf/lib\libc.a(lib_a-fputwc.o)
                              ../RansacSoftware_bsp//newlib/nios2-elf/lib\libc.a(lib_a-vfiprintf.o) (_fputwc_r)
../RansacSoftware_bsp//newlib/nios2-elf/lib\libc.a(lib_a-gdtoa-gethex.o)
                              ../RansacSoftware_bsp//newlib/nios2-elf/lib\libc.a(lib_a-strtod.o) (__gethex)
../RansacSoftware_bsp//newlib/nios2-elf/lib\libc.a(lib_a-gdtoa-hexnan.o)
                              ../RansacSoftware_bsp//newlib/nios2-elf/lib\libc.a(lib_a-strtod.o) (__hexnan)
../RansacSoftware_bsp//newlib/nios2-elf/lib\libc.a(lib_a-strncmp.o)
                              ../RansacSoftware_bsp//newlib/nios2-elf/lib\libc.a(lib_a-strtod.o) (strncmp)
../RansacSoftware_bsp//newlib/nios2-elf/lib\libc.a(lib_a-svfiprintf.o)
                              ../RansacSoftware_bsp//newlib/nios2-elf/lib\libc.a(lib_a-svfprintf.o) (__ssprint_r)
../RansacSoftware_bsp//newlib/nios2-elf/lib\libc.a(lib_a-wcrtomb.o)
                              ../RansacSoftware_bsp//newlib/nios2-elf/lib\libc.a(lib_a-fputwc.o) (_wcrtomb_r)
../RansacSoftware_bsp//newlib/nios2-elf/lib\libc.a(lib_a-wctomb_r.o)
                              ../RansacSoftware_bsp//newlib/nios2-elf/lib\libc.a(lib_a-wcrtomb.o) (__wctomb)
c:/intelfpga_lite/18.1/nios2eds/bin/gnu/h-x86_64-mingw32/bin/../lib/gcc/nios2-elf/5.3.0/mno-hw-mul\libgcc.a(_muldi3.o)
                              ../RansacSoftware_bsp//newlib/nios2-elf/lib\libc.a(lib_a-rand.o) (__muldi3)
c:/intelfpga_lite/18.1/nios2eds/bin/gnu/h-x86_64-mingw32/bin/../lib/gcc/nios2-elf/5.3.0/mno-hw-mul\libgcc.a(_fixunsdfsi.o)
                              ../RansacSoftware_bsp//newlib/nios2-elf/lib\libc.a(lib_a-strtod.o) (__fixunsdfsi)
c:/intelfpga_lite/18.1/nios2eds/bin/gnu/h-x86_64-mingw32/bin/../lib/gcc/nios2-elf/5.3.0/mno-hw-mul\libgcc.a(_udivdi3.o)
                              ../RansacSoftware_bsp//newlib/nios2-elf/lib\libc.a(lib_a-vfprintf.o) (__udivdi3)
c:/intelfpga_lite/18.1/nios2eds/bin/gnu/h-x86_64-mingw32/bin/../lib/gcc/nios2-elf/5.3.0/mno-hw-mul\libgcc.a(_umoddi3.o)
                              ../RansacSoftware_bsp//newlib/nios2-elf/lib\libc.a(lib_a-vfprintf.o) (__umoddi3)
c:/intelfpga_lite/18.1/nios2eds/bin/gnu/h-x86_64-mingw32/bin/../lib/gcc/nios2-elf/5.3.0/mno-hw-mul\libgcc.a(eqdf2.o)
                              ../RansacSoftware_bsp//newlib/nios2-elf/lib\libc.a(lib_a-vfprintf.o) (__eqdf2)
c:/intelfpga_lite/18.1/nios2eds/bin/gnu/h-x86_64-mingw32/bin/../lib/gcc/nios2-elf/5.3.0/mno-hw-mul\libgcc.a(floatunsidf.o)
                              ../RansacSoftware_bsp//newlib/nios2-elf/lib\libc.a(lib_a-dtoa.o) (__floatunsidf)
../RansacSoftware_bsp/\libhal_bsp.a(alt_close.o)
                              ../RansacSoftware_bsp//newlib/nios2-elf/lib\libc.a(closer.o) (close)
../RansacSoftware_bsp/\libhal_bsp.a(alt_dev.o)
                              ../RansacSoftware_bsp/\libhal_bsp.a(alt_close.o) (alt_fd_list)
../RansacSoftware_bsp/\libhal_bsp.a(alt_errno.o)
                              ../RansacSoftware_bsp/\libhal_bsp.a(alt_close.o) (alt_errno)
../RansacSoftware_bsp/\libhal_bsp.a(alt_exit.o)
                              ../RansacSoftware_bsp//newlib/nios2-elf/lib\libc.a(lib_a-exit.o) (_exit)
../RansacSoftware_bsp/\libhal_bsp.a(alt_fstat.o)
                              ../RansacSoftware_bsp//newlib/nios2-elf/lib\libc.a(lib_a-fstatr.o) (fstat)
../RansacSoftware_bsp/\libhal_bsp.a(alt_isatty.o)
                              ../RansacSoftware_bsp//newlib/nios2-elf/lib\libc.a(lib_a-isattyr.o) (isatty)
../RansacSoftware_bsp/\libhal_bsp.a(alt_load.o)
                              ../RansacSoftware_bsp//obj/HAL/src/crt0.o (alt_load)
../RansacSoftware_bsp/\libhal_bsp.a(alt_lseek.o)
                              ../RansacSoftware_bsp//newlib/nios2-elf/lib\libc.a(lib_a-lseekr.o) (lseek)
../RansacSoftware_bsp/\libhal_bsp.a(alt_main.o)
                              ../RansacSoftware_bsp//obj/HAL/src/crt0.o (alt_main)
../RansacSoftware_bsp/\libhal_bsp.a(alt_malloc_lock.o)
                              ../RansacSoftware_bsp//newlib/nios2-elf/lib\libc.a(lib_a-freer.o) (__malloc_lock)
../RansacSoftware_bsp/\libhal_bsp.a(alt_open.o)
                              ../RansacSoftware_bsp//newlib/nios2-elf/lib\libc.a(lib_a-openr.o) (open)
../RansacSoftware_bsp/\libhal_bsp.a(alt_read.o)
                              ../RansacSoftware_bsp//newlib/nios2-elf/lib\libc.a(lib_a-readr.o) (read)
../RansacSoftware_bsp/\libhal_bsp.a(alt_release_fd.o)
                              ../RansacSoftware_bsp/\libhal_bsp.a(alt_close.o) (alt_release_fd)
../RansacSoftware_bsp/\libhal_bsp.a(alt_sbrk.o)
                              ../RansacSoftware_bsp//newlib/nios2-elf/lib\libc.a(lib_a-sbrkr.o) (sbrk)
../RansacSoftware_bsp/\libhal_bsp.a(alt_write.o)
                              ../RansacSoftware_bsp//newlib/nios2-elf/lib\libc.a(lib_a-writer.o) (write)
../RansacSoftware_bsp/\libhal_bsp.a(alt_sys_init.o)
                              ../RansacSoftware_bsp/\libhal_bsp.a(alt_main.o) (alt_irq_init)
../RansacSoftware_bsp/\libhal_bsp.a(altera_avalon_jtag_uart_fd.o)
                              ../RansacSoftware_bsp/\libhal_bsp.a(alt_sys_init.o) (altera_avalon_jtag_uart_read_fd)
../RansacSoftware_bsp/\libhal_bsp.a(altera_avalon_jtag_uart_init.o)
                              ../RansacSoftware_bsp/\libhal_bsp.a(alt_sys_init.o) (altera_avalon_jtag_uart_init)
../RansacSoftware_bsp/\libhal_bsp.a(altera_avalon_jtag_uart_ioctl.o)
                              ../RansacSoftware_bsp/\libhal_bsp.a(altera_avalon_jtag_uart_fd.o) (altera_avalon_jtag_uart_ioctl)
../RansacSoftware_bsp/\libhal_bsp.a(altera_avalon_jtag_uart_read.o)
                              ../RansacSoftware_bsp/\libhal_bsp.a(altera_avalon_jtag_uart_fd.o) (altera_avalon_jtag_uart_read)
../RansacSoftware_bsp/\libhal_bsp.a(altera_avalon_jtag_uart_write.o)
                              ../RansacSoftware_bsp/\libhal_bsp.a(altera_avalon_jtag_uart_fd.o) (altera_avalon_jtag_uart_write)
../RansacSoftware_bsp/\libhal_bsp.a(altera_hostfs.o)
                              ../RansacSoftware_bsp/\libhal_bsp.a(alt_sys_init.o) (alt_hostfs_open)
../RansacSoftware_bsp/\libhal_bsp.a(alt_alarm_start.o)
                              ../RansacSoftware_bsp/\libhal_bsp.a(altera_avalon_jtag_uart_init.o) (alt_alarm_start)
../RansacSoftware_bsp/\libhal_bsp.a(alt_dcache_flush_all.o)
                              ../RansacSoftware_bsp/\libhal_bsp.a(alt_load.o) (alt_dcache_flush_all)
../RansacSoftware_bsp/\libhal_bsp.a(alt_dev_llist_insert.o)
                              ../RansacSoftware_bsp/\libhal_bsp.a(alt_sys_init.o) (alt_dev_llist_insert)
../RansacSoftware_bsp/\libhal_bsp.a(alt_do_ctors.o)
                              ../RansacSoftware_bsp/\libhal_bsp.a(alt_main.o) (_do_ctors)
../RansacSoftware_bsp/\libhal_bsp.a(alt_do_dtors.o)
                              ../RansacSoftware_bsp/\libhal_bsp.a(alt_main.o) (_do_dtors)
../RansacSoftware_bsp/\libhal_bsp.a(alt_find_dev.o)
                              ../RansacSoftware_bsp/\libhal_bsp.a(alt_open.o) (alt_find_dev)
../RansacSoftware_bsp/\libhal_bsp.a(alt_find_file.o)
                              ../RansacSoftware_bsp/\libhal_bsp.a(alt_open.o) (alt_find_file)
../RansacSoftware_bsp/\libhal_bsp.a(alt_fs_reg.o)
                              ../RansacSoftware_bsp/\libhal_bsp.a(alt_sys_init.o) (alt_fs_reg)
../RansacSoftware_bsp/\libhal_bsp.a(alt_get_fd.o)
                              ../RansacSoftware_bsp/\libhal_bsp.a(alt_open.o) (alt_get_fd)
../RansacSoftware_bsp/\libhal_bsp.a(alt_icache_flush_all.o)
                              ../RansacSoftware_bsp/\libhal_bsp.a(alt_load.o) (alt_icache_flush_all)
../RansacSoftware_bsp/\libhal_bsp.a(alt_iic.o)
                              ../RansacSoftware_bsp/\libhal_bsp.a(altera_avalon_jtag_uart_init.o) (alt_ic_isr_register)
../RansacSoftware_bsp/\libhal_bsp.a(alt_iic_isr_register.o)
                              ../RansacSoftware_bsp/\libhal_bsp.a(alt_iic.o) (alt_iic_isr_register)
../RansacSoftware_bsp/\libhal_bsp.a(alt_io_redirect.o)
                              ../RansacSoftware_bsp/\libhal_bsp.a(alt_main.o) (alt_io_redirect)
../RansacSoftware_bsp/\libhal_bsp.a(alt_irq_entry.o)
                              ../RansacSoftware_bsp/\libhal_bsp.a(alt_iic_isr_register.o) (alt_irq_entry)
../RansacSoftware_bsp/\libhal_bsp.a(alt_irq_handler.o)
                              ../RansacSoftware_bsp/\libhal_bsp.a(alt_iic_isr_register.o) (alt_irq)
../RansacSoftware_bsp/\libhal_bsp.a(alt_irq_vars.o)
                              ../RansacSoftware_bsp/\libhal_bsp.a(alt_iic.o) (alt_irq_active)
../RansacSoftware_bsp/\libhal_bsp.a(alt_tick.o)
                              ../RansacSoftware_bsp/\libhal_bsp.a(altera_avalon_jtag_uart_init.o) (_alt_tick_rate)
../RansacSoftware_bsp/\libhal_bsp.a(altera_nios2_gen2_irq.o)
                              ../RansacSoftware_bsp/\libhal_bsp.a(alt_sys_init.o) (altera_nios2_gen2_irq_init)
../RansacSoftware_bsp/\libhal_bsp.a(alt_exception_entry.o)
                              ../RansacSoftware_bsp/\libhal_bsp.a(alt_irq_entry.o) (alt_exception)
../RansacSoftware_bsp/\libhal_bsp.a(alt_instruction_exception_entry.o)
                              ../RansacSoftware_bsp/\libhal_bsp.a(alt_exception_entry.o) (alt_instruction_exception_entry)
../RansacSoftware_bsp//newlib/nios2-elf/lib\libc.a(lib_a-atexit.o)
                              ../RansacSoftware_bsp/\libhal_bsp.a(alt_main.o) (atexit)
../RansacSoftware_bsp//newlib/nios2-elf/lib\libc.a(lib_a-memcmp.o)
                              ../RansacSoftware_bsp/\libhal_bsp.a(alt_find_dev.o) (memcmp)
../RansacSoftware_bsp//newlib/nios2-elf/lib\libc.a(lib_a-__atexit.o)
                              ../RansacSoftware_bsp//newlib/nios2-elf/lib\libc.a(lib_a-atexit.o) (__register_exitproc)

Allocating common symbols
Common symbol       size              file

alt_irq             0x100             ../RansacSoftware_bsp/\libhal_bsp.a(alt_irq_handler.o)
getAngleFromModel_counter
                    0x4               obj/default/main.o
errno               0x4               ../RansacSoftware_bsp//newlib/nios2-elf/lib\libc.a(lib_a-int_errno.o)
inliersOutliers_counter
                    0x4               obj/default/main.o
calculateIntersection_counter
                    0x4               obj/default/main.o
square_root_counter
                    0x4               obj/default/main.o
coefficientOfDetermination_counter
                    0x4               obj/default/main.o
inliersOutliersMemory_counter
                    0x4               obj/default/main.o
leastSquare_counter
                    0x4               obj/default/main.o
squareDistanceBetweenPoints_counter
                    0x4               obj/default/main.o

Memory Configuration

Name             Origin             Length             Attributes
MemoriaDados     0x0000000000000000 0x0000000000010000
reset            0x0000000000080000 0x0000000000000020
MemoriaPrograma  0x0000000000080020 0x0000000000031fe0
*default*        0x0000000000000000 0xffffffffffffffff

Linker script and memory map

LOAD ../RansacSoftware_bsp//obj/HAL/src/crt0.o
LOAD obj/default/main.o
LOAD obj/default/ransac.o
LOAD c:/intelfpga_lite/18.1/nios2eds/bin/gnu/h-x86_64-mingw32/bin/../lib/gcc/nios2-elf/5.3.0/../../../../../H-x86_64-mingw32/nios2-elf/lib/mno-hw-mul\libstdc++.a
LOAD ../RansacSoftware_bsp//newlib/nios2-elf/lib\libm.a
LOAD c:/intelfpga_lite/18.1/nios2eds/bin/gnu/h-x86_64-mingw32/bin/../lib/gcc/nios2-elf/5.3.0/mno-hw-mul\libgcc.a
START GROUP
LOAD ../RansacSoftware_bsp//newlib/nios2-elf/lib\libc.a
LOAD c:/intelfpga_lite/18.1/nios2eds/bin/gnu/h-x86_64-mingw32/bin/../lib/gcc/nios2-elf/5.3.0/mno-hw-mul\libgcc.a
LOAD ../RansacSoftware_bsp/\libhal_bsp.a
LOAD ../RansacSoftware_bsp//newlib/nios2-elf/lib\libm.a
END GROUP
LOAD c:/intelfpga_lite/18.1/nios2eds/bin/gnu/h-x86_64-mingw32/bin/../lib/gcc/nios2-elf/5.3.0/mno-hw-mul\libgcc.a
                0x0000000000000000                __alt_mem_MemoriaDados = 0x0
                0x0000000000080000                __alt_mem_MemoriaPrograma = 0x80000

.entry          0x0000000000080000       0x20
 *(.entry)
 .entry         0x0000000000080000       0x20 ../RansacSoftware_bsp//obj/HAL/src/crt0.o
                0x0000000000080000                __reset

.exceptions     0x0000000000080020      0x210
                0x0000000000080020                PROVIDE (__ram_exceptions_start, ABSOLUTE (.))
                0x0000000000080020                . = ALIGN (0x20)
 *(.irq)
 *(.exceptions.entry.label)
 .exceptions.entry.label
                0x0000000000080020        0x0 ../RansacSoftware_bsp/\libhal_bsp.a(alt_irq_entry.o)
                0x0000000000080020                alt_irq_entry
 .exceptions.entry.label
                0x0000000000080020        0x0 ../RansacSoftware_bsp/\libhal_bsp.a(alt_exception_entry.o)
                0x0000000000080020                alt_exception
 *(.exceptions.entry.user)
 *(.exceptions.entry.ecc_fatal)
 *(.exceptions.entry)
 .exceptions.entry
                0x0000000000080020       0x54 ../RansacSoftware_bsp/\libhal_bsp.a(alt_exception_entry.o)
 *(.exceptions.irqtest.user)
 *(.exceptions.irqtest)
 .exceptions.irqtest
                0x0000000000080074       0x10 ../RansacSoftware_bsp/\libhal_bsp.a(alt_irq_entry.o)
 *(.exceptions.irqhandler.user)
 *(.exceptions.irqhandler)
 .exceptions.irqhandler
                0x0000000000080084        0x4 ../RansacSoftware_bsp/\libhal_bsp.a(alt_irq_entry.o)
 *(.exceptions.irqreturn.user)
 *(.exceptions.irqreturn)
 .exceptions.irqreturn
                0x0000000000080088        0x4 ../RansacSoftware_bsp/\libhal_bsp.a(alt_irq_entry.o)
 *(.exceptions.notirq.label)
 .exceptions.notirq.label
                0x000000000008008c        0x0 ../RansacSoftware_bsp/\libhal_bsp.a(alt_irq_entry.o)
 *(.exceptions.notirq.user)
 *(.exceptions.notirq)
 .exceptions.notirq
                0x000000000008008c        0x8 ../RansacSoftware_bsp/\libhal_bsp.a(alt_exception_entry.o)
 *(.exceptions.soft.user)
 *(.exceptions.soft)
 *(.exceptions.unknown.user)
 *(.exceptions.unknown)
 .exceptions.unknown
                0x0000000000080094       0x14 ../RansacSoftware_bsp/\libhal_bsp.a(alt_exception_entry.o)
 *(.exceptions.exit.label)
 .exceptions.exit.label
                0x00000000000800a8        0x0 ../RansacSoftware_bsp/\libhal_bsp.a(alt_irq_entry.o)
 .exceptions.exit.label
                0x00000000000800a8        0x0 ../RansacSoftware_bsp/\libhal_bsp.a(alt_exception_entry.o)
 *(.exceptions.exit.user)
 *(.exceptions.exit)
 .exceptions.exit
                0x00000000000800a8       0x54 ../RansacSoftware_bsp/\libhal_bsp.a(alt_exception_entry.o)
 *(.exceptions)
 .exceptions    0x00000000000800fc       0xd4 ../RansacSoftware_bsp/\libhal_bsp.a(alt_irq_handler.o)
                0x00000000000800fc                alt_irq_handler
 .exceptions    0x00000000000801d0       0x60 ../RansacSoftware_bsp/\libhal_bsp.a(alt_instruction_exception_entry.o)
                0x00000000000801d0                alt_instruction_exception_entry
                0x0000000000080230                PROVIDE (__ram_exceptions_end, ABSOLUTE (.))
                0x0000000000080020                PROVIDE (__flash_exceptions_start, LOADADDR (.exceptions))

.text           0x0000000000080230    0x2080c
                [!provide]                        PROVIDE (stext, ABSOLUTE (.))
 *(.interp)
 *(.hash)
 *(.dynsym)
 *(.dynstr)
 *(.gnu.version)
 *(.gnu.version_d)
 *(.gnu.version_r)
 *(.rel.init)
 *(.rela.init)
 *(.rel.text .rel.text.* .rel.gnu.linkonce.t.*)
 *(.rela.text .rela.text.* .rela.gnu.linkonce.t.*)
 *(.rel.fini)
 *(.rela.fini)
 *(.rel.rodata .rel.rodata.* .rel.gnu.linkonce.r.*)
 *(.rela.rodata .rela.rodata.* .rela.gnu.linkonce.r.*)
 *(.rel.data .rel.data.* .rel.gnu.linkonce.d.*)
 *(.rela.data .rela.data.* .rela.gnu.linkonce.d.*)
 *(.rel.tdata .rel.tdata.* .rel.gnu.linkonce.td.*)
 *(.rela.tdata .rela.tdata.* .rela.gnu.linkonce.td.*)
 *(.rel.tbss .rel.tbss.* .rel.gnu.linkonce.tb.*)
 *(.rela.tbss .rela.tbss.* .rela.gnu.linkonce.tb.*)
 *(.rel.ctors)
 *(.rela.ctors)
 *(.rel.dtors)
 *(.rela.dtors)
 *(.rel.got)
 *(.rela.got)
 *(.rel.sdata .rel.sdata.* .rel.gnu.linkonce.s.*)
 *(.rela.sdata .rela.sdata.* .rela.gnu.linkonce.s.*)
 *(.rel.sbss .rel.sbss.* .rel.gnu.linkonce.sb.*)
 *(.rela.sbss .rela.sbss.* .rela.gnu.linkonce.sb.*)
 *(.rel.sdata2 .rel.sdata2.* .rel.gnu.linkonce.s2.*)
 *(.rela.sdata2 .rela.sdata2.* .rela.gnu.linkonce.s2.*)
 *(.rel.sbss2 .rel.sbss2.* .rel.gnu.linkonce.sb2.*)
 *(.rela.sbss2 .rela.sbss2.* .rela.gnu.linkonce.sb2.*)
 *(.rel.bss .rel.bss.* .rel.gnu.linkonce.b.*)
 *(.rela.bss .rela.bss.* .rela.gnu.linkonce.b.*)
 *(.rel.plt)
 *(.rela.plt)
 *(.rel.dyn)
 *(.init)
 *(.plt)
 *(.text .stub .text.* .gnu.linkonce.t.*)
 .text          0x0000000000080230       0x3c ../RansacSoftware_bsp//obj/HAL/src/crt0.o
                0x0000000000080230                _start
 .text          0x000000000008026c      0x55c obj/default/main.o
                0x000000000008026c                main
 .text          0x00000000000807c8      0xf88 obj/default/ransac.o
                0x00000000000807c8                square_root
                0x0000000000080898                calculateIntersection
                0x000000000008097c                getAngleFromModel
                0x0000000000080a30                leastSquare
                0x0000000000080c60                coefficientOfDetermination
                0x0000000000080dc0                inliersOutliersMemory
                0x0000000000080fc0                inliersOutliers
                0x00000000000811c8                checkModel
                0x00000000000813a8                squareDistanceBetweenPoints
                0x0000000000081478                RANSAC
 .text          0x0000000000081750        0x0 ../RansacSoftware_bsp//newlib/nios2-elf/lib\libm.a(lib_a-s_atan.o)
 .text.atan     0x0000000000081750      0xa14 ../RansacSoftware_bsp//newlib/nios2-elf/lib\libm.a(lib_a-s_atan.o)
                0x0000000000081750                atan
 .text          0x0000000000082164        0x0 ../RansacSoftware_bsp//newlib/nios2-elf/lib\libm.a(lib_a-s_fabs.o)
 .text.fabs     0x0000000000082164       0x88 ../RansacSoftware_bsp//newlib/nios2-elf/lib\libm.a(lib_a-s_fabs.o)
                0x0000000000082164                fabs
 .text          0x00000000000821ec      0x1b4 c:/intelfpga_lite/18.1/nios2eds/bin/gnu/h-x86_64-mingw32/bin/../lib/gcc/nios2-elf/5.3.0/mno-hw-mul\libgcc.a(lib2-divmod.o)
                0x00000000000821ec                __divsi3
                0x0000000000082270                __modsi3
                0x00000000000822e4                __udivsi3
                0x0000000000082348                __umodsi3
 .text          0x00000000000823a0       0x28 c:/intelfpga_lite/18.1/nios2eds/bin/gnu/h-x86_64-mingw32/bin/../lib/gcc/nios2-elf/5.3.0/mno-hw-mul\libgcc.a(lib2-mul.o)
                0x00000000000823a0                __mulsi3
 .text          0x00000000000823c8      0x8ac c:/intelfpga_lite/18.1/nios2eds/bin/gnu/h-x86_64-mingw32/bin/../lib/gcc/nios2-elf/5.3.0/mno-hw-mul\libgcc.a(adddf3.o)
                0x00000000000823c8                __adddf3
 .text          0x0000000000082c74      0x9d0 c:/intelfpga_lite/18.1/nios2eds/bin/gnu/h-x86_64-mingw32/bin/../lib/gcc/nios2-elf/5.3.0/mno-hw-mul\libgcc.a(divdf3.o)
                0x0000000000082c74                __divdf3
 .text          0x0000000000083644       0xdc c:/intelfpga_lite/18.1/nios2eds/bin/gnu/h-x86_64-mingw32/bin/../lib/gcc/nios2-elf/5.3.0/mno-hw-mul\libgcc.a(gedf2.o)
                0x0000000000083644                __gedf2
                0x0000000000083644                __gtdf2
 .text          0x0000000000083720       0xf4 c:/intelfpga_lite/18.1/nios2eds/bin/gnu/h-x86_64-mingw32/bin/../lib/gcc/nios2-elf/5.3.0/mno-hw-mul\libgcc.a(ledf2.o)
                0x0000000000083720                __ledf2
                0x0000000000083720                __ltdf2
 .text          0x0000000000083814      0x86c c:/intelfpga_lite/18.1/nios2eds/bin/gnu/h-x86_64-mingw32/bin/../lib/gcc/nios2-elf/5.3.0/mno-hw-mul\libgcc.a(muldf3.o)
                0x0000000000083814                __muldf3
 .text          0x0000000000084080      0x8fc c:/intelfpga_lite/18.1/nios2eds/bin/gnu/h-x86_64-mingw32/bin/../lib/gcc/nios2-elf/5.3.0/mno-hw-mul\libgcc.a(subdf3.o)
                0x0000000000084080                __subdf3
 .text          0x000000000008497c       0x80 c:/intelfpga_lite/18.1/nios2eds/bin/gnu/h-x86_64-mingw32/bin/../lib/gcc/nios2-elf/5.3.0/mno-hw-mul\libgcc.a(fixdfsi.o)
                0x000000000008497c                __fixdfsi
 .text          0x00000000000849fc       0xdc c:/intelfpga_lite/18.1/nios2eds/bin/gnu/h-x86_64-mingw32/bin/../lib/gcc/nios2-elf/5.3.0/mno-hw-mul\libgcc.a(floatsidf.o)
                0x00000000000849fc                __floatsidf
 .text          0x0000000000084ad8      0x110 c:/intelfpga_lite/18.1/nios2eds/bin/gnu/h-x86_64-mingw32/bin/../lib/gcc/nios2-elf/5.3.0/mno-hw-mul\libgcc.a(extendsfdf2.o)
                0x0000000000084ad8                __extendsfdf2
 .text          0x0000000000084be8      0x1a8 c:/intelfpga_lite/18.1/nios2eds/bin/gnu/h-x86_64-mingw32/bin/../lib/gcc/nios2-elf/5.3.0/mno-hw-mul\libgcc.a(truncdfsf2.o)
                0x0000000000084be8                __truncdfsf2
 .text          0x0000000000084d90       0x64 c:/intelfpga_lite/18.1/nios2eds/bin/gnu/h-x86_64-mingw32/bin/../lib/gcc/nios2-elf/5.3.0/mno-hw-mul\libgcc.a(_clzsi2.o)
                0x0000000000084d90                __clzsi2
 .text          0x0000000000084df4        0x0 c:/intelfpga_lite/18.1/nios2eds/bin/gnu/h-x86_64-mingw32/bin/../lib/gcc/nios2-elf/5.3.0/mno-hw-mul\libgcc.a(_clz.o)
 .text          0x0000000000084df4        0x0 ../RansacSoftware_bsp//newlib/nios2-elf/lib\libc.a(lib_a-exit.o)
 .text.exit     0x0000000000084df4       0x48 ../RansacSoftware_bsp//newlib/nios2-elf/lib\libc.a(lib_a-exit.o)
                0x0000000000084df4                exit
 .text          0x0000000000084e3c        0x0 ../RansacSoftware_bsp//newlib/nios2-elf/lib\libc.a(lib_a-fclose.o)
 .text._fclose_r
                0x0000000000084e3c      0x12c ../RansacSoftware_bsp//newlib/nios2-elf/lib\libc.a(lib_a-fclose.o)
                0x0000000000084e3c                _fclose_r
 .text.fclose   0x0000000000084f68       0x38 ../RansacSoftware_bsp//newlib/nios2-elf/lib\libc.a(lib_a-fclose.o)
                0x0000000000084f68                fclose
 .text          0x0000000000084fa0        0x0 ../RansacSoftware_bsp//newlib/nios2-elf/lib\libc.a(lib_a-fflush.o)
 .text.__sflush_r
                0x0000000000084fa0      0x304 ../RansacSoftware_bsp//newlib/nios2-elf/lib\libc.a(lib_a-fflush.o)
                0x0000000000084fa0                __sflush_r
 .text._fflush_r
                0x00000000000852a4       0x88 ../RansacSoftware_bsp//newlib/nios2-elf/lib\libc.a(lib_a-fflush.o)
                0x00000000000852a4                _fflush_r
 .text.fflush   0x000000000008532c       0x54 ../RansacSoftware_bsp//newlib/nios2-elf/lib\libc.a(lib_a-fflush.o)
                0x000000000008532c                fflush
 .text          0x0000000000085380        0x0 ../RansacSoftware_bsp//newlib/nios2-elf/lib\libc.a(lib_a-findfp.o)
 .text.std      0x0000000000085380       0xf4 ../RansacSoftware_bsp//newlib/nios2-elf/lib\libc.a(lib_a-findfp.o)
 .text.__sfmoreglue
                0x0000000000085474       0xbc ../RansacSoftware_bsp//newlib/nios2-elf/lib\libc.a(lib_a-findfp.o)
                0x0000000000085474                __sfmoreglue
 .text.__sfp    0x0000000000085530      0x194 ../RansacSoftware_bsp//newlib/nios2-elf/lib\libc.a(lib_a-findfp.o)
                0x0000000000085530                __sfp
 .text._cleanup_r
                0x00000000000856c4       0x44 ../RansacSoftware_bsp//newlib/nios2-elf/lib\libc.a(lib_a-findfp.o)
                0x00000000000856c4                _cleanup_r
 .text._cleanup
                0x0000000000085708       0x34 ../RansacSoftware_bsp//newlib/nios2-elf/lib\libc.a(lib_a-findfp.o)
                0x0000000000085708                _cleanup
 .text.__sinit  0x000000000008573c       0xd8 ../RansacSoftware_bsp//newlib/nios2-elf/lib\libc.a(lib_a-findfp.o)
                0x000000000008573c                __sinit
 .text.__sfp_lock_acquire
                0x0000000000085814       0x20 ../RansacSoftware_bsp//newlib/nios2-elf/lib\libc.a(lib_a-findfp.o)
                0x0000000000085814                __sfp_lock_acquire
 .text.__sfp_lock_release
                0x0000000000085834       0x20 ../RansacSoftware_bsp//newlib/nios2-elf/lib\libc.a(lib_a-findfp.o)
                0x0000000000085834                __sfp_lock_release
 .text.__sinit_lock_acquire
                0x0000000000085854       0x20 ../RansacSoftware_bsp//newlib/nios2-elf/lib\libc.a(lib_a-findfp.o)
                0x0000000000085854                __sinit_lock_acquire
 .text.__sinit_lock_release
                0x0000000000085874       0x20 ../RansacSoftware_bsp//newlib/nios2-elf/lib\libc.a(lib_a-findfp.o)
                0x0000000000085874                __sinit_lock_release
 .text.__fp_lock
                0x0000000000085894       0x24 ../RansacSoftware_bsp//newlib/nios2-elf/lib\libc.a(lib_a-findfp.o)
 .text.__fp_unlock
                0x00000000000858b8       0x24 ../RansacSoftware_bsp//newlib/nios2-elf/lib\libc.a(lib_a-findfp.o)
 .text.__fp_lock_all
                0x00000000000858dc       0x40 ../RansacSoftware_bsp//newlib/nios2-elf/lib\libc.a(lib_a-findfp.o)
                0x00000000000858dc                __fp_lock_all
 .text.__fp_unlock_all
                0x000000000008591c       0x40 ../RansacSoftware_bsp//newlib/nios2-elf/lib\libc.a(lib_a-findfp.o)
                0x000000000008591c                __fp_unlock_all
 .text          0x000000000008595c        0x0 ../RansacSoftware_bsp//newlib/nios2-elf/lib\libc.a(lib_a-fopen.o)
 .text._fopen_r
                0x000000000008595c      0x120 ../RansacSoftware_bsp//newlib/nios2-elf/lib\libc.a(lib_a-fopen.o)
                0x000000000008595c                _fopen_r
 .text.fopen    0x0000000000085a7c       0x40 ../RansacSoftware_bsp//newlib/nios2-elf/lib\libc.a(lib_a-fopen.o)
                0x0000000000085a7c                fopen
 .text          0x0000000000085abc        0x0 ../RansacSoftware_bsp//newlib/nios2-elf/lib\libc.a(lib_a-fprintf.o)
 .text._fprintf_r
                0x0000000000085abc       0x58 ../RansacSoftware_bsp//newlib/nios2-elf/lib\libc.a(lib_a-fprintf.o)
                0x0000000000085abc                _fprintf_r
 .text.fprintf  0x0000000000085b14       0x58 ../RansacSoftware_bsp//newlib/nios2-elf/lib\libc.a(lib_a-fprintf.o)
                0x0000000000085b14                fprintf
 .text          0x0000000000085b6c        0x0 ../RansacSoftware_bsp//newlib/nios2-elf/lib\libc.a(lib_a-fputc.o)
 .text._fputc_r
                0x0000000000085b6c       0x6c ../RansacSoftware_bsp//newlib/nios2-elf/lib\libc.a(lib_a-fputc.o)
                0x0000000000085b6c                _fputc_r
 .text.fputc    0x0000000000085bd8       0x70 ../RansacSoftware_bsp//newlib/nios2-elf/lib\libc.a(lib_a-fputc.o)
                0x0000000000085bd8                fputc
 .text          0x0000000000085c48        0x0 ../RansacSoftware_bsp//newlib/nios2-elf/lib\libc.a(lib_a-freer.o)
 .text._free_r  0x0000000000085c48      0x560 ../RansacSoftware_bsp//newlib/nios2-elf/lib\libc.a(lib_a-freer.o)
                0x0000000000085c48                _free_r
 .text._malloc_trim_r
                0x00000000000861a8      0x1d0 ../RansacSoftware_bsp//newlib/nios2-elf/lib\libc.a(lib_a-freer.o)
                0x00000000000861a8                _malloc_trim_r
 .text          0x0000000000086378        0x0 ../RansacSoftware_bsp//newlib/nios2-elf/lib\libc.a(lib_a-fscanf.o)
 .text.fscanf   0x0000000000086378       0x60 ../RansacSoftware_bsp//newlib/nios2-elf/lib\libc.a(lib_a-fscanf.o)
                0x0000000000086378                fscanf
 .text._fscanf_r
                0x00000000000863d8       0x5c ../RansacSoftware_bsp//newlib/nios2-elf/lib\libc.a(lib_a-fscanf.o)
                0x00000000000863d8                _fscanf_r
 .text          0x0000000000086434        0x0 ../RansacSoftware_bsp//newlib/nios2-elf/lib\libc.a(lib_a-fseek.o)
 .text._fseek_r
                0x0000000000086434       0x48 ../RansacSoftware_bsp//newlib/nios2-elf/lib\libc.a(lib_a-fseek.o)
                0x0000000000086434                _fseek_r
 .text.fseek    0x000000000008647c       0x48 ../RansacSoftware_bsp//newlib/nios2-elf/lib\libc.a(lib_a-fseek.o)
                0x000000000008647c                fseek
 .text          0x00000000000864c4        0x0 ../RansacSoftware_bsp//newlib/nios2-elf/lib\libc.a(lib_a-fseeko.o)
 .text._fseeko_r
                0x00000000000864c4      0x63c ../RansacSoftware_bsp//newlib/nios2-elf/lib\libc.a(lib_a-fseeko.o)
                0x00000000000864c4                _fseeko_r
 .text.fseeko   0x0000000000086b00       0x48 ../RansacSoftware_bsp//newlib/nios2-elf/lib\libc.a(lib_a-fseeko.o)
                0x0000000000086b00                fseeko
 .text          0x0000000000086b48        0x0 ../RansacSoftware_bsp//newlib/nios2-elf/lib\libc.a(lib_a-fstatr.o)
 .text._fstat_r
                0x0000000000086b48       0x68 ../RansacSoftware_bsp//newlib/nios2-elf/lib\libc.a(lib_a-fstatr.o)
                0x0000000000086b48                _fstat_r
 .text          0x0000000000086bb0        0x0 ../RansacSoftware_bsp//newlib/nios2-elf/lib\libc.a(lib_a-fwalk.o)
 .text._fwalk   0x0000000000086bb0       0xd8 ../RansacSoftware_bsp//newlib/nios2-elf/lib\libc.a(lib_a-fwalk.o)
                0x0000000000086bb0                _fwalk
 .text._fwalk_reent
                0x0000000000086c88       0xdc ../RansacSoftware_bsp//newlib/nios2-elf/lib\libc.a(lib_a-fwalk.o)
                0x0000000000086c88                _fwalk_reent
 .text          0x0000000000086d64        0x0 ../RansacSoftware_bsp//newlib/nios2-elf/lib\libc.a(lib_a-fwrite.o)
 .text._fwrite_r
                0x0000000000086d64      0x10c ../RansacSoftware_bsp//newlib/nios2-elf/lib\libc.a(lib_a-fwrite.o)
                0x0000000000086d64                _fwrite_r
 .text.fwrite   0x0000000000086e70       0x54 ../RansacSoftware_bsp//newlib/nios2-elf/lib\libc.a(lib_a-fwrite.o)
                0x0000000000086e70                fwrite
 .text          0x0000000000086ec4        0x0 ../RansacSoftware_bsp//newlib/nios2-elf/lib\libc.a(lib_a-impure.o)
 .text          0x0000000000086ec4        0x0 ../RansacSoftware_bsp//newlib/nios2-elf/lib\libc.a(lib_a-int_errno.o)
 .text          0x0000000000086ec4        0x0 ../RansacSoftware_bsp//newlib/nios2-elf/lib\libc.a(lib_a-makebuf.o)
 .text.__smakebuf_r
                0x0000000000086ec4      0x22c ../RansacSoftware_bsp//newlib/nios2-elf/lib\libc.a(lib_a-makebuf.o)
                0x0000000000086ec4                __smakebuf_r
 .text          0x00000000000870f0        0x0 ../RansacSoftware_bsp//newlib/nios2-elf/lib\libc.a(lib_a-mallocr.o)
 .text.malloc_extend_top
                0x00000000000870f0      0x3b4 ../RansacSoftware_bsp//newlib/nios2-elf/lib\libc.a(lib_a-mallocr.o)
 .text._malloc_r
                0x00000000000874a4      0xb7c ../RansacSoftware_bsp//newlib/nios2-elf/lib\libc.a(lib_a-mallocr.o)
                0x00000000000874a4                _malloc_r
 .text          0x0000000000088020        0x0 ../RansacSoftware_bsp//newlib/nios2-elf/lib\libc.a(lib_a-memset.o)
 .text.memset   0x0000000000088020      0x1c4 ../RansacSoftware_bsp//newlib/nios2-elf/lib\libc.a(lib_a-memset.o)
                0x0000000000088020                memset
 .text          0x00000000000881e4        0x0 ../RansacSoftware_bsp//newlib/nios2-elf/lib\libc.a(lib_a-openr.o)
 .text._open_r  0x00000000000881e4       0x70 ../RansacSoftware_bsp//newlib/nios2-elf/lib\libc.a(lib_a-openr.o)
                0x00000000000881e4                _open_r
 .text          0x0000000000088254        0x0 ../RansacSoftware_bsp//newlib/nios2-elf/lib\libc.a(lib_a-putc.o)
 .text._putc_r  0x0000000000088254      0x104 ../RansacSoftware_bsp//newlib/nios2-elf/lib\libc.a(lib_a-putc.o)
                0x0000000000088254                _putc_r
 .text.putc     0x0000000000088358      0x108 ../RansacSoftware_bsp//newlib/nios2-elf/lib\libc.a(lib_a-putc.o)
                0x0000000000088358                putc
 .text          0x0000000000088460        0x0 ../RansacSoftware_bsp//newlib/nios2-elf/lib\libc.a(lib_a-puts.o)
 .text._puts_r  0x0000000000088460      0x118 ../RansacSoftware_bsp//newlib/nios2-elf/lib\libc.a(lib_a-puts.o)
                0x0000000000088460                _puts_r
 .text.puts     0x0000000000088578       0x38 ../RansacSoftware_bsp//newlib/nios2-elf/lib\libc.a(lib_a-puts.o)
                0x0000000000088578                puts
 .text          0x00000000000885b0        0x0 ../RansacSoftware_bsp//newlib/nios2-elf/lib\libc.a(lib_a-rand.o)
 .text.srand    0x00000000000885b0       0x44 ../RansacSoftware_bsp//newlib/nios2-elf/lib\libc.a(lib_a-rand.o)
                0x00000000000885b0                srand
 .text.rand     0x00000000000885f4       0xc8 ../RansacSoftware_bsp//newlib/nios2-elf/lib\libc.a(lib_a-rand.o)
                0x00000000000885f4                rand
 .text          0x00000000000886bc        0x0 ../RansacSoftware_bsp//newlib/nios2-elf/lib\libc.a(lib_a-refill.o)
 .text.lflush   0x00000000000886bc       0x50 ../RansacSoftware_bsp//newlib/nios2-elf/lib\libc.a(lib_a-refill.o)
 .text.__srefill_r
                0x000000000008870c      0x254 ../RansacSoftware_bsp//newlib/nios2-elf/lib\libc.a(lib_a-refill.o)
                0x000000000008870c                __srefill_r
 .text          0x0000000000088960        0x0 ../RansacSoftware_bsp//newlib/nios2-elf/lib\libc.a(lib_a-sbrkr.o)
 .text._sbrk_r  0x0000000000088960       0x60 ../RansacSoftware_bsp//newlib/nios2-elf/lib\libc.a(lib_a-sbrkr.o)
                0x0000000000088960                _sbrk_r
 .text          0x00000000000889c0        0x0 ../RansacSoftware_bsp//newlib/nios2-elf/lib\libc.a(lib_a-stdio.o)
 .text.__sread  0x00000000000889c0       0x9c ../RansacSoftware_bsp//newlib/nios2-elf/lib\libc.a(lib_a-stdio.o)
                0x00000000000889c0                __sread
 .text.__seofread
                0x0000000000088a5c       0x30 ../RansacSoftware_bsp//newlib/nios2-elf/lib\libc.a(lib_a-stdio.o)
                0x0000000000088a5c                __seofread
 .text.__swrite
                0x0000000000088a8c       0xb4 ../RansacSoftware_bsp//newlib/nios2-elf/lib\libc.a(lib_a-stdio.o)
                0x0000000000088a8c                __swrite
 .text.__sseek  0x0000000000088b40       0xa0 ../RansacSoftware_bsp//newlib/nios2-elf/lib\libc.a(lib_a-stdio.o)
                0x0000000000088b40                __sseek
 .text.__sclose
                0x0000000000088be0       0x54 ../RansacSoftware_bsp//newlib/nios2-elf/lib\libc.a(lib_a-stdio.o)
                0x0000000000088be0                __sclose
 .text          0x0000000000088c34        0x0 ../RansacSoftware_bsp//newlib/nios2-elf/lib\libc.a(lib_a-strlen.o)
 .text.strlen   0x0000000000088c34       0xf4 ../RansacSoftware_bsp//newlib/nios2-elf/lib\libc.a(lib_a-strlen.o)
                0x0000000000088c34                strlen
 .text          0x0000000000088d28        0x0 ../RansacSoftware_bsp//newlib/nios2-elf/lib\libc.a(lib_a-vfprintf.o)
 .text.__sbprintf
                0x0000000000088d28       0xf0 ../RansacSoftware_bsp//newlib/nios2-elf/lib\libc.a(lib_a-vfprintf.o)
 .text.__vfprintf_internal
                0x0000000000088e18       0x50 ../RansacSoftware_bsp//newlib/nios2-elf/lib\libc.a(lib_a-vfprintf.o)
                0x0000000000088e18                __vfprintf_internal
 .text.___vfprintf_internal_r
                0x0000000000088e68     0x20e8 ../RansacSoftware_bsp//newlib/nios2-elf/lib\libc.a(lib_a-vfprintf.o)
                0x0000000000088e68                ___vfprintf_internal_r
 .text.cvt      0x000000000008af50      0x20c ../RansacSoftware_bsp//newlib/nios2-elf/lib\libc.a(lib_a-vfprintf.o)
 .text.exponent
                0x000000000008b15c      0x140 ../RansacSoftware_bsp//newlib/nios2-elf/lib\libc.a(lib_a-vfprintf.o)
 .text          0x000000000008b29c        0x0 ../RansacSoftware_bsp//newlib/nios2-elf/lib\libc.a(lib_a-vfscanf.o)
 .text.vfscanf  0x000000000008b29c       0x78 ../RansacSoftware_bsp//newlib/nios2-elf/lib\libc.a(lib_a-vfscanf.o)
                0x000000000008b29c                vfscanf
 .text.__svfscanf
                0x000000000008b314       0x48 ../RansacSoftware_bsp//newlib/nios2-elf/lib\libc.a(lib_a-vfscanf.o)
                0x000000000008b314                __svfscanf
 .text._vfscanf_r
                0x000000000008b35c       0x74 ../RansacSoftware_bsp//newlib/nios2-elf/lib\libc.a(lib_a-vfscanf.o)
                0x000000000008b35c                _vfscanf_r
 .text.__svfscanf_r
                0x000000000008b3d0     0x1bb0 ../RansacSoftware_bsp//newlib/nios2-elf/lib\libc.a(lib_a-vfscanf.o)
                0x000000000008b3d0                __svfscanf_r
 .text          0x000000000008cf80        0x0 ../RansacSoftware_bsp//newlib/nios2-elf/lib\libc.a(lib_a-wbuf.o)
 .text.__swbuf_r
                0x000000000008cf80      0x168 ../RansacSoftware_bsp//newlib/nios2-elf/lib\libc.a(lib_a-wbuf.o)
                0x000000000008cf80                __swbuf_r
 .text.__swbuf  0x000000000008d0e8       0x40 ../RansacSoftware_bsp//newlib/nios2-elf/lib\libc.a(lib_a-wbuf.o)
                0x000000000008d0e8                __swbuf
 .text          0x000000000008d128        0x0 ../RansacSoftware_bsp//newlib/nios2-elf/lib\libc.a(lib_a-writer.o)
 .text._write_r
                0x000000000008d128       0x70 ../RansacSoftware_bsp//newlib/nios2-elf/lib\libc.a(lib_a-writer.o)
                0x000000000008d128                _write_r
 .text          0x000000000008d198        0x0 ../RansacSoftware_bsp//newlib/nios2-elf/lib\libc.a(lib_a-wsetup.o)
 .text.__swsetup_r
                0x000000000008d198      0x1a0 ../RansacSoftware_bsp//newlib/nios2-elf/lib\libc.a(lib_a-wsetup.o)
                0x000000000008d198                __swsetup_r
 .text          0x000000000008d338        0x0 ../RansacSoftware_bsp//newlib/nios2-elf/lib\libc.a(closer.o)
 .text._close_r
                0x000000000008d338       0x60 ../RansacSoftware_bsp//newlib/nios2-elf/lib\libc.a(closer.o)
                0x000000000008d338                _close_r
 .text          0x000000000008d398        0x0 ../RansacSoftware_bsp//newlib/nios2-elf/lib\libc.a(lib_a-__call_atexit.o)
 .text.__call_exitprocs
                0x000000000008d398      0x1ec ../RansacSoftware_bsp//newlib/nios2-elf/lib\libc.a(lib_a-__call_atexit.o)
                0x000000000008d398                __call_exitprocs
 .text          0x000000000008d584        0x0 ../RansacSoftware_bsp//newlib/nios2-elf/lib\libc.a(lib_a-ctype_.o)
 .text          0x000000000008d584        0x0 ../RansacSoftware_bsp//newlib/nios2-elf/lib\libc.a(lib_a-dtoa.o)
 .text.quorem   0x000000000008d584      0x3c4 ../RansacSoftware_bsp//newlib/nios2-elf/lib\libc.a(lib_a-dtoa.o)
 .text._dtoa_r  0x000000000008d948     0x1b78 ../RansacSoftware_bsp//newlib/nios2-elf/lib\libc.a(lib_a-dtoa.o)
                0x000000000008d948                _dtoa_r
 .text          0x000000000008f4c0        0x0 ../RansacSoftware_bsp//newlib/nios2-elf/lib\libc.a(lib_a-flags.o)
 .text.__sflags
                0x000000000008f4c0      0x12c ../RansacSoftware_bsp//newlib/nios2-elf/lib\libc.a(lib_a-flags.o)
                0x000000000008f4c0                __sflags
 .text          0x000000000008f5ec        0x0 ../RansacSoftware_bsp//newlib/nios2-elf/lib\libc.a(lib_a-fread.o)
 .text._fread_r
                0x000000000008f5ec      0x338 ../RansacSoftware_bsp//newlib/nios2-elf/lib\libc.a(lib_a-fread.o)
                0x000000000008f5ec                _fread_r
 .text.fread    0x000000000008f924       0x54 ../RansacSoftware_bsp//newlib/nios2-elf/lib\libc.a(lib_a-fread.o)
                0x000000000008f924                fread
 .text          0x000000000008f978        0x0 ../RansacSoftware_bsp//newlib/nios2-elf/lib\libc.a(lib_a-fvwrite.o)
 .text.__sfvwrite_r
                0x000000000008f978      0x5e8 ../RansacSoftware_bsp//newlib/nios2-elf/lib\libc.a(lib_a-fvwrite.o)
                0x000000000008f978                __sfvwrite_r
 .text          0x000000000008ff60        0x0 ../RansacSoftware_bsp//newlib/nios2-elf/lib\libc.a(lib_a-isattyr.o)
 .text._isatty_r
                0x000000000008ff60       0x60 ../RansacSoftware_bsp//newlib/nios2-elf/lib\libc.a(lib_a-isattyr.o)
                0x000000000008ff60                _isatty_r
 .text          0x000000000008ffc0        0x0 ../RansacSoftware_bsp//newlib/nios2-elf/lib\libc.a(lib_a-iswspace.o)
 .text.iswspace
                0x000000000008ffc0       0x50 ../RansacSoftware_bsp//newlib/nios2-elf/lib\libc.a(lib_a-iswspace.o)
                0x000000000008ffc0                iswspace
 .text          0x0000000000090010        0x0 ../RansacSoftware_bsp//newlib/nios2-elf/lib\libc.a(lib_a-locale.o)
 .text._setlocale_r
                0x0000000000090010       0x84 ../RansacSoftware_bsp//newlib/nios2-elf/lib\libc.a(lib_a-locale.o)
                0x0000000000090010                _setlocale_r
 .text.__locale_charset
                0x0000000000090094       0x24 ../RansacSoftware_bsp//newlib/nios2-elf/lib\libc.a(lib_a-locale.o)
                0x0000000000090094                __locale_charset
 .text.__locale_mb_cur_max
                0x00000000000900b8       0x20 ../RansacSoftware_bsp//newlib/nios2-elf/lib\libc.a(lib_a-locale.o)
                0x00000000000900b8                __locale_mb_cur_max
 .text.__locale_msgcharset
                0x00000000000900d8       0x24 ../RansacSoftware_bsp//newlib/nios2-elf/lib\libc.a(lib_a-locale.o)
                0x00000000000900d8                __locale_msgcharset
 .text.__locale_cjk_lang
                0x00000000000900fc       0x20 ../RansacSoftware_bsp//newlib/nios2-elf/lib\libc.a(lib_a-locale.o)
                0x00000000000900fc                __locale_cjk_lang
 .text._localeconv_r
                0x000000000009011c       0x28 ../RansacSoftware_bsp//newlib/nios2-elf/lib\libc.a(lib_a-locale.o)
                0x000000000009011c                _localeconv_r
 .text.setlocale
                0x0000000000090144       0x40 ../RansacSoftware_bsp//newlib/nios2-elf/lib\libc.a(lib_a-locale.o)
                0x0000000000090144                setlocale
 .text.localeconv
                0x0000000000090184       0x30 ../RansacSoftware_bsp//newlib/nios2-elf/lib\libc.a(lib_a-locale.o)
                0x0000000000090184                localeconv
 .text          0x00000000000901b4        0x0 ../RansacSoftware_bsp//newlib/nios2-elf/lib\libc.a(lib_a-lseekr.o)
 .text._lseek_r
                0x00000000000901b4       0x70 ../RansacSoftware_bsp//newlib/nios2-elf/lib\libc.a(lib_a-lseekr.o)
                0x00000000000901b4                _lseek_r
 .text          0x0000000000090224        0x0 ../RansacSoftware_bsp//newlib/nios2-elf/lib\libc.a(lib_a-mbrtowc.o)
 .text._mbrtowc_r
                0x0000000000090224       0xdc ../RansacSoftware_bsp//newlib/nios2-elf/lib\libc.a(lib_a-mbrtowc.o)
                0x0000000000090224                _mbrtowc_r
 .text.mbrtowc  0x0000000000090300       0xe4 ../RansacSoftware_bsp//newlib/nios2-elf/lib\libc.a(lib_a-mbrtowc.o)
                0x0000000000090300                mbrtowc
 .text          0x00000000000903e4        0x0 ../RansacSoftware_bsp//newlib/nios2-elf/lib\libc.a(lib_a-mbtowc_r.o)
 .text._mbtowc_r
                0x00000000000903e4       0x68 ../RansacSoftware_bsp//newlib/nios2-elf/lib\libc.a(lib_a-mbtowc_r.o)
                0x00000000000903e4                _mbtowc_r
 .text.__ascii_mbtowc
                0x000000000009044c       0x94 ../RansacSoftware_bsp//newlib/nios2-elf/lib\libc.a(lib_a-mbtowc_r.o)
                0x000000000009044c                __ascii_mbtowc
 .text          0x00000000000904e0        0x0 ../RansacSoftware_bsp//newlib/nios2-elf/lib\libc.a(lib_a-memchr.o)
 .text.memchr   0x00000000000904e0      0x1bc ../RansacSoftware_bsp//newlib/nios2-elf/lib\libc.a(lib_a-memchr.o)
                0x00000000000904e0                memchr
 .text          0x000000000009069c        0x0 ../RansacSoftware_bsp//newlib/nios2-elf/lib\libc.a(lib_a-memcpy.o)
 .text.memcpy   0x000000000009069c      0x188 ../RansacSoftware_bsp//newlib/nios2-elf/lib\libc.a(lib_a-memcpy.o)
                0x000000000009069c                memcpy
 .text          0x0000000000090824        0x0 ../RansacSoftware_bsp//newlib/nios2-elf/lib\libc.a(lib_a-memmove.o)
 .text.memmove  0x0000000000090824      0x208 ../RansacSoftware_bsp//newlib/nios2-elf/lib\libc.a(lib_a-memmove.o)
                0x0000000000090824                memmove
 .text          0x0000000000090a2c        0x0 ../RansacSoftware_bsp//newlib/nios2-elf/lib\libc.a(lib_a-mprec.o)
 .text._Balloc  0x0000000000090a2c      0x130 ../RansacSoftware_bsp//newlib/nios2-elf/lib\libc.a(lib_a-mprec.o)
                0x0000000000090a2c                _Balloc
 .text._Bfree   0x0000000000090b5c       0x7c ../RansacSoftware_bsp//newlib/nios2-elf/lib\libc.a(lib_a-mprec.o)
                0x0000000000090b5c                _Bfree
 .text.__multadd
                0x0000000000090bd8      0x1ac ../RansacSoftware_bsp//newlib/nios2-elf/lib\libc.a(lib_a-mprec.o)
                0x0000000000090bd8                __multadd
 .text.__s2b    0x0000000000090d84      0x18c ../RansacSoftware_bsp//newlib/nios2-elf/lib\libc.a(lib_a-mprec.o)
                0x0000000000090d84                __s2b
 .text.__hi0bits
                0x0000000000090f10       0x90 ../RansacSoftware_bsp//newlib/nios2-elf/lib\libc.a(lib_a-mprec.o)
                0x0000000000090f10                __hi0bits
 .text.__lo0bits
                0x0000000000090fa0       0xec ../RansacSoftware_bsp//newlib/nios2-elf/lib\libc.a(lib_a-mprec.o)
                0x0000000000090fa0                __lo0bits
 .text.__i2b    0x000000000009108c       0x58 ../RansacSoftware_bsp//newlib/nios2-elf/lib\libc.a(lib_a-mprec.o)
                0x000000000009108c                __i2b
 .text.__multiply
                0x00000000000910e4      0x3f0 ../RansacSoftware_bsp//newlib/nios2-elf/lib\libc.a(lib_a-mprec.o)
                0x00000000000910e4                __multiply
 .text.__pow5mult
                0x00000000000914d4      0x178 ../RansacSoftware_bsp//newlib/nios2-elf/lib\libc.a(lib_a-mprec.o)
                0x00000000000914d4                __pow5mult
 .text.__lshift
                0x000000000009164c      0x1f8 ../RansacSoftware_bsp//newlib/nios2-elf/lib\libc.a(lib_a-mprec.o)
                0x000000000009164c                __lshift
 .text.__mcmp   0x0000000000091844      0x114 ../RansacSoftware_bsp//newlib/nios2-elf/lib\libc.a(lib_a-mprec.o)
                0x0000000000091844                __mcmp
 .text.__mdiff  0x0000000000091958      0x2a4 ../RansacSoftware_bsp//newlib/nios2-elf/lib\libc.a(lib_a-mprec.o)
                0x0000000000091958                __mdiff
 .text.__ulp    0x0000000000091bfc       0xcc ../RansacSoftware_bsp//newlib/nios2-elf/lib\libc.a(lib_a-mprec.o)
                0x0000000000091bfc                __ulp
 .text.__b2d    0x0000000000091cc8      0x204 ../RansacSoftware_bsp//newlib/nios2-elf/lib\libc.a(lib_a-mprec.o)
                0x0000000000091cc8                __b2d
 .text.__d2b    0x0000000000091ecc      0x240 ../RansacSoftware_bsp//newlib/nios2-elf/lib\libc.a(lib_a-mprec.o)
                0x0000000000091ecc                __d2b
 .text.__ratio  0x000000000009210c      0x11c ../RansacSoftware_bsp//newlib/nios2-elf/lib\libc.a(lib_a-mprec.o)
                0x000000000009210c                __ratio
 .text._mprec_log10
                0x0000000000092228       0xb0 ../RansacSoftware_bsp//newlib/nios2-elf/lib\libc.a(lib_a-mprec.o)
                0x0000000000092228                _mprec_log10
 .text.__copybits
                0x00000000000922d8       0xd0 ../RansacSoftware_bsp//newlib/nios2-elf/lib\libc.a(lib_a-mprec.o)
                0x00000000000922d8                __copybits
 .text.__any_on
                0x00000000000923a8      0x134 ../RansacSoftware_bsp//newlib/nios2-elf/lib\libc.a(lib_a-mprec.o)
                0x00000000000923a8                __any_on
 .text          0x00000000000924dc        0x0 ../RansacSoftware_bsp//newlib/nios2-elf/lib\libc.a(lib_a-readr.o)
 .text._read_r  0x00000000000924dc       0x70 ../RansacSoftware_bsp//newlib/nios2-elf/lib\libc.a(lib_a-readr.o)
                0x00000000000924dc                _read_r
 .text          0x000000000009254c        0x0 ../RansacSoftware_bsp//newlib/nios2-elf/lib\libc.a(lib_a-reallocr.o)
 .text._realloc_r
                0x000000000009254c      0xbf0 ../RansacSoftware_bsp//newlib/nios2-elf/lib\libc.a(lib_a-reallocr.o)
                0x000000000009254c                _realloc_r
 .text          0x000000000009313c        0x0 ../RansacSoftware_bsp//newlib/nios2-elf/lib\libc.a(lib_a-s_fpclassify.o)
 .text.__fpclassifyd
                0x000000000009313c      0x104 ../RansacSoftware_bsp//newlib/nios2-elf/lib\libc.a(lib_a-s_fpclassify.o)
                0x000000000009313c                __fpclassifyd
 .text          0x0000000000093240        0x0 ../RansacSoftware_bsp//newlib/nios2-elf/lib\libc.a(lib_a-sccl.o)
 .text.__sccl   0x0000000000093240      0x12c ../RansacSoftware_bsp//newlib/nios2-elf/lib\libc.a(lib_a-sccl.o)
                0x0000000000093240                __sccl
 .text          0x000000000009336c        0x0 ../RansacSoftware_bsp//newlib/nios2-elf/lib\libc.a(lib_a-sf_nan.o)
 .text.nanf     0x000000000009336c       0x34 ../RansacSoftware_bsp//newlib/nios2-elf/lib\libc.a(lib_a-sf_nan.o)
                0x000000000009336c                nanf
 .text          0x00000000000933a0        0x0 ../RansacSoftware_bsp//newlib/nios2-elf/lib\libc.a(lib_a-sprintf.o)
 .text._sprintf_r
                0x00000000000933a0       0x9c ../RansacSoftware_bsp//newlib/nios2-elf/lib\libc.a(lib_a-sprintf.o)
                0x00000000000933a0                _sprintf_r
 .text.sprintf  0x000000000009343c       0xa0 ../RansacSoftware_bsp//newlib/nios2-elf/lib\libc.a(lib_a-sprintf.o)
                0x000000000009343c                sprintf
 .text          0x00000000000934dc        0x0 ../RansacSoftware_bsp//newlib/nios2-elf/lib\libc.a(lib_a-strcmp.o)
 .text.strcmp   0x00000000000934dc      0x140 ../RansacSoftware_bsp//newlib/nios2-elf/lib\libc.a(lib_a-strcmp.o)
                0x00000000000934dc                strcmp
 .text          0x000000000009361c        0x0 ../RansacSoftware_bsp//newlib/nios2-elf/lib\libc.a(lib_a-strtod.o)
 .text.sulp     0x000000000009361c       0xd8 ../RansacSoftware_bsp//newlib/nios2-elf/lib\libc.a(lib_a-strtod.o)
 .text.ULtod    0x00000000000936f4      0x164 ../RansacSoftware_bsp//newlib/nios2-elf/lib\libc.a(lib_a-strtod.o)
 .text.match    0x0000000000093858       0xcc ../RansacSoftware_bsp//newlib/nios2-elf/lib\libc.a(lib_a-strtod.o)
 .text._strtod_r
                0x0000000000093924     0x1d08 ../RansacSoftware_bsp//newlib/nios2-elf/lib\libc.a(lib_a-strtod.o)
                0x0000000000093924                _strtod_r
 .text.strtod   0x000000000009562c       0x58 ../RansacSoftware_bsp//newlib/nios2-elf/lib\libc.a(lib_a-strtod.o)
                0x000000000009562c                strtod
 .text.strtof   0x0000000000095684      0x12c ../RansacSoftware_bsp//newlib/nios2-elf/lib\libc.a(lib_a-strtod.o)
                0x0000000000095684                strtof
 .text          0x00000000000957b0        0x0 ../RansacSoftware_bsp//newlib/nios2-elf/lib\libc.a(lib_a-strtol.o)
 .text._strtol_r
                0x00000000000957b0      0x2cc ../RansacSoftware_bsp//newlib/nios2-elf/lib\libc.a(lib_a-strtol.o)
                0x00000000000957b0                _strtol_r
 .text.strtol   0x0000000000095a7c       0x48 ../RansacSoftware_bsp//newlib/nios2-elf/lib\libc.a(lib_a-strtol.o)
                0x0000000000095a7c                strtol
 .text          0x0000000000095ac4        0x0 ../RansacSoftware_bsp//newlib/nios2-elf/lib\libc.a(lib_a-strtoll_r.o)
 .text._strtoll_r
                0x0000000000095ac4      0x3c0 ../RansacSoftware_bsp//newlib/nios2-elf/lib\libc.a(lib_a-strtoll_r.o)
                0x0000000000095ac4                _strtoll_r
 .text          0x0000000000095e84        0x0 ../RansacSoftware_bsp//newlib/nios2-elf/lib\libc.a(lib_a-strtoul.o)
 .text._strtoul_r
                0x0000000000095e84      0x2a4 ../RansacSoftware_bsp//newlib/nios2-elf/lib\libc.a(lib_a-strtoul.o)
                0x0000000000095e84                _strtoul_r
 .text.strtoul  0x0000000000096128       0x48 ../RansacSoftware_bsp//newlib/nios2-elf/lib\libc.a(lib_a-strtoul.o)
                0x0000000000096128                strtoul
 .text          0x0000000000096170        0x0 ../RansacSoftware_bsp//newlib/nios2-elf/lib\libc.a(lib_a-strtoull_r.o)
 .text._strtoull_r
                0x0000000000096170      0x388 ../RansacSoftware_bsp//newlib/nios2-elf/lib\libc.a(lib_a-strtoull_r.o)
                0x0000000000096170                _strtoull_r
 .text          0x00000000000964f8        0x0 ../RansacSoftware_bsp//newlib/nios2-elf/lib\libc.a(lib_a-svfprintf.o)
 .text.___svfprintf_internal_r
                0x00000000000964f8     0x2074 ../RansacSoftware_bsp//newlib/nios2-elf/lib\libc.a(lib_a-svfprintf.o)
                0x00000000000964f8                ___svfprintf_internal_r
 .text.cvt      0x000000000009856c      0x20c ../RansacSoftware_bsp//newlib/nios2-elf/lib\libc.a(lib_a-svfprintf.o)
 .text.exponent
                0x0000000000098778      0x140 ../RansacSoftware_bsp//newlib/nios2-elf/lib\libc.a(lib_a-svfprintf.o)
 .text          0x00000000000988b8        0x0 ../RansacSoftware_bsp//newlib/nios2-elf/lib\libc.a(lib_a-ungetc.o)
 .text.__submore
                0x00000000000988b8      0x114 ../RansacSoftware_bsp//newlib/nios2-elf/lib\libc.a(lib_a-ungetc.o)
                0x00000000000988b8                __submore
 .text._ungetc_r
                0x00000000000989cc      0x20c ../RansacSoftware_bsp//newlib/nios2-elf/lib\libc.a(lib_a-ungetc.o)
                0x00000000000989cc                _ungetc_r
 .text.ungetc   0x0000000000098bd8       0x40 ../RansacSoftware_bsp//newlib/nios2-elf/lib\libc.a(lib_a-ungetc.o)
                0x0000000000098bd8                ungetc
 .text          0x0000000000098c18        0x0 ../RansacSoftware_bsp//newlib/nios2-elf/lib\libc.a(lib_a-vfiprintf.o)
 .text.__sprint_r
                0x0000000000098c18      0x13c ../RansacSoftware_bsp//newlib/nios2-elf/lib\libc.a(lib_a-vfiprintf.o)
                0x0000000000098c18                __sprint_r
 .text.__sbprintf
                0x0000000000098d54       0xf0 ../RansacSoftware_bsp//newlib/nios2-elf/lib\libc.a(lib_a-vfiprintf.o)
 .text.__vfiprintf_internal
                0x0000000000098e44       0x50 ../RansacSoftware_bsp//newlib/nios2-elf/lib\libc.a(lib_a-vfiprintf.o)
                0x0000000000098e44                __vfiprintf_internal
 .text.___vfiprintf_internal_r
                0x0000000000098e94     0x12dc ../RansacSoftware_bsp//newlib/nios2-elf/lib\libc.a(lib_a-vfiprintf.o)
                0x0000000000098e94                ___vfiprintf_internal_r
 .text          0x000000000009a170        0x0 ../RansacSoftware_bsp//newlib/nios2-elf/lib\libc.a(lib_a-callocr.o)
 .text._calloc_r
                0x000000000009a170      0x164 ../RansacSoftware_bsp//newlib/nios2-elf/lib\libc.a(lib_a-callocr.o)
                0x000000000009a170                _calloc_r
 .text          0x000000000009a2d4        0x0 ../RansacSoftware_bsp//newlib/nios2-elf/lib\libc.a(lib_a-fputwc.o)
 .text.__fputwc
                0x000000000009a2d4      0x1f4 ../RansacSoftware_bsp//newlib/nios2-elf/lib\libc.a(lib_a-fputwc.o)
                0x000000000009a2d4                __fputwc
 .text._fputwc_r
                0x000000000009a4c8       0x88 ../RansacSoftware_bsp//newlib/nios2-elf/lib\libc.a(lib_a-fputwc.o)
                0x000000000009a4c8                _fputwc_r
 .text.fputwc   0x000000000009a550       0x68 ../RansacSoftware_bsp//newlib/nios2-elf/lib\libc.a(lib_a-fputwc.o)
                0x000000000009a550                fputwc
 .text          0x000000000009a5b8        0x0 ../RansacSoftware_bsp//newlib/nios2-elf/lib\libc.a(lib_a-gdtoa-gethex.o)
 .text.rshift   0x000000000009a5b8      0x1b0 ../RansacSoftware_bsp//newlib/nios2-elf/lib\libc.a(lib_a-gdtoa-gethex.o)
 .text.increment
                0x000000000009a768      0x14c ../RansacSoftware_bsp//newlib/nios2-elf/lib\libc.a(lib_a-gdtoa-gethex.o)
 .text.__gethex
                0x000000000009a8b4      0xaa4 ../RansacSoftware_bsp//newlib/nios2-elf/lib\libc.a(lib_a-gdtoa-gethex.o)
                0x000000000009a8b4                __gethex
 .text          0x000000000009b358        0x0 ../RansacSoftware_bsp//newlib/nios2-elf/lib\libc.a(lib_a-gdtoa-hexnan.o)
 .text.L_shift  0x000000000009b358       0xbc ../RansacSoftware_bsp//newlib/nios2-elf/lib\libc.a(lib_a-gdtoa-hexnan.o)
 .text.__hexnan
                0x000000000009b414      0x33c ../RansacSoftware_bsp//newlib/nios2-elf/lib\libc.a(lib_a-gdtoa-hexnan.o)
                0x000000000009b414                __hexnan
 .text          0x000000000009b750        0x0 ../RansacSoftware_bsp//newlib/nios2-elf/lib\libc.a(lib_a-strncmp.o)
 .text.strncmp  0x000000000009b750      0x194 ../RansacSoftware_bsp//newlib/nios2-elf/lib\libc.a(lib_a-strncmp.o)
                0x000000000009b750                strncmp
 .text          0x000000000009b8e4        0x0 ../RansacSoftware_bsp//newlib/nios2-elf/lib\libc.a(lib_a-svfiprintf.o)
 .text.__ssprint_r
                0x000000000009b8e4      0x2d4 ../RansacSoftware_bsp//newlib/nios2-elf/lib\libc.a(lib_a-svfiprintf.o)
                0x000000000009b8e4                __ssprint_r
 .text.___svfiprintf_internal_r
                0x000000000009bbb8     0x1268 ../RansacSoftware_bsp//newlib/nios2-elf/lib\libc.a(lib_a-svfiprintf.o)
                0x000000000009bbb8                ___svfiprintf_internal_r
 .text          0x000000000009ce20        0x0 ../RansacSoftware_bsp//newlib/nios2-elf/lib\libc.a(lib_a-wcrtomb.o)
 .text._wcrtomb_r
                0x000000000009ce20       0xd4 ../RansacSoftware_bsp//newlib/nios2-elf/lib\libc.a(lib_a-wcrtomb.o)
                0x000000000009ce20                _wcrtomb_r
 .text.wcrtomb  0x000000000009cef4       0xd8 ../RansacSoftware_bsp//newlib/nios2-elf/lib\libc.a(lib_a-wcrtomb.o)
                0x000000000009cef4                wcrtomb
 .text          0x000000000009cfcc        0x0 ../RansacSoftware_bsp//newlib/nios2-elf/lib\libc.a(lib_a-wctomb_r.o)
 .text._wctomb_r
                0x000000000009cfcc       0x64 ../RansacSoftware_bsp//newlib/nios2-elf/lib\libc.a(lib_a-wctomb_r.o)
                0x000000000009cfcc                _wctomb_r
 .text.__ascii_wctomb
                0x000000000009d030       0x78 ../RansacSoftware_bsp//newlib/nios2-elf/lib\libc.a(lib_a-wctomb_r.o)
                0x000000000009d030                __ascii_wctomb
 .text          0x000000000009d0a8      0x10c c:/intelfpga_lite/18.1/nios2eds/bin/gnu/h-x86_64-mingw32/bin/../lib/gcc/nios2-elf/5.3.0/mno-hw-mul\libgcc.a(_muldi3.o)
                0x000000000009d0a8                __muldi3
 .text          0x000000000009d1b4       0x74 c:/intelfpga_lite/18.1/nios2eds/bin/gnu/h-x86_64-mingw32/bin/../lib/gcc/nios2-elf/5.3.0/mno-hw-mul\libgcc.a(_fixunsdfsi.o)
                0x000000000009d1b4                __fixunsdfsi
 .text          0x000000000009d228      0x5fc c:/intelfpga_lite/18.1/nios2eds/bin/gnu/h-x86_64-mingw32/bin/../lib/gcc/nios2-elf/5.3.0/mno-hw-mul\libgcc.a(_udivdi3.o)
                0x000000000009d228                __udivdi3
 .text          0x000000000009d824      0x5c4 c:/intelfpga_lite/18.1/nios2eds/bin/gnu/h-x86_64-mingw32/bin/../lib/gcc/nios2-elf/5.3.0/mno-hw-mul\libgcc.a(_umoddi3.o)
                0x000000000009d824                __umoddi3
 .text          0x000000000009dde8       0x88 c:/intelfpga_lite/18.1/nios2eds/bin/gnu/h-x86_64-mingw32/bin/../lib/gcc/nios2-elf/5.3.0/mno-hw-mul\libgcc.a(eqdf2.o)
                0x000000000009dde8                __nedf2
                0x000000000009dde8                __eqdf2
 .text          0x000000000009de70       0xa8 c:/intelfpga_lite/18.1/nios2eds/bin/gnu/h-x86_64-mingw32/bin/../lib/gcc/nios2-elf/5.3.0/mno-hw-mul\libgcc.a(floatunsidf.o)
                0x000000000009de70                __floatunsidf
 .text          0x000000000009df18      0x114 ../RansacSoftware_bsp/\libhal_bsp.a(alt_close.o)
                0x000000000009df54                close
 .text          0x000000000009e02c       0x2c ../RansacSoftware_bsp/\libhal_bsp.a(alt_dev.o)
 .text          0x000000000009e058        0x0 ../RansacSoftware_bsp/\libhal_bsp.a(alt_errno.o)
 .text          0x000000000009e058       0x34 ../RansacSoftware_bsp/\libhal_bsp.a(alt_exit.o)
                0x000000000009e058                _exit
 .text          0x000000000009e08c       0xf4 ../RansacSoftware_bsp/\libhal_bsp.a(alt_fstat.o)
                0x000000000009e0c8                fstat
 .text          0x000000000009e180       0xe8 ../RansacSoftware_bsp/\libhal_bsp.a(alt_isatty.o)
                0x000000000009e1bc                isatty
 .text          0x000000000009e268       0xec ../RansacSoftware_bsp/\libhal_bsp.a(alt_load.o)
                0x000000000009e2d0                alt_load
 .text          0x000000000009e354      0x118 ../RansacSoftware_bsp/\libhal_bsp.a(alt_lseek.o)
                0x000000000009e390                lseek
 .text          0x000000000009e46c       0x7c ../RansacSoftware_bsp/\libhal_bsp.a(alt_main.o)
                0x000000000009e46c                alt_main
 .text          0x000000000009e4e8       0x48 ../RansacSoftware_bsp/\libhal_bsp.a(alt_malloc_lock.o)
                0x000000000009e4e8                __malloc_lock
                0x000000000009e50c                __malloc_unlock
 .text          0x000000000009e530      0x284 ../RansacSoftware_bsp/\libhal_bsp.a(alt_open.o)
                0x000000000009e658                open
 .text          0x000000000009e7b4      0x140 ../RansacSoftware_bsp/\libhal_bsp.a(alt_read.o)
                0x000000000009e7f0                read
 .text          0x000000000009e8f4       0x84 ../RansacSoftware_bsp/\libhal_bsp.a(alt_release_fd.o)
                0x000000000009e8f4                alt_release_fd
 .text          0x000000000009e978       0xb0 ../RansacSoftware_bsp/\libhal_bsp.a(alt_sbrk.o)
                0x000000000009e978                sbrk
 .text          0x000000000009ea28      0x13c ../RansacSoftware_bsp/\libhal_bsp.a(alt_write.o)
                0x000000000009ea64                write
 .text          0x000000000009eb64       0xc0 ../RansacSoftware_bsp/\libhal_bsp.a(alt_sys_init.o)
                0x000000000009eb98                alt_irq_init
                0x000000000009ebd0                alt_sys_init
 .text          0x000000000009ec24      0x164 ../RansacSoftware_bsp/\libhal_bsp.a(altera_avalon_jtag_uart_fd.o)
                0x000000000009ec24                altera_avalon_jtag_uart_read_fd
                0x000000000009ec84                altera_avalon_jtag_uart_write_fd
                0x000000000009ece4                altera_avalon_jtag_uart_close_fd
                0x000000000009ed34                altera_avalon_jtag_uart_ioctl_fd
 .text          0x000000000009ed88      0x3d4 ../RansacSoftware_bsp/\libhal_bsp.a(altera_avalon_jtag_uart_init.o)
                0x000000000009ed88                altera_avalon_jtag_uart_init
                0x000000000009f0f4                altera_avalon_jtag_uart_close
 .text          0x000000000009f15c       0xf0 ../RansacSoftware_bsp/\libhal_bsp.a(altera_avalon_jtag_uart_ioctl.o)
                0x000000000009f15c                altera_avalon_jtag_uart_ioctl
 .text          0x000000000009f24c      0x21c ../RansacSoftware_bsp/\libhal_bsp.a(altera_avalon_jtag_uart_read.o)
                0x000000000009f24c                altera_avalon_jtag_uart_read
 .text          0x000000000009f468      0x224 ../RansacSoftware_bsp/\libhal_bsp.a(altera_avalon_jtag_uart_write.o)
                0x000000000009f468                altera_avalon_jtag_uart_write
 .text          0x000000000009f68c      0x484 ../RansacSoftware_bsp/\libhal_bsp.a(altera_hostfs.o)
                0x000000000009f68c                alt_hostfs_open
                0x000000000009f7a8                alt_hostfs_close
                0x000000000009f7ec                alt_hostfs_read
                0x000000000009f858                alt_hostfs_write
                0x000000000009f8c4                alt_hostfs_seek
                0x000000000009f92c                alt_hostfs_fstat
 .text          0x000000000009fb10      0x12c ../RansacSoftware_bsp/\libhal_bsp.a(alt_alarm_start.o)
                0x000000000009fb10                alt_alarm_start
 .text          0x000000000009fc3c       0x20 ../RansacSoftware_bsp/\libhal_bsp.a(alt_dcache_flush_all.o)
                0x000000000009fc3c                alt_dcache_flush_all
 .text          0x000000000009fc5c       0xe0 ../RansacSoftware_bsp/\libhal_bsp.a(alt_dev_llist_insert.o)
                0x000000000009fc98                alt_dev_llist_insert
 .text          0x000000000009fd3c       0x60 ../RansacSoftware_bsp/\libhal_bsp.a(alt_do_ctors.o)
                0x000000000009fd3c                _do_ctors
 .text          0x000000000009fd9c       0x60 ../RansacSoftware_bsp/\libhal_bsp.a(alt_do_dtors.o)
                0x000000000009fd9c                _do_dtors
 .text          0x000000000009fdfc       0x90 ../RansacSoftware_bsp/\libhal_bsp.a(alt_find_dev.o)
                0x000000000009fdfc                alt_find_dev
 .text          0x000000000009fe8c      0x108 ../RansacSoftware_bsp/\libhal_bsp.a(alt_find_file.o)
                0x000000000009fe8c                alt_find_file
 .text          0x000000000009ff94       0x80 ../RansacSoftware_bsp/\libhal_bsp.a(alt_fs_reg.o)
                0x000000000009ff94                alt_fs_reg
 .text          0x00000000000a0014       0xc4 ../RansacSoftware_bsp/\libhal_bsp.a(alt_get_fd.o)
                0x00000000000a0014                alt_get_fd
 .text          0x00000000000a00d8       0x20 ../RansacSoftware_bsp/\libhal_bsp.a(alt_icache_flush_all.o)
                0x00000000000a00d8                alt_icache_flush_all
 .text          0x00000000000a00f8      0x1b0 ../RansacSoftware_bsp/\libhal_bsp.a(alt_iic.o)
                0x00000000000a00f8                alt_ic_isr_register
                0x00000000000a0148                alt_ic_irq_enable
                0x00000000000a01d0                alt_ic_irq_disable
                0x00000000000a025c                alt_ic_irq_enabled
 .text          0x00000000000a02a8       0xf0 ../RansacSoftware_bsp/\libhal_bsp.a(alt_iic_isr_register.o)
                0x00000000000a02a8                alt_iic_isr_register
 .text          0x00000000000a0398      0x160 ../RansacSoftware_bsp/\libhal_bsp.a(alt_io_redirect.o)
                0x00000000000a047c                alt_io_redirect
 .text          0x00000000000a04f8        0x0 ../RansacSoftware_bsp/\libhal_bsp.a(alt_irq_entry.o)
 .text          0x00000000000a04f8        0x0 ../RansacSoftware_bsp/\libhal_bsp.a(alt_irq_handler.o)
 .text          0x00000000000a04f8        0x0 ../RansacSoftware_bsp/\libhal_bsp.a(alt_irq_vars.o)
 .text          0x00000000000a04f8      0x1a4 ../RansacSoftware_bsp/\libhal_bsp.a(alt_tick.o)
                0x00000000000a04f8                alt_alarm_stop
                0x00000000000a0594                alt_tick
 .text          0x00000000000a069c       0x24 ../RansacSoftware_bsp/\libhal_bsp.a(altera_nios2_gen2_irq.o)
                0x00000000000a069c                altera_nios2_gen2_irq_init
 .text          0x00000000000a06c0        0x0 ../RansacSoftware_bsp/\libhal_bsp.a(alt_exception_entry.o)
 .text          0x00000000000a06c0       0x9c ../RansacSoftware_bsp/\libhal_bsp.a(alt_instruction_exception_entry.o)
                0x00000000000a06c0                alt_exception_cause_generated_bad_addr
 .text          0x00000000000a075c        0x0 ../RansacSoftware_bsp//newlib/nios2-elf/lib\libc.a(lib_a-atexit.o)
 .text.atexit   0x00000000000a075c       0x3c ../RansacSoftware_bsp//newlib/nios2-elf/lib\libc.a(lib_a-atexit.o)
                0x00000000000a075c                atexit
 .text          0x00000000000a0798        0x0 ../RansacSoftware_bsp//newlib/nios2-elf/lib\libc.a(lib_a-memcmp.o)
 .text.memcmp   0x00000000000a0798      0x134 ../RansacSoftware_bsp//newlib/nios2-elf/lib\libc.a(lib_a-memcmp.o)
                0x00000000000a0798                memcmp
 .text          0x00000000000a08cc        0x0 ../RansacSoftware_bsp//newlib/nios2-elf/lib\libc.a(lib_a-__atexit.o)
 .text.__register_exitproc
                0x00000000000a08cc      0x170 ../RansacSoftware_bsp//newlib/nios2-elf/lib\libc.a(lib_a-__atexit.o)
                0x00000000000a08cc                __register_exitproc
 *(.gnu.warning.*)
 *(.fini)
                [!provide]                        PROVIDE (__etext, ABSOLUTE (.))
                [!provide]                        PROVIDE (_etext, ABSOLUTE (.))
                [!provide]                        PROVIDE (etext, ABSOLUTE (.))
 *(.eh_frame_hdr)
                0x00000000000a0a3c                . = ALIGN (0x4)
                [!provide]                        PROVIDE (__preinit_array_start, ABSOLUTE (.))
 *(.preinit_array)
                [!provide]                        PROVIDE (__preinit_array_end, ABSOLUTE (.))
                [!provide]                        PROVIDE (__init_array_start, ABSOLUTE (.))
 *(.init_array)
                [!provide]                        PROVIDE (__init_array_end, ABSOLUTE (.))
                [!provide]                        PROVIDE (__fini_array_start, ABSOLUTE (.))
 *(.fini_array)
                [!provide]                        PROVIDE (__fini_array_end, ABSOLUTE (.))
 *(.eh_frame)
 *(.gcc_except_table .gcc_except_table.*)
 *(.dynamic)
                0x00000000000a0a3c                PROVIDE (__CTOR_LIST__, ABSOLUTE (.))
 *(.ctors)
 *(SORT(.ctors.*))
                0x00000000000a0a3c                PROVIDE (__CTOR_END__, ABSOLUTE (.))
                0x00000000000a0a3c                PROVIDE (__DTOR_LIST__, ABSOLUTE (.))
 *(.dtors)
 *(SORT(.dtors.*))
                0x00000000000a0a3c                PROVIDE (__DTOR_END__, ABSOLUTE (.))
 *(.jcr)
                0x00000000000a0a3c                . = ALIGN (0x4)

.rodata         0x00000000000a0a3c      0xbb8
                0x00000000000a0a3c                PROVIDE (__ram_rodata_start, ABSOLUTE (.))
                0x00000000000a0a3c                . = ALIGN (0x4)
 *(.rodata .rodata.* .gnu.linkonce.r.*)
 .rodata        0x00000000000a0a3c      0x2ac obj/default/main.o
 .rodata.atanhi
                0x00000000000a0ce8       0x20 ../RansacSoftware_bsp//newlib/nios2-elf/lib\libm.a(lib_a-s_atan.o)
 .rodata.atanlo
                0x00000000000a0d08       0x20 ../RansacSoftware_bsp//newlib/nios2-elf/lib\libm.a(lib_a-s_atan.o)
 .rodata.aT     0x00000000000a0d28       0x58 ../RansacSoftware_bsp//newlib/nios2-elf/lib\libm.a(lib_a-s_atan.o)
 .rodata        0x00000000000a0d80      0x100 c:/intelfpga_lite/18.1/nios2eds/bin/gnu/h-x86_64-mingw32/bin/../lib/gcc/nios2-elf/5.3.0/mno-hw-mul\libgcc.a(_clz.o)
                0x00000000000a0d80                __clz_tab
 .rodata        0x00000000000a0e80        0x2 ../RansacSoftware_bsp//newlib/nios2-elf/lib\libc.a(lib_a-impure.o)
 *fill*         0x00000000000a0e82        0x2 
 .rodata        0x00000000000a0e84        0x2 ../RansacSoftware_bsp//newlib/nios2-elf/lib\libc.a(lib_a-puts.o)
 *fill*         0x00000000000a0e86        0x2 
 .rodata        0x00000000000a0e88       0x5e ../RansacSoftware_bsp//newlib/nios2-elf/lib\libc.a(lib_a-vfprintf.o)
 .rodata.blanks.4403
                0x00000000000a0ee6       0x10 ../RansacSoftware_bsp//newlib/nios2-elf/lib\libc.a(lib_a-vfprintf.o)
 .rodata.zeroes.4404
                0x00000000000a0ef6       0x10 ../RansacSoftware_bsp//newlib/nios2-elf/lib\libc.a(lib_a-vfprintf.o)
 *fill*         0x00000000000a0f06        0x2 
 .rodata        0x00000000000a0f08        0x5 ../RansacSoftware_bsp//newlib/nios2-elf/lib\libc.a(lib_a-vfscanf.o)
 *fill*         0x00000000000a0f0d        0x1 
 .rodata.basefix.4359
                0x00000000000a0f0e       0x22 ../RansacSoftware_bsp//newlib/nios2-elf/lib\libc.a(lib_a-vfscanf.o)
 .rodata._ctype_b
                0x00000000000a0f30      0x180 ../RansacSoftware_bsp//newlib/nios2-elf/lib\libc.a(lib_a-ctype_.o)
 .rodata._ctype_
                0x00000000000a10b0      0x101 ../RansacSoftware_bsp//newlib/nios2-elf/lib\libc.a(lib_a-ctype_.o)
                0x00000000000a10b0                _ctype_
 *fill*         0x00000000000a11b1        0x3 
 .rodata        0x00000000000a11b4       0x12 ../RansacSoftware_bsp//newlib/nios2-elf/lib\libc.a(lib_a-dtoa.o)
 *fill*         0x00000000000a11c6        0x2 
 .rodata        0x00000000000a11c8       0x12 ../RansacSoftware_bsp//newlib/nios2-elf/lib\libc.a(lib_a-locale.o)
 *fill*         0x00000000000a11da        0x2 
 .rodata        0x00000000000a11dc        0x1 ../RansacSoftware_bsp//newlib/nios2-elf/lib\libc.a(lib_a-mbrtowc.o)
 *fill*         0x00000000000a11dd        0x3 
 .rodata.__mprec_tens
                0x00000000000a11e0       0xc8 ../RansacSoftware_bsp//newlib/nios2-elf/lib\libc.a(lib_a-mprec.o)
                0x00000000000a11e0                __mprec_tens
 .rodata.__mprec_bigtens
                0x00000000000a12a8       0x28 ../RansacSoftware_bsp//newlib/nios2-elf/lib\libc.a(lib_a-mprec.o)
                0x00000000000a12a8                __mprec_bigtens
 .rodata.__mprec_tinytens
                0x00000000000a12d0       0x28 ../RansacSoftware_bsp//newlib/nios2-elf/lib\libc.a(lib_a-mprec.o)
                0x00000000000a12d0                __mprec_tinytens
 .rodata.p05.2768
                0x00000000000a12f8        0xc ../RansacSoftware_bsp//newlib/nios2-elf/lib\libc.a(lib_a-mprec.o)
 .rodata.tinytens
                0x00000000000a1304       0x28 ../RansacSoftware_bsp//newlib/nios2-elf/lib\libc.a(lib_a-strtod.o)
 .rodata        0x00000000000a132c        0xf ../RansacSoftware_bsp//newlib/nios2-elf/lib\libc.a(lib_a-strtod.o)
 *fill*         0x00000000000a133b        0x1 
 .rodata.fpi.2737
                0x00000000000a133c       0x14 ../RansacSoftware_bsp//newlib/nios2-elf/lib\libc.a(lib_a-strtod.o)
 .rodata.fpinan.2773
                0x00000000000a1350       0x14 ../RansacSoftware_bsp//newlib/nios2-elf/lib\libc.a(lib_a-strtod.o)
 .rodata        0x00000000000a1364       0x5e ../RansacSoftware_bsp//newlib/nios2-elf/lib\libc.a(lib_a-svfprintf.o)
 .rodata.blanks.4388
                0x00000000000a13c2       0x10 ../RansacSoftware_bsp//newlib/nios2-elf/lib\libc.a(lib_a-svfprintf.o)
 .rodata.zeroes.4389
                0x00000000000a13d2       0x10 ../RansacSoftware_bsp//newlib/nios2-elf/lib\libc.a(lib_a-svfprintf.o)
 *fill*         0x00000000000a13e2        0x2 
 .rodata        0x00000000000a13e4       0x4a ../RansacSoftware_bsp//newlib/nios2-elf/lib\libc.a(lib_a-vfiprintf.o)
 .rodata.blanks.4348
                0x00000000000a142e       0x10 ../RansacSoftware_bsp//newlib/nios2-elf/lib\libc.a(lib_a-vfiprintf.o)
 .rodata.zeroes.4349
                0x00000000000a143e       0x10 ../RansacSoftware_bsp//newlib/nios2-elf/lib\libc.a(lib_a-vfiprintf.o)
 .rodata.__hexdig
                0x00000000000a144e      0x100 ../RansacSoftware_bsp//newlib/nios2-elf/lib\libc.a(lib_a-gdtoa-gethex.o)
                0x00000000000a144e                __hexdig
 *fill*         0x00000000000a154e        0x2 
 .rodata        0x00000000000a1550       0x4a ../RansacSoftware_bsp//newlib/nios2-elf/lib\libc.a(lib_a-svfiprintf.o)
 .rodata.blanks.4332
                0x00000000000a159a       0x10 ../RansacSoftware_bsp//newlib/nios2-elf/lib\libc.a(lib_a-svfiprintf.o)
 .rodata.zeroes.4333
                0x00000000000a15aa       0x10 ../RansacSoftware_bsp//newlib/nios2-elf/lib\libc.a(lib_a-svfiprintf.o)
 *fill*         0x00000000000a15ba        0x2 
 .rodata        0x00000000000a15bc        0xa ../RansacSoftware_bsp/\libhal_bsp.a(alt_dev.o)
 *fill*         0x00000000000a15c6        0x2 
 .rodata        0x00000000000a15c8        0xf ../RansacSoftware_bsp/\libhal_bsp.a(alt_main.o)
 *fill*         0x00000000000a15d7        0x1 
 .rodata        0x00000000000a15d8       0x1a ../RansacSoftware_bsp/\libhal_bsp.a(alt_sys_init.o)
 *(.rodata1)
                0x00000000000a15f4                . = ALIGN (0x4)
 *fill*         0x00000000000a15f2        0x2 
                0x00000000000a15f4                PROVIDE (__ram_rodata_end, ABSOLUTE (.))
                0x00000000000a0a3c                PROVIDE (__flash_rodata_start, LOADADDR (.rodata))

.rwdata         0x00000000000a15f4     0x1b74 load address 0x00000000000a3168
                0x00000000000a15f4                PROVIDE (__ram_rwdata_start, ABSOLUTE (.))
                0x00000000000a15f4                . = ALIGN (0x4)
 *(.got.plt)
 *(.got)
 *(.data1)
 *(.data .data.* .gnu.linkonce.d.*)
 .data          0x00000000000a15f4        0x0 ../RansacSoftware_bsp//obj/HAL/src/crt0.o
 .data          0x00000000000a15f4        0x0 obj/default/main.o
 .data          0x00000000000a15f4        0x0 obj/default/ransac.o
 .data          0x00000000000a15f4        0x0 ../RansacSoftware_bsp//newlib/nios2-elf/lib\libm.a(lib_a-s_atan.o)
 .data          0x00000000000a15f4        0x0 ../RansacSoftware_bsp//newlib/nios2-elf/lib\libm.a(lib_a-s_fabs.o)
 .data          0x00000000000a15f4        0x0 c:/intelfpga_lite/18.1/nios2eds/bin/gnu/h-x86_64-mingw32/bin/../lib/gcc/nios2-elf/5.3.0/mno-hw-mul\libgcc.a(lib2-divmod.o)
 .data          0x00000000000a15f4        0x0 c:/intelfpga_lite/18.1/nios2eds/bin/gnu/h-x86_64-mingw32/bin/../lib/gcc/nios2-elf/5.3.0/mno-hw-mul\libgcc.a(lib2-mul.o)
 .data          0x00000000000a15f4        0x0 c:/intelfpga_lite/18.1/nios2eds/bin/gnu/h-x86_64-mingw32/bin/../lib/gcc/nios2-elf/5.3.0/mno-hw-mul\libgcc.a(adddf3.o)
 .data          0x00000000000a15f4        0x0 c:/intelfpga_lite/18.1/nios2eds/bin/gnu/h-x86_64-mingw32/bin/../lib/gcc/nios2-elf/5.3.0/mno-hw-mul\libgcc.a(divdf3.o)
 .data          0x00000000000a15f4        0x0 c:/intelfpga_lite/18.1/nios2eds/bin/gnu/h-x86_64-mingw32/bin/../lib/gcc/nios2-elf/5.3.0/mno-hw-mul\libgcc.a(gedf2.o)
 .data          0x00000000000a15f4        0x0 c:/intelfpga_lite/18.1/nios2eds/bin/gnu/h-x86_64-mingw32/bin/../lib/gcc/nios2-elf/5.3.0/mno-hw-mul\libgcc.a(ledf2.o)
 .data          0x00000000000a15f4        0x0 c:/intelfpga_lite/18.1/nios2eds/bin/gnu/h-x86_64-mingw32/bin/../lib/gcc/nios2-elf/5.3.0/mno-hw-mul\libgcc.a(muldf3.o)
 .data          0x00000000000a15f4        0x0 c:/intelfpga_lite/18.1/nios2eds/bin/gnu/h-x86_64-mingw32/bin/../lib/gcc/nios2-elf/5.3.0/mno-hw-mul\libgcc.a(subdf3.o)
 .data          0x00000000000a15f4        0x0 c:/intelfpga_lite/18.1/nios2eds/bin/gnu/h-x86_64-mingw32/bin/../lib/gcc/nios2-elf/5.3.0/mno-hw-mul\libgcc.a(fixdfsi.o)
 .data          0x00000000000a15f4        0x0 c:/intelfpga_lite/18.1/nios2eds/bin/gnu/h-x86_64-mingw32/bin/../lib/gcc/nios2-elf/5.3.0/mno-hw-mul\libgcc.a(floatsidf.o)
 .data          0x00000000000a15f4        0x0 c:/intelfpga_lite/18.1/nios2eds/bin/gnu/h-x86_64-mingw32/bin/../lib/gcc/nios2-elf/5.3.0/mno-hw-mul\libgcc.a(extendsfdf2.o)
 .data          0x00000000000a15f4        0x0 c:/intelfpga_lite/18.1/nios2eds/bin/gnu/h-x86_64-mingw32/bin/../lib/gcc/nios2-elf/5.3.0/mno-hw-mul\libgcc.a(truncdfsf2.o)
 .data          0x00000000000a15f4        0x0 c:/intelfpga_lite/18.1/nios2eds/bin/gnu/h-x86_64-mingw32/bin/../lib/gcc/nios2-elf/5.3.0/mno-hw-mul\libgcc.a(_clzsi2.o)
 .data          0x00000000000a15f4        0x0 c:/intelfpga_lite/18.1/nios2eds/bin/gnu/h-x86_64-mingw32/bin/../lib/gcc/nios2-elf/5.3.0/mno-hw-mul\libgcc.a(_clz.o)
 .data          0x00000000000a15f4        0x0 ../RansacSoftware_bsp//newlib/nios2-elf/lib\libc.a(lib_a-exit.o)
 .data          0x00000000000a15f4        0x0 ../RansacSoftware_bsp//newlib/nios2-elf/lib\libc.a(lib_a-fclose.o)
 .data          0x00000000000a15f4        0x0 ../RansacSoftware_bsp//newlib/nios2-elf/lib\libc.a(lib_a-fflush.o)
 .data          0x00000000000a15f4        0x0 ../RansacSoftware_bsp//newlib/nios2-elf/lib\libc.a(lib_a-findfp.o)
 .data          0x00000000000a15f4        0x0 ../RansacSoftware_bsp//newlib/nios2-elf/lib\libc.a(lib_a-fopen.o)
 .data          0x00000000000a15f4        0x0 ../RansacSoftware_bsp//newlib/nios2-elf/lib\libc.a(lib_a-fprintf.o)
 .data          0x00000000000a15f4        0x0 ../RansacSoftware_bsp//newlib/nios2-elf/lib\libc.a(lib_a-fputc.o)
 .data          0x00000000000a15f4        0x0 ../RansacSoftware_bsp//newlib/nios2-elf/lib\libc.a(lib_a-freer.o)
 .data          0x00000000000a15f4        0x0 ../RansacSoftware_bsp//newlib/nios2-elf/lib\libc.a(lib_a-fscanf.o)
 .data          0x00000000000a15f4        0x0 ../RansacSoftware_bsp//newlib/nios2-elf/lib\libc.a(lib_a-fseek.o)
 .data          0x00000000000a15f4        0x0 ../RansacSoftware_bsp//newlib/nios2-elf/lib\libc.a(lib_a-fseeko.o)
 .data          0x00000000000a15f4        0x0 ../RansacSoftware_bsp//newlib/nios2-elf/lib\libc.a(lib_a-fstatr.o)
 .data          0x00000000000a15f4        0x0 ../RansacSoftware_bsp//newlib/nios2-elf/lib\libc.a(lib_a-fwalk.o)
 .data          0x00000000000a15f4        0x0 ../RansacSoftware_bsp//newlib/nios2-elf/lib\libc.a(lib_a-fwrite.o)
 .data          0x00000000000a15f4        0x0 ../RansacSoftware_bsp//newlib/nios2-elf/lib\libc.a(lib_a-impure.o)
 .data.impure_data
                0x00000000000a15f4      0x424 ../RansacSoftware_bsp//newlib/nios2-elf/lib\libc.a(lib_a-impure.o)
 .data          0x00000000000a1a18        0x0 ../RansacSoftware_bsp//newlib/nios2-elf/lib\libc.a(lib_a-int_errno.o)
 .data          0x00000000000a1a18        0x0 ../RansacSoftware_bsp//newlib/nios2-elf/lib\libc.a(lib_a-makebuf.o)
 .data          0x00000000000a1a18        0x0 ../RansacSoftware_bsp//newlib/nios2-elf/lib\libc.a(lib_a-mallocr.o)
 .data.__malloc_av_
                0x00000000000a1a18      0x408 ../RansacSoftware_bsp//newlib/nios2-elf/lib\libc.a(lib_a-mallocr.o)
                0x00000000000a1a18                __malloc_av_
 .data          0x00000000000a1e20        0x0 ../RansacSoftware_bsp//newlib/nios2-elf/lib\libc.a(lib_a-memset.o)
 .data          0x00000000000a1e20        0x0 ../RansacSoftware_bsp//newlib/nios2-elf/lib\libc.a(lib_a-openr.o)
 .data          0x00000000000a1e20        0x0 ../RansacSoftware_bsp//newlib/nios2-elf/lib\libc.a(lib_a-putc.o)
 .data          0x00000000000a1e20        0x0 ../RansacSoftware_bsp//newlib/nios2-elf/lib\libc.a(lib_a-puts.o)
 .data          0x00000000000a1e20        0x0 ../RansacSoftware_bsp//newlib/nios2-elf/lib\libc.a(lib_a-rand.o)
 .data          0x00000000000a1e20        0x0 ../RansacSoftware_bsp//newlib/nios2-elf/lib\libc.a(lib_a-refill.o)
 .data          0x00000000000a1e20        0x0 ../RansacSoftware_bsp//newlib/nios2-elf/lib\libc.a(lib_a-sbrkr.o)
 .data          0x00000000000a1e20        0x0 ../RansacSoftware_bsp//newlib/nios2-elf/lib\libc.a(lib_a-stdio.o)
 .data          0x00000000000a1e20        0x0 ../RansacSoftware_bsp//newlib/nios2-elf/lib\libc.a(lib_a-strlen.o)
 .data          0x00000000000a1e20        0x0 ../RansacSoftware_bsp//newlib/nios2-elf/lib\libc.a(lib_a-vfprintf.o)
 .data          0x00000000000a1e20        0x0 ../RansacSoftware_bsp//newlib/nios2-elf/lib\libc.a(lib_a-vfscanf.o)
 .data          0x00000000000a1e20        0x0 ../RansacSoftware_bsp//newlib/nios2-elf/lib\libc.a(lib_a-wbuf.o)
 .data          0x00000000000a1e20        0x0 ../RansacSoftware_bsp//newlib/nios2-elf/lib\libc.a(lib_a-writer.o)
 .data          0x00000000000a1e20        0x0 ../RansacSoftware_bsp//newlib/nios2-elf/lib\libc.a(lib_a-wsetup.o)
 .data          0x00000000000a1e20        0x0 ../RansacSoftware_bsp//newlib/nios2-elf/lib\libc.a(closer.o)
 .data          0x00000000000a1e20        0x0 ../RansacSoftware_bsp//newlib/nios2-elf/lib\libc.a(lib_a-__call_atexit.o)
 .data          0x00000000000a1e20        0x0 ../RansacSoftware_bsp//newlib/nios2-elf/lib\libc.a(lib_a-ctype_.o)
 .data          0x00000000000a1e20        0x0 ../RansacSoftware_bsp//newlib/nios2-elf/lib\libc.a(lib_a-dtoa.o)
 .data          0x00000000000a1e20        0x0 ../RansacSoftware_bsp//newlib/nios2-elf/lib\libc.a(lib_a-flags.o)
 .data          0x00000000000a1e20        0x0 ../RansacSoftware_bsp//newlib/nios2-elf/lib\libc.a(lib_a-fread.o)
 .data          0x00000000000a1e20        0x0 ../RansacSoftware_bsp//newlib/nios2-elf/lib\libc.a(lib_a-fvwrite.o)
 .data          0x00000000000a1e20        0x0 ../RansacSoftware_bsp//newlib/nios2-elf/lib\libc.a(lib_a-isattyr.o)
 .data          0x00000000000a1e20        0x0 ../RansacSoftware_bsp//newlib/nios2-elf/lib\libc.a(lib_a-iswspace.o)
 .data          0x00000000000a1e20        0x0 ../RansacSoftware_bsp//newlib/nios2-elf/lib\libc.a(lib_a-locale.o)
 .data.lconv    0x00000000000a1e20       0x38 ../RansacSoftware_bsp//newlib/nios2-elf/lib\libc.a(lib_a-locale.o)
 .data.lc_ctype_charset
                0x00000000000a1e58       0x20 ../RansacSoftware_bsp//newlib/nios2-elf/lib\libc.a(lib_a-locale.o)
 .data.lc_message_charset
                0x00000000000a1e78       0x20 ../RansacSoftware_bsp//newlib/nios2-elf/lib\libc.a(lib_a-locale.o)
 .data          0x00000000000a1e98        0x0 ../RansacSoftware_bsp//newlib/nios2-elf/lib\libc.a(lib_a-lseekr.o)
 .data          0x00000000000a1e98        0x0 ../RansacSoftware_bsp//newlib/nios2-elf/lib\libc.a(lib_a-mbrtowc.o)
 .data          0x00000000000a1e98        0x0 ../RansacSoftware_bsp//newlib/nios2-elf/lib\libc.a(lib_a-mbtowc_r.o)
 .data          0x00000000000a1e98        0x0 ../RansacSoftware_bsp//newlib/nios2-elf/lib\libc.a(lib_a-memchr.o)
 .data          0x00000000000a1e98        0x0 ../RansacSoftware_bsp//newlib/nios2-elf/lib\libc.a(lib_a-memcpy.o)
 .data          0x00000000000a1e98        0x0 ../RansacSoftware_bsp//newlib/nios2-elf/lib\libc.a(lib_a-memmove.o)
 .data          0x00000000000a1e98        0x0 ../RansacSoftware_bsp//newlib/nios2-elf/lib\libc.a(lib_a-mprec.o)
 .data          0x00000000000a1e98        0x0 ../RansacSoftware_bsp//newlib/nios2-elf/lib\libc.a(lib_a-readr.o)
 .data          0x00000000000a1e98        0x0 ../RansacSoftware_bsp//newlib/nios2-elf/lib\libc.a(lib_a-reallocr.o)
 .data          0x00000000000a1e98        0x0 ../RansacSoftware_bsp//newlib/nios2-elf/lib\libc.a(lib_a-s_fpclassify.o)
 .data          0x00000000000a1e98        0x0 ../RansacSoftware_bsp//newlib/nios2-elf/lib\libc.a(lib_a-sccl.o)
 .data          0x00000000000a1e98        0x0 ../RansacSoftware_bsp//newlib/nios2-elf/lib\libc.a(lib_a-sf_nan.o)
 .data          0x00000000000a1e98        0x0 ../RansacSoftware_bsp//newlib/nios2-elf/lib\libc.a(lib_a-sprintf.o)
 .data          0x00000000000a1e98        0x0 ../RansacSoftware_bsp//newlib/nios2-elf/lib\libc.a(lib_a-strcmp.o)
 .data          0x00000000000a1e98        0x0 ../RansacSoftware_bsp//newlib/nios2-elf/lib\libc.a(lib_a-strtod.o)
 .data          0x00000000000a1e98        0x0 ../RansacSoftware_bsp//newlib/nios2-elf/lib\libc.a(lib_a-strtol.o)
 .data          0x00000000000a1e98        0x0 ../RansacSoftware_bsp//newlib/nios2-elf/lib\libc.a(lib_a-strtoll_r.o)
 .data          0x00000000000a1e98        0x0 ../RansacSoftware_bsp//newlib/nios2-elf/lib\libc.a(lib_a-strtoul.o)
 .data          0x00000000000a1e98        0x0 ../RansacSoftware_bsp//newlib/nios2-elf/lib\libc.a(lib_a-strtoull_r.o)
 .data          0x00000000000a1e98        0x0 ../RansacSoftware_bsp//newlib/nios2-elf/lib\libc.a(lib_a-svfprintf.o)
 .data          0x00000000000a1e98        0x0 ../RansacSoftware_bsp//newlib/nios2-elf/lib\libc.a(lib_a-ungetc.o)
 .data          0x00000000000a1e98        0x0 ../RansacSoftware_bsp//newlib/nios2-elf/lib\libc.a(lib_a-vfiprintf.o)
 .data          0x00000000000a1e98        0x0 ../RansacSoftware_bsp//newlib/nios2-elf/lib\libc.a(lib_a-callocr.o)
 .data          0x00000000000a1e98        0x0 ../RansacSoftware_bsp//newlib/nios2-elf/lib\libc.a(lib_a-fputwc.o)
 .data          0x00000000000a1e98        0x0 ../RansacSoftware_bsp//newlib/nios2-elf/lib\libc.a(lib_a-gdtoa-gethex.o)
 .data          0x00000000000a1e98        0x0 ../RansacSoftware_bsp//newlib/nios2-elf/lib\libc.a(lib_a-gdtoa-hexnan.o)
 .data          0x00000000000a1e98        0x0 ../RansacSoftware_bsp//newlib/nios2-elf/lib\libc.a(lib_a-strncmp.o)
 .data          0x00000000000a1e98        0x0 ../RansacSoftware_bsp//newlib/nios2-elf/lib\libc.a(lib_a-svfiprintf.o)
 .data          0x00000000000a1e98        0x0 ../RansacSoftware_bsp//newlib/nios2-elf/lib\libc.a(lib_a-wcrtomb.o)
 .data          0x00000000000a1e98        0x0 ../RansacSoftware_bsp//newlib/nios2-elf/lib\libc.a(lib_a-wctomb_r.o)
 .data          0x00000000000a1e98        0x0 c:/intelfpga_lite/18.1/nios2eds/bin/gnu/h-x86_64-mingw32/bin/../lib/gcc/nios2-elf/5.3.0/mno-hw-mul\libgcc.a(_muldi3.o)
 .data          0x00000000000a1e98        0x0 c:/intelfpga_lite/18.1/nios2eds/bin/gnu/h-x86_64-mingw32/bin/../lib/gcc/nios2-elf/5.3.0/mno-hw-mul\libgcc.a(_fixunsdfsi.o)
 .data          0x00000000000a1e98        0x0 c:/intelfpga_lite/18.1/nios2eds/bin/gnu/h-x86_64-mingw32/bin/../lib/gcc/nios2-elf/5.3.0/mno-hw-mul\libgcc.a(_udivdi3.o)
 .data          0x00000000000a1e98        0x0 c:/intelfpga_lite/18.1/nios2eds/bin/gnu/h-x86_64-mingw32/bin/../lib/gcc/nios2-elf/5.3.0/mno-hw-mul\libgcc.a(_umoddi3.o)
 .data          0x00000000000a1e98        0x0 c:/intelfpga_lite/18.1/nios2eds/bin/gnu/h-x86_64-mingw32/bin/../lib/gcc/nios2-elf/5.3.0/mno-hw-mul\libgcc.a(eqdf2.o)
 .data          0x00000000000a1e98        0x0 c:/intelfpga_lite/18.1/nios2eds/bin/gnu/h-x86_64-mingw32/bin/../lib/gcc/nios2-elf/5.3.0/mno-hw-mul\libgcc.a(floatunsidf.o)
 .data          0x00000000000a1e98        0x0 ../RansacSoftware_bsp/\libhal_bsp.a(alt_close.o)
 .data          0x00000000000a1e98      0x1a8 ../RansacSoftware_bsp/\libhal_bsp.a(alt_dev.o)
                0x00000000000a1e98                alt_dev_null
                0x00000000000a1ec0                alt_fd_list
 .data          0x00000000000a2040        0x0 ../RansacSoftware_bsp/\libhal_bsp.a(alt_errno.o)
 .data          0x00000000000a2040        0x0 ../RansacSoftware_bsp/\libhal_bsp.a(alt_exit.o)
 .data          0x00000000000a2040        0x0 ../RansacSoftware_bsp/\libhal_bsp.a(alt_fstat.o)
 .data          0x00000000000a2040        0x0 ../RansacSoftware_bsp/\libhal_bsp.a(alt_isatty.o)
 .data          0x00000000000a2040        0x0 ../RansacSoftware_bsp/\libhal_bsp.a(alt_load.o)
 .data          0x00000000000a2040        0x0 ../RansacSoftware_bsp/\libhal_bsp.a(alt_lseek.o)
 .data          0x00000000000a2040        0x0 ../RansacSoftware_bsp/\libhal_bsp.a(alt_main.o)
 .data          0x00000000000a2040        0x0 ../RansacSoftware_bsp/\libhal_bsp.a(alt_malloc_lock.o)
 .data          0x00000000000a2040        0x0 ../RansacSoftware_bsp/\libhal_bsp.a(alt_open.o)
 .data          0x00000000000a2040        0x0 ../RansacSoftware_bsp/\libhal_bsp.a(alt_read.o)
 .data          0x00000000000a2040        0x0 ../RansacSoftware_bsp/\libhal_bsp.a(alt_release_fd.o)
 .data          0x00000000000a2040        0x0 ../RansacSoftware_bsp/\libhal_bsp.a(alt_sbrk.o)
 .data          0x00000000000a2040        0x0 ../RansacSoftware_bsp/\libhal_bsp.a(alt_write.o)
 .data          0x00000000000a2040     0x1088 ../RansacSoftware_bsp/\libhal_bsp.a(alt_sys_init.o)
 .data          0x00000000000a30c8        0x0 ../RansacSoftware_bsp/\libhal_bsp.a(altera_avalon_jtag_uart_fd.o)
 .data          0x00000000000a30c8        0x0 ../RansacSoftware_bsp/\libhal_bsp.a(altera_avalon_jtag_uart_init.o)
 .data          0x00000000000a30c8        0x0 ../RansacSoftware_bsp/\libhal_bsp.a(altera_avalon_jtag_uart_ioctl.o)
 .data          0x00000000000a30c8        0x0 ../RansacSoftware_bsp/\libhal_bsp.a(altera_avalon_jtag_uart_read.o)
 .data          0x00000000000a30c8        0x0 ../RansacSoftware_bsp/\libhal_bsp.a(altera_avalon_jtag_uart_write.o)
 .data          0x00000000000a30c8        0x0 ../RansacSoftware_bsp/\libhal_bsp.a(altera_hostfs.o)
 .data          0x00000000000a30c8        0x0 ../RansacSoftware_bsp/\libhal_bsp.a(alt_alarm_start.o)
 .data          0x00000000000a30c8        0x0 ../RansacSoftware_bsp/\libhal_bsp.a(alt_dcache_flush_all.o)
 .data          0x00000000000a30c8        0x0 ../RansacSoftware_bsp/\libhal_bsp.a(alt_dev_llist_insert.o)
 .data          0x00000000000a30c8        0x0 ../RansacSoftware_bsp/\libhal_bsp.a(alt_do_ctors.o)
 .data          0x00000000000a30c8        0x0 ../RansacSoftware_bsp/\libhal_bsp.a(alt_do_dtors.o)
 .data          0x00000000000a30c8        0x0 ../RansacSoftware_bsp/\libhal_bsp.a(alt_find_dev.o)
 .data          0x00000000000a30c8        0x0 ../RansacSoftware_bsp/\libhal_bsp.a(alt_find_file.o)
 .data          0x00000000000a30c8        0x0 ../RansacSoftware_bsp/\libhal_bsp.a(alt_fs_reg.o)
 .data          0x00000000000a30c8        0x0 ../RansacSoftware_bsp/\libhal_bsp.a(alt_get_fd.o)
 .data          0x00000000000a30c8        0x0 ../RansacSoftware_bsp/\libhal_bsp.a(alt_icache_flush_all.o)
 .data          0x00000000000a30c8        0x0 ../RansacSoftware_bsp/\libhal_bsp.a(alt_iic.o)
 .data          0x00000000000a30c8        0x0 ../RansacSoftware_bsp/\libhal_bsp.a(alt_iic_isr_register.o)
 .data          0x00000000000a30c8        0x0 ../RansacSoftware_bsp/\libhal_bsp.a(alt_io_redirect.o)
 .data          0x00000000000a30c8        0x0 ../RansacSoftware_bsp/\libhal_bsp.a(alt_irq_entry.o)
 .data          0x00000000000a30c8        0x0 ../RansacSoftware_bsp/\libhal_bsp.a(alt_irq_handler.o)
 .data          0x00000000000a30c8        0x0 ../RansacSoftware_bsp/\libhal_bsp.a(alt_irq_vars.o)
 .data          0x00000000000a30c8        0x0 ../RansacSoftware_bsp/\libhal_bsp.a(alt_tick.o)
 .data          0x00000000000a30c8        0x0 ../RansacSoftware_bsp/\libhal_bsp.a(altera_nios2_gen2_irq.o)
 .data          0x00000000000a30c8        0x0 ../RansacSoftware_bsp/\libhal_bsp.a(alt_exception_entry.o)
 .data          0x00000000000a30c8        0x0 ../RansacSoftware_bsp/\libhal_bsp.a(alt_instruction_exception_entry.o)
 .data          0x00000000000a30c8        0x0 ../RansacSoftware_bsp//newlib/nios2-elf/lib\libc.a(lib_a-atexit.o)
 .data          0x00000000000a30c8        0x0 ../RansacSoftware_bsp//newlib/nios2-elf/lib\libc.a(lib_a-memcmp.o)
 .data          0x00000000000a30c8        0x0 ../RansacSoftware_bsp//newlib/nios2-elf/lib\libc.a(lib_a-__atexit.o)
                0x00000000000ab0c8                _gp = ABSOLUTE ((. + 0x8000))
                [!provide]                        PROVIDE (gp, _gp)
 *(.rwdata .rwdata.*)
 *(.sdata .sdata.* .gnu.linkonce.s.*)
 .sdata.one     0x00000000000a30c8        0x8 ../RansacSoftware_bsp//newlib/nios2-elf/lib\libm.a(lib_a-s_atan.o)
 .sdata.huge    0x00000000000a30d0        0x8 ../RansacSoftware_bsp//newlib/nios2-elf/lib\libm.a(lib_a-s_atan.o)
 .sdata._impure_ptr
                0x00000000000a30d8        0x4 ../RansacSoftware_bsp//newlib/nios2-elf/lib\libc.a(lib_a-impure.o)
                0x00000000000a30d8                _impure_ptr
 .sdata._global_impure_ptr
                0x00000000000a30dc        0x4 ../RansacSoftware_bsp//newlib/nios2-elf/lib\libc.a(lib_a-impure.o)
                0x00000000000a30dc                _global_impure_ptr
 .sdata.__malloc_trim_threshold
                0x00000000000a30e0        0x4 ../RansacSoftware_bsp//newlib/nios2-elf/lib\libc.a(lib_a-mallocr.o)
                0x00000000000a30e0                __malloc_trim_threshold
 .sdata.__malloc_sbrk_base
                0x00000000000a30e4        0x4 ../RansacSoftware_bsp//newlib/nios2-elf/lib\libc.a(lib_a-mallocr.o)
                0x00000000000a30e4                __malloc_sbrk_base
 .sdata.__ctype_ptr__
                0x00000000000a30e8        0x4 ../RansacSoftware_bsp//newlib/nios2-elf/lib\libc.a(lib_a-ctype_.o)
                0x00000000000a30e8                __ctype_ptr__
 .sdata.__mb_cur_max
                0x00000000000a30ec        0x4 ../RansacSoftware_bsp//newlib/nios2-elf/lib\libc.a(lib_a-locale.o)
                0x00000000000a30ec                __mb_cur_max
 .sdata.__mbtowc
                0x00000000000a30f0        0x4 ../RansacSoftware_bsp//newlib/nios2-elf/lib\libc.a(lib_a-mbtowc_r.o)
                0x00000000000a30f0                __mbtowc
 .sdata.__wctomb
                0x00000000000a30f4        0x4 ../RansacSoftware_bsp//newlib/nios2-elf/lib\libc.a(lib_a-wctomb_r.o)
                0x00000000000a30f4                __wctomb
 .sdata         0x00000000000a30f8       0x14 ../RansacSoftware_bsp/\libhal_bsp.a(alt_dev.o)
                0x00000000000a30f8                alt_fs_list
                0x00000000000a3100                alt_dev_list
                0x00000000000a3108                alt_max_fd
 .sdata         0x00000000000a310c        0x4 ../RansacSoftware_bsp/\libhal_bsp.a(alt_errno.o)
                0x00000000000a310c                alt_errno
 .sdata         0x00000000000a3110        0x4 ../RansacSoftware_bsp/\libhal_bsp.a(alt_sbrk.o)
 .sdata         0x00000000000a3114       0x46 ../RansacSoftware_bsp/\libhal_bsp.a(altera_hostfs.o)
 *fill*         0x00000000000a315a        0x2 
 .sdata         0x00000000000a315c        0x4 ../RansacSoftware_bsp/\libhal_bsp.a(alt_irq_vars.o)
                0x00000000000a315c                alt_priority_mask
 .sdata         0x00000000000a3160        0x8 ../RansacSoftware_bsp/\libhal_bsp.a(alt_tick.o)
                0x00000000000a3160                alt_alarm_list
 *(.sdata2 .sdata2.* .gnu.linkonce.s2.*)
                0x00000000000a3168                . = ALIGN (0x4)
                0x00000000000a3168                _edata = ABSOLUTE (.)
                [!provide]                        PROVIDE (edata, ABSOLUTE (.))
                0x00000000000a3168                PROVIDE (__ram_rwdata_end, ABSOLUTE (.))
                0x00000000000a3168                PROVIDE (__flash_rwdata_start, LOADADDR (.rwdata))

.bss            0x00000000000a4cdc      0x190
                0x00000000000a4cdc                __bss_start = ABSOLUTE (.)
                [!provide]                        PROVIDE (__sbss_start, ABSOLUTE (.))
                [!provide]                        PROVIDE (___sbss_start, ABSOLUTE (.))
 *(.dynsbss)
 *(.sbss .sbss.* .gnu.linkonce.sb.*)
 .sbss          0x00000000000a4cdc       0x20 obj/default/main.o
                0x00000000000a4cdc                getAngleFromModel_counter
                0x00000000000a4ce0                inliersOutliers_counter
                0x00000000000a4ce4                calculateIntersection_counter
                0x00000000000a4ce8                square_root_counter
                0x00000000000a4cec                coefficientOfDetermination_counter
                0x00000000000a4cf0                inliersOutliersMemory_counter
                0x00000000000a4cf4                leastSquare_counter
                0x00000000000a4cf8                squareDistanceBetweenPoints_counter
 .sbss.__sfp_lock
                0x00000000000a4cfc        0x4 ../RansacSoftware_bsp//newlib/nios2-elf/lib\libc.a(lib_a-findfp.o)
 .sbss.__sinit_lock
                0x00000000000a4d00        0x4 ../RansacSoftware_bsp//newlib/nios2-elf/lib\libc.a(lib_a-findfp.o)
 .sbss          0x00000000000a4d04        0x4 ../RansacSoftware_bsp//newlib/nios2-elf/lib\libc.a(lib_a-int_errno.o)
                0x00000000000a4d04                errno
 .sbss.__malloc_top_pad
                0x00000000000a4d08        0x4 ../RansacSoftware_bsp//newlib/nios2-elf/lib\libc.a(lib_a-mallocr.o)
                0x00000000000a4d08                __malloc_top_pad
 .sbss.__malloc_max_sbrked_mem
                0x00000000000a4d0c        0x4 ../RansacSoftware_bsp//newlib/nios2-elf/lib\libc.a(lib_a-mallocr.o)
                0x00000000000a4d0c                __malloc_max_sbrked_mem
 .sbss.__malloc_max_total_mem
                0x00000000000a4d10        0x4 ../RansacSoftware_bsp//newlib/nios2-elf/lib\libc.a(lib_a-mallocr.o)
                0x00000000000a4d10                __malloc_max_total_mem
 .sbss.__atexit_lock
                0x00000000000a4d14        0x4 ../RansacSoftware_bsp//newlib/nios2-elf/lib\libc.a(lib_a-__call_atexit.o)
 .sbss.__nlocale_changed
                0x00000000000a4d18        0x4 ../RansacSoftware_bsp//newlib/nios2-elf/lib\libc.a(lib_a-locale.o)
                0x00000000000a4d18                __nlocale_changed
 .sbss.__mlocale_changed
                0x00000000000a4d1c        0x4 ../RansacSoftware_bsp//newlib/nios2-elf/lib\libc.a(lib_a-locale.o)
                0x00000000000a4d1c                __mlocale_changed
 .sbss._PathLocale
                0x00000000000a4d20        0x4 ../RansacSoftware_bsp//newlib/nios2-elf/lib\libc.a(lib_a-locale.o)
                0x00000000000a4d20                _PathLocale
 .sbss.lc_ctype_cjk_lang
                0x00000000000a4d24        0x4 ../RansacSoftware_bsp//newlib/nios2-elf/lib\libc.a(lib_a-locale.o)
 .sbss          0x00000000000a4d28        0xc ../RansacSoftware_bsp/\libhal_bsp.a(alt_main.o)
                0x00000000000a4d28                alt_argc
                0x00000000000a4d2c                alt_argv
                0x00000000000a4d30                alt_envp
 .sbss          0x00000000000a4d34        0x4 ../RansacSoftware_bsp/\libhal_bsp.a(alt_irq_vars.o)
                0x00000000000a4d34                alt_irq_active
 .sbss          0x00000000000a4d38        0x8 ../RansacSoftware_bsp/\libhal_bsp.a(alt_tick.o)
                0x00000000000a4d38                _alt_tick_rate
                0x00000000000a4d3c                _alt_nticks
 .sbss          0x00000000000a4d40        0x4 ../RansacSoftware_bsp/\libhal_bsp.a(alt_instruction_exception_entry.o)
                0x00000000000a4d40                alt_instruction_exception_handler
 *(.sbss2 .sbss2.* .gnu.linkonce.sb2.*)
 *(.scommon)
                [!provide]                        PROVIDE (__sbss_end, ABSOLUTE (.))
                [!provide]                        PROVIDE (___sbss_end, ABSOLUTE (.))
 *(.dynbss)
 *(.bss .bss.* .gnu.linkonce.b.*)
 .bss           0x00000000000a4d44        0x0 ../RansacSoftware_bsp//obj/HAL/src/crt0.o
 .bss           0x00000000000a4d44        0x0 obj/default/main.o
 .bss           0x00000000000a4d44        0x0 obj/default/ransac.o
 .bss           0x00000000000a4d44        0x0 ../RansacSoftware_bsp//newlib/nios2-elf/lib\libm.a(lib_a-s_atan.o)
 .bss           0x00000000000a4d44        0x0 ../RansacSoftware_bsp//newlib/nios2-elf/lib\libm.a(lib_a-s_fabs.o)
 .bss           0x00000000000a4d44        0x0 c:/intelfpga_lite/18.1/nios2eds/bin/gnu/h-x86_64-mingw32/bin/../lib/gcc/nios2-elf/5.3.0/mno-hw-mul\libgcc.a(lib2-divmod.o)
 .bss           0x00000000000a4d44        0x0 c:/intelfpga_lite/18.1/nios2eds/bin/gnu/h-x86_64-mingw32/bin/../lib/gcc/nios2-elf/5.3.0/mno-hw-mul\libgcc.a(lib2-mul.o)
 .bss           0x00000000000a4d44        0x0 c:/intelfpga_lite/18.1/nios2eds/bin/gnu/h-x86_64-mingw32/bin/../lib/gcc/nios2-elf/5.3.0/mno-hw-mul\libgcc.a(adddf3.o)
 .bss           0x00000000000a4d44        0x0 c:/intelfpga_lite/18.1/nios2eds/bin/gnu/h-x86_64-mingw32/bin/../lib/gcc/nios2-elf/5.3.0/mno-hw-mul\libgcc.a(divdf3.o)
 .bss           0x00000000000a4d44        0x0 c:/intelfpga_lite/18.1/nios2eds/bin/gnu/h-x86_64-mingw32/bin/../lib/gcc/nios2-elf/5.3.0/mno-hw-mul\libgcc.a(gedf2.o)
 .bss           0x00000000000a4d44        0x0 c:/intelfpga_lite/18.1/nios2eds/bin/gnu/h-x86_64-mingw32/bin/../lib/gcc/nios2-elf/5.3.0/mno-hw-mul\libgcc.a(ledf2.o)
 .bss           0x00000000000a4d44        0x0 c:/intelfpga_lite/18.1/nios2eds/bin/gnu/h-x86_64-mingw32/bin/../lib/gcc/nios2-elf/5.3.0/mno-hw-mul\libgcc.a(muldf3.o)
 .bss           0x00000000000a4d44        0x0 c:/intelfpga_lite/18.1/nios2eds/bin/gnu/h-x86_64-mingw32/bin/../lib/gcc/nios2-elf/5.3.0/mno-hw-mul\libgcc.a(subdf3.o)
 .bss           0x00000000000a4d44        0x0 c:/intelfpga_lite/18.1/nios2eds/bin/gnu/h-x86_64-mingw32/bin/../lib/gcc/nios2-elf/5.3.0/mno-hw-mul\libgcc.a(fixdfsi.o)
 .bss           0x00000000000a4d44        0x0 c:/intelfpga_lite/18.1/nios2eds/bin/gnu/h-x86_64-mingw32/bin/../lib/gcc/nios2-elf/5.3.0/mno-hw-mul\libgcc.a(floatsidf.o)
 .bss           0x00000000000a4d44        0x0 c:/intelfpga_lite/18.1/nios2eds/bin/gnu/h-x86_64-mingw32/bin/../lib/gcc/nios2-elf/5.3.0/mno-hw-mul\libgcc.a(extendsfdf2.o)
 .bss           0x00000000000a4d44        0x0 c:/intelfpga_lite/18.1/nios2eds/bin/gnu/h-x86_64-mingw32/bin/../lib/gcc/nios2-elf/5.3.0/mno-hw-mul\libgcc.a(truncdfsf2.o)
 .bss           0x00000000000a4d44        0x0 c:/intelfpga_lite/18.1/nios2eds/bin/gnu/h-x86_64-mingw32/bin/../lib/gcc/nios2-elf/5.3.0/mno-hw-mul\libgcc.a(_clzsi2.o)
 .bss           0x00000000000a4d44        0x0 c:/intelfpga_lite/18.1/nios2eds/bin/gnu/h-x86_64-mingw32/bin/../lib/gcc/nios2-elf/5.3.0/mno-hw-mul\libgcc.a(_clz.o)
 .bss           0x00000000000a4d44        0x0 ../RansacSoftware_bsp//newlib/nios2-elf/lib\libc.a(lib_a-exit.o)
 .bss           0x00000000000a4d44        0x0 ../RansacSoftware_bsp//newlib/nios2-elf/lib\libc.a(lib_a-fclose.o)
 .bss           0x00000000000a4d44        0x0 ../RansacSoftware_bsp//newlib/nios2-elf/lib\libc.a(lib_a-fflush.o)
 .bss           0x00000000000a4d44        0x0 ../RansacSoftware_bsp//newlib/nios2-elf/lib\libc.a(lib_a-findfp.o)
 .bss           0x00000000000a4d44        0x0 ../RansacSoftware_bsp//newlib/nios2-elf/lib\libc.a(lib_a-fopen.o)
 .bss           0x00000000000a4d44        0x0 ../RansacSoftware_bsp//newlib/nios2-elf/lib\libc.a(lib_a-fprintf.o)
 .bss           0x00000000000a4d44        0x0 ../RansacSoftware_bsp//newlib/nios2-elf/lib\libc.a(lib_a-fputc.o)
 .bss           0x00000000000a4d44        0x0 ../RansacSoftware_bsp//newlib/nios2-elf/lib\libc.a(lib_a-freer.o)
 .bss           0x00000000000a4d44        0x0 ../RansacSoftware_bsp//newlib/nios2-elf/lib\libc.a(lib_a-fscanf.o)
 .bss           0x00000000000a4d44        0x0 ../RansacSoftware_bsp//newlib/nios2-elf/lib\libc.a(lib_a-fseek.o)
 .bss           0x00000000000a4d44        0x0 ../RansacSoftware_bsp//newlib/nios2-elf/lib\libc.a(lib_a-fseeko.o)
 .bss           0x00000000000a4d44        0x0 ../RansacSoftware_bsp//newlib/nios2-elf/lib\libc.a(lib_a-fstatr.o)
 .bss           0x00000000000a4d44        0x0 ../RansacSoftware_bsp//newlib/nios2-elf/lib\libc.a(lib_a-fwalk.o)
 .bss           0x00000000000a4d44        0x0 ../RansacSoftware_bsp//newlib/nios2-elf/lib\libc.a(lib_a-fwrite.o)
 .bss           0x00000000000a4d44        0x0 ../RansacSoftware_bsp//newlib/nios2-elf/lib\libc.a(lib_a-impure.o)
 .bss           0x00000000000a4d44        0x0 ../RansacSoftware_bsp//newlib/nios2-elf/lib\libc.a(lib_a-int_errno.o)
 .bss           0x00000000000a4d44        0x0 ../RansacSoftware_bsp//newlib/nios2-elf/lib\libc.a(lib_a-makebuf.o)
 .bss           0x00000000000a4d44        0x0 ../RansacSoftware_bsp//newlib/nios2-elf/lib\libc.a(lib_a-mallocr.o)
 .bss.__malloc_current_mallinfo
                0x00000000000a4d44       0x28 ../RansacSoftware_bsp//newlib/nios2-elf/lib\libc.a(lib_a-mallocr.o)
                0x00000000000a4d44                __malloc_current_mallinfo
 .bss           0x00000000000a4d6c        0x0 ../RansacSoftware_bsp//newlib/nios2-elf/lib\libc.a(lib_a-memset.o)
 .bss           0x00000000000a4d6c        0x0 ../RansacSoftware_bsp//newlib/nios2-elf/lib\libc.a(lib_a-openr.o)
 .bss           0x00000000000a4d6c        0x0 ../RansacSoftware_bsp//newlib/nios2-elf/lib\libc.a(lib_a-putc.o)
 .bss           0x00000000000a4d6c        0x0 ../RansacSoftware_bsp//newlib/nios2-elf/lib\libc.a(lib_a-puts.o)
 .bss           0x00000000000a4d6c        0x0 ../RansacSoftware_bsp//newlib/nios2-elf/lib\libc.a(lib_a-rand.o)
 .bss           0x00000000000a4d6c        0x0 ../RansacSoftware_bsp//newlib/nios2-elf/lib\libc.a(lib_a-refill.o)
 .bss           0x00000000000a4d6c        0x0 ../RansacSoftware_bsp//newlib/nios2-elf/lib\libc.a(lib_a-sbrkr.o)
 .bss           0x00000000000a4d6c        0x0 ../RansacSoftware_bsp//newlib/nios2-elf/lib\libc.a(lib_a-stdio.o)
 .bss           0x00000000000a4d6c        0x0 ../RansacSoftware_bsp//newlib/nios2-elf/lib\libc.a(lib_a-strlen.o)
 .bss           0x00000000000a4d6c        0x0 ../RansacSoftware_bsp//newlib/nios2-elf/lib\libc.a(lib_a-vfprintf.o)
 .bss           0x00000000000a4d6c        0x0 ../RansacSoftware_bsp//newlib/nios2-elf/lib\libc.a(lib_a-vfscanf.o)
 .bss           0x00000000000a4d6c        0x0 ../RansacSoftware_bsp//newlib/nios2-elf/lib\libc.a(lib_a-wbuf.o)
 .bss           0x00000000000a4d6c        0x0 ../RansacSoftware_bsp//newlib/nios2-elf/lib\libc.a(lib_a-writer.o)
 .bss           0x00000000000a4d6c        0x0 ../RansacSoftware_bsp//newlib/nios2-elf/lib\libc.a(lib_a-wsetup.o)
 .bss           0x00000000000a4d6c        0x0 ../RansacSoftware_bsp//newlib/nios2-elf/lib\libc.a(closer.o)
 .bss           0x00000000000a4d6c        0x0 ../RansacSoftware_bsp//newlib/nios2-elf/lib\libc.a(lib_a-__call_atexit.o)
 .bss           0x00000000000a4d6c        0x0 ../RansacSoftware_bsp//newlib/nios2-elf/lib\libc.a(lib_a-ctype_.o)
 .bss           0x00000000000a4d6c        0x0 ../RansacSoftware_bsp//newlib/nios2-elf/lib\libc.a(lib_a-dtoa.o)
 .bss           0x00000000000a4d6c        0x0 ../RansacSoftware_bsp//newlib/nios2-elf/lib\libc.a(lib_a-flags.o)
 .bss           0x00000000000a4d6c        0x0 ../RansacSoftware_bsp//newlib/nios2-elf/lib\libc.a(lib_a-fread.o)
 .bss           0x00000000000a4d6c        0x0 ../RansacSoftware_bsp//newlib/nios2-elf/lib\libc.a(lib_a-fvwrite.o)
 .bss           0x00000000000a4d6c        0x0 ../RansacSoftware_bsp//newlib/nios2-elf/lib\libc.a(lib_a-isattyr.o)
 .bss           0x00000000000a4d6c        0x0 ../RansacSoftware_bsp//newlib/nios2-elf/lib\libc.a(lib_a-iswspace.o)
 .bss           0x00000000000a4d6c        0x0 ../RansacSoftware_bsp//newlib/nios2-elf/lib\libc.a(lib_a-locale.o)
 .bss           0x00000000000a4d6c        0x0 ../RansacSoftware_bsp//newlib/nios2-elf/lib\libc.a(lib_a-lseekr.o)
 .bss           0x00000000000a4d6c        0x0 ../RansacSoftware_bsp//newlib/nios2-elf/lib\libc.a(lib_a-mbrtowc.o)
 .bss           0x00000000000a4d6c        0x0 ../RansacSoftware_bsp//newlib/nios2-elf/lib\libc.a(lib_a-mbtowc_r.o)
 .bss           0x00000000000a4d6c        0x0 ../RansacSoftware_bsp//newlib/nios2-elf/lib\libc.a(lib_a-memchr.o)
 .bss           0x00000000000a4d6c        0x0 ../RansacSoftware_bsp//newlib/nios2-elf/lib\libc.a(lib_a-memcpy.o)
 .bss           0x00000000000a4d6c        0x0 ../RansacSoftware_bsp//newlib/nios2-elf/lib\libc.a(lib_a-memmove.o)
 .bss           0x00000000000a4d6c        0x0 ../RansacSoftware_bsp//newlib/nios2-elf/lib\libc.a(lib_a-mprec.o)
 .bss           0x00000000000a4d6c        0x0 ../RansacSoftware_bsp//newlib/nios2-elf/lib\libc.a(lib_a-readr.o)
 .bss           0x00000000000a4d6c        0x0 ../RansacSoftware_bsp//newlib/nios2-elf/lib\libc.a(lib_a-reallocr.o)
 .bss           0x00000000000a4d6c        0x0 ../RansacSoftware_bsp//newlib/nios2-elf/lib\libc.a(lib_a-s_fpclassify.o)
 .bss           0x00000000000a4d6c        0x0 ../RansacSoftware_bsp//newlib/nios2-elf/lib\libc.a(lib_a-sccl.o)
 .bss           0x00000000000a4d6c        0x0 ../RansacSoftware_bsp//newlib/nios2-elf/lib\libc.a(lib_a-sf_nan.o)
 .bss           0x00000000000a4d6c        0x0 ../RansacSoftware_bsp//newlib/nios2-elf/lib\libc.a(lib_a-sprintf.o)
 .bss           0x00000000000a4d6c        0x0 ../RansacSoftware_bsp//newlib/nios2-elf/lib\libc.a(lib_a-strcmp.o)
 .bss           0x00000000000a4d6c        0x0 ../RansacSoftware_bsp//newlib/nios2-elf/lib\libc.a(lib_a-strtod.o)
 .bss           0x00000000000a4d6c        0x0 ../RansacSoftware_bsp//newlib/nios2-elf/lib\libc.a(lib_a-strtol.o)
 .bss           0x00000000000a4d6c        0x0 ../RansacSoftware_bsp//newlib/nios2-elf/lib\libc.a(lib_a-strtoll_r.o)
 .bss           0x00000000000a4d6c        0x0 ../RansacSoftware_bsp//newlib/nios2-elf/lib\libc.a(lib_a-strtoul.o)
 .bss           0x00000000000a4d6c        0x0 ../RansacSoftware_bsp//newlib/nios2-elf/lib\libc.a(lib_a-strtoull_r.o)
 .bss           0x00000000000a4d6c        0x0 ../RansacSoftware_bsp//newlib/nios2-elf/lib\libc.a(lib_a-svfprintf.o)
 .bss           0x00000000000a4d6c        0x0 ../RansacSoftware_bsp//newlib/nios2-elf/lib\libc.a(lib_a-ungetc.o)
 .bss           0x00000000000a4d6c        0x0 ../RansacSoftware_bsp//newlib/nios2-elf/lib\libc.a(lib_a-vfiprintf.o)
 .bss           0x00000000000a4d6c        0x0 ../RansacSoftware_bsp//newlib/nios2-elf/lib\libc.a(lib_a-callocr.o)
 .bss           0x00000000000a4d6c        0x0 ../RansacSoftware_bsp//newlib/nios2-elf/lib\libc.a(lib_a-fputwc.o)
 .bss           0x00000000000a4d6c        0x0 ../RansacSoftware_bsp//newlib/nios2-elf/lib\libc.a(lib_a-gdtoa-gethex.o)
 .bss           0x00000000000a4d6c        0x0 ../RansacSoftware_bsp//newlib/nios2-elf/lib\libc.a(lib_a-gdtoa-hexnan.o)
 .bss           0x00000000000a4d6c        0x0 ../RansacSoftware_bsp//newlib/nios2-elf/lib\libc.a(lib_a-strncmp.o)
 .bss           0x00000000000a4d6c        0x0 ../RansacSoftware_bsp//newlib/nios2-elf/lib\libc.a(lib_a-svfiprintf.o)
 .bss           0x00000000000a4d6c        0x0 ../RansacSoftware_bsp//newlib/nios2-elf/lib\libc.a(lib_a-wcrtomb.o)
 .bss           0x00000000000a4d6c        0x0 ../RansacSoftware_bsp//newlib/nios2-elf/lib\libc.a(lib_a-wctomb_r.o)
 .bss           0x00000000000a4d6c        0x0 c:/intelfpga_lite/18.1/nios2eds/bin/gnu/h-x86_64-mingw32/bin/../lib/gcc/nios2-elf/5.3.0/mno-hw-mul\libgcc.a(_muldi3.o)
 .bss           0x00000000000a4d6c        0x0 c:/intelfpga_lite/18.1/nios2eds/bin/gnu/h-x86_64-mingw32/bin/../lib/gcc/nios2-elf/5.3.0/mno-hw-mul\libgcc.a(_fixunsdfsi.o)
 .bss           0x00000000000a4d6c        0x0 c:/intelfpga_lite/18.1/nios2eds/bin/gnu/h-x86_64-mingw32/bin/../lib/gcc/nios2-elf/5.3.0/mno-hw-mul\libgcc.a(_udivdi3.o)
 .bss           0x00000000000a4d6c        0x0 c:/intelfpga_lite/18.1/nios2eds/bin/gnu/h-x86_64-mingw32/bin/../lib/gcc/nios2-elf/5.3.0/mno-hw-mul\libgcc.a(_umoddi3.o)
 .bss           0x00000000000a4d6c        0x0 c:/intelfpga_lite/18.1/nios2eds/bin/gnu/h-x86_64-mingw32/bin/../lib/gcc/nios2-elf/5.3.0/mno-hw-mul\libgcc.a(eqdf2.o)
 .bss           0x00000000000a4d6c        0x0 c:/intelfpga_lite/18.1/nios2eds/bin/gnu/h-x86_64-mingw32/bin/../lib/gcc/nios2-elf/5.3.0/mno-hw-mul\libgcc.a(floatunsidf.o)
 .bss           0x00000000000a4d6c        0x0 ../RansacSoftware_bsp/\libhal_bsp.a(alt_close.o)
 .bss           0x00000000000a4d6c        0x0 ../RansacSoftware_bsp/\libhal_bsp.a(alt_dev.o)
 .bss           0x00000000000a4d6c        0x0 ../RansacSoftware_bsp/\libhal_bsp.a(alt_errno.o)
 .bss           0x00000000000a4d6c        0x0 ../RansacSoftware_bsp/\libhal_bsp.a(alt_exit.o)
 .bss           0x00000000000a4d6c        0x0 ../RansacSoftware_bsp/\libhal_bsp.a(alt_fstat.o)
 .bss           0x00000000000a4d6c        0x0 ../RansacSoftware_bsp/\libhal_bsp.a(alt_isatty.o)
 .bss           0x00000000000a4d6c        0x0 ../RansacSoftware_bsp/\libhal_bsp.a(alt_load.o)
 .bss           0x00000000000a4d6c        0x0 ../RansacSoftware_bsp/\libhal_bsp.a(alt_lseek.o)
 .bss           0x00000000000a4d6c        0x0 ../RansacSoftware_bsp/\libhal_bsp.a(alt_main.o)
 .bss           0x00000000000a4d6c        0x0 ../RansacSoftware_bsp/\libhal_bsp.a(alt_malloc_lock.o)
 .bss           0x00000000000a4d6c        0x0 ../RansacSoftware_bsp/\libhal_bsp.a(alt_open.o)
 .bss           0x00000000000a4d6c        0x0 ../RansacSoftware_bsp/\libhal_bsp.a(alt_read.o)
 .bss           0x00000000000a4d6c        0x0 ../RansacSoftware_bsp/\libhal_bsp.a(alt_release_fd.o)
 .bss           0x00000000000a4d6c        0x0 ../RansacSoftware_bsp/\libhal_bsp.a(alt_sbrk.o)
 .bss           0x00000000000a4d6c        0x0 ../RansacSoftware_bsp/\libhal_bsp.a(alt_write.o)
 .bss           0x00000000000a4d6c        0x0 ../RansacSoftware_bsp/\libhal_bsp.a(alt_sys_init.o)
 .bss           0x00000000000a4d6c        0x0 ../RansacSoftware_bsp/\libhal_bsp.a(altera_avalon_jtag_uart_fd.o)
 .bss           0x00000000000a4d6c        0x0 ../RansacSoftware_bsp/\libhal_bsp.a(altera_avalon_jtag_uart_init.o)
 .bss           0x00000000000a4d6c        0x0 ../RansacSoftware_bsp/\libhal_bsp.a(altera_avalon_jtag_uart_ioctl.o)
 .bss           0x00000000000a4d6c        0x0 ../RansacSoftware_bsp/\libhal_bsp.a(altera_avalon_jtag_uart_read.o)
 .bss           0x00000000000a4d6c        0x0 ../RansacSoftware_bsp/\libhal_bsp.a(altera_avalon_jtag_uart_write.o)
 .bss           0x00000000000a4d6c        0x0 ../RansacSoftware_bsp/\libhal_bsp.a(altera_hostfs.o)
 .bss           0x00000000000a4d6c        0x0 ../RansacSoftware_bsp/\libhal_bsp.a(alt_alarm_start.o)
 .bss           0x00000000000a4d6c        0x0 ../RansacSoftware_bsp/\libhal_bsp.a(alt_dcache_flush_all.o)
 .bss           0x00000000000a4d6c        0x0 ../RansacSoftware_bsp/\libhal_bsp.a(alt_dev_llist_insert.o)
 .bss           0x00000000000a4d6c        0x0 ../RansacSoftware_bsp/\libhal_bsp.a(alt_do_ctors.o)
 .bss           0x00000000000a4d6c        0x0 ../RansacSoftware_bsp/\libhal_bsp.a(alt_do_dtors.o)
 .bss           0x00000000000a4d6c        0x0 ../RansacSoftware_bsp/\libhal_bsp.a(alt_find_dev.o)
 .bss           0x00000000000a4d6c        0x0 ../RansacSoftware_bsp/\libhal_bsp.a(alt_find_file.o)
 .bss           0x00000000000a4d6c        0x0 ../RansacSoftware_bsp/\libhal_bsp.a(alt_fs_reg.o)
 .bss           0x00000000000a4d6c        0x0 ../RansacSoftware_bsp/\libhal_bsp.a(alt_get_fd.o)
 .bss           0x00000000000a4d6c        0x0 ../RansacSoftware_bsp/\libhal_bsp.a(alt_icache_flush_all.o)
 .bss           0x00000000000a4d6c        0x0 ../RansacSoftware_bsp/\libhal_bsp.a(alt_iic.o)
 .bss           0x00000000000a4d6c        0x0 ../RansacSoftware_bsp/\libhal_bsp.a(alt_iic_isr_register.o)
 .bss           0x00000000000a4d6c        0x0 ../RansacSoftware_bsp/\libhal_bsp.a(alt_io_redirect.o)
 .bss           0x00000000000a4d6c        0x0 ../RansacSoftware_bsp/\libhal_bsp.a(alt_irq_entry.o)
 .bss           0x00000000000a4d6c        0x0 ../RansacSoftware_bsp/\libhal_bsp.a(alt_irq_handler.o)
 .bss           0x00000000000a4d6c        0x0 ../RansacSoftware_bsp/\libhal_bsp.a(alt_irq_vars.o)
 .bss           0x00000000000a4d6c        0x0 ../RansacSoftware_bsp/\libhal_bsp.a(alt_tick.o)
 .bss           0x00000000000a4d6c        0x0 ../RansacSoftware_bsp/\libhal_bsp.a(altera_nios2_gen2_irq.o)
 .bss           0x00000000000a4d6c        0x0 ../RansacSoftware_bsp/\libhal_bsp.a(alt_exception_entry.o)
 .bss           0x00000000000a4d6c        0x0 ../RansacSoftware_bsp/\libhal_bsp.a(alt_instruction_exception_entry.o)
 .bss           0x00000000000a4d6c        0x0 ../RansacSoftware_bsp//newlib/nios2-elf/lib\libc.a(lib_a-atexit.o)
 .bss           0x00000000000a4d6c        0x0 ../RansacSoftware_bsp//newlib/nios2-elf/lib\libc.a(lib_a-memcmp.o)
 .bss           0x00000000000a4d6c        0x0 ../RansacSoftware_bsp//newlib/nios2-elf/lib\libc.a(lib_a-__atexit.o)
 *(COMMON)
 COMMON         0x00000000000a4d6c      0x100 ../RansacSoftware_bsp/\libhal_bsp.a(alt_irq_handler.o)
                0x00000000000a4d6c                alt_irq
                0x00000000000a4e6c                . = ALIGN (0x4)
                0x00000000000a4e6c                __bss_end = ABSOLUTE (.)

.MemoriaDados   0x0000000000000000        0x0 load address 0x00000000000a4e6c
                [!provide]                        PROVIDE (_alt_partition_MemoriaDados_start, ABSOLUTE (.))
 *(.MemoriaDados .MemoriaDados. MemoriaDados.*)
                0x0000000000000000                . = ALIGN (0x4)
                [!provide]                        PROVIDE (_alt_partition_MemoriaDados_end, ABSOLUTE (.))
                [!provide]                        PROVIDE (_alt_partition_MemoriaDados_load_addr, LOADADDR (.MemoriaDados))

.MemoriaPrograma
                0x00000000000a4e6c        0x0
                [!provide]                        PROVIDE (_alt_partition_MemoriaPrograma_start, ABSOLUTE (.))
 *(.MemoriaPrograma .MemoriaPrograma. MemoriaPrograma.*)
                0x00000000000a4e6c                . = ALIGN (0x4)
                [!provide]                        PROVIDE (_alt_partition_MemoriaPrograma_end, ABSOLUTE (.))
                0x00000000000a4e6c                _end = ABSOLUTE (.)
                0x00000000000a4e6c                end = ABSOLUTE (.)
                0x00000000000a4e6c                __alt_stack_base = ABSOLUTE (.)
                [!provide]                        PROVIDE (_alt_partition_MemoriaPrograma_load_addr, LOADADDR (.MemoriaPrograma))

.stab
 *(.stab)

.stabstr
 *(.stabstr)

.stab.excl
 *(.stab.excl)

.stab.exclstr
 *(.stab.exclstr)

.stab.index
 *(.stab.index)

.stab.indexstr
 *(.stab.indexstr)

.comment        0x0000000000000000       0x23
 *(.comment)
 .comment       0x0000000000000000       0x23 obj/default/main.o
                                         0x24 (size before relaxing)
 .comment       0x0000000000000023       0x24 obj/default/ransac.o
 .comment       0x0000000000000023       0x24 ../RansacSoftware_bsp//newlib/nios2-elf/lib\libm.a(lib_a-s_atan.o)
 .comment       0x0000000000000023       0x24 ../RansacSoftware_bsp//newlib/nios2-elf/lib\libm.a(lib_a-s_fabs.o)
 .comment       0x0000000000000023       0x24 c:/intelfpga_lite/18.1/nios2eds/bin/gnu/h-x86_64-mingw32/bin/../lib/gcc/nios2-elf/5.3.0/mno-hw-mul\libgcc.a(lib2-divmod.o)
 .comment       0x0000000000000023       0x24 c:/intelfpga_lite/18.1/nios2eds/bin/gnu/h-x86_64-mingw32/bin/../lib/gcc/nios2-elf/5.3.0/mno-hw-mul\libgcc.a(lib2-mul.o)
 .comment       0x0000000000000023       0x24 c:/intelfpga_lite/18.1/nios2eds/bin/gnu/h-x86_64-mingw32/bin/../lib/gcc/nios2-elf/5.3.0/mno-hw-mul\libgcc.a(adddf3.o)
 .comment       0x0000000000000023       0x24 c:/intelfpga_lite/18.1/nios2eds/bin/gnu/h-x86_64-mingw32/bin/../lib/gcc/nios2-elf/5.3.0/mno-hw-mul\libgcc.a(divdf3.o)
 .comment       0x0000000000000023       0x24 c:/intelfpga_lite/18.1/nios2eds/bin/gnu/h-x86_64-mingw32/bin/../lib/gcc/nios2-elf/5.3.0/mno-hw-mul\libgcc.a(gedf2.o)
 .comment       0x0000000000000023       0x24 c:/intelfpga_lite/18.1/nios2eds/bin/gnu/h-x86_64-mingw32/bin/../lib/gcc/nios2-elf/5.3.0/mno-hw-mul\libgcc.a(ledf2.o)
 .comment       0x0000000000000023       0x24 c:/intelfpga_lite/18.1/nios2eds/bin/gnu/h-x86_64-mingw32/bin/../lib/gcc/nios2-elf/5.3.0/mno-hw-mul\libgcc.a(muldf3.o)
 .comment       0x0000000000000023       0x24 c:/intelfpga_lite/18.1/nios2eds/bin/gnu/h-x86_64-mingw32/bin/../lib/gcc/nios2-elf/5.3.0/mno-hw-mul\libgcc.a(subdf3.o)
 .comment       0x0000000000000023       0x24 c:/intelfpga_lite/18.1/nios2eds/bin/gnu/h-x86_64-mingw32/bin/../lib/gcc/nios2-elf/5.3.0/mno-hw-mul\libgcc.a(fixdfsi.o)
 .comment       0x0000000000000023       0x24 c:/intelfpga_lite/18.1/nios2eds/bin/gnu/h-x86_64-mingw32/bin/../lib/gcc/nios2-elf/5.3.0/mno-hw-mul\libgcc.a(floatsidf.o)
 .comment       0x0000000000000023       0x24 c:/intelfpga_lite/18.1/nios2eds/bin/gnu/h-x86_64-mingw32/bin/../lib/gcc/nios2-elf/5.3.0/mno-hw-mul\libgcc.a(extendsfdf2.o)
 .comment       0x0000000000000023       0x24 c:/intelfpga_lite/18.1/nios2eds/bin/gnu/h-x86_64-mingw32/bin/../lib/gcc/nios2-elf/5.3.0/mno-hw-mul\libgcc.a(truncdfsf2.o)
 .comment       0x0000000000000023       0x24 c:/intelfpga_lite/18.1/nios2eds/bin/gnu/h-x86_64-mingw32/bin/../lib/gcc/nios2-elf/5.3.0/mno-hw-mul\libgcc.a(_clzsi2.o)
 .comment       0x0000000000000023       0x24 c:/intelfpga_lite/18.1/nios2eds/bin/gnu/h-x86_64-mingw32/bin/../lib/gcc/nios2-elf/5.3.0/mno-hw-mul\libgcc.a(_clz.o)
 .comment       0x0000000000000023       0x24 ../RansacSoftware_bsp//newlib/nios2-elf/lib\libc.a(lib_a-exit.o)
 .comment       0x0000000000000023       0x24 ../RansacSoftware_bsp//newlib/nios2-elf/lib\libc.a(lib_a-fclose.o)
 .comment       0x0000000000000023       0x24 ../RansacSoftware_bsp//newlib/nios2-elf/lib\libc.a(lib_a-fflush.o)
 .comment       0x0000000000000023       0x24 ../RansacSoftware_bsp//newlib/nios2-elf/lib\libc.a(lib_a-findfp.o)
 .comment       0x0000000000000023       0x24 ../RansacSoftware_bsp//newlib/nios2-elf/lib\libc.a(lib_a-fopen.o)
 .comment       0x0000000000000023       0x24 ../RansacSoftware_bsp//newlib/nios2-elf/lib\libc.a(lib_a-fprintf.o)
 .comment       0x0000000000000023       0x24 ../RansacSoftware_bsp//newlib/nios2-elf/lib\libc.a(lib_a-fputc.o)
 .comment       0x0000000000000023       0x24 ../RansacSoftware_bsp//newlib/nios2-elf/lib\libc.a(lib_a-freer.o)
 .comment       0x0000000000000023       0x24 ../RansacSoftware_bsp//newlib/nios2-elf/lib\libc.a(lib_a-fscanf.o)
 .comment       0x0000000000000023       0x24 ../RansacSoftware_bsp//newlib/nios2-elf/lib\libc.a(lib_a-fseek.o)
 .comment       0x0000000000000023       0x24 ../RansacSoftware_bsp//newlib/nios2-elf/lib\libc.a(lib_a-fseeko.o)
 .comment       0x0000000000000023       0x24 ../RansacSoftware_bsp//newlib/nios2-elf/lib\libc.a(lib_a-fstatr.o)
 .comment       0x0000000000000023       0x24 ../RansacSoftware_bsp//newlib/nios2-elf/lib\libc.a(lib_a-fwalk.o)
 .comment       0x0000000000000023       0x24 ../RansacSoftware_bsp//newlib/nios2-elf/lib\libc.a(lib_a-fwrite.o)
 .comment       0x0000000000000023       0x24 ../RansacSoftware_bsp//newlib/nios2-elf/lib\libc.a(lib_a-impure.o)
 .comment       0x0000000000000023       0x24 ../RansacSoftware_bsp//newlib/nios2-elf/lib\libc.a(lib_a-int_errno.o)
 .comment       0x0000000000000023       0x24 ../RansacSoftware_bsp//newlib/nios2-elf/lib\libc.a(lib_a-makebuf.o)
 .comment       0x0000000000000023       0x24 ../RansacSoftware_bsp//newlib/nios2-elf/lib\libc.a(lib_a-mallocr.o)
 .comment       0x0000000000000023       0x24 ../RansacSoftware_bsp//newlib/nios2-elf/lib\libc.a(lib_a-memset.o)
 .comment       0x0000000000000023       0x24 ../RansacSoftware_bsp//newlib/nios2-elf/lib\libc.a(lib_a-openr.o)
 .comment       0x0000000000000023       0x24 ../RansacSoftware_bsp//newlib/nios2-elf/lib\libc.a(lib_a-putc.o)
 .comment       0x0000000000000023       0x24 ../RansacSoftware_bsp//newlib/nios2-elf/lib\libc.a(lib_a-puts.o)
 .comment       0x0000000000000023       0x24 ../RansacSoftware_bsp//newlib/nios2-elf/lib\libc.a(lib_a-rand.o)
 .comment       0x0000000000000023       0x24 ../RansacSoftware_bsp//newlib/nios2-elf/lib\libc.a(lib_a-refill.o)
 .comment       0x0000000000000023       0x24 ../RansacSoftware_bsp//newlib/nios2-elf/lib\libc.a(lib_a-sbrkr.o)
 .comment       0x0000000000000023       0x24 ../RansacSoftware_bsp//newlib/nios2-elf/lib\libc.a(lib_a-stdio.o)
 .comment       0x0000000000000023       0x24 ../RansacSoftware_bsp//newlib/nios2-elf/lib\libc.a(lib_a-strlen.o)
 .comment       0x0000000000000023       0x24 ../RansacSoftware_bsp//newlib/nios2-elf/lib\libc.a(lib_a-vfprintf.o)
 .comment       0x0000000000000023       0x24 ../RansacSoftware_bsp//newlib/nios2-elf/lib\libc.a(lib_a-vfscanf.o)
 .comment       0x0000000000000023       0x24 ../RansacSoftware_bsp//newlib/nios2-elf/lib\libc.a(lib_a-wbuf.o)
 .comment       0x0000000000000023       0x24 ../RansacSoftware_bsp//newlib/nios2-elf/lib\libc.a(lib_a-writer.o)
 .comment       0x0000000000000023       0x24 ../RansacSoftware_bsp//newlib/nios2-elf/lib\libc.a(lib_a-wsetup.o)
 .comment       0x0000000000000023       0x24 ../RansacSoftware_bsp//newlib/nios2-elf/lib\libc.a(closer.o)
 .comment       0x0000000000000023       0x24 ../RansacSoftware_bsp//newlib/nios2-elf/lib\libc.a(lib_a-__call_atexit.o)
 .comment       0x0000000000000023       0x24 ../RansacSoftware_bsp//newlib/nios2-elf/lib\libc.a(lib_a-ctype_.o)
 .comment       0x0000000000000023       0x24 ../RansacSoftware_bsp//newlib/nios2-elf/lib\libc.a(lib_a-dtoa.o)
 .comment       0x0000000000000023       0x24 ../RansacSoftware_bsp//newlib/nios2-elf/lib\libc.a(lib_a-flags.o)
 .comment       0x0000000000000023       0x24 ../RansacSoftware_bsp//newlib/nios2-elf/lib\libc.a(lib_a-fread.o)
 .comment       0x0000000000000023       0x24 ../RansacSoftware_bsp//newlib/nios2-elf/lib\libc.a(lib_a-fvwrite.o)
 .comment       0x0000000000000023       0x24 ../RansacSoftware_bsp//newlib/nios2-elf/lib\libc.a(lib_a-isattyr.o)
 .comment       0x0000000000000023       0x24 ../RansacSoftware_bsp//newlib/nios2-elf/lib\libc.a(lib_a-iswspace.o)
 .comment       0x0000000000000023       0x24 ../RansacSoftware_bsp//newlib/nios2-elf/lib\libc.a(lib_a-locale.o)
 .comment       0x0000000000000023       0x24 ../RansacSoftware_bsp//newlib/nios2-elf/lib\libc.a(lib_a-lseekr.o)
 .comment       0x0000000000000023       0x24 ../RansacSoftware_bsp//newlib/nios2-elf/lib\libc.a(lib_a-mbrtowc.o)
 .comment       0x0000000000000023       0x24 ../RansacSoftware_bsp//newlib/nios2-elf/lib\libc.a(lib_a-mbtowc_r.o)
 .comment       0x0000000000000023       0x24 ../RansacSoftware_bsp//newlib/nios2-elf/lib\libc.a(lib_a-memchr.o)
 .comment       0x0000000000000023       0x24 ../RansacSoftware_bsp//newlib/nios2-elf/lib\libc.a(lib_a-memcpy.o)
 .comment       0x0000000000000023       0x24 ../RansacSoftware_bsp//newlib/nios2-elf/lib\libc.a(lib_a-memmove.o)
 .comment       0x0000000000000023       0x24 ../RansacSoftware_bsp//newlib/nios2-elf/lib\libc.a(lib_a-mprec.o)
 .comment       0x0000000000000023       0x24 ../RansacSoftware_bsp//newlib/nios2-elf/lib\libc.a(lib_a-readr.o)
 .comment       0x0000000000000023       0x24 ../RansacSoftware_bsp//newlib/nios2-elf/lib\libc.a(lib_a-reallocr.o)
 .comment       0x0000000000000023       0x24 ../RansacSoftware_bsp//newlib/nios2-elf/lib\libc.a(lib_a-s_fpclassify.o)
 .comment       0x0000000000000023       0x24 ../RansacSoftware_bsp//newlib/nios2-elf/lib\libc.a(lib_a-sccl.o)
 .comment       0x0000000000000023       0x24 ../RansacSoftware_bsp//newlib/nios2-elf/lib\libc.a(lib_a-sf_nan.o)
 .comment       0x0000000000000023       0x24 ../RansacSoftware_bsp//newlib/nios2-elf/lib\libc.a(lib_a-sprintf.o)
 .comment       0x0000000000000023       0x24 ../RansacSoftware_bsp//newlib/nios2-elf/lib\libc.a(lib_a-strcmp.o)
 .comment       0x0000000000000023       0x24 ../RansacSoftware_bsp//newlib/nios2-elf/lib\libc.a(lib_a-strtod.o)
 .comment       0x0000000000000023       0x24 ../RansacSoftware_bsp//newlib/nios2-elf/lib\libc.a(lib_a-strtol.o)
 .comment       0x0000000000000023       0x24 ../RansacSoftware_bsp//newlib/nios2-elf/lib\libc.a(lib_a-strtoll_r.o)
 .comment       0x0000000000000023       0x24 ../RansacSoftware_bsp//newlib/nios2-elf/lib\libc.a(lib_a-strtoul.o)
 .comment       0x0000000000000023       0x24 ../RansacSoftware_bsp//newlib/nios2-elf/lib\libc.a(lib_a-strtoull_r.o)
 .comment       0x0000000000000023       0x24 ../RansacSoftware_bsp//newlib/nios2-elf/lib\libc.a(lib_a-svfprintf.o)
 .comment       0x0000000000000023       0x24 ../RansacSoftware_bsp//newlib/nios2-elf/lib\libc.a(lib_a-ungetc.o)
 .comment       0x0000000000000023       0x24 ../RansacSoftware_bsp//newlib/nios2-elf/lib\libc.a(lib_a-vfiprintf.o)
 .comment       0x0000000000000023       0x24 ../RansacSoftware_bsp//newlib/nios2-elf/lib\libc.a(lib_a-callocr.o)
 .comment       0x0000000000000023       0x24 ../RansacSoftware_bsp//newlib/nios2-elf/lib\libc.a(lib_a-fputwc.o)
 .comment       0x0000000000000023       0x24 ../RansacSoftware_bsp//newlib/nios2-elf/lib\libc.a(lib_a-gdtoa-gethex.o)
 .comment       0x0000000000000023       0x24 ../RansacSoftware_bsp//newlib/nios2-elf/lib\libc.a(lib_a-gdtoa-hexnan.o)
 .comment       0x0000000000000023       0x24 ../RansacSoftware_bsp//newlib/nios2-elf/lib\libc.a(lib_a-strncmp.o)
 .comment       0x0000000000000023       0x24 ../RansacSoftware_bsp//newlib/nios2-elf/lib\libc.a(lib_a-svfiprintf.o)
 .comment       0x0000000000000023       0x24 ../RansacSoftware_bsp//newlib/nios2-elf/lib\libc.a(lib_a-wcrtomb.o)
 .comment       0x0000000000000023       0x24 ../RansacSoftware_bsp//newlib/nios2-elf/lib\libc.a(lib_a-wctomb_r.o)
 .comment       0x0000000000000023       0x24 c:/intelfpga_lite/18.1/nios2eds/bin/gnu/h-x86_64-mingw32/bin/../lib/gcc/nios2-elf/5.3.0/mno-hw-mul\libgcc.a(_muldi3.o)
 .comment       0x0000000000000023       0x24 c:/intelfpga_lite/18.1/nios2eds/bin/gnu/h-x86_64-mingw32/bin/../lib/gcc/nios2-elf/5.3.0/mno-hw-mul\libgcc.a(_fixunsdfsi.o)
 .comment       0x0000000000000023       0x24 c:/intelfpga_lite/18.1/nios2eds/bin/gnu/h-x86_64-mingw32/bin/../lib/gcc/nios2-elf/5.3.0/mno-hw-mul\libgcc.a(_udivdi3.o)
 .comment       0x0000000000000023       0x24 c:/intelfpga_lite/18.1/nios2eds/bin/gnu/h-x86_64-mingw32/bin/../lib/gcc/nios2-elf/5.3.0/mno-hw-mul\libgcc.a(_umoddi3.o)
 .comment       0x0000000000000023       0x24 c:/intelfpga_lite/18.1/nios2eds/bin/gnu/h-x86_64-mingw32/bin/../lib/gcc/nios2-elf/5.3.0/mno-hw-mul\libgcc.a(eqdf2.o)
 .comment       0x0000000000000023       0x24 c:/intelfpga_lite/18.1/nios2eds/bin/gnu/h-x86_64-mingw32/bin/../lib/gcc/nios2-elf/5.3.0/mno-hw-mul\libgcc.a(floatunsidf.o)
 .comment       0x0000000000000023       0x24 ../RansacSoftware_bsp/\libhal_bsp.a(alt_close.o)
 .comment       0x0000000000000023       0x24 ../RansacSoftware_bsp/\libhal_bsp.a(alt_dev.o)
 .comment       0x0000000000000023       0x24 ../RansacSoftware_bsp/\libhal_bsp.a(alt_errno.o)
 .comment       0x0000000000000023       0x24 ../RansacSoftware_bsp/\libhal_bsp.a(alt_exit.o)
 .comment       0x0000000000000023       0x24 ../RansacSoftware_bsp/\libhal_bsp.a(alt_fstat.o)
 .comment       0x0000000000000023       0x24 ../RansacSoftware_bsp/\libhal_bsp.a(alt_isatty.o)
 .comment       0x0000000000000023       0x24 ../RansacSoftware_bsp/\libhal_bsp.a(alt_load.o)
 .comment       0x0000000000000023       0x24 ../RansacSoftware_bsp/\libhal_bsp.a(alt_lseek.o)
 .comment       0x0000000000000023       0x24 ../RansacSoftware_bsp/\libhal_bsp.a(alt_main.o)
 .comment       0x0000000000000023       0x24 ../RansacSoftware_bsp/\libhal_bsp.a(alt_malloc_lock.o)
 .comment       0x0000000000000023       0x24 ../RansacSoftware_bsp/\libhal_bsp.a(alt_open.o)
 .comment       0x0000000000000023       0x24 ../RansacSoftware_bsp/\libhal_bsp.a(alt_read.o)
 .comment       0x0000000000000023       0x24 ../RansacSoftware_bsp/\libhal_bsp.a(alt_release_fd.o)
 .comment       0x0000000000000023       0x24 ../RansacSoftware_bsp/\libhal_bsp.a(alt_sbrk.o)
 .comment       0x0000000000000023       0x24 ../RansacSoftware_bsp/\libhal_bsp.a(alt_write.o)
 .comment       0x0000000000000023       0x24 ../RansacSoftware_bsp/\libhal_bsp.a(alt_sys_init.o)
 .comment       0x0000000000000023       0x24 ../RansacSoftware_bsp/\libhal_bsp.a(altera_avalon_jtag_uart_fd.o)
 .comment       0x0000000000000023       0x24 ../RansacSoftware_bsp/\libhal_bsp.a(altera_avalon_jtag_uart_init.o)
 .comment       0x0000000000000023       0x24 ../RansacSoftware_bsp/\libhal_bsp.a(altera_avalon_jtag_uart_ioctl.o)
 .comment       0x0000000000000023       0x24 ../RansacSoftware_bsp/\libhal_bsp.a(altera_avalon_jtag_uart_read.o)
 .comment       0x0000000000000023       0x24 ../RansacSoftware_bsp/\libhal_bsp.a(altera_avalon_jtag_uart_write.o)
 .comment       0x0000000000000023       0x24 ../RansacSoftware_bsp/\libhal_bsp.a(altera_hostfs.o)
 .comment       0x0000000000000023       0x24 ../RansacSoftware_bsp/\libhal_bsp.a(alt_alarm_start.o)
 .comment       0x0000000000000023       0x24 ../RansacSoftware_bsp/\libhal_bsp.a(alt_dcache_flush_all.o)
 .comment       0x0000000000000023       0x24 ../RansacSoftware_bsp/\libhal_bsp.a(alt_dev_llist_insert.o)
 .comment       0x0000000000000023       0x24 ../RansacSoftware_bsp/\libhal_bsp.a(alt_do_ctors.o)
 .comment       0x0000000000000023       0x24 ../RansacSoftware_bsp/\libhal_bsp.a(alt_do_dtors.o)
 .comment       0x0000000000000023       0x24 ../RansacSoftware_bsp/\libhal_bsp.a(alt_find_dev.o)
 .comment       0x0000000000000023       0x24 ../RansacSoftware_bsp/\libhal_bsp.a(alt_find_file.o)
 .comment       0x0000000000000023       0x24 ../RansacSoftware_bsp/\libhal_bsp.a(alt_fs_reg.o)
 .comment       0x0000000000000023       0x24 ../RansacSoftware_bsp/\libhal_bsp.a(alt_get_fd.o)
 .comment       0x0000000000000023       0x24 ../RansacSoftware_bsp/\libhal_bsp.a(alt_icache_flush_all.o)
 .comment       0x0000000000000023       0x24 ../RansacSoftware_bsp/\libhal_bsp.a(alt_iic.o)
 .comment       0x0000000000000023       0x24 ../RansacSoftware_bsp/\libhal_bsp.a(alt_iic_isr_register.o)
 .comment       0x0000000000000023       0x24 ../RansacSoftware_bsp/\libhal_bsp.a(alt_io_redirect.o)
 .comment       0x0000000000000023       0x24 ../RansacSoftware_bsp/\libhal_bsp.a(alt_irq_handler.o)
 .comment       0x0000000000000023       0x24 ../RansacSoftware_bsp/\libhal_bsp.a(alt_irq_vars.o)
 .comment       0x0000000000000023       0x24 ../RansacSoftware_bsp/\libhal_bsp.a(alt_tick.o)
 .comment       0x0000000000000023       0x24 ../RansacSoftware_bsp/\libhal_bsp.a(altera_nios2_gen2_irq.o)
 .comment       0x0000000000000023       0x24 ../RansacSoftware_bsp/\libhal_bsp.a(alt_instruction_exception_entry.o)
 .comment       0x0000000000000023       0x24 ../RansacSoftware_bsp//newlib/nios2-elf/lib\libc.a(lib_a-atexit.o)
 .comment       0x0000000000000023       0x24 ../RansacSoftware_bsp//newlib/nios2-elf/lib\libc.a(lib_a-memcmp.o)
 .comment       0x0000000000000023       0x24 ../RansacSoftware_bsp//newlib/nios2-elf/lib\libc.a(lib_a-__atexit.o)

.debug
 *(.debug)

.line
 *(.line)

.debug_srcinfo
 *(.debug_srcinfo)

.debug_sfnames
 *(.debug_sfnames)

.debug_aranges  0x0000000000000000     0x14b8
 *(.debug_aranges)
 .debug_aranges
                0x0000000000000000       0x28 ../RansacSoftware_bsp//obj/HAL/src/crt0.o
 .debug_aranges
                0x0000000000000028       0x20 obj/default/main.o
 .debug_aranges
                0x0000000000000048       0x20 obj/default/ransac.o
 .debug_aranges
                0x0000000000000068       0x20 ../RansacSoftware_bsp//newlib/nios2-elf/lib\libm.a(lib_a-s_atan.o)
 .debug_aranges
                0x0000000000000088       0x20 ../RansacSoftware_bsp//newlib/nios2-elf/lib\libm.a(lib_a-s_fabs.o)
 .debug_aranges
                0x00000000000000a8       0x20 c:/intelfpga_lite/18.1/nios2eds/bin/gnu/h-x86_64-mingw32/bin/../lib/gcc/nios2-elf/5.3.0/mno-hw-mul\libgcc.a(lib2-divmod.o)
 .debug_aranges
                0x00000000000000c8       0x20 c:/intelfpga_lite/18.1/nios2eds/bin/gnu/h-x86_64-mingw32/bin/../lib/gcc/nios2-elf/5.3.0/mno-hw-mul\libgcc.a(lib2-mul.o)
 .debug_aranges
                0x00000000000000e8       0x20 c:/intelfpga_lite/18.1/nios2eds/bin/gnu/h-x86_64-mingw32/bin/../lib/gcc/nios2-elf/5.3.0/mno-hw-mul\libgcc.a(adddf3.o)
 .debug_aranges
                0x0000000000000108       0x20 c:/intelfpga_lite/18.1/nios2eds/bin/gnu/h-x86_64-mingw32/bin/../lib/gcc/nios2-elf/5.3.0/mno-hw-mul\libgcc.a(divdf3.o)
 .debug_aranges
                0x0000000000000128       0x20 c:/intelfpga_lite/18.1/nios2eds/bin/gnu/h-x86_64-mingw32/bin/../lib/gcc/nios2-elf/5.3.0/mno-hw-mul\libgcc.a(gedf2.o)
 .debug_aranges
                0x0000000000000148       0x20 c:/intelfpga_lite/18.1/nios2eds/bin/gnu/h-x86_64-mingw32/bin/../lib/gcc/nios2-elf/5.3.0/mno-hw-mul\libgcc.a(ledf2.o)
 .debug_aranges
                0x0000000000000168       0x20 c:/intelfpga_lite/18.1/nios2eds/bin/gnu/h-x86_64-mingw32/bin/../lib/gcc/nios2-elf/5.3.0/mno-hw-mul\libgcc.a(muldf3.o)
 .debug_aranges
                0x0000000000000188       0x20 c:/intelfpga_lite/18.1/nios2eds/bin/gnu/h-x86_64-mingw32/bin/../lib/gcc/nios2-elf/5.3.0/mno-hw-mul\libgcc.a(subdf3.o)
 .debug_aranges
                0x00000000000001a8       0x20 c:/intelfpga_lite/18.1/nios2eds/bin/gnu/h-x86_64-mingw32/bin/../lib/gcc/nios2-elf/5.3.0/mno-hw-mul\libgcc.a(fixdfsi.o)
 .debug_aranges
                0x00000000000001c8       0x20 c:/intelfpga_lite/18.1/nios2eds/bin/gnu/h-x86_64-mingw32/bin/../lib/gcc/nios2-elf/5.3.0/mno-hw-mul\libgcc.a(floatsidf.o)
 .debug_aranges
                0x00000000000001e8       0x20 c:/intelfpga_lite/18.1/nios2eds/bin/gnu/h-x86_64-mingw32/bin/../lib/gcc/nios2-elf/5.3.0/mno-hw-mul\libgcc.a(extendsfdf2.o)
 .debug_aranges
                0x0000000000000208       0x20 c:/intelfpga_lite/18.1/nios2eds/bin/gnu/h-x86_64-mingw32/bin/../lib/gcc/nios2-elf/5.3.0/mno-hw-mul\libgcc.a(truncdfsf2.o)
 .debug_aranges
                0x0000000000000228       0x20 c:/intelfpga_lite/18.1/nios2eds/bin/gnu/h-x86_64-mingw32/bin/../lib/gcc/nios2-elf/5.3.0/mno-hw-mul\libgcc.a(_clzsi2.o)
 .debug_aranges
                0x0000000000000248       0x18 c:/intelfpga_lite/18.1/nios2eds/bin/gnu/h-x86_64-mingw32/bin/../lib/gcc/nios2-elf/5.3.0/mno-hw-mul\libgcc.a(_clz.o)
 .debug_aranges
                0x0000000000000260       0x20 ../RansacSoftware_bsp//newlib/nios2-elf/lib\libc.a(lib_a-exit.o)
 .debug_aranges
                0x0000000000000280       0x28 ../RansacSoftware_bsp//newlib/nios2-elf/lib\libc.a(lib_a-fclose.o)
 .debug_aranges
                0x00000000000002a8       0x30 ../RansacSoftware_bsp//newlib/nios2-elf/lib\libc.a(lib_a-fflush.o)
 .debug_aranges
                0x00000000000002d8       0x88 ../RansacSoftware_bsp//newlib/nios2-elf/lib\libc.a(lib_a-findfp.o)
 .debug_aranges
                0x0000000000000360       0x28 ../RansacSoftware_bsp//newlib/nios2-elf/lib\libc.a(lib_a-fopen.o)
 .debug_aranges
                0x0000000000000388       0x28 ../RansacSoftware_bsp//newlib/nios2-elf/lib\libc.a(lib_a-fprintf.o)
 .debug_aranges
                0x00000000000003b0       0x28 ../RansacSoftware_bsp//newlib/nios2-elf/lib\libc.a(lib_a-fputc.o)
 .debug_aranges
                0x00000000000003d8       0x28 ../RansacSoftware_bsp//newlib/nios2-elf/lib\libc.a(lib_a-freer.o)
 .debug_aranges
                0x0000000000000400       0x28 ../RansacSoftware_bsp//newlib/nios2-elf/lib\libc.a(lib_a-fscanf.o)
 .debug_aranges
                0x0000000000000428       0x28 ../RansacSoftware_bsp//newlib/nios2-elf/lib\libc.a(lib_a-fseek.o)
 .debug_aranges
                0x0000000000000450       0x28 ../RansacSoftware_bsp//newlib/nios2-elf/lib\libc.a(lib_a-fseeko.o)
 .debug_aranges
                0x0000000000000478       0x20 ../RansacSoftware_bsp//newlib/nios2-elf/lib\libc.a(lib_a-fstatr.o)
 .debug_aranges
                0x0000000000000498       0x28 ../RansacSoftware_bsp//newlib/nios2-elf/lib\libc.a(lib_a-fwalk.o)
 .debug_aranges
                0x00000000000004c0       0x28 ../RansacSoftware_bsp//newlib/nios2-elf/lib\libc.a(lib_a-fwrite.o)
 .debug_aranges
                0x00000000000004e8       0x18 ../RansacSoftware_bsp//newlib/nios2-elf/lib\libc.a(lib_a-impure.o)
 .debug_aranges
                0x0000000000000500       0x18 ../RansacSoftware_bsp//newlib/nios2-elf/lib\libc.a(lib_a-int_errno.o)
 .debug_aranges
                0x0000000000000518       0x20 ../RansacSoftware_bsp//newlib/nios2-elf/lib\libc.a(lib_a-makebuf.o)
 .debug_aranges
                0x0000000000000538       0x28 ../RansacSoftware_bsp//newlib/nios2-elf/lib\libc.a(lib_a-mallocr.o)
 .debug_aranges
                0x0000000000000560       0x20 ../RansacSoftware_bsp//newlib/nios2-elf/lib\libc.a(lib_a-memset.o)
 .debug_aranges
                0x0000000000000580       0x20 ../RansacSoftware_bsp//newlib/nios2-elf/lib\libc.a(lib_a-openr.o)
 .debug_aranges
                0x00000000000005a0       0x28 ../RansacSoftware_bsp//newlib/nios2-elf/lib\libc.a(lib_a-putc.o)
 .debug_aranges
                0x00000000000005c8       0x28 ../RansacSoftware_bsp//newlib/nios2-elf/lib\libc.a(lib_a-puts.o)
 .debug_aranges
                0x00000000000005f0       0x28 ../RansacSoftware_bsp//newlib/nios2-elf/lib\libc.a(lib_a-rand.o)
 .debug_aranges
                0x0000000000000618       0x28 ../RansacSoftware_bsp//newlib/nios2-elf/lib\libc.a(lib_a-refill.o)
 .debug_aranges
                0x0000000000000640       0x20 ../RansacSoftware_bsp//newlib/nios2-elf/lib\libc.a(lib_a-sbrkr.o)
 .debug_aranges
                0x0000000000000660       0x40 ../RansacSoftware_bsp//newlib/nios2-elf/lib\libc.a(lib_a-stdio.o)
 .debug_aranges
                0x00000000000006a0       0x20 ../RansacSoftware_bsp//newlib/nios2-elf/lib\libc.a(lib_a-strlen.o)
 .debug_aranges
                0x00000000000006c0       0x40 ../RansacSoftware_bsp//newlib/nios2-elf/lib\libc.a(lib_a-vfprintf.o)
 .debug_aranges
                0x0000000000000700       0x38 ../RansacSoftware_bsp//newlib/nios2-elf/lib\libc.a(lib_a-vfscanf.o)
 .debug_aranges
                0x0000000000000738       0x28 ../RansacSoftware_bsp//newlib/nios2-elf/lib\libc.a(lib_a-wbuf.o)
 .debug_aranges
                0x0000000000000760       0x20 ../RansacSoftware_bsp//newlib/nios2-elf/lib\libc.a(lib_a-writer.o)
 .debug_aranges
                0x0000000000000780       0x20 ../RansacSoftware_bsp//newlib/nios2-elf/lib\libc.a(lib_a-wsetup.o)
 .debug_aranges
                0x00000000000007a0       0x20 ../RansacSoftware_bsp//newlib/nios2-elf/lib\libc.a(closer.o)
 .debug_aranges
                0x00000000000007c0       0x20 ../RansacSoftware_bsp//newlib/nios2-elf/lib\libc.a(lib_a-__call_atexit.o)
 .debug_aranges
                0x00000000000007e0       0x18 ../RansacSoftware_bsp//newlib/nios2-elf/lib\libc.a(lib_a-ctype_.o)
 .debug_aranges
                0x00000000000007f8       0x28 ../RansacSoftware_bsp//newlib/nios2-elf/lib\libc.a(lib_a-dtoa.o)
 .debug_aranges
                0x0000000000000820       0x20 ../RansacSoftware_bsp//newlib/nios2-elf/lib\libc.a(lib_a-flags.o)
 .debug_aranges
                0x0000000000000840       0x28 ../RansacSoftware_bsp//newlib/nios2-elf/lib\libc.a(lib_a-fread.o)
 .debug_aranges
                0x0000000000000868       0x20 ../RansacSoftware_bsp//newlib/nios2-elf/lib\libc.a(lib_a-fvwrite.o)
 .debug_aranges
                0x0000000000000888       0x20 ../RansacSoftware_bsp//newlib/nios2-elf/lib\libc.a(lib_a-isattyr.o)
 .debug_aranges
                0x00000000000008a8       0x20 ../RansacSoftware_bsp//newlib/nios2-elf/lib\libc.a(lib_a-iswspace.o)
 .debug_aranges
                0x00000000000008c8       0x58 ../RansacSoftware_bsp//newlib/nios2-elf/lib\libc.a(lib_a-locale.o)
 .debug_aranges
                0x0000000000000920       0x20 ../RansacSoftware_bsp//newlib/nios2-elf/lib\libc.a(lib_a-lseekr.o)
 .debug_aranges
                0x0000000000000940       0x28 ../RansacSoftware_bsp//newlib/nios2-elf/lib\libc.a(lib_a-mbrtowc.o)
 .debug_aranges
                0x0000000000000968       0x28 ../RansacSoftware_bsp//newlib/nios2-elf/lib\libc.a(lib_a-mbtowc_r.o)
 .debug_aranges
                0x0000000000000990       0x20 ../RansacSoftware_bsp//newlib/nios2-elf/lib\libc.a(lib_a-memchr.o)
 .debug_aranges
                0x00000000000009b0       0x20 ../RansacSoftware_bsp//newlib/nios2-elf/lib\libc.a(lib_a-memcpy.o)
 .debug_aranges
                0x00000000000009d0       0x20 ../RansacSoftware_bsp//newlib/nios2-elf/lib\libc.a(lib_a-memmove.o)
 .debug_aranges
                0x00000000000009f0       0xb0 ../RansacSoftware_bsp//newlib/nios2-elf/lib\libc.a(lib_a-mprec.o)
 .debug_aranges
                0x0000000000000aa0       0x20 ../RansacSoftware_bsp//newlib/nios2-elf/lib\libc.a(lib_a-readr.o)
 .debug_aranges
                0x0000000000000ac0       0x20 ../RansacSoftware_bsp//newlib/nios2-elf/lib\libc.a(lib_a-reallocr.o)
 .debug_aranges
                0x0000000000000ae0       0x20 ../RansacSoftware_bsp//newlib/nios2-elf/lib\libc.a(lib_a-s_fpclassify.o)
 .debug_aranges
                0x0000000000000b00       0x20 ../RansacSoftware_bsp//newlib/nios2-elf/lib\libc.a(lib_a-sccl.o)
 .debug_aranges
                0x0000000000000b20       0x20 ../RansacSoftware_bsp//newlib/nios2-elf/lib\libc.a(lib_a-sf_nan.o)
 .debug_aranges
                0x0000000000000b40       0x28 ../RansacSoftware_bsp//newlib/nios2-elf/lib\libc.a(lib_a-sprintf.o)
 .debug_aranges
                0x0000000000000b68       0x20 ../RansacSoftware_bsp//newlib/nios2-elf/lib\libc.a(lib_a-strcmp.o)
 .debug_aranges
                0x0000000000000b88       0x48 ../RansacSoftware_bsp//newlib/nios2-elf/lib\libc.a(lib_a-strtod.o)
 .debug_aranges
                0x0000000000000bd0       0x28 ../RansacSoftware_bsp//newlib/nios2-elf/lib\libc.a(lib_a-strtol.o)
 .debug_aranges
                0x0000000000000bf8       0x20 ../RansacSoftware_bsp//newlib/nios2-elf/lib\libc.a(lib_a-strtoll_r.o)
 .debug_aranges
                0x0000000000000c18       0x28 ../RansacSoftware_bsp//newlib/nios2-elf/lib\libc.a(lib_a-strtoul.o)
 .debug_aranges
                0x0000000000000c40       0x20 ../RansacSoftware_bsp//newlib/nios2-elf/lib\libc.a(lib_a-strtoull_r.o)
 .debug_aranges
                0x0000000000000c60       0x30 ../RansacSoftware_bsp//newlib/nios2-elf/lib\libc.a(lib_a-svfprintf.o)
 .debug_aranges
                0x0000000000000c90       0x30 ../RansacSoftware_bsp//newlib/nios2-elf/lib\libc.a(lib_a-ungetc.o)
 .debug_aranges
                0x0000000000000cc0       0x38 ../RansacSoftware_bsp//newlib/nios2-elf/lib\libc.a(lib_a-vfiprintf.o)
 .debug_aranges
                0x0000000000000cf8       0x20 ../RansacSoftware_bsp//newlib/nios2-elf/lib\libc.a(lib_a-callocr.o)
 .debug_aranges
                0x0000000000000d18       0x30 ../RansacSoftware_bsp//newlib/nios2-elf/lib\libc.a(lib_a-fputwc.o)
 .debug_aranges
                0x0000000000000d48       0x30 ../RansacSoftware_bsp//newlib/nios2-elf/lib\libc.a(lib_a-gdtoa-gethex.o)
 .debug_aranges
                0x0000000000000d78       0x28 ../RansacSoftware_bsp//newlib/nios2-elf/lib\libc.a(lib_a-gdtoa-hexnan.o)
 .debug_aranges
                0x0000000000000da0       0x20 ../RansacSoftware_bsp//newlib/nios2-elf/lib\libc.a(lib_a-strncmp.o)
 .debug_aranges
                0x0000000000000dc0       0x28 ../RansacSoftware_bsp//newlib/nios2-elf/lib\libc.a(lib_a-svfiprintf.o)
 .debug_aranges
                0x0000000000000de8       0x28 ../RansacSoftware_bsp//newlib/nios2-elf/lib\libc.a(lib_a-wcrtomb.o)
 .debug_aranges
                0x0000000000000e10       0x28 ../RansacSoftware_bsp//newlib/nios2-elf/lib\libc.a(lib_a-wctomb_r.o)
 .debug_aranges
                0x0000000000000e38       0x20 c:/intelfpga_lite/18.1/nios2eds/bin/gnu/h-x86_64-mingw32/bin/../lib/gcc/nios2-elf/5.3.0/mno-hw-mul\libgcc.a(_muldi3.o)
 .debug_aranges
                0x0000000000000e58       0x20 c:/intelfpga_lite/18.1/nios2eds/bin/gnu/h-x86_64-mingw32/bin/../lib/gcc/nios2-elf/5.3.0/mno-hw-mul\libgcc.a(_fixunsdfsi.o)
 .debug_aranges
                0x0000000000000e78       0x20 c:/intelfpga_lite/18.1/nios2eds/bin/gnu/h-x86_64-mingw32/bin/../lib/gcc/nios2-elf/5.3.0/mno-hw-mul\libgcc.a(_udivdi3.o)
 .debug_aranges
                0x0000000000000e98       0x20 c:/intelfpga_lite/18.1/nios2eds/bin/gnu/h-x86_64-mingw32/bin/../lib/gcc/nios2-elf/5.3.0/mno-hw-mul\libgcc.a(_umoddi3.o)
 .debug_aranges
                0x0000000000000eb8       0x20 c:/intelfpga_lite/18.1/nios2eds/bin/gnu/h-x86_64-mingw32/bin/../lib/gcc/nios2-elf/5.3.0/mno-hw-mul\libgcc.a(eqdf2.o)
 .debug_aranges
                0x0000000000000ed8       0x20 c:/intelfpga_lite/18.1/nios2eds/bin/gnu/h-x86_64-mingw32/bin/../lib/gcc/nios2-elf/5.3.0/mno-hw-mul\libgcc.a(floatunsidf.o)
 .debug_aranges
                0x0000000000000ef8       0x20 ../RansacSoftware_bsp/\libhal_bsp.a(alt_close.o)
 .debug_aranges
                0x0000000000000f18       0x20 ../RansacSoftware_bsp/\libhal_bsp.a(alt_dev.o)
 .debug_aranges
                0x0000000000000f38       0x18 ../RansacSoftware_bsp/\libhal_bsp.a(alt_errno.o)
 .debug_aranges
                0x0000000000000f50       0x20 ../RansacSoftware_bsp/\libhal_bsp.a(alt_exit.o)
 .debug_aranges
                0x0000000000000f70       0x20 ../RansacSoftware_bsp/\libhal_bsp.a(alt_fstat.o)
 .debug_aranges
                0x0000000000000f90       0x20 ../RansacSoftware_bsp/\libhal_bsp.a(alt_isatty.o)
 .debug_aranges
                0x0000000000000fb0       0x20 ../RansacSoftware_bsp/\libhal_bsp.a(alt_load.o)
 .debug_aranges
                0x0000000000000fd0       0x20 ../RansacSoftware_bsp/\libhal_bsp.a(alt_lseek.o)
 .debug_aranges
                0x0000000000000ff0       0x20 ../RansacSoftware_bsp/\libhal_bsp.a(alt_main.o)
 .debug_aranges
                0x0000000000001010       0x20 ../RansacSoftware_bsp/\libhal_bsp.a(alt_malloc_lock.o)
 .debug_aranges
                0x0000000000001030       0x20 ../RansacSoftware_bsp/\libhal_bsp.a(alt_open.o)
 .debug_aranges
                0x0000000000001050       0x20 ../RansacSoftware_bsp/\libhal_bsp.a(alt_read.o)
 .debug_aranges
                0x0000000000001070       0x20 ../RansacSoftware_bsp/\libhal_bsp.a(alt_release_fd.o)
 .debug_aranges
                0x0000000000001090       0x20 ../RansacSoftware_bsp/\libhal_bsp.a(alt_sbrk.o)
 .debug_aranges
                0x00000000000010b0       0x20 ../RansacSoftware_bsp/\libhal_bsp.a(alt_write.o)
 .debug_aranges
                0x00000000000010d0       0x20 ../RansacSoftware_bsp/\libhal_bsp.a(alt_sys_init.o)
 .debug_aranges
                0x00000000000010f0       0x20 ../RansacSoftware_bsp/\libhal_bsp.a(altera_avalon_jtag_uart_fd.o)
 .debug_aranges
                0x0000000000001110       0x20 ../RansacSoftware_bsp/\libhal_bsp.a(altera_avalon_jtag_uart_init.o)
 .debug_aranges
                0x0000000000001130       0x20 ../RansacSoftware_bsp/\libhal_bsp.a(altera_avalon_jtag_uart_ioctl.o)
 .debug_aranges
                0x0000000000001150       0x20 ../RansacSoftware_bsp/\libhal_bsp.a(altera_avalon_jtag_uart_read.o)
 .debug_aranges
                0x0000000000001170       0x20 ../RansacSoftware_bsp/\libhal_bsp.a(altera_avalon_jtag_uart_write.o)
 .debug_aranges
                0x0000000000001190       0x20 ../RansacSoftware_bsp/\libhal_bsp.a(altera_hostfs.o)
 .debug_aranges
                0x00000000000011b0       0x20 ../RansacSoftware_bsp/\libhal_bsp.a(alt_alarm_start.o)
 .debug_aranges
                0x00000000000011d0       0x20 ../RansacSoftware_bsp/\libhal_bsp.a(alt_dcache_flush_all.o)
 .debug_aranges
                0x00000000000011f0       0x20 ../RansacSoftware_bsp/\libhal_bsp.a(alt_dev_llist_insert.o)
 .debug_aranges
                0x0000000000001210       0x20 ../RansacSoftware_bsp/\libhal_bsp.a(alt_do_ctors.o)
 .debug_aranges
                0x0000000000001230       0x20 ../RansacSoftware_bsp/\libhal_bsp.a(alt_do_dtors.o)
 .debug_aranges
                0x0000000000001250       0x20 ../RansacSoftware_bsp/\libhal_bsp.a(alt_find_dev.o)
 .debug_aranges
                0x0000000000001270       0x20 ../RansacSoftware_bsp/\libhal_bsp.a(alt_find_file.o)
 .debug_aranges
                0x0000000000001290       0x20 ../RansacSoftware_bsp/\libhal_bsp.a(alt_fs_reg.o)
 .debug_aranges
                0x00000000000012b0       0x20 ../RansacSoftware_bsp/\libhal_bsp.a(alt_get_fd.o)
 .debug_aranges
                0x00000000000012d0       0x20 ../RansacSoftware_bsp/\libhal_bsp.a(alt_icache_flush_all.o)
 .debug_aranges
                0x00000000000012f0       0x20 ../RansacSoftware_bsp/\libhal_bsp.a(alt_iic.o)
 .debug_aranges
                0x0000000000001310       0x20 ../RansacSoftware_bsp/\libhal_bsp.a(alt_iic_isr_register.o)
 .debug_aranges
                0x0000000000001330       0x20 ../RansacSoftware_bsp/\libhal_bsp.a(alt_io_redirect.o)
 .debug_aranges
                0x0000000000001350       0x30 ../RansacSoftware_bsp/\libhal_bsp.a(alt_irq_entry.o)
 .debug_aranges
                0x0000000000001380       0x20 ../RansacSoftware_bsp/\libhal_bsp.a(alt_irq_handler.o)
 .debug_aranges
                0x00000000000013a0       0x18 ../RansacSoftware_bsp/\libhal_bsp.a(alt_irq_vars.o)
 .debug_aranges
                0x00000000000013b8       0x20 ../RansacSoftware_bsp/\libhal_bsp.a(alt_tick.o)
 .debug_aranges
                0x00000000000013d8       0x20 ../RansacSoftware_bsp/\libhal_bsp.a(altera_nios2_gen2_irq.o)
 .debug_aranges
                0x00000000000013f8       0x38 ../RansacSoftware_bsp/\libhal_bsp.a(alt_exception_entry.o)
 .debug_aranges
                0x0000000000001430       0x28 ../RansacSoftware_bsp/\libhal_bsp.a(alt_instruction_exception_entry.o)
 .debug_aranges
                0x0000000000001458       0x20 ../RansacSoftware_bsp//newlib/nios2-elf/lib\libc.a(lib_a-atexit.o)
 .debug_aranges
                0x0000000000001478       0x20 ../RansacSoftware_bsp//newlib/nios2-elf/lib\libc.a(lib_a-memcmp.o)
 .debug_aranges
                0x0000000000001498       0x20 ../RansacSoftware_bsp//newlib/nios2-elf/lib\libc.a(lib_a-__atexit.o)

.debug_pubnames
 *(.debug_pubnames)

.debug_info     0x0000000000000000    0x33cc7
 *(.debug_info .gnu.linkonce.wi.*)
 .debug_info    0x0000000000000000       0x79 ../RansacSoftware_bsp//obj/HAL/src/crt0.o
 .debug_info    0x0000000000000079      0xacb obj/default/main.o
 .debug_info    0x0000000000000b44      0x89f obj/default/ransac.o
 .debug_info    0x00000000000013e3      0x251 ../RansacSoftware_bsp//newlib/nios2-elf/lib\libm.a(lib_a-s_atan.o)
 .debug_info    0x0000000000001634      0x14c ../RansacSoftware_bsp//newlib/nios2-elf/lib\libm.a(lib_a-s_fabs.o)
 .debug_info    0x0000000000001780      0x2c6 c:/intelfpga_lite/18.1/nios2eds/bin/gnu/h-x86_64-mingw32/bin/../lib/gcc/nios2-elf/5.3.0/mno-hw-mul\libgcc.a(lib2-divmod.o)
 .debug_info    0x0000000000001a46       0xb4 c:/intelfpga_lite/18.1/nios2eds/bin/gnu/h-x86_64-mingw32/bin/../lib/gcc/nios2-elf/5.3.0/mno-hw-mul\libgcc.a(lib2-mul.o)
 .debug_info    0x0000000000001afa      0x4a2 c:/intelfpga_lite/18.1/nios2eds/bin/gnu/h-x86_64-mingw32/bin/../lib/gcc/nios2-elf/5.3.0/mno-hw-mul\libgcc.a(adddf3.o)
 .debug_info    0x0000000000001f9c      0x5bf c:/intelfpga_lite/18.1/nios2eds/bin/gnu/h-x86_64-mingw32/bin/../lib/gcc/nios2-elf/5.3.0/mno-hw-mul\libgcc.a(divdf3.o)
 .debug_info    0x000000000000255b      0x202 c:/intelfpga_lite/18.1/nios2eds/bin/gnu/h-x86_64-mingw32/bin/../lib/gcc/nios2-elf/5.3.0/mno-hw-mul\libgcc.a(gedf2.o)
 .debug_info    0x000000000000275d      0x204 c:/intelfpga_lite/18.1/nios2eds/bin/gnu/h-x86_64-mingw32/bin/../lib/gcc/nios2-elf/5.3.0/mno-hw-mul\libgcc.a(ledf2.o)
 .debug_info    0x0000000000002961      0x5f1 c:/intelfpga_lite/18.1/nios2eds/bin/gnu/h-x86_64-mingw32/bin/../lib/gcc/nios2-elf/5.3.0/mno-hw-mul\libgcc.a(muldf3.o)
 .debug_info    0x0000000000002f52      0x4a2 c:/intelfpga_lite/18.1/nios2eds/bin/gnu/h-x86_64-mingw32/bin/../lib/gcc/nios2-elf/5.3.0/mno-hw-mul\libgcc.a(subdf3.o)
 .debug_info    0x00000000000033f4      0x1ae c:/intelfpga_lite/18.1/nios2eds/bin/gnu/h-x86_64-mingw32/bin/../lib/gcc/nios2-elf/5.3.0/mno-hw-mul\libgcc.a(fixdfsi.o)
 .debug_info    0x00000000000035a2      0x1bc c:/intelfpga_lite/18.1/nios2eds/bin/gnu/h-x86_64-mingw32/bin/../lib/gcc/nios2-elf/5.3.0/mno-hw-mul\libgcc.a(floatsidf.o)
 .debug_info    0x000000000000375e      0x248 c:/intelfpga_lite/18.1/nios2eds/bin/gnu/h-x86_64-mingw32/bin/../lib/gcc/nios2-elf/5.3.0/mno-hw-mul\libgcc.a(extendsfdf2.o)
 .debug_info    0x00000000000039a6      0x248 c:/intelfpga_lite/18.1/nios2eds/bin/gnu/h-x86_64-mingw32/bin/../lib/gcc/nios2-elf/5.3.0/mno-hw-mul\libgcc.a(truncdfsf2.o)
 .debug_info    0x0000000000003bee      0x124 c:/intelfpga_lite/18.1/nios2eds/bin/gnu/h-x86_64-mingw32/bin/../lib/gcc/nios2-elf/5.3.0/mno-hw-mul\libgcc.a(_clzsi2.o)
 .debug_info    0x0000000000003d12       0xb2 c:/intelfpga_lite/18.1/nios2eds/bin/gnu/h-x86_64-mingw32/bin/../lib/gcc/nios2-elf/5.3.0/mno-hw-mul\libgcc.a(_clz.o)
 .debug_info    0x0000000000003dc4      0x8a0 ../RansacSoftware_bsp//newlib/nios2-elf/lib\libc.a(lib_a-exit.o)
 .debug_info    0x0000000000004664      0x90c ../RansacSoftware_bsp//newlib/nios2-elf/lib\libc.a(lib_a-fclose.o)
 .debug_info    0x0000000000004f70      0x9c0 ../RansacSoftware_bsp//newlib/nios2-elf/lib\libc.a(lib_a-fflush.o)
 .debug_info    0x0000000000005930      0xbae ../RansacSoftware_bsp//newlib/nios2-elf/lib\libc.a(lib_a-findfp.o)
 .debug_info    0x00000000000064de      0x941 ../RansacSoftware_bsp//newlib/nios2-elf/lib\libc.a(lib_a-fopen.o)
 .debug_info    0x0000000000006e1f      0x954 ../RansacSoftware_bsp//newlib/nios2-elf/lib\libc.a(lib_a-fprintf.o)
 .debug_info    0x0000000000007773      0x960 ../RansacSoftware_bsp//newlib/nios2-elf/lib\libc.a(lib_a-fputc.o)
 .debug_info    0x00000000000080d3      0xb01 ../RansacSoftware_bsp//newlib/nios2-elf/lib\libc.a(lib_a-freer.o)
 .debug_info    0x0000000000008bd4      0x964 ../RansacSoftware_bsp//newlib/nios2-elf/lib\libc.a(lib_a-fscanf.o)
 .debug_info    0x0000000000009538      0x920 ../RansacSoftware_bsp//newlib/nios2-elf/lib\libc.a(lib_a-fseek.o)
 .debug_info    0x0000000000009e58      0xb27 ../RansacSoftware_bsp//newlib/nios2-elf/lib\libc.a(lib_a-fseeko.o)
 .debug_info    0x000000000000a97f      0xa34 ../RansacSoftware_bsp//newlib/nios2-elf/lib\libc.a(lib_a-fstatr.o)
 .debug_info    0x000000000000b3b3      0x978 ../RansacSoftware_bsp//newlib/nios2-elf/lib\libc.a(lib_a-fwalk.o)
 .debug_info    0x000000000000bd2b      0x9f6 ../RansacSoftware_bsp//newlib/nios2-elf/lib\libc.a(lib_a-fwrite.o)
 .debug_info    0x000000000000c721      0x89d ../RansacSoftware_bsp//newlib/nios2-elf/lib\libc.a(lib_a-impure.o)
 .debug_info    0x000000000000cfbe       0x86 ../RansacSoftware_bsp//newlib/nios2-elf/lib\libc.a(lib_a-int_errno.o)
 .debug_info    0x000000000000d044      0xa51 ../RansacSoftware_bsp//newlib/nios2-elf/lib\libc.a(lib_a-makebuf.o)
 .debug_info    0x000000000000da95      0xbcb ../RansacSoftware_bsp//newlib/nios2-elf/lib\libc.a(lib_a-mallocr.o)
 .debug_info    0x000000000000e660      0x114 ../RansacSoftware_bsp//newlib/nios2-elf/lib\libc.a(lib_a-memset.o)
 .debug_info    0x000000000000e774      0x8db ../RansacSoftware_bsp//newlib/nios2-elf/lib\libc.a(lib_a-openr.o)
 .debug_info    0x000000000000f04f      0x95a ../RansacSoftware_bsp//newlib/nios2-elf/lib\libc.a(lib_a-putc.o)
 .debug_info    0x000000000000f9a9      0x9c1 ../RansacSoftware_bsp//newlib/nios2-elf/lib\libc.a(lib_a-puts.o)
 .debug_info    0x000000000001036a      0x8d6 ../RansacSoftware_bsp//newlib/nios2-elf/lib\libc.a(lib_a-rand.o)
 .debug_info    0x0000000000010c40      0x91c ../RansacSoftware_bsp//newlib/nios2-elf/lib\libc.a(lib_a-refill.o)
 .debug_info    0x000000000001155c      0x8db ../RansacSoftware_bsp//newlib/nios2-elf/lib\libc.a(lib_a-sbrkr.o)
 .debug_info    0x0000000000011e37      0xa64 ../RansacSoftware_bsp//newlib/nios2-elf/lib\libc.a(lib_a-stdio.o)
 .debug_info    0x000000000001289b       0xdd ../RansacSoftware_bsp//newlib/nios2-elf/lib\libc.a(lib_a-strlen.o)
 .debug_info    0x0000000000012978      0xfab ../RansacSoftware_bsp//newlib/nios2-elf/lib\libc.a(lib_a-vfprintf.o)
 .debug_info    0x0000000000013923      0xe8f ../RansacSoftware_bsp//newlib/nios2-elf/lib\libc.a(lib_a-vfscanf.o)
 .debug_info    0x00000000000147b2      0x921 ../RansacSoftware_bsp//newlib/nios2-elf/lib\libc.a(lib_a-wbuf.o)
 .debug_info    0x00000000000150d3      0x8f7 ../RansacSoftware_bsp//newlib/nios2-elf/lib\libc.a(lib_a-writer.o)
 .debug_info    0x00000000000159ca      0x8d9 ../RansacSoftware_bsp//newlib/nios2-elf/lib\libc.a(lib_a-wsetup.o)
 .debug_info    0x00000000000162a3      0x8be ../RansacSoftware_bsp//newlib/nios2-elf/lib\libc.a(closer.o)
 .debug_info    0x0000000000016b61      0x936 ../RansacSoftware_bsp//newlib/nios2-elf/lib\libc.a(lib_a-__call_atexit.o)
 .debug_info    0x0000000000017497       0x92 ../RansacSoftware_bsp//newlib/nios2-elf/lib\libc.a(lib_a-ctype_.o)
 .debug_info    0x0000000000017529      0xcca ../RansacSoftware_bsp//newlib/nios2-elf/lib\libc.a(lib_a-dtoa.o)
 .debug_info    0x00000000000181f3      0x8dc ../RansacSoftware_bsp//newlib/nios2-elf/lib\libc.a(lib_a-flags.o)
 .debug_info    0x0000000000018acf      0x9fd ../RansacSoftware_bsp//newlib/nios2-elf/lib\libc.a(lib_a-fread.o)
 .debug_info    0x00000000000194cc      0x9da ../RansacSoftware_bsp//newlib/nios2-elf/lib\libc.a(lib_a-fvwrite.o)
 .debug_info    0x0000000000019ea6      0x8be ../RansacSoftware_bsp//newlib/nios2-elf/lib\libc.a(lib_a-isattyr.o)
 .debug_info    0x000000000001a764       0xc5 ../RansacSoftware_bsp//newlib/nios2-elf/lib\libc.a(lib_a-iswspace.o)
 .debug_info    0x000000000001a829      0xb5c ../RansacSoftware_bsp//newlib/nios2-elf/lib\libc.a(lib_a-locale.o)
 .debug_info    0x000000000001b385      0x8da ../RansacSoftware_bsp//newlib/nios2-elf/lib\libc.a(lib_a-lseekr.o)
 .debug_info    0x000000000001bc5f      0x9c4 ../RansacSoftware_bsp//newlib/nios2-elf/lib\libc.a(lib_a-mbrtowc.o)
 .debug_info    0x000000000001c623      0x9c3 ../RansacSoftware_bsp//newlib/nios2-elf/lib\libc.a(lib_a-mbtowc_r.o)
 .debug_info    0x000000000001cfe6      0x126 ../RansacSoftware_bsp//newlib/nios2-elf/lib\libc.a(lib_a-memchr.o)
 .debug_info    0x000000000001d10c      0x139 ../RansacSoftware_bsp//newlib/nios2-elf/lib\libc.a(lib_a-memcpy.o)
 .debug_info    0x000000000001d245      0x12f ../RansacSoftware_bsp//newlib/nios2-elf/lib\libc.a(lib_a-memmove.o)
 .debug_info    0x000000000001d374     0x12f1 ../RansacSoftware_bsp//newlib/nios2-elf/lib\libc.a(lib_a-mprec.o)
 .debug_info    0x000000000001e665      0x8f0 ../RansacSoftware_bsp//newlib/nios2-elf/lib\libc.a(lib_a-readr.o)
 .debug_info    0x000000000001ef55      0xb38 ../RansacSoftware_bsp//newlib/nios2-elf/lib\libc.a(lib_a-reallocr.o)
 .debug_info    0x000000000001fa8d      0x13e ../RansacSoftware_bsp//newlib/nios2-elf/lib\libc.a(lib_a-s_fpclassify.o)
 .debug_info    0x000000000001fbcb       0xf4 ../RansacSoftware_bsp//newlib/nios2-elf/lib\libc.a(lib_a-sccl.o)
 .debug_info    0x000000000001fcbf       0xc7 ../RansacSoftware_bsp//newlib/nios2-elf/lib\libc.a(lib_a-sf_nan.o)
 .debug_info    0x000000000001fd86      0x9a6 ../RansacSoftware_bsp//newlib/nios2-elf/lib\libc.a(lib_a-sprintf.o)
 .debug_info    0x000000000002072c       0xdc ../RansacSoftware_bsp//newlib/nios2-elf/lib\libc.a(lib_a-strcmp.o)
 .debug_info    0x0000000000020808      0xf1a ../RansacSoftware_bsp//newlib/nios2-elf/lib\libc.a(lib_a-strtod.o)
 .debug_info    0x0000000000021722      0x98d ../RansacSoftware_bsp//newlib/nios2-elf/lib\libc.a(lib_a-strtol.o)
 .debug_info    0x00000000000220af      0x94d ../RansacSoftware_bsp//newlib/nios2-elf/lib\libc.a(lib_a-strtoll_r.o)
 .debug_info    0x00000000000229fc      0x98d ../RansacSoftware_bsp//newlib/nios2-elf/lib\libc.a(lib_a-strtoul.o)
 .debug_info    0x0000000000023389      0x94d ../RansacSoftware_bsp//newlib/nios2-elf/lib\libc.a(lib_a-strtoull_r.o)
 .debug_info    0x0000000000023cd6      0xe93 ../RansacSoftware_bsp//newlib/nios2-elf/lib\libc.a(lib_a-svfprintf.o)
 .debug_info    0x0000000000024b69      0x96d ../RansacSoftware_bsp//newlib/nios2-elf/lib\libc.a(lib_a-ungetc.o)
 .debug_info    0x00000000000254d6      0xdc6 ../RansacSoftware_bsp//newlib/nios2-elf/lib\libc.a(lib_a-vfiprintf.o)
 .debug_info    0x000000000002629c      0x983 ../RansacSoftware_bsp//newlib/nios2-elf/lib\libc.a(lib_a-callocr.o)
 .debug_info    0x0000000000026c1f      0x9b5 ../RansacSoftware_bsp//newlib/nios2-elf/lib\libc.a(lib_a-fputwc.o)
 .debug_info    0x00000000000275d4      0xc54 ../RansacSoftware_bsp//newlib/nios2-elf/lib\libc.a(lib_a-gdtoa-gethex.o)
 .debug_info    0x0000000000028228      0x292 ../RansacSoftware_bsp//newlib/nios2-elf/lib\libc.a(lib_a-gdtoa-hexnan.o)
 .debug_info    0x00000000000284ba       0xf3 ../RansacSoftware_bsp//newlib/nios2-elf/lib\libc.a(lib_a-strncmp.o)
 .debug_info    0x00000000000285ad      0xcad ../RansacSoftware_bsp//newlib/nios2-elf/lib\libc.a(lib_a-svfiprintf.o)
 .debug_info    0x000000000002925a      0x9c6 ../RansacSoftware_bsp//newlib/nios2-elf/lib\libc.a(lib_a-wcrtomb.o)
 .debug_info    0x0000000000029c20      0x98a ../RansacSoftware_bsp//newlib/nios2-elf/lib\libc.a(lib_a-wctomb_r.o)
 .debug_info    0x000000000002a5aa      0x1e9 c:/intelfpga_lite/18.1/nios2eds/bin/gnu/h-x86_64-mingw32/bin/../lib/gcc/nios2-elf/5.3.0/mno-hw-mul\libgcc.a(_muldi3.o)
 .debug_info    0x000000000002a793       0xc7 c:/intelfpga_lite/18.1/nios2eds/bin/gnu/h-x86_64-mingw32/bin/../lib/gcc/nios2-elf/5.3.0/mno-hw-mul\libgcc.a(_fixunsdfsi.o)
 .debug_info    0x000000000002a85a      0x712 c:/intelfpga_lite/18.1/nios2eds/bin/gnu/h-x86_64-mingw32/bin/../lib/gcc/nios2-elf/5.3.0/mno-hw-mul\libgcc.a(_udivdi3.o)
 .debug_info    0x000000000002af6c      0x767 c:/intelfpga_lite/18.1/nios2eds/bin/gnu/h-x86_64-mingw32/bin/../lib/gcc/nios2-elf/5.3.0/mno-hw-mul\libgcc.a(_umoddi3.o)
 .debug_info    0x000000000002b6d3      0x1e2 c:/intelfpga_lite/18.1/nios2eds/bin/gnu/h-x86_64-mingw32/bin/../lib/gcc/nios2-elf/5.3.0/mno-hw-mul\libgcc.a(eqdf2.o)
 .debug_info    0x000000000002b8b5      0x1b0 c:/intelfpga_lite/18.1/nios2eds/bin/gnu/h-x86_64-mingw32/bin/../lib/gcc/nios2-elf/5.3.0/mno-hw-mul\libgcc.a(floatunsidf.o)
 .debug_info    0x000000000002ba65      0x321 ../RansacSoftware_bsp/\libhal_bsp.a(alt_close.o)
 .debug_info    0x000000000002bd86      0x49c ../RansacSoftware_bsp/\libhal_bsp.a(alt_dev.o)
 .debug_info    0x000000000002c222       0xa6 ../RansacSoftware_bsp/\libhal_bsp.a(alt_errno.o)
 .debug_info    0x000000000002c2c8       0xec ../RansacSoftware_bsp/\libhal_bsp.a(alt_exit.o)
 .debug_info    0x000000000002c3b4      0x488 ../RansacSoftware_bsp/\libhal_bsp.a(alt_fstat.o)
 .debug_info    0x000000000002c83c      0x48b ../RansacSoftware_bsp/\libhal_bsp.a(alt_isatty.o)
 .debug_info    0x000000000002ccc7      0x145 ../RansacSoftware_bsp/\libhal_bsp.a(alt_load.o)
 .debug_info    0x000000000002ce0c      0x352 ../RansacSoftware_bsp/\libhal_bsp.a(alt_lseek.o)
 .debug_info    0x000000000002d15e      0x131 ../RansacSoftware_bsp/\libhal_bsp.a(alt_main.o)
 .debug_info    0x000000000002d28f      0x8b6 ../RansacSoftware_bsp/\libhal_bsp.a(alt_malloc_lock.o)
 .debug_info    0x000000000002db45      0x3bb ../RansacSoftware_bsp/\libhal_bsp.a(alt_open.o)
 .debug_info    0x000000000002df00      0x4b0 ../RansacSoftware_bsp/\libhal_bsp.a(alt_read.o)
 .debug_info    0x000000000002e3b0      0x2b0 ../RansacSoftware_bsp/\libhal_bsp.a(alt_release_fd.o)
 .debug_info    0x000000000002e660      0x1ac ../RansacSoftware_bsp/\libhal_bsp.a(alt_sbrk.o)
 .debug_info    0x000000000002e80c      0x4b7 ../RansacSoftware_bsp/\libhal_bsp.a(alt_write.o)
 .debug_info    0x000000000002ecc3      0x4f8 ../RansacSoftware_bsp/\libhal_bsp.a(alt_sys_init.o)
 .debug_info    0x000000000002f1bb      0x52e ../RansacSoftware_bsp/\libhal_bsp.a(altera_avalon_jtag_uart_fd.o)
 .debug_info    0x000000000002f6e9      0x3a0 ../RansacSoftware_bsp/\libhal_bsp.a(altera_avalon_jtag_uart_init.o)
 .debug_info    0x000000000002fa89      0x280 ../RansacSoftware_bsp/\libhal_bsp.a(altera_avalon_jtag_uart_ioctl.o)
 .debug_info    0x000000000002fd09      0x345 ../RansacSoftware_bsp/\libhal_bsp.a(altera_avalon_jtag_uart_read.o)
 .debug_info    0x000000000003004e      0x340 ../RansacSoftware_bsp/\libhal_bsp.a(altera_avalon_jtag_uart_write.o)
 .debug_info    0x000000000003038e      0x9c4 ../RansacSoftware_bsp/\libhal_bsp.a(altera_hostfs.o)
 .debug_info    0x0000000000030d52      0x2cc ../RansacSoftware_bsp/\libhal_bsp.a(alt_alarm_start.o)
 .debug_info    0x000000000003101e       0x92 ../RansacSoftware_bsp/\libhal_bsp.a(alt_dcache_flush_all.o)
 .debug_info    0x00000000000310b0      0x1a9 ../RansacSoftware_bsp/\libhal_bsp.a(alt_dev_llist_insert.o)
 .debug_info    0x0000000000031259       0x83 ../RansacSoftware_bsp/\libhal_bsp.a(alt_do_ctors.o)
 .debug_info    0x00000000000312dc       0x83 ../RansacSoftware_bsp/\libhal_bsp.a(alt_do_dtors.o)
 .debug_info    0x000000000003135f      0x2e9 ../RansacSoftware_bsp/\libhal_bsp.a(alt_find_dev.o)
 .debug_info    0x0000000000031648      0x2e6 ../RansacSoftware_bsp/\libhal_bsp.a(alt_find_file.o)
 .debug_info    0x000000000003192e      0x302 ../RansacSoftware_bsp/\libhal_bsp.a(alt_fs_reg.o)
 .debug_info    0x0000000000031c30      0x310 ../RansacSoftware_bsp/\libhal_bsp.a(alt_get_fd.o)
 .debug_info    0x0000000000031f40       0x92 ../RansacSoftware_bsp/\libhal_bsp.a(alt_icache_flush_all.o)
 .debug_info    0x0000000000031fd2      0x350 ../RansacSoftware_bsp/\libhal_bsp.a(alt_iic.o)
 .debug_info    0x0000000000032322      0x1ef ../RansacSoftware_bsp/\libhal_bsp.a(alt_iic_isr_register.o)
 .debug_info    0x0000000000032511      0x4a5 ../RansacSoftware_bsp/\libhal_bsp.a(alt_io_redirect.o)
 .debug_info    0x00000000000329b6       0x82 ../RansacSoftware_bsp/\libhal_bsp.a(alt_irq_entry.o)
 .debug_info    0x0000000000032a38      0x187 ../RansacSoftware_bsp/\libhal_bsp.a(alt_irq_handler.o)
 .debug_info    0x0000000000032bbf       0x88 ../RansacSoftware_bsp/\libhal_bsp.a(alt_irq_vars.o)
 .debug_info    0x0000000000032c47      0x299 ../RansacSoftware_bsp/\libhal_bsp.a(alt_tick.o)
 .debug_info    0x0000000000032ee0       0x92 ../RansacSoftware_bsp/\libhal_bsp.a(altera_nios2_gen2_irq.o)
 .debug_info    0x0000000000032f72       0x88 ../RansacSoftware_bsp/\libhal_bsp.a(alt_exception_entry.o)
 .debug_info    0x0000000000032ffa      0x1e7 ../RansacSoftware_bsp/\libhal_bsp.a(alt_instruction_exception_entry.o)
 .debug_info    0x00000000000331e1       0xca ../RansacSoftware_bsp//newlib/nios2-elf/lib\libc.a(lib_a-atexit.o)
 .debug_info    0x00000000000332ab      0x10f ../RansacSoftware_bsp//newlib/nios2-elf/lib\libc.a(lib_a-memcmp.o)
 .debug_info    0x00000000000333ba      0x90d ../RansacSoftware_bsp//newlib/nios2-elf/lib\libc.a(lib_a-__atexit.o)

.debug_abbrev   0x0000000000000000     0xc0da
 *(.debug_abbrev)
 .debug_abbrev  0x0000000000000000       0x12 ../RansacSoftware_bsp//obj/HAL/src/crt0.o
 .debug_abbrev  0x0000000000000012      0x1d5 obj/default/main.o
 .debug_abbrev  0x00000000000001e7      0x15d obj/default/ransac.o
 .debug_abbrev  0x0000000000000344       0xee ../RansacSoftware_bsp//newlib/nios2-elf/lib\libm.a(lib_a-s_atan.o)
 .debug_abbrev  0x0000000000000432       0xc4 ../RansacSoftware_bsp//newlib/nios2-elf/lib\libm.a(lib_a-s_fabs.o)
 .debug_abbrev  0x00000000000004f6      0x10e c:/intelfpga_lite/18.1/nios2eds/bin/gnu/h-x86_64-mingw32/bin/../lib/gcc/nios2-elf/5.3.0/mno-hw-mul\libgcc.a(lib2-divmod.o)
 .debug_abbrev  0x0000000000000604       0x6f c:/intelfpga_lite/18.1/nios2eds/bin/gnu/h-x86_64-mingw32/bin/../lib/gcc/nios2-elf/5.3.0/mno-hw-mul\libgcc.a(lib2-mul.o)
 .debug_abbrev  0x0000000000000673      0x13a c:/intelfpga_lite/18.1/nios2eds/bin/gnu/h-x86_64-mingw32/bin/../lib/gcc/nios2-elf/5.3.0/mno-hw-mul\libgcc.a(adddf3.o)
 .debug_abbrev  0x00000000000007ad      0x12d c:/intelfpga_lite/18.1/nios2eds/bin/gnu/h-x86_64-mingw32/bin/../lib/gcc/nios2-elf/5.3.0/mno-hw-mul\libgcc.a(divdf3.o)
 .debug_abbrev  0x00000000000008da      0x137 c:/intelfpga_lite/18.1/nios2eds/bin/gnu/h-x86_64-mingw32/bin/../lib/gcc/nios2-elf/5.3.0/mno-hw-mul\libgcc.a(gedf2.o)
 .debug_abbrev  0x0000000000000a11      0x137 c:/intelfpga_lite/18.1/nios2eds/bin/gnu/h-x86_64-mingw32/bin/../lib/gcc/nios2-elf/5.3.0/mno-hw-mul\libgcc.a(ledf2.o)
 .debug_abbrev  0x0000000000000b48      0x13f c:/intelfpga_lite/18.1/nios2eds/bin/gnu/h-x86_64-mingw32/bin/../lib/gcc/nios2-elf/5.3.0/mno-hw-mul\libgcc.a(muldf3.o)
 .debug_abbrev  0x0000000000000c87      0x133 c:/intelfpga_lite/18.1/nios2eds/bin/gnu/h-x86_64-mingw32/bin/../lib/gcc/nios2-elf/5.3.0/mno-hw-mul\libgcc.a(subdf3.o)
 .debug_abbrev  0x0000000000000dba      0x135 c:/intelfpga_lite/18.1/nios2eds/bin/gnu/h-x86_64-mingw32/bin/../lib/gcc/nios2-elf/5.3.0/mno-hw-mul\libgcc.a(fixdfsi.o)
 .debug_abbrev  0x0000000000000eef      0x124 c:/intelfpga_lite/18.1/nios2eds/bin/gnu/h-x86_64-mingw32/bin/../lib/gcc/nios2-elf/5.3.0/mno-hw-mul\libgcc.a(floatsidf.o)
 .debug_abbrev  0x0000000000001013      0x124 c:/intelfpga_lite/18.1/nios2eds/bin/gnu/h-x86_64-mingw32/bin/../lib/gcc/nios2-elf/5.3.0/mno-hw-mul\libgcc.a(extendsfdf2.o)
 .debug_abbrev  0x0000000000001137      0x11b c:/intelfpga_lite/18.1/nios2eds/bin/gnu/h-x86_64-mingw32/bin/../lib/gcc/nios2-elf/5.3.0/mno-hw-mul\libgcc.a(truncdfsf2.o)
 .debug_abbrev  0x0000000000001252       0xbe c:/intelfpga_lite/18.1/nios2eds/bin/gnu/h-x86_64-mingw32/bin/../lib/gcc/nios2-elf/5.3.0/mno-hw-mul\libgcc.a(_clzsi2.o)
 .debug_abbrev  0x0000000000001310       0x5d c:/intelfpga_lite/18.1/nios2eds/bin/gnu/h-x86_64-mingw32/bin/../lib/gcc/nios2-elf/5.3.0/mno-hw-mul\libgcc.a(_clz.o)
 .debug_abbrev  0x000000000000136d      0x1ae ../RansacSoftware_bsp//newlib/nios2-elf/lib\libc.a(lib_a-exit.o)
 .debug_abbrev  0x000000000000151b      0x1ff ../RansacSoftware_bsp//newlib/nios2-elf/lib\libc.a(lib_a-fclose.o)
 .debug_abbrev  0x000000000000171a      0x21d ../RansacSoftware_bsp//newlib/nios2-elf/lib\libc.a(lib_a-fflush.o)
 .debug_abbrev  0x0000000000001937      0x2ba ../RansacSoftware_bsp//newlib/nios2-elf/lib\libc.a(lib_a-findfp.o)
 .debug_abbrev  0x0000000000001bf1      0x1e1 ../RansacSoftware_bsp//newlib/nios2-elf/lib\libc.a(lib_a-fopen.o)
 .debug_abbrev  0x0000000000001dd2      0x1da ../RansacSoftware_bsp//newlib/nios2-elf/lib\libc.a(lib_a-fprintf.o)
 .debug_abbrev  0x0000000000001fac      0x1f0 ../RansacSoftware_bsp//newlib/nios2-elf/lib\libc.a(lib_a-fputc.o)
 .debug_abbrev  0x000000000000219c      0x1fd ../RansacSoftware_bsp//newlib/nios2-elf/lib\libc.a(lib_a-freer.o)
 .debug_abbrev  0x0000000000002399      0x1ed ../RansacSoftware_bsp//newlib/nios2-elf/lib\libc.a(lib_a-fscanf.o)
 .debug_abbrev  0x0000000000002586      0x1d8 ../RansacSoftware_bsp//newlib/nios2-elf/lib\libc.a(lib_a-fseek.o)
 .debug_abbrev  0x000000000000275e      0x228 ../RansacSoftware_bsp//newlib/nios2-elf/lib\libc.a(lib_a-fseeko.o)
 .debug_abbrev  0x0000000000002986      0x1cb ../RansacSoftware_bsp//newlib/nios2-elf/lib\libc.a(lib_a-fstatr.o)
 .debug_abbrev  0x0000000000002b51      0x1ba ../RansacSoftware_bsp//newlib/nios2-elf/lib\libc.a(lib_a-fwalk.o)
 .debug_abbrev  0x0000000000002d0b      0x20b ../RansacSoftware_bsp//newlib/nios2-elf/lib\libc.a(lib_a-fwrite.o)
 .debug_abbrev  0x0000000000002f16      0x18d ../RansacSoftware_bsp//newlib/nios2-elf/lib\libc.a(lib_a-impure.o)
 .debug_abbrev  0x00000000000030a3       0x35 ../RansacSoftware_bsp//newlib/nios2-elf/lib\libc.a(lib_a-int_errno.o)
 .debug_abbrev  0x00000000000030d8      0x1b8 ../RansacSoftware_bsp//newlib/nios2-elf/lib\libc.a(lib_a-makebuf.o)
 .debug_abbrev  0x0000000000003290      0x1fb ../RansacSoftware_bsp//newlib/nios2-elf/lib\libc.a(lib_a-mallocr.o)
 .debug_abbrev  0x000000000000348b       0x8e ../RansacSoftware_bsp//newlib/nios2-elf/lib\libc.a(lib_a-memset.o)
 .debug_abbrev  0x0000000000003519      0x1cb ../RansacSoftware_bsp//newlib/nios2-elf/lib\libc.a(lib_a-openr.o)
 .debug_abbrev  0x00000000000036e4      0x1e1 ../RansacSoftware_bsp//newlib/nios2-elf/lib\libc.a(lib_a-putc.o)
 .debug_abbrev  0x00000000000038c5      0x1f5 ../RansacSoftware_bsp//newlib/nios2-elf/lib\libc.a(lib_a-puts.o)
 .debug_abbrev  0x0000000000003aba      0x1d6 ../RansacSoftware_bsp//newlib/nios2-elf/lib\libc.a(lib_a-rand.o)
 .debug_abbrev  0x0000000000003c90      0x1ea ../RansacSoftware_bsp//newlib/nios2-elf/lib\libc.a(lib_a-refill.o)
 .debug_abbrev  0x0000000000003e7a      0x1de ../RansacSoftware_bsp//newlib/nios2-elf/lib\libc.a(lib_a-sbrkr.o)
 .debug_abbrev  0x0000000000004058      0x1f0 ../RansacSoftware_bsp//newlib/nios2-elf/lib\libc.a(lib_a-stdio.o)
 .debug_abbrev  0x0000000000004248       0x7f ../RansacSoftware_bsp//newlib/nios2-elf/lib\libc.a(lib_a-strlen.o)
 .debug_abbrev  0x00000000000042c7      0x29b ../RansacSoftware_bsp//newlib/nios2-elf/lib\libc.a(lib_a-vfprintf.o)
 .debug_abbrev  0x0000000000004562      0x248 ../RansacSoftware_bsp//newlib/nios2-elf/lib\libc.a(lib_a-vfscanf.o)
 .debug_abbrev  0x00000000000047aa      0x1f0 ../RansacSoftware_bsp//newlib/nios2-elf/lib\libc.a(lib_a-wbuf.o)
 .debug_abbrev  0x000000000000499a      0x1c1 ../RansacSoftware_bsp//newlib/nios2-elf/lib\libc.a(lib_a-writer.o)
 .debug_abbrev  0x0000000000004b5b      0x1c5 ../RansacSoftware_bsp//newlib/nios2-elf/lib\libc.a(lib_a-wsetup.o)
 .debug_abbrev  0x0000000000004d20      0x1bc ../RansacSoftware_bsp//newlib/nios2-elf/lib\libc.a(closer.o)
 .debug_abbrev  0x0000000000004edc      0x1ee ../RansacSoftware_bsp//newlib/nios2-elf/lib\libc.a(lib_a-__call_atexit.o)
 .debug_abbrev  0x00000000000050ca       0x5b ../RansacSoftware_bsp//newlib/nios2-elf/lib\libc.a(lib_a-ctype_.o)
 .debug_abbrev  0x0000000000005125      0x22f ../RansacSoftware_bsp//newlib/nios2-elf/lib\libc.a(lib_a-dtoa.o)
 .debug_abbrev  0x0000000000005354      0x1ba ../RansacSoftware_bsp//newlib/nios2-elf/lib\libc.a(lib_a-flags.o)
 .debug_abbrev  0x000000000000550e      0x22f ../RansacSoftware_bsp//newlib/nios2-elf/lib\libc.a(lib_a-fread.o)
 .debug_abbrev  0x000000000000573d      0x1d5 ../RansacSoftware_bsp//newlib/nios2-elf/lib\libc.a(lib_a-fvwrite.o)
 .debug_abbrev  0x0000000000005912      0x1bc ../RansacSoftware_bsp//newlib/nios2-elf/lib\libc.a(lib_a-isattyr.o)
 .debug_abbrev  0x0000000000005ace       0x81 ../RansacSoftware_bsp//newlib/nios2-elf/lib\libc.a(lib_a-iswspace.o)
 .debug_abbrev  0x0000000000005b4f      0x255 ../RansacSoftware_bsp//newlib/nios2-elf/lib\libc.a(lib_a-locale.o)
 .debug_abbrev  0x0000000000005da4      0x1cb ../RansacSoftware_bsp//newlib/nios2-elf/lib\libc.a(lib_a-lseekr.o)
 .debug_abbrev  0x0000000000005f6f      0x1d4 ../RansacSoftware_bsp//newlib/nios2-elf/lib\libc.a(lib_a-mbrtowc.o)
 .debug_abbrev  0x0000000000006143      0x1fd ../RansacSoftware_bsp//newlib/nios2-elf/lib\libc.a(lib_a-mbtowc_r.o)
 .debug_abbrev  0x0000000000006340       0xa9 ../RansacSoftware_bsp//newlib/nios2-elf/lib\libc.a(lib_a-memchr.o)
 .debug_abbrev  0x00000000000063e9       0xa1 ../RansacSoftware_bsp//newlib/nios2-elf/lib\libc.a(lib_a-memcpy.o)
 .debug_abbrev  0x000000000000648a       0x9a ../RansacSoftware_bsp//newlib/nios2-elf/lib\libc.a(lib_a-memmove.o)
 .debug_abbrev  0x0000000000006524      0x2a9 ../RansacSoftware_bsp//newlib/nios2-elf/lib\libc.a(lib_a-mprec.o)
 .debug_abbrev  0x00000000000067cd      0x1bc ../RansacSoftware_bsp//newlib/nios2-elf/lib\libc.a(lib_a-readr.o)
 .debug_abbrev  0x0000000000006989      0x1fe ../RansacSoftware_bsp//newlib/nios2-elf/lib\libc.a(lib_a-reallocr.o)
 .debug_abbrev  0x0000000000006b87       0xc8 ../RansacSoftware_bsp//newlib/nios2-elf/lib\libc.a(lib_a-s_fpclassify.o)
 .debug_abbrev  0x0000000000006c4f       0x85 ../RansacSoftware_bsp//newlib/nios2-elf/lib\libc.a(lib_a-sccl.o)
 .debug_abbrev  0x0000000000006cd4       0x70 ../RansacSoftware_bsp//newlib/nios2-elf/lib\libc.a(lib_a-sf_nan.o)
 .debug_abbrev  0x0000000000006d44      0x1e2 ../RansacSoftware_bsp//newlib/nios2-elf/lib\libc.a(lib_a-sprintf.o)
 .debug_abbrev  0x0000000000006f26       0x72 ../RansacSoftware_bsp//newlib/nios2-elf/lib\libc.a(lib_a-strcmp.o)
 .debug_abbrev  0x0000000000006f98      0x2ca ../RansacSoftware_bsp//newlib/nios2-elf/lib\libc.a(lib_a-strtod.o)
 .debug_abbrev  0x0000000000007262      0x1f2 ../RansacSoftware_bsp//newlib/nios2-elf/lib\libc.a(lib_a-strtol.o)
 .debug_abbrev  0x0000000000007454      0x1d2 ../RansacSoftware_bsp//newlib/nios2-elf/lib\libc.a(lib_a-strtoll_r.o)
 .debug_abbrev  0x0000000000007626      0x1f2 ../RansacSoftware_bsp//newlib/nios2-elf/lib\libc.a(lib_a-strtoul.o)
 .debug_abbrev  0x0000000000007818      0x1d2 ../RansacSoftware_bsp//newlib/nios2-elf/lib\libc.a(lib_a-strtoull_r.o)
 .debug_abbrev  0x00000000000079ea      0x274 ../RansacSoftware_bsp//newlib/nios2-elf/lib\libc.a(lib_a-svfprintf.o)
 .debug_abbrev  0x0000000000007c5e      0x1ff ../RansacSoftware_bsp//newlib/nios2-elf/lib\libc.a(lib_a-ungetc.o)
 .debug_abbrev  0x0000000000007e5d      0x26e ../RansacSoftware_bsp//newlib/nios2-elf/lib\libc.a(lib_a-vfiprintf.o)
 .debug_abbrev  0x00000000000080cb      0x1d2 ../RansacSoftware_bsp//newlib/nios2-elf/lib\libc.a(lib_a-callocr.o)
 .debug_abbrev  0x000000000000829d      0x1d4 ../RansacSoftware_bsp//newlib/nios2-elf/lib\libc.a(lib_a-fputwc.o)
 .debug_abbrev  0x0000000000008471      0x25a ../RansacSoftware_bsp//newlib/nios2-elf/lib\libc.a(lib_a-gdtoa-gethex.o)
 .debug_abbrev  0x00000000000086cb      0x108 ../RansacSoftware_bsp//newlib/nios2-elf/lib\libc.a(lib_a-gdtoa-hexnan.o)
 .debug_abbrev  0x00000000000087d3       0x7f ../RansacSoftware_bsp//newlib/nios2-elf/lib\libc.a(lib_a-strncmp.o)
 .debug_abbrev  0x0000000000008852      0x219 ../RansacSoftware_bsp//newlib/nios2-elf/lib\libc.a(lib_a-svfiprintf.o)
 .debug_abbrev  0x0000000000008a6b      0x1e3 ../RansacSoftware_bsp//newlib/nios2-elf/lib\libc.a(lib_a-wcrtomb.o)
 .debug_abbrev  0x0000000000008c4e      0x1e7 ../RansacSoftware_bsp//newlib/nios2-elf/lib\libc.a(lib_a-wctomb_r.o)
 .debug_abbrev  0x0000000000008e35       0xe0 c:/intelfpga_lite/18.1/nios2eds/bin/gnu/h-x86_64-mingw32/bin/../lib/gcc/nios2-elf/5.3.0/mno-hw-mul\libgcc.a(_muldi3.o)
 .debug_abbrev  0x0000000000008f15       0x60 c:/intelfpga_lite/18.1/nios2eds/bin/gnu/h-x86_64-mingw32/bin/../lib/gcc/nios2-elf/5.3.0/mno-hw-mul\libgcc.a(_fixunsdfsi.o)
 .debug_abbrev  0x0000000000008f75      0x167 c:/intelfpga_lite/18.1/nios2eds/bin/gnu/h-x86_64-mingw32/bin/../lib/gcc/nios2-elf/5.3.0/mno-hw-mul\libgcc.a(_udivdi3.o)
 .debug_abbrev  0x00000000000090dc      0x193 c:/intelfpga_lite/18.1/nios2eds/bin/gnu/h-x86_64-mingw32/bin/../lib/gcc/nios2-elf/5.3.0/mno-hw-mul\libgcc.a(_umoddi3.o)
 .debug_abbrev  0x000000000000926f      0x128 c:/intelfpga_lite/18.1/nios2eds/bin/gnu/h-x86_64-mingw32/bin/../lib/gcc/nios2-elf/5.3.0/mno-hw-mul\libgcc.a(eqdf2.o)
 .debug_abbrev  0x0000000000009397      0x124 c:/intelfpga_lite/18.1/nios2eds/bin/gnu/h-x86_64-mingw32/bin/../lib/gcc/nios2-elf/5.3.0/mno-hw-mul\libgcc.a(floatunsidf.o)
 .debug_abbrev  0x00000000000094bb      0x11f ../RansacSoftware_bsp/\libhal_bsp.a(alt_close.o)
 .debug_abbrev  0x00000000000095da       0xd9 ../RansacSoftware_bsp/\libhal_bsp.a(alt_dev.o)
 .debug_abbrev  0x00000000000096b3       0x5a ../RansacSoftware_bsp/\libhal_bsp.a(alt_errno.o)
 .debug_abbrev  0x000000000000970d       0xa9 ../RansacSoftware_bsp/\libhal_bsp.a(alt_exit.o)
 .debug_abbrev  0x00000000000097b6      0x11f ../RansacSoftware_bsp/\libhal_bsp.a(alt_fstat.o)
 .debug_abbrev  0x00000000000098d5      0x11f ../RansacSoftware_bsp/\libhal_bsp.a(alt_isatty.o)
 .debug_abbrev  0x00000000000099f4       0x9f ../RansacSoftware_bsp/\libhal_bsp.a(alt_load.o)
 .debug_abbrev  0x0000000000009a93      0x11f ../RansacSoftware_bsp/\libhal_bsp.a(alt_lseek.o)
 .debug_abbrev  0x0000000000009bb2       0xba ../RansacSoftware_bsp/\libhal_bsp.a(alt_main.o)
 .debug_abbrev  0x0000000000009c6c      0x1b4 ../RansacSoftware_bsp/\libhal_bsp.a(alt_malloc_lock.o)
 .debug_abbrev  0x0000000000009e20      0x148 ../RansacSoftware_bsp/\libhal_bsp.a(alt_open.o)
 .debug_abbrev  0x0000000000009f68      0x12e ../RansacSoftware_bsp/\libhal_bsp.a(alt_read.o)
 .debug_abbrev  0x000000000000a096       0xde ../RansacSoftware_bsp/\libhal_bsp.a(alt_release_fd.o)
 .debug_abbrev  0x000000000000a174      0x112 ../RansacSoftware_bsp/\libhal_bsp.a(alt_sbrk.o)
 .debug_abbrev  0x000000000000a286      0x133 ../RansacSoftware_bsp/\libhal_bsp.a(alt_write.o)
 .debug_abbrev  0x000000000000a3b9      0x187 ../RansacSoftware_bsp/\libhal_bsp.a(alt_sys_init.o)
 .debug_abbrev  0x000000000000a540      0x127 ../RansacSoftware_bsp/\libhal_bsp.a(altera_avalon_jtag_uart_fd.o)
 .debug_abbrev  0x000000000000a667      0x19e ../RansacSoftware_bsp/\libhal_bsp.a(altera_avalon_jtag_uart_init.o)
 .debug_abbrev  0x000000000000a805      0x111 ../RansacSoftware_bsp/\libhal_bsp.a(altera_avalon_jtag_uart_ioctl.o)
 .debug_abbrev  0x000000000000a916      0x1aa ../RansacSoftware_bsp/\libhal_bsp.a(altera_avalon_jtag_uart_read.o)
 .debug_abbrev  0x000000000000aac0      0x1a8 ../RansacSoftware_bsp/\libhal_bsp.a(altera_avalon_jtag_uart_write.o)
 .debug_abbrev  0x000000000000ac68      0x1c7 ../RansacSoftware_bsp/\libhal_bsp.a(altera_hostfs.o)
 .debug_abbrev  0x000000000000ae2f      0x162 ../RansacSoftware_bsp/\libhal_bsp.a(alt_alarm_start.o)
 .debug_abbrev  0x000000000000af91       0x42 ../RansacSoftware_bsp/\libhal_bsp.a(alt_dcache_flush_all.o)
 .debug_abbrev  0x000000000000afd3      0x114 ../RansacSoftware_bsp/\libhal_bsp.a(alt_dev_llist_insert.o)
 .debug_abbrev  0x000000000000b0e7       0x79 ../RansacSoftware_bsp/\libhal_bsp.a(alt_do_ctors.o)
 .debug_abbrev  0x000000000000b160       0x79 ../RansacSoftware_bsp/\libhal_bsp.a(alt_do_dtors.o)
 .debug_abbrev  0x000000000000b1d9       0xf0 ../RansacSoftware_bsp/\libhal_bsp.a(alt_find_dev.o)
 .debug_abbrev  0x000000000000b2c9       0xf0 ../RansacSoftware_bsp/\libhal_bsp.a(alt_find_file.o)
 .debug_abbrev  0x000000000000b3b9      0x108 ../RansacSoftware_bsp/\libhal_bsp.a(alt_fs_reg.o)
 .debug_abbrev  0x000000000000b4c1      0x10d ../RansacSoftware_bsp/\libhal_bsp.a(alt_get_fd.o)
 .debug_abbrev  0x000000000000b5ce       0x42 ../RansacSoftware_bsp/\libhal_bsp.a(alt_icache_flush_all.o)
 .debug_abbrev  0x000000000000b610      0x163 ../RansacSoftware_bsp/\libhal_bsp.a(alt_iic.o)
 .debug_abbrev  0x000000000000b773      0x169 ../RansacSoftware_bsp/\libhal_bsp.a(alt_iic_isr_register.o)
 .debug_abbrev  0x000000000000b8dc      0x114 ../RansacSoftware_bsp/\libhal_bsp.a(alt_io_redirect.o)
 .debug_abbrev  0x000000000000b9f0       0x12 ../RansacSoftware_bsp/\libhal_bsp.a(alt_irq_entry.o)
 .debug_abbrev  0x000000000000ba02      0x122 ../RansacSoftware_bsp/\libhal_bsp.a(alt_irq_handler.o)
 .debug_abbrev  0x000000000000bb24       0x40 ../RansacSoftware_bsp/\libhal_bsp.a(alt_irq_vars.o)
 .debug_abbrev  0x000000000000bb64      0x15a ../RansacSoftware_bsp/\libhal_bsp.a(alt_tick.o)
 .debug_abbrev  0x000000000000bcbe       0x42 ../RansacSoftware_bsp/\libhal_bsp.a(altera_nios2_gen2_irq.o)
 .debug_abbrev  0x000000000000bd00       0x12 ../RansacSoftware_bsp/\libhal_bsp.a(alt_exception_entry.o)
 .debug_abbrev  0x000000000000bd12       0xdc ../RansacSoftware_bsp/\libhal_bsp.a(alt_instruction_exception_entry.o)
 .debug_abbrev  0x000000000000bdee       0x7b ../RansacSoftware_bsp//newlib/nios2-elf/lib\libc.a(lib_a-atexit.o)
 .debug_abbrev  0x000000000000be69       0x7d ../RansacSoftware_bsp//newlib/nios2-elf/lib\libc.a(lib_a-memcmp.o)
 .debug_abbrev  0x000000000000bee6      0x1f4 ../RansacSoftware_bsp//newlib/nios2-elf/lib\libc.a(lib_a-__atexit.o)

.debug_line     0x0000000000000000     0xffae
 *(.debug_line)
 .debug_line    0x0000000000000000       0x66 ../RansacSoftware_bsp//obj/HAL/src/crt0.o
 .debug_line    0x0000000000000066      0x1c8 obj/default/main.o
 .debug_line    0x000000000000022e      0x215 obj/default/ransac.o
 .debug_line    0x0000000000000443      0x201 ../RansacSoftware_bsp//newlib/nios2-elf/lib\libm.a(lib_a-s_atan.o)
 .debug_line    0x0000000000000644      0x19b ../RansacSoftware_bsp//newlib/nios2-elf/lib\libm.a(lib_a-s_fabs.o)
 .debug_line    0x00000000000007df      0x105 c:/intelfpga_lite/18.1/nios2eds/bin/gnu/h-x86_64-mingw32/bin/../lib/gcc/nios2-elf/5.3.0/mno-hw-mul\libgcc.a(lib2-divmod.o)
 .debug_line    0x00000000000008e4       0x80 c:/intelfpga_lite/18.1/nios2eds/bin/gnu/h-x86_64-mingw32/bin/../lib/gcc/nios2-elf/5.3.0/mno-hw-mul\libgcc.a(lib2-mul.o)
 .debug_line    0x0000000000000964      0x37e c:/intelfpga_lite/18.1/nios2eds/bin/gnu/h-x86_64-mingw32/bin/../lib/gcc/nios2-elf/5.3.0/mno-hw-mul\libgcc.a(adddf3.o)
 .debug_line    0x0000000000000ce2      0x2b0 c:/intelfpga_lite/18.1/nios2eds/bin/gnu/h-x86_64-mingw32/bin/../lib/gcc/nios2-elf/5.3.0/mno-hw-mul\libgcc.a(divdf3.o)
 .debug_line    0x0000000000000f92       0xce c:/intelfpga_lite/18.1/nios2eds/bin/gnu/h-x86_64-mingw32/bin/../lib/gcc/nios2-elf/5.3.0/mno-hw-mul\libgcc.a(gedf2.o)
 .debug_line    0x0000000000001060       0xe6 c:/intelfpga_lite/18.1/nios2eds/bin/gnu/h-x86_64-mingw32/bin/../lib/gcc/nios2-elf/5.3.0/mno-hw-mul\libgcc.a(ledf2.o)
 .debug_line    0x0000000000001146      0x1ea c:/intelfpga_lite/18.1/nios2eds/bin/gnu/h-x86_64-mingw32/bin/../lib/gcc/nios2-elf/5.3.0/mno-hw-mul\libgcc.a(muldf3.o)
 .debug_line    0x0000000000001330      0x3ab c:/intelfpga_lite/18.1/nios2eds/bin/gnu/h-x86_64-mingw32/bin/../lib/gcc/nios2-elf/5.3.0/mno-hw-mul\libgcc.a(subdf3.o)
 .debug_line    0x00000000000016db       0x9b c:/intelfpga_lite/18.1/nios2eds/bin/gnu/h-x86_64-mingw32/bin/../lib/gcc/nios2-elf/5.3.0/mno-hw-mul\libgcc.a(fixdfsi.o)
 .debug_line    0x0000000000001776       0xa2 c:/intelfpga_lite/18.1/nios2eds/bin/gnu/h-x86_64-mingw32/bin/../lib/gcc/nios2-elf/5.3.0/mno-hw-mul\libgcc.a(floatsidf.o)
 .debug_line    0x0000000000001818       0xc4 c:/intelfpga_lite/18.1/nios2eds/bin/gnu/h-x86_64-mingw32/bin/../lib/gcc/nios2-elf/5.3.0/mno-hw-mul\libgcc.a(extendsfdf2.o)
 .debug_line    0x00000000000018dc       0xfa c:/intelfpga_lite/18.1/nios2eds/bin/gnu/h-x86_64-mingw32/bin/../lib/gcc/nios2-elf/5.3.0/mno-hw-mul\libgcc.a(truncdfsf2.o)
 .debug_line    0x00000000000019d6       0xbd c:/intelfpga_lite/18.1/nios2eds/bin/gnu/h-x86_64-mingw32/bin/../lib/gcc/nios2-elf/5.3.0/mno-hw-mul\libgcc.a(_clzsi2.o)
 .debug_line    0x0000000000001a93       0x56 c:/intelfpga_lite/18.1/nios2eds/bin/gnu/h-x86_64-mingw32/bin/../lib/gcc/nios2-elf/5.3.0/mno-hw-mul\libgcc.a(_clz.o)
 .debug_line    0x0000000000001ae9      0x1b2 ../RansacSoftware_bsp//newlib/nios2-elf/lib\libc.a(lib_a-exit.o)
 .debug_line    0x0000000000001c9b      0x1fa ../RansacSoftware_bsp//newlib/nios2-elf/lib\libc.a(lib_a-fclose.o)
 .debug_line    0x0000000000001e95      0x283 ../RansacSoftware_bsp//newlib/nios2-elf/lib\libc.a(lib_a-fflush.o)
 .debug_line    0x0000000000002118      0x316 ../RansacSoftware_bsp//newlib/nios2-elf/lib\libc.a(lib_a-findfp.o)
 .debug_line    0x000000000000242e      0x1dd ../RansacSoftware_bsp//newlib/nios2-elf/lib\libc.a(lib_a-fopen.o)
 .debug_line    0x000000000000260b      0x1d4 ../RansacSoftware_bsp//newlib/nios2-elf/lib\libc.a(lib_a-fprintf.o)
 .debug_line    0x00000000000027df      0x1e1 ../RansacSoftware_bsp//newlib/nios2-elf/lib\libc.a(lib_a-fputc.o)
 .debug_line    0x00000000000029c0      0x24e ../RansacSoftware_bsp//newlib/nios2-elf/lib\libc.a(lib_a-freer.o)
 .debug_line    0x0000000000002c0e      0x1d4 ../RansacSoftware_bsp//newlib/nios2-elf/lib\libc.a(lib_a-fscanf.o)
 .debug_line    0x0000000000002de2      0x1c4 ../RansacSoftware_bsp//newlib/nios2-elf/lib\libc.a(lib_a-fseek.o)
 .debug_line    0x0000000000002fa6      0x2b8 ../RansacSoftware_bsp//newlib/nios2-elf/lib\libc.a(lib_a-fseeko.o)
 .debug_line    0x000000000000325e      0x1cf ../RansacSoftware_bsp//newlib/nios2-elf/lib\libc.a(lib_a-fstatr.o)
 .debug_line    0x000000000000342d      0x21f ../RansacSoftware_bsp//newlib/nios2-elf/lib\libc.a(lib_a-fwalk.o)
 .debug_line    0x000000000000364c      0x1f8 ../RansacSoftware_bsp//newlib/nios2-elf/lib\libc.a(lib_a-fwrite.o)
 .debug_line    0x0000000000003844      0x147 ../RansacSoftware_bsp//newlib/nios2-elf/lib\libc.a(lib_a-impure.o)
 .debug_line    0x000000000000398b       0x75 ../RansacSoftware_bsp//newlib/nios2-elf/lib\libc.a(lib_a-int_errno.o)
 .debug_line    0x0000000000003a00      0x207 ../RansacSoftware_bsp//newlib/nios2-elf/lib\libc.a(lib_a-makebuf.o)
 .debug_line    0x0000000000003c07      0x37f ../RansacSoftware_bsp//newlib/nios2-elf/lib\libc.a(lib_a-mallocr.o)
 .debug_line    0x0000000000003f86      0x17b ../RansacSoftware_bsp//newlib/nios2-elf/lib\libc.a(lib_a-memset.o)
 .debug_line    0x0000000000004101      0x1b9 ../RansacSoftware_bsp//newlib/nios2-elf/lib\libc.a(lib_a-openr.o)
 .debug_line    0x00000000000042ba      0x244 ../RansacSoftware_bsp//newlib/nios2-elf/lib\libc.a(lib_a-putc.o)
 .debug_line    0x00000000000044fe      0x20c ../RansacSoftware_bsp//newlib/nios2-elf/lib\libc.a(lib_a-puts.o)
 .debug_line    0x000000000000470a      0x1cb ../RansacSoftware_bsp//newlib/nios2-elf/lib\libc.a(lib_a-rand.o)
 .debug_line    0x00000000000048d5      0x215 ../RansacSoftware_bsp//newlib/nios2-elf/lib\libc.a(lib_a-refill.o)
 .debug_line    0x0000000000004aea      0x1b9 ../RansacSoftware_bsp//newlib/nios2-elf/lib\libc.a(lib_a-sbrkr.o)
 .debug_line    0x0000000000004ca3      0x227 ../RansacSoftware_bsp//newlib/nios2-elf/lib\libc.a(lib_a-stdio.o)
 .debug_line    0x0000000000004eca      0x154 ../RansacSoftware_bsp//newlib/nios2-elf/lib\libc.a(lib_a-strlen.o)
 .debug_line    0x000000000000501e      0x9d2 ../RansacSoftware_bsp//newlib/nios2-elf/lib\libc.a(lib_a-vfprintf.o)
 .debug_line    0x00000000000059f0      0x694 ../RansacSoftware_bsp//newlib/nios2-elf/lib\libc.a(lib_a-vfscanf.o)
 .debug_line    0x0000000000006084      0x203 ../RansacSoftware_bsp//newlib/nios2-elf/lib\libc.a(lib_a-wbuf.o)
 .debug_line    0x0000000000006287      0x1ba ../RansacSoftware_bsp//newlib/nios2-elf/lib\libc.a(lib_a-writer.o)
 .debug_line    0x0000000000006441      0x1fd ../RansacSoftware_bsp//newlib/nios2-elf/lib\libc.a(lib_a-wsetup.o)
 .debug_line    0x000000000000663e      0x1ba ../RansacSoftware_bsp//newlib/nios2-elf/lib\libc.a(closer.o)
 .debug_line    0x00000000000067f8      0x1c8 ../RansacSoftware_bsp//newlib/nios2-elf/lib\libc.a(lib_a-__call_atexit.o)
 .debug_line    0x00000000000069c0       0xc8 ../RansacSoftware_bsp//newlib/nios2-elf/lib\libc.a(lib_a-ctype_.o)
 .debug_line    0x0000000000006a88      0x647 ../RansacSoftware_bsp//newlib/nios2-elf/lib\libc.a(lib_a-dtoa.o)
 .debug_line    0x00000000000070cf      0x17d ../RansacSoftware_bsp//newlib/nios2-elf/lib\libc.a(lib_a-flags.o)
 .debug_line    0x000000000000724c      0x23b ../RansacSoftware_bsp//newlib/nios2-elf/lib\libc.a(lib_a-fread.o)
 .debug_line    0x0000000000007487      0x2aa ../RansacSoftware_bsp//newlib/nios2-elf/lib\libc.a(lib_a-fvwrite.o)
 .debug_line    0x0000000000007731      0x1bb ../RansacSoftware_bsp//newlib/nios2-elf/lib\libc.a(lib_a-isattyr.o)
 .debug_line    0x00000000000078ec      0x160 ../RansacSoftware_bsp//newlib/nios2-elf/lib\libc.a(lib_a-iswspace.o)
 .debug_line    0x0000000000007a4c      0x251 ../RansacSoftware_bsp//newlib/nios2-elf/lib\libc.a(lib_a-locale.o)
 .debug_line    0x0000000000007c9d      0x1ba ../RansacSoftware_bsp//newlib/nios2-elf/lib\libc.a(lib_a-lseekr.o)
 .debug_line    0x0000000000007e57      0x1ed ../RansacSoftware_bsp//newlib/nios2-elf/lib\libc.a(lib_a-mbrtowc.o)
 .debug_line    0x0000000000008044      0x1e4 ../RansacSoftware_bsp//newlib/nios2-elf/lib\libc.a(lib_a-mbtowc_r.o)
 .debug_line    0x0000000000008228      0x17a ../RansacSoftware_bsp//newlib/nios2-elf/lib\libc.a(lib_a-memchr.o)
 .debug_line    0x00000000000083a2      0x16a ../RansacSoftware_bsp//newlib/nios2-elf/lib\libc.a(lib_a-memcpy.o)
 .debug_line    0x000000000000850c      0x17e ../RansacSoftware_bsp//newlib/nios2-elf/lib\libc.a(lib_a-memmove.o)
 .debug_line    0x000000000000868a      0x671 ../RansacSoftware_bsp//newlib/nios2-elf/lib\libc.a(lib_a-mprec.o)
 .debug_line    0x0000000000008cfb      0x1b9 ../RansacSoftware_bsp//newlib/nios2-elf/lib\libc.a(lib_a-readr.o)
 .debug_line    0x0000000000008eb4      0x2cc ../RansacSoftware_bsp//newlib/nios2-elf/lib\libc.a(lib_a-reallocr.o)
 .debug_line    0x0000000000009180      0x18f ../RansacSoftware_bsp//newlib/nios2-elf/lib\libc.a(lib_a-s_fpclassify.o)
 .debug_line    0x000000000000930f      0x11c ../RansacSoftware_bsp//newlib/nios2-elf/lib\libc.a(lib_a-sccl.o)
 .debug_line    0x000000000000942b       0xd8 ../RansacSoftware_bsp//newlib/nios2-elf/lib\libc.a(lib_a-sf_nan.o)
 .debug_line    0x0000000000009503      0x1eb ../RansacSoftware_bsp//newlib/nios2-elf/lib\libc.a(lib_a-sprintf.o)
 .debug_line    0x00000000000096ee      0x100 ../RansacSoftware_bsp//newlib/nios2-elf/lib\libc.a(lib_a-strcmp.o)
 .debug_line    0x00000000000097ee      0x6d2 ../RansacSoftware_bsp//newlib/nios2-elf/lib\libc.a(lib_a-strtod.o)
 .debug_line    0x0000000000009ec0      0x29f ../RansacSoftware_bsp//newlib/nios2-elf/lib\libc.a(lib_a-strtol.o)
 .debug_line    0x000000000000a15f      0x294 ../RansacSoftware_bsp//newlib/nios2-elf/lib\libc.a(lib_a-strtoll_r.o)
 .debug_line    0x000000000000a3f3      0x26b ../RansacSoftware_bsp//newlib/nios2-elf/lib\libc.a(lib_a-strtoul.o)
 .debug_line    0x000000000000a65e      0x261 ../RansacSoftware_bsp//newlib/nios2-elf/lib\libc.a(lib_a-strtoull_r.o)
 .debug_line    0x000000000000a8bf      0x96c ../RansacSoftware_bsp//newlib/nios2-elf/lib\libc.a(lib_a-svfprintf.o)
 .debug_line    0x000000000000b22b      0x23f ../RansacSoftware_bsp//newlib/nios2-elf/lib\libc.a(lib_a-ungetc.o)
 .debug_line    0x000000000000b46a      0x694 ../RansacSoftware_bsp//newlib/nios2-elf/lib\libc.a(lib_a-vfiprintf.o)
 .debug_line    0x000000000000bafe      0x193 ../RansacSoftware_bsp//newlib/nios2-elf/lib\libc.a(lib_a-callocr.o)
 .debug_line    0x000000000000bc91      0x249 ../RansacSoftware_bsp//newlib/nios2-elf/lib\libc.a(lib_a-fputwc.o)
 .debug_line    0x000000000000beda      0x371 ../RansacSoftware_bsp//newlib/nios2-elf/lib\libc.a(lib_a-gdtoa-gethex.o)
 .debug_line    0x000000000000c24b      0x18a ../RansacSoftware_bsp//newlib/nios2-elf/lib\libc.a(lib_a-gdtoa-hexnan.o)
 .debug_line    0x000000000000c3d5      0x185 ../RansacSoftware_bsp//newlib/nios2-elf/lib\libc.a(lib_a-strncmp.o)
 .debug_line    0x000000000000c55a      0x653 ../RansacSoftware_bsp//newlib/nios2-elf/lib\libc.a(lib_a-svfiprintf.o)
 .debug_line    0x000000000000cbad      0x1f4 ../RansacSoftware_bsp//newlib/nios2-elf/lib\libc.a(lib_a-wcrtomb.o)
 .debug_line    0x000000000000cda1      0x1da ../RansacSoftware_bsp//newlib/nios2-elf/lib\libc.a(lib_a-wctomb_r.o)
 .debug_line    0x000000000000cf7b       0x91 c:/intelfpga_lite/18.1/nios2eds/bin/gnu/h-x86_64-mingw32/bin/../lib/gcc/nios2-elf/5.3.0/mno-hw-mul\libgcc.a(_muldi3.o)
 .debug_line    0x000000000000d00c       0x6e c:/intelfpga_lite/18.1/nios2eds/bin/gnu/h-x86_64-mingw32/bin/../lib/gcc/nios2-elf/5.3.0/mno-hw-mul\libgcc.a(_fixunsdfsi.o)
 .debug_line    0x000000000000d07a      0x12f c:/intelfpga_lite/18.1/nios2eds/bin/gnu/h-x86_64-mingw32/bin/../lib/gcc/nios2-elf/5.3.0/mno-hw-mul\libgcc.a(_udivdi3.o)
 .debug_line    0x000000000000d1a9      0x142 c:/intelfpga_lite/18.1/nios2eds/bin/gnu/h-x86_64-mingw32/bin/../lib/gcc/nios2-elf/5.3.0/mno-hw-mul\libgcc.a(_umoddi3.o)
 .debug_line    0x000000000000d2eb       0xad c:/intelfpga_lite/18.1/nios2eds/bin/gnu/h-x86_64-mingw32/bin/../lib/gcc/nios2-elf/5.3.0/mno-hw-mul\libgcc.a(eqdf2.o)
 .debug_line    0x000000000000d398       0x95 c:/intelfpga_lite/18.1/nios2eds/bin/gnu/h-x86_64-mingw32/bin/../lib/gcc/nios2-elf/5.3.0/mno-hw-mul\libgcc.a(floatunsidf.o)
 .debug_line    0x000000000000d42d      0x165 ../RansacSoftware_bsp/\libhal_bsp.a(alt_close.o)
 .debug_line    0x000000000000d592       0xf8 ../RansacSoftware_bsp/\libhal_bsp.a(alt_dev.o)
 .debug_line    0x000000000000d68a       0x51 ../RansacSoftware_bsp/\libhal_bsp.a(alt_errno.o)
 .debug_line    0x000000000000d6db       0x71 ../RansacSoftware_bsp/\libhal_bsp.a(alt_exit.o)
 .debug_line    0x000000000000d74c      0x15e ../RansacSoftware_bsp/\libhal_bsp.a(alt_fstat.o)
 .debug_line    0x000000000000d8aa      0x162 ../RansacSoftware_bsp/\libhal_bsp.a(alt_isatty.o)
 .debug_line    0x000000000000da0c       0x8e ../RansacSoftware_bsp/\libhal_bsp.a(alt_load.o)
 .debug_line    0x000000000000da9a      0x163 ../RansacSoftware_bsp/\libhal_bsp.a(alt_lseek.o)
 .debug_line    0x000000000000dbfd       0xa4 ../RansacSoftware_bsp/\libhal_bsp.a(alt_main.o)
 .debug_line    0x000000000000dca1      0x122 ../RansacSoftware_bsp/\libhal_bsp.a(alt_malloc_lock.o)
 .debug_line    0x000000000000ddc3      0x12b ../RansacSoftware_bsp/\libhal_bsp.a(alt_open.o)
 .debug_line    0x000000000000deee      0x1dc ../RansacSoftware_bsp/\libhal_bsp.a(alt_read.o)
 .debug_line    0x000000000000e0ca       0xb0 ../RansacSoftware_bsp/\libhal_bsp.a(alt_release_fd.o)
 .debug_line    0x000000000000e17a       0xf3 ../RansacSoftware_bsp/\libhal_bsp.a(alt_sbrk.o)
 .debug_line    0x000000000000e26d      0x1db ../RansacSoftware_bsp/\libhal_bsp.a(alt_write.o)
 .debug_line    0x000000000000e448      0x14a ../RansacSoftware_bsp/\libhal_bsp.a(alt_sys_init.o)
 .debug_line    0x000000000000e592      0x12f ../RansacSoftware_bsp/\libhal_bsp.a(altera_avalon_jtag_uart_fd.o)
 .debug_line    0x000000000000e6c1      0x18b ../RansacSoftware_bsp/\libhal_bsp.a(altera_avalon_jtag_uart_init.o)
 .debug_line    0x000000000000e84c      0x131 ../RansacSoftware_bsp/\libhal_bsp.a(altera_avalon_jtag_uart_ioctl.o)
 .debug_line    0x000000000000e97d      0x171 ../RansacSoftware_bsp/\libhal_bsp.a(altera_avalon_jtag_uart_read.o)
 .debug_line    0x000000000000eaee      0x170 ../RansacSoftware_bsp/\libhal_bsp.a(altera_avalon_jtag_uart_write.o)
 .debug_line    0x000000000000ec5e      0x233 ../RansacSoftware_bsp/\libhal_bsp.a(altera_hostfs.o)
 .debug_line    0x000000000000ee91       0xf9 ../RansacSoftware_bsp/\libhal_bsp.a(alt_alarm_start.o)
 .debug_line    0x000000000000ef8a       0x51 ../RansacSoftware_bsp/\libhal_bsp.a(alt_dcache_flush_all.o)
 .debug_line    0x000000000000efdb       0xcf ../RansacSoftware_bsp/\libhal_bsp.a(alt_dev_llist_insert.o)
 .debug_line    0x000000000000f0aa       0x59 ../RansacSoftware_bsp/\libhal_bsp.a(alt_do_ctors.o)
 .debug_line    0x000000000000f103       0x59 ../RansacSoftware_bsp/\libhal_bsp.a(alt_do_dtors.o)
 .debug_line    0x000000000000f15c       0xb5 ../RansacSoftware_bsp/\libhal_bsp.a(alt_find_dev.o)
 .debug_line    0x000000000000f211       0xd1 ../RansacSoftware_bsp/\libhal_bsp.a(alt_find_file.o)
 .debug_line    0x000000000000f2e2       0xb5 ../RansacSoftware_bsp/\libhal_bsp.a(alt_fs_reg.o)
 .debug_line    0x000000000000f397       0xd7 ../RansacSoftware_bsp/\libhal_bsp.a(alt_get_fd.o)
 .debug_line    0x000000000000f46e       0x4f ../RansacSoftware_bsp/\libhal_bsp.a(alt_icache_flush_all.o)
 .debug_line    0x000000000000f4bd       0xeb ../RansacSoftware_bsp/\libhal_bsp.a(alt_iic.o)
 .debug_line    0x000000000000f5a8       0xdb ../RansacSoftware_bsp/\libhal_bsp.a(alt_iic_isr_register.o)
 .debug_line    0x000000000000f683      0x135 ../RansacSoftware_bsp/\libhal_bsp.a(alt_io_redirect.o)
 .debug_line    0x000000000000f7b8       0x6b ../RansacSoftware_bsp/\libhal_bsp.a(alt_irq_entry.o)
 .debug_line    0x000000000000f823       0xaa ../RansacSoftware_bsp/\libhal_bsp.a(alt_irq_handler.o)
 .debug_line    0x000000000000f8cd       0x50 ../RansacSoftware_bsp/\libhal_bsp.a(alt_irq_vars.o)
 .debug_line    0x000000000000f91d       0xff ../RansacSoftware_bsp/\libhal_bsp.a(alt_tick.o)
 .debug_line    0x000000000000fa1c       0x51 ../RansacSoftware_bsp/\libhal_bsp.a(altera_nios2_gen2_irq.o)
 .debug_line    0x000000000000fa6d       0xb3 ../RansacSoftware_bsp/\libhal_bsp.a(alt_exception_entry.o)
 .debug_line    0x000000000000fb20       0xb9 ../RansacSoftware_bsp/\libhal_bsp.a(alt_instruction_exception_entry.o)
 .debug_line    0x000000000000fbd9       0xe9 ../RansacSoftware_bsp//newlib/nios2-elf/lib\libc.a(lib_a-atexit.o)
 .debug_line    0x000000000000fcc2      0x164 ../RansacSoftware_bsp//newlib/nios2-elf/lib\libc.a(lib_a-memcmp.o)
 .debug_line    0x000000000000fe26      0x188 ../RansacSoftware_bsp//newlib/nios2-elf/lib\libc.a(lib_a-__atexit.o)

.debug_frame    0x0000000000000000     0x3460
 *(.debug_frame)
 .debug_frame   0x0000000000000000       0x44 obj/default/main.o
 .debug_frame   0x0000000000000044      0x1bc obj/default/ransac.o
 .debug_frame   0x0000000000000200       0x5c ../RansacSoftware_bsp//newlib/nios2-elf/lib\libm.a(lib_a-s_atan.o)
 .debug_frame   0x000000000000025c       0x34 ../RansacSoftware_bsp//newlib/nios2-elf/lib\libm.a(lib_a-s_fabs.o)
 .debug_frame   0x0000000000000290       0x50 c:/intelfpga_lite/18.1/nios2eds/bin/gnu/h-x86_64-mingw32/bin/../lib/gcc/nios2-elf/5.3.0/mno-hw-mul\libgcc.a(lib2-divmod.o)
 .debug_frame   0x00000000000002e0       0x20 c:/intelfpga_lite/18.1/nios2eds/bin/gnu/h-x86_64-mingw32/bin/../lib/gcc/nios2-elf/5.3.0/mno-hw-mul\libgcc.a(lib2-mul.o)
 .debug_frame   0x0000000000000300       0x40 c:/intelfpga_lite/18.1/nios2eds/bin/gnu/h-x86_64-mingw32/bin/../lib/gcc/nios2-elf/5.3.0/mno-hw-mul\libgcc.a(adddf3.o)
 .debug_frame   0x0000000000000340       0x58 c:/intelfpga_lite/18.1/nios2eds/bin/gnu/h-x86_64-mingw32/bin/../lib/gcc/nios2-elf/5.3.0/mno-hw-mul\libgcc.a(divdf3.o)
 .debug_frame   0x0000000000000398       0x20 c:/intelfpga_lite/18.1/nios2eds/bin/gnu/h-x86_64-mingw32/bin/../lib/gcc/nios2-elf/5.3.0/mno-hw-mul\libgcc.a(gedf2.o)
 .debug_frame   0x00000000000003b8       0x20 c:/intelfpga_lite/18.1/nios2eds/bin/gnu/h-x86_64-mingw32/bin/../lib/gcc/nios2-elf/5.3.0/mno-hw-mul\libgcc.a(ledf2.o)
 .debug_frame   0x00000000000003d8       0x58 c:/intelfpga_lite/18.1/nios2eds/bin/gnu/h-x86_64-mingw32/bin/../lib/gcc/nios2-elf/5.3.0/mno-hw-mul\libgcc.a(muldf3.o)
 .debug_frame   0x0000000000000430       0x44 c:/intelfpga_lite/18.1/nios2eds/bin/gnu/h-x86_64-mingw32/bin/../lib/gcc/nios2-elf/5.3.0/mno-hw-mul\libgcc.a(subdf3.o)
 .debug_frame   0x0000000000000474       0x20 c:/intelfpga_lite/18.1/nios2eds/bin/gnu/h-x86_64-mingw32/bin/../lib/gcc/nios2-elf/5.3.0/mno-hw-mul\libgcc.a(fixdfsi.o)
 .debug_frame   0x0000000000000494       0x38 c:/intelfpga_lite/18.1/nios2eds/bin/gnu/h-x86_64-mingw32/bin/../lib/gcc/nios2-elf/5.3.0/mno-hw-mul\libgcc.a(floatsidf.o)
 .debug_frame   0x00000000000004cc       0x38 c:/intelfpga_lite/18.1/nios2eds/bin/gnu/h-x86_64-mingw32/bin/../lib/gcc/nios2-elf/5.3.0/mno-hw-mul\libgcc.a(extendsfdf2.o)
 .debug_frame   0x0000000000000504       0x20 c:/intelfpga_lite/18.1/nios2eds/bin/gnu/h-x86_64-mingw32/bin/../lib/gcc/nios2-elf/5.3.0/mno-hw-mul\libgcc.a(truncdfsf2.o)
 .debug_frame   0x0000000000000524       0x20 c:/intelfpga_lite/18.1/nios2eds/bin/gnu/h-x86_64-mingw32/bin/../lib/gcc/nios2-elf/5.3.0/mno-hw-mul\libgcc.a(_clzsi2.o)
 .debug_frame   0x0000000000000544       0x2c ../RansacSoftware_bsp//newlib/nios2-elf/lib\libc.a(lib_a-exit.o)
 .debug_frame   0x0000000000000570       0x68 ../RansacSoftware_bsp//newlib/nios2-elf/lib\libc.a(lib_a-fclose.o)
 .debug_frame   0x00000000000005d8       0xa0 ../RansacSoftware_bsp//newlib/nios2-elf/lib\libc.a(lib_a-fflush.o)
 .debug_frame   0x0000000000000678      0x230 ../RansacSoftware_bsp//newlib/nios2-elf/lib\libc.a(lib_a-findfp.o)
 .debug_frame   0x00000000000008a8       0x68 ../RansacSoftware_bsp//newlib/nios2-elf/lib\libc.a(lib_a-fopen.o)
 .debug_frame   0x0000000000000910       0x60 ../RansacSoftware_bsp//newlib/nios2-elf/lib\libc.a(lib_a-fprintf.o)
 .debug_frame   0x0000000000000970       0x60 ../RansacSoftware_bsp//newlib/nios2-elf/lib\libc.a(lib_a-fputc.o)
 .debug_frame   0x00000000000009d0       0x60 ../RansacSoftware_bsp//newlib/nios2-elf/lib\libc.a(lib_a-freer.o)
 .debug_frame   0x0000000000000a30       0x60 ../RansacSoftware_bsp//newlib/nios2-elf/lib\libc.a(lib_a-fscanf.o)
 .debug_frame   0x0000000000000a90       0x60 ../RansacSoftware_bsp//newlib/nios2-elf/lib\libc.a(lib_a-fseek.o)
 .debug_frame   0x0000000000000af0       0x6c ../RansacSoftware_bsp//newlib/nios2-elf/lib\libc.a(lib_a-fseeko.o)
 .debug_frame   0x0000000000000b5c       0x38 ../RansacSoftware_bsp//newlib/nios2-elf/lib\libc.a(lib_a-fstatr.o)
 .debug_frame   0x0000000000000b94       0x88 ../RansacSoftware_bsp//newlib/nios2-elf/lib\libc.a(lib_a-fwalk.o)
 .debug_frame   0x0000000000000c1c       0x60 ../RansacSoftware_bsp//newlib/nios2-elf/lib\libc.a(lib_a-fwrite.o)
 .debug_frame   0x0000000000000c7c       0x4c ../RansacSoftware_bsp//newlib/nios2-elf/lib\libc.a(lib_a-makebuf.o)
 .debug_frame   0x0000000000000cc8       0x60 ../RansacSoftware_bsp//newlib/nios2-elf/lib\libc.a(lib_a-mallocr.o)
 .debug_frame   0x0000000000000d28       0x34 ../RansacSoftware_bsp//newlib/nios2-elf/lib\libc.a(lib_a-memset.o)
 .debug_frame   0x0000000000000d5c       0x38 ../RansacSoftware_bsp//newlib/nios2-elf/lib\libc.a(lib_a-openr.o)
 .debug_frame   0x0000000000000d94       0x68 ../RansacSoftware_bsp//newlib/nios2-elf/lib\libc.a(lib_a-putc.o)
 .debug_frame   0x0000000000000dfc       0x60 ../RansacSoftware_bsp//newlib/nios2-elf/lib\libc.a(lib_a-puts.o)
 .debug_frame   0x0000000000000e5c       0x64 ../RansacSoftware_bsp//newlib/nios2-elf/lib\libc.a(lib_a-rand.o)
 .debug_frame   0x0000000000000ec0       0x68 ../RansacSoftware_bsp//newlib/nios2-elf/lib\libc.a(lib_a-refill.o)
 .debug_frame   0x0000000000000f28       0x38 ../RansacSoftware_bsp//newlib/nios2-elf/lib\libc.a(lib_a-sbrkr.o)
 .debug_frame   0x0000000000000f60       0xe8 ../RansacSoftware_bsp//newlib/nios2-elf/lib\libc.a(lib_a-stdio.o)
 .debug_frame   0x0000000000001048       0x34 ../RansacSoftware_bsp//newlib/nios2-elf/lib\libc.a(lib_a-strlen.o)
 .debug_frame   0x000000000000107c      0x110 ../RansacSoftware_bsp//newlib/nios2-elf/lib\libc.a(lib_a-vfprintf.o)
 .debug_frame   0x000000000000118c       0xdc ../RansacSoftware_bsp//newlib/nios2-elf/lib\libc.a(lib_a-vfscanf.o)
 .debug_frame   0x0000000000001268       0x70 ../RansacSoftware_bsp//newlib/nios2-elf/lib\libc.a(lib_a-wbuf.o)
 .debug_frame   0x00000000000012d8       0x38 ../RansacSoftware_bsp//newlib/nios2-elf/lib\libc.a(lib_a-writer.o)
 .debug_frame   0x0000000000001310       0x40 ../RansacSoftware_bsp//newlib/nios2-elf/lib\libc.a(lib_a-wsetup.o)
 .debug_frame   0x0000000000001350       0x38 ../RansacSoftware_bsp//newlib/nios2-elf/lib\libc.a(closer.o)
 .debug_frame   0x0000000000001388       0x48 ../RansacSoftware_bsp//newlib/nios2-elf/lib\libc.a(lib_a-__call_atexit.o)
 .debug_frame   0x00000000000013d0       0x74 ../RansacSoftware_bsp//newlib/nios2-elf/lib\libc.a(lib_a-dtoa.o)
 .debug_frame   0x0000000000001444       0x40 ../RansacSoftware_bsp//newlib/nios2-elf/lib\libc.a(lib_a-flags.o)
 .debug_frame   0x0000000000001484       0x70 ../RansacSoftware_bsp//newlib/nios2-elf/lib\libc.a(lib_a-fread.o)
 .debug_frame   0x00000000000014f4       0x58 ../RansacSoftware_bsp//newlib/nios2-elf/lib\libc.a(lib_a-fvwrite.o)
 .debug_frame   0x000000000000154c       0x38 ../RansacSoftware_bsp//newlib/nios2-elf/lib\libc.a(lib_a-isattyr.o)
 .debug_frame   0x0000000000001584       0x34 ../RansacSoftware_bsp//newlib/nios2-elf/lib\libc.a(lib_a-iswspace.o)
 .debug_frame   0x00000000000015b8      0x13c ../RansacSoftware_bsp//newlib/nios2-elf/lib\libc.a(lib_a-locale.o)
 .debug_frame   0x00000000000016f4       0x38 ../RansacSoftware_bsp//newlib/nios2-elf/lib\libc.a(lib_a-lseekr.o)
 .debug_frame   0x000000000000172c       0x68 ../RansacSoftware_bsp//newlib/nios2-elf/lib\libc.a(lib_a-mbrtowc.o)
 .debug_frame   0x0000000000001794       0x60 ../RansacSoftware_bsp//newlib/nios2-elf/lib\libc.a(lib_a-mbtowc_r.o)
 .debug_frame   0x00000000000017f4       0x34 ../RansacSoftware_bsp//newlib/nios2-elf/lib\libc.a(lib_a-memchr.o)
 .debug_frame   0x0000000000001828       0x34 ../RansacSoftware_bsp//newlib/nios2-elf/lib\libc.a(lib_a-memcpy.o)
 .debug_frame   0x000000000000185c       0x34 ../RansacSoftware_bsp//newlib/nios2-elf/lib\libc.a(lib_a-memmove.o)
 .debug_frame   0x0000000000001890      0x304 ../RansacSoftware_bsp//newlib/nios2-elf/lib\libc.a(lib_a-mprec.o)
 .debug_frame   0x0000000000001b94       0x38 ../RansacSoftware_bsp//newlib/nios2-elf/lib\libc.a(lib_a-readr.o)
 .debug_frame   0x0000000000001bcc       0x38 ../RansacSoftware_bsp//newlib/nios2-elf/lib\libc.a(lib_a-reallocr.o)
 .debug_frame   0x0000000000001c04       0x34 ../RansacSoftware_bsp//newlib/nios2-elf/lib\libc.a(lib_a-s_fpclassify.o)
 .debug_frame   0x0000000000001c38       0x40 ../RansacSoftware_bsp//newlib/nios2-elf/lib\libc.a(lib_a-sccl.o)
 .debug_frame   0x0000000000001c78       0x34 ../RansacSoftware_bsp//newlib/nios2-elf/lib\libc.a(lib_a-sf_nan.o)
 .debug_frame   0x0000000000001cac       0x60 ../RansacSoftware_bsp//newlib/nios2-elf/lib\libc.a(lib_a-sprintf.o)
 .debug_frame   0x0000000000001d0c       0x34 ../RansacSoftware_bsp//newlib/nios2-elf/lib\libc.a(lib_a-strcmp.o)
 .debug_frame   0x0000000000001d40      0x124 ../RansacSoftware_bsp//newlib/nios2-elf/lib\libc.a(lib_a-strtod.o)
 .debug_frame   0x0000000000001e64       0x80 ../RansacSoftware_bsp//newlib/nios2-elf/lib\libc.a(lib_a-strtol.o)
 .debug_frame   0x0000000000001ee4       0x5c ../RansacSoftware_bsp//newlib/nios2-elf/lib\libc.a(lib_a-strtoll_r.o)
 .debug_frame   0x0000000000001f40       0x80 ../RansacSoftware_bsp//newlib/nios2-elf/lib\libc.a(lib_a-strtoul.o)
 .debug_frame   0x0000000000001fc0       0x5c ../RansacSoftware_bsp//newlib/nios2-elf/lib\libc.a(lib_a-strtoull_r.o)
 .debug_frame   0x000000000000201c       0xb8 ../RansacSoftware_bsp//newlib/nios2-elf/lib\libc.a(lib_a-svfprintf.o)
 .debug_frame   0x00000000000020d4       0x9c ../RansacSoftware_bsp//newlib/nios2-elf/lib\libc.a(lib_a-ungetc.o)
 .debug_frame   0x0000000000002170       0xe8 ../RansacSoftware_bsp//newlib/nios2-elf/lib\libc.a(lib_a-vfiprintf.o)
 .debug_frame   0x0000000000002258       0x38 ../RansacSoftware_bsp//newlib/nios2-elf/lib\libc.a(lib_a-callocr.o)
 .debug_frame   0x0000000000002290       0x88 ../RansacSoftware_bsp//newlib/nios2-elf/lib\libc.a(lib_a-fputwc.o)
 .debug_frame   0x0000000000002318       0x8c ../RansacSoftware_bsp//newlib/nios2-elf/lib\libc.a(lib_a-gdtoa-gethex.o)
 .debug_frame   0x00000000000023a4       0x5c ../RansacSoftware_bsp//newlib/nios2-elf/lib\libc.a(lib_a-gdtoa-hexnan.o)
 .debug_frame   0x0000000000002400       0x34 ../RansacSoftware_bsp//newlib/nios2-elf/lib\libc.a(lib_a-strncmp.o)
 .debug_frame   0x0000000000002434       0x9c ../RansacSoftware_bsp//newlib/nios2-elf/lib\libc.a(lib_a-svfiprintf.o)
 .debug_frame   0x00000000000024d0       0x68 ../RansacSoftware_bsp//newlib/nios2-elf/lib\libc.a(lib_a-wcrtomb.o)
 .debug_frame   0x0000000000002538       0x60 ../RansacSoftware_bsp//newlib/nios2-elf/lib\libc.a(lib_a-wctomb_r.o)
 .debug_frame   0x0000000000002598       0x54 c:/intelfpga_lite/18.1/nios2eds/bin/gnu/h-x86_64-mingw32/bin/../lib/gcc/nios2-elf/5.3.0/mno-hw-mul\libgcc.a(_muldi3.o)
 .debug_frame   0x00000000000025ec       0x38 c:/intelfpga_lite/18.1/nios2eds/bin/gnu/h-x86_64-mingw32/bin/../lib/gcc/nios2-elf/5.3.0/mno-hw-mul\libgcc.a(_fixunsdfsi.o)
 .debug_frame   0x0000000000002624       0x54 c:/intelfpga_lite/18.1/nios2eds/bin/gnu/h-x86_64-mingw32/bin/../lib/gcc/nios2-elf/5.3.0/mno-hw-mul\libgcc.a(_udivdi3.o)
 .debug_frame   0x0000000000002678       0x54 c:/intelfpga_lite/18.1/nios2eds/bin/gnu/h-x86_64-mingw32/bin/../lib/gcc/nios2-elf/5.3.0/mno-hw-mul\libgcc.a(_umoddi3.o)
 .debug_frame   0x00000000000026cc       0x20 c:/intelfpga_lite/18.1/nios2eds/bin/gnu/h-x86_64-mingw32/bin/../lib/gcc/nios2-elf/5.3.0/mno-hw-mul\libgcc.a(eqdf2.o)
 .debug_frame   0x00000000000026ec       0x34 c:/intelfpga_lite/18.1/nios2eds/bin/gnu/h-x86_64-mingw32/bin/../lib/gcc/nios2-elf/5.3.0/mno-hw-mul\libgcc.a(floatunsidf.o)
 .debug_frame   0x0000000000002720       0x60 ../RansacSoftware_bsp/\libhal_bsp.a(alt_close.o)
 .debug_frame   0x0000000000002780       0x34 ../RansacSoftware_bsp/\libhal_bsp.a(alt_dev.o)
 .debug_frame   0x00000000000027b4       0x2c ../RansacSoftware_bsp/\libhal_bsp.a(alt_exit.o)
 .debug_frame   0x00000000000027e0       0x60 ../RansacSoftware_bsp/\libhal_bsp.a(alt_fstat.o)
 .debug_frame   0x0000000000002840       0x60 ../RansacSoftware_bsp/\libhal_bsp.a(alt_isatty.o)
 .debug_frame   0x00000000000028a0       0x5c ../RansacSoftware_bsp/\libhal_bsp.a(alt_load.o)
 .debug_frame   0x00000000000028fc       0x60 ../RansacSoftware_bsp/\libhal_bsp.a(alt_lseek.o)
 .debug_frame   0x000000000000295c       0x2c ../RansacSoftware_bsp/\libhal_bsp.a(alt_main.o)
 .debug_frame   0x0000000000002988       0x58 ../RansacSoftware_bsp/\libhal_bsp.a(alt_malloc_lock.o)
 .debug_frame   0x00000000000029e0       0x8c ../RansacSoftware_bsp/\libhal_bsp.a(alt_open.o)
 .debug_frame   0x0000000000002a6c       0x60 ../RansacSoftware_bsp/\libhal_bsp.a(alt_read.o)
 .debug_frame   0x0000000000002acc       0x3c ../RansacSoftware_bsp/\libhal_bsp.a(alt_release_fd.o)
 .debug_frame   0x0000000000002b08       0x34 ../RansacSoftware_bsp/\libhal_bsp.a(alt_sbrk.o)
 .debug_frame   0x0000000000002b3c       0x60 ../RansacSoftware_bsp/\libhal_bsp.a(alt_write.o)
 .debug_frame   0x0000000000002b9c       0x88 ../RansacSoftware_bsp/\libhal_bsp.a(alt_sys_init.o)
 .debug_frame   0x0000000000002c24       0xb0 ../RansacSoftware_bsp/\libhal_bsp.a(altera_avalon_jtag_uart_fd.o)
 .debug_frame   0x0000000000002cd4       0xa4 ../RansacSoftware_bsp/\libhal_bsp.a(altera_avalon_jtag_uart_init.o)
 .debug_frame   0x0000000000002d78       0x34 ../RansacSoftware_bsp/\libhal_bsp.a(altera_avalon_jtag_uart_ioctl.o)
 .debug_frame   0x0000000000002dac       0x38 ../RansacSoftware_bsp/\libhal_bsp.a(altera_avalon_jtag_uart_read.o)
 .debug_frame   0x0000000000002de4       0x38 ../RansacSoftware_bsp/\libhal_bsp.a(altera_avalon_jtag_uart_write.o)
 .debug_frame   0x0000000000002e1c       0xe8 ../RansacSoftware_bsp/\libhal_bsp.a(altera_hostfs.o)
 .debug_frame   0x0000000000002f04       0x34 ../RansacSoftware_bsp/\libhal_bsp.a(alt_alarm_start.o)
 .debug_frame   0x0000000000002f38       0x34 ../RansacSoftware_bsp/\libhal_bsp.a(alt_dcache_flush_all.o)
 .debug_frame   0x0000000000002f6c       0x60 ../RansacSoftware_bsp/\libhal_bsp.a(alt_dev_llist_insert.o)
 .debug_frame   0x0000000000002fcc       0x38 ../RansacSoftware_bsp/\libhal_bsp.a(alt_do_ctors.o)
 .debug_frame   0x0000000000003004       0x38 ../RansacSoftware_bsp/\libhal_bsp.a(alt_do_dtors.o)
 .debug_frame   0x000000000000303c       0x38 ../RansacSoftware_bsp/\libhal_bsp.a(alt_find_dev.o)
 .debug_frame   0x0000000000003074       0x38 ../RansacSoftware_bsp/\libhal_bsp.a(alt_find_file.o)
 .debug_frame   0x00000000000030ac       0x34 ../RansacSoftware_bsp/\libhal_bsp.a(alt_fs_reg.o)
 .debug_frame   0x00000000000030e0       0x3c ../RansacSoftware_bsp/\libhal_bsp.a(alt_get_fd.o)
 .debug_frame   0x000000000000311c       0x34 ../RansacSoftware_bsp/\libhal_bsp.a(alt_icache_flush_all.o)
 .debug_frame   0x0000000000003150       0xa4 ../RansacSoftware_bsp/\libhal_bsp.a(alt_iic.o)
 .debug_frame   0x00000000000031f4       0x38 ../RansacSoftware_bsp/\libhal_bsp.a(alt_iic_isr_register.o)
 .debug_frame   0x000000000000322c       0x64 ../RansacSoftware_bsp/\libhal_bsp.a(alt_io_redirect.o)
 .debug_frame   0x0000000000003290       0x38 ../RansacSoftware_bsp/\libhal_bsp.a(alt_irq_handler.o)
 .debug_frame   0x00000000000032c8       0x5c ../RansacSoftware_bsp/\libhal_bsp.a(alt_tick.o)
 .debug_frame   0x0000000000003324       0x34 ../RansacSoftware_bsp/\libhal_bsp.a(altera_nios2_gen2_irq.o)
 .debug_frame   0x0000000000003358       0x5c ../RansacSoftware_bsp/\libhal_bsp.a(alt_instruction_exception_entry.o)
 .debug_frame   0x00000000000033b4       0x38 ../RansacSoftware_bsp//newlib/nios2-elf/lib\libc.a(lib_a-atexit.o)
 .debug_frame   0x00000000000033ec       0x34 ../RansacSoftware_bsp//newlib/nios2-elf/lib\libc.a(lib_a-memcmp.o)
 .debug_frame   0x0000000000003420       0x40 ../RansacSoftware_bsp//newlib/nios2-elf/lib\libc.a(lib_a-__atexit.o)

.debug_str      0x0000000000000000     0x5149
 *(.debug_str)
 .debug_str     0x0000000000000000      0x6d7 obj/default/main.o
                                        0x7ab (size before relaxing)
 .debug_str     0x00000000000006d7      0x1b9 obj/default/ransac.o
                                        0x559 (size before relaxing)
 .debug_str     0x0000000000000890      0x268 ../RansacSoftware_bsp//newlib/nios2-elf/lib\libm.a(lib_a-s_atan.o)
                                        0x319 (size before relaxing)
 .debug_str     0x0000000000000af8       0x60 ../RansacSoftware_bsp//newlib/nios2-elf/lib\libm.a(lib_a-s_fabs.o)
                                        0x301 (size before relaxing)
 .debug_str     0x0000000000000b58      0x187 c:/intelfpga_lite/18.1/nios2eds/bin/gnu/h-x86_64-mingw32/bin/../lib/gcc/nios2-elf/5.3.0/mno-hw-mul\libgcc.a(lib2-divmod.o)
                                        0x1d2 (size before relaxing)
 .debug_str     0x0000000000000cdf       0x40 c:/intelfpga_lite/18.1/nios2eds/bin/gnu/h-x86_64-mingw32/bin/../lib/gcc/nios2-elf/5.3.0/mno-hw-mul\libgcc.a(lib2-mul.o)
                                        0x193 (size before relaxing)
 .debug_str     0x0000000000000d1f      0x119 c:/intelfpga_lite/18.1/nios2eds/bin/gnu/h-x86_64-mingw32/bin/../lib/gcc/nios2-elf/5.3.0/mno-hw-mul\libgcc.a(adddf3.o)
                                        0x2a9 (size before relaxing)
 .debug_str     0x0000000000000e38      0x16c c:/intelfpga_lite/18.1/nios2eds/bin/gnu/h-x86_64-mingw32/bin/../lib/gcc/nios2-elf/5.3.0/mno-hw-mul\libgcc.a(divdf3.o)
                                        0x361 (size before relaxing)
 .debug_str     0x0000000000000fa4       0x5b c:/intelfpga_lite/18.1/nios2eds/bin/gnu/h-x86_64-mingw32/bin/../lib/gcc/nios2-elf/5.3.0/mno-hw-mul\libgcc.a(gedf2.o)
                                        0x233 (size before relaxing)
 .debug_str     0x0000000000000fff       0x37 c:/intelfpga_lite/18.1/nios2eds/bin/gnu/h-x86_64-mingw32/bin/../lib/gcc/nios2-elf/5.3.0/mno-hw-mul\libgcc.a(ledf2.o)
                                        0x233 (size before relaxing)
 .debug_str     0x0000000000001036      0x15e c:/intelfpga_lite/18.1/nios2eds/bin/gnu/h-x86_64-mingw32/bin/../lib/gcc/nios2-elf/5.3.0/mno-hw-mul\libgcc.a(muldf3.o)
                                        0x3c2 (size before relaxing)
 .debug_str     0x0000000000001194       0x39 c:/intelfpga_lite/18.1/nios2eds/bin/gnu/h-x86_64-mingw32/bin/../lib/gcc/nios2-elf/5.3.0/mno-hw-mul\libgcc.a(subdf3.o)
                                        0x2a9 (size before relaxing)
 .debug_str     0x00000000000011cd       0x4e c:/intelfpga_lite/18.1/nios2eds/bin/gnu/h-x86_64-mingw32/bin/../lib/gcc/nios2-elf/5.3.0/mno-hw-mul\libgcc.a(fixdfsi.o)
                                        0x22b (size before relaxing)
 .debug_str     0x000000000000121b       0x6c c:/intelfpga_lite/18.1/nios2eds/bin/gnu/h-x86_64-mingw32/bin/../lib/gcc/nios2-elf/5.3.0/mno-hw-mul\libgcc.a(floatsidf.o)
                                        0x242 (size before relaxing)
 .debug_str     0x0000000000001287       0x7d c:/intelfpga_lite/18.1/nios2eds/bin/gnu/h-x86_64-mingw32/bin/../lib/gcc/nios2-elf/5.3.0/mno-hw-mul\libgcc.a(extendsfdf2.o)
                                        0x24f (size before relaxing)
 .debug_str     0x0000000000001304       0x54 c:/intelfpga_lite/18.1/nios2eds/bin/gnu/h-x86_64-mingw32/bin/../lib/gcc/nios2-elf/5.3.0/mno-hw-mul\libgcc.a(truncdfsf2.o)
                                        0x259 (size before relaxing)
 .debug_str     0x0000000000001358       0x66 c:/intelfpga_lite/18.1/nios2eds/bin/gnu/h-x86_64-mingw32/bin/../lib/gcc/nios2-elf/5.3.0/mno-hw-mul\libgcc.a(_clzsi2.o)
                                        0x200 (size before relaxing)
 .debug_str     0x00000000000013be      0x1e3 c:/intelfpga_lite/18.1/nios2eds/bin/gnu/h-x86_64-mingw32/bin/../lib/gcc/nios2-elf/5.3.0/mno-hw-mul\libgcc.a(_clz.o)
 .debug_str     0x00000000000013be       0x64 ../RansacSoftware_bsp//newlib/nios2-elf/lib\libc.a(lib_a-exit.o)
                                        0x685 (size before relaxing)
 .debug_str     0x0000000000001422       0x78 ../RansacSoftware_bsp//newlib/nios2-elf/lib\libc.a(lib_a-fclose.o)
                                        0x6a0 (size before relaxing)
 .debug_str     0x000000000000149a       0x7f ../RansacSoftware_bsp//newlib/nios2-elf/lib\libc.a(lib_a-fflush.o)
                                        0x6d7 (size before relaxing)
 .debug_str     0x0000000000001519      0x1b1 ../RansacSoftware_bsp//newlib/nios2-elf/lib\libc.a(lib_a-findfp.o)
                                        0x814 (size before relaxing)
 .debug_str     0x00000000000016ca       0x67 ../RansacSoftware_bsp//newlib/nios2-elf/lib\libc.a(lib_a-fopen.o)
                                        0x69f (size before relaxing)
 .debug_str     0x0000000000001731       0x87 ../RansacSoftware_bsp//newlib/nios2-elf/lib\libc.a(lib_a-fprintf.o)
                                        0x6ab (size before relaxing)
 .debug_str     0x00000000000017b8       0x60 ../RansacSoftware_bsp//newlib/nios2-elf/lib\libc.a(lib_a-fputc.o)
                                        0x6aa (size before relaxing)
 .debug_str     0x0000000000001818      0x173 ../RansacSoftware_bsp//newlib/nios2-elf/lib\libc.a(lib_a-freer.o)
                                        0x7bc (size before relaxing)
 .debug_str     0x000000000000198b       0x5c ../RansacSoftware_bsp//newlib/nios2-elf/lib\libc.a(lib_a-fscanf.o)
                                        0x6b4 (size before relaxing)
 .debug_str     0x00000000000019e7       0x67 ../RansacSoftware_bsp//newlib/nios2-elf/lib\libc.a(lib_a-fseek.o)
                                        0x696 (size before relaxing)
 .debug_str     0x0000000000001a4e       0xda ../RansacSoftware_bsp//newlib/nios2-elf/lib\libc.a(lib_a-fseeko.o)
                                        0x7b8 (size before relaxing)
 .debug_str     0x0000000000001b28       0x61 ../RansacSoftware_bsp//newlib/nios2-elf/lib\libc.a(lib_a-fstatr.o)
                                        0x764 (size before relaxing)
 .debug_str     0x0000000000001b89       0x74 ../RansacSoftware_bsp//newlib/nios2-elf/lib\libc.a(lib_a-fwalk.o)
                                        0x699 (size before relaxing)
 .debug_str     0x0000000000001bfd       0x9f ../RansacSoftware_bsp//newlib/nios2-elf/lib\libc.a(lib_a-fwrite.o)
                                        0x6e9 (size before relaxing)
 .debug_str     0x0000000000001c9c       0x5e ../RansacSoftware_bsp//newlib/nios2-elf/lib\libc.a(lib_a-impure.o)
                                        0x694 (size before relaxing)
 .debug_str     0x0000000000001cfa       0x55 ../RansacSoftware_bsp//newlib/nios2-elf/lib\libc.a(lib_a-int_errno.o)
                                        0x2bc (size before relaxing)
 .debug_str     0x0000000000001d4f       0x6b ../RansacSoftware_bsp//newlib/nios2-elf/lib\libc.a(lib_a-makebuf.o)
                                        0x779 (size before relaxing)
 .debug_str     0x0000000000001dba       0xe9 ../RansacSoftware_bsp//newlib/nios2-elf/lib\libc.a(lib_a-mallocr.o)
                                        0x86a (size before relaxing)
 .debug_str     0x0000000000001ea3       0x6e ../RansacSoftware_bsp//newlib/nios2-elf/lib\libc.a(lib_a-memset.o)
                                        0x2d6 (size before relaxing)
 .debug_str     0x0000000000001f11       0x59 ../RansacSoftware_bsp//newlib/nios2-elf/lib\libc.a(lib_a-openr.o)
                                        0x686 (size before relaxing)
 .debug_str     0x0000000000001f6a       0x58 ../RansacSoftware_bsp//newlib/nios2-elf/lib\libc.a(lib_a-putc.o)
                                        0x6a2 (size before relaxing)
 .debug_str     0x0000000000001fc2       0x5d ../RansacSoftware_bsp//newlib/nios2-elf/lib\libc.a(lib_a-puts.o)
                                        0x6df (size before relaxing)
 .debug_str     0x000000000000201f       0x57 ../RansacSoftware_bsp//newlib/nios2-elf/lib\libc.a(lib_a-rand.o)
                                        0x68a (size before relaxing)
 .debug_str     0x0000000000002076       0x70 ../RansacSoftware_bsp//newlib/nios2-elf/lib\libc.a(lib_a-refill.o)
                                        0x6af (size before relaxing)
 .debug_str     0x00000000000020e6       0x6d ../RansacSoftware_bsp//newlib/nios2-elf/lib\libc.a(lib_a-sbrkr.o)
                                        0x68a (size before relaxing)
 .debug_str     0x0000000000002153       0x87 ../RansacSoftware_bsp//newlib/nios2-elf/lib\libc.a(lib_a-stdio.o)
                                        0x6c5 (size before relaxing)
 .debug_str     0x00000000000021da       0x53 ../RansacSoftware_bsp//newlib/nios2-elf/lib\libc.a(lib_a-strlen.o)
                                        0x2d5 (size before relaxing)
 .debug_str     0x000000000000222d      0x35f ../RansacSoftware_bsp//newlib/nios2-elf/lib\libc.a(lib_a-vfprintf.o)
                                        0x8c1 (size before relaxing)
 .debug_str     0x000000000000258c      0x15d ../RansacSoftware_bsp//newlib/nios2-elf/lib\libc.a(lib_a-vfscanf.o)
                                        0x833 (size before relaxing)
 .debug_str     0x00000000000026e9       0x62 ../RansacSoftware_bsp//newlib/nios2-elf/lib\libc.a(lib_a-wbuf.o)
                                        0x69a (size before relaxing)
 .debug_str     0x000000000000274b       0x5b ../RansacSoftware_bsp//newlib/nios2-elf/lib\libc.a(lib_a-writer.o)
                                        0x688 (size before relaxing)
 .debug_str     0x00000000000027a6       0x5e ../RansacSoftware_bsp//newlib/nios2-elf/lib\libc.a(lib_a-wsetup.o)
                                        0x696 (size before relaxing)
 .debug_str     0x0000000000002804       0x5b ../RansacSoftware_bsp//newlib/nios2-elf/lib\libc.a(closer.o)
                                        0x678 (size before relaxing)
 .debug_str     0x000000000000285f       0x87 ../RansacSoftware_bsp//newlib/nios2-elf/lib\libc.a(lib_a-__call_atexit.o)
                                        0x6bb (size before relaxing)
 .debug_str     0x00000000000028e6       0x63 ../RansacSoftware_bsp//newlib/nios2-elf/lib\libc.a(lib_a-ctype_.o)
                                        0x242 (size before relaxing)
 .debug_str     0x0000000000002949      0x114 ../RansacSoftware_bsp//newlib/nios2-elf/lib\libc.a(lib_a-dtoa.o)
                                        0x76e (size before relaxing)
 .debug_str     0x0000000000002a5d       0x5f ../RansacSoftware_bsp//newlib/nios2-elf/lib\libc.a(lib_a-flags.o)
                                        0x67b (size before relaxing)
 .debug_str     0x0000000000002abc       0x82 ../RansacSoftware_bsp//newlib/nios2-elf/lib\libc.a(lib_a-fread.o)
                                        0x6d8 (size before relaxing)
 .debug_str     0x0000000000002b3e       0x7e ../RansacSoftware_bsp//newlib/nios2-elf/lib\libc.a(lib_a-fvwrite.o)
                                        0x6dd (size before relaxing)
 .debug_str     0x0000000000002bbc       0x5d ../RansacSoftware_bsp//newlib/nios2-elf/lib\libc.a(lib_a-isattyr.o)
                                        0x67a (size before relaxing)
 .debug_str     0x0000000000002c19       0x5d ../RansacSoftware_bsp//newlib/nios2-elf/lib\libc.a(lib_a-iswspace.o)
                                        0x2d3 (size before relaxing)
 .debug_str     0x0000000000002c76      0x22e ../RansacSoftware_bsp//newlib/nios2-elf/lib\libc.a(lib_a-locale.o)
                                        0x8e9 (size before relaxing)
 .debug_str     0x0000000000002ea4       0x5b ../RansacSoftware_bsp//newlib/nios2-elf/lib\libc.a(lib_a-lseekr.o)
                                        0x67f (size before relaxing)
 .debug_str     0x0000000000002eff       0x77 ../RansacSoftware_bsp//newlib/nios2-elf/lib\libc.a(lib_a-mbrtowc.o)
                                        0x6b9 (size before relaxing)
 .debug_str     0x0000000000002f76       0x74 ../RansacSoftware_bsp//newlib/nios2-elf/lib\libc.a(lib_a-mbtowc_r.o)
                                        0x6c9 (size before relaxing)
 .debug_str     0x0000000000002fea       0x68 ../RansacSoftware_bsp//newlib/nios2-elf/lib\libc.a(lib_a-memchr.o)
                                        0x2dc (size before relaxing)
 .debug_str     0x0000000000003052       0x81 ../RansacSoftware_bsp//newlib/nios2-elf/lib\libc.a(lib_a-memcpy.o)
                                        0x2e9 (size before relaxing)
 .debug_str     0x00000000000030d3       0x65 ../RansacSoftware_bsp//newlib/nios2-elf/lib\libc.a(lib_a-memmove.o)
                                        0x2f5 (size before relaxing)
 .debug_str     0x0000000000003138      0x110 ../RansacSoftware_bsp//newlib/nios2-elf/lib\libc.a(lib_a-mprec.o)
                                        0x77b (size before relaxing)
 .debug_str     0x0000000000003248       0x59 ../RansacSoftware_bsp//newlib/nios2-elf/lib\libc.a(lib_a-readr.o)
                                        0x686 (size before relaxing)
 .debug_str     0x00000000000032a1       0x59 ../RansacSoftware_bsp//newlib/nios2-elf/lib\libc.a(lib_a-reallocr.o)
                                        0x73c (size before relaxing)
 .debug_str     0x00000000000032fa       0x6c ../RansacSoftware_bsp//newlib/nios2-elf/lib\libc.a(lib_a-s_fpclassify.o)
                                        0x308 (size before relaxing)
 .debug_str     0x0000000000003366       0x67 ../RansacSoftware_bsp//newlib/nios2-elf/lib\libc.a(lib_a-sccl.o)
                                        0x2c8 (size before relaxing)
 .debug_str     0x00000000000033cd       0x58 ../RansacSoftware_bsp//newlib/nios2-elf/lib\libc.a(lib_a-sf_nan.o)
                                        0x2cd (size before relaxing)
 .debug_str     0x0000000000003425       0x7e ../RansacSoftware_bsp//newlib/nios2-elf/lib\libc.a(lib_a-sprintf.o)
                                        0x6cf (size before relaxing)
 .debug_str     0x00000000000034a3       0x5a ../RansacSoftware_bsp//newlib/nios2-elf/lib\libc.a(lib_a-strcmp.o)
                                        0x2bb (size before relaxing)
 .debug_str     0x00000000000034fd      0x1e0 ../RansacSoftware_bsp//newlib/nios2-elf/lib\libc.a(lib_a-strtod.o)
                                        0x86d (size before relaxing)
 .debug_str     0x00000000000036dd       0x79 ../RansacSoftware_bsp//newlib/nios2-elf/lib\libc.a(lib_a-strtol.o)
                                        0x6b9 (size before relaxing)
 .debug_str     0x0000000000003756       0x61 ../RansacSoftware_bsp//newlib/nios2-elf/lib\libc.a(lib_a-strtoll_r.o)
                                        0x6aa (size before relaxing)
 .debug_str     0x00000000000037b7       0x67 ../RansacSoftware_bsp//newlib/nios2-elf/lib\libc.a(lib_a-strtoul.o)
                                        0x6bc (size before relaxing)
 .debug_str     0x000000000000381e       0x63 ../RansacSoftware_bsp//newlib/nios2-elf/lib\libc.a(lib_a-strtoull_r.o)
                                        0x6ac (size before relaxing)
 .debug_str     0x0000000000003881      0x876 ../RansacSoftware_bsp//newlib/nios2-elf/lib\libc.a(lib_a-svfprintf.o)
 .debug_str     0x0000000000003881       0x6d ../RansacSoftware_bsp//newlib/nios2-elf/lib\libc.a(lib_a-ungetc.o)
                                        0x6b1 (size before relaxing)
 .debug_str     0x00000000000038ee       0x38 ../RansacSoftware_bsp//newlib/nios2-elf/lib\libc.a(lib_a-vfiprintf.o)
                                        0x82d (size before relaxing)
 .debug_str     0x0000000000003926       0x19 ../RansacSoftware_bsp//newlib/nios2-elf/lib\libc.a(lib_a-callocr.o)
                                        0x6bb (size before relaxing)
 .debug_str     0x000000000000393f       0x65 ../RansacSoftware_bsp//newlib/nios2-elf/lib\libc.a(lib_a-fputwc.o)
                                        0x6b4 (size before relaxing)
 .debug_str     0x00000000000039a4       0xf1 ../RansacSoftware_bsp//newlib/nios2-elf/lib\libc.a(lib_a-gdtoa-gethex.o)
                                        0x83e (size before relaxing)
 .debug_str     0x0000000000003a95       0x62 ../RansacSoftware_bsp//newlib/nios2-elf/lib\libc.a(lib_a-gdtoa-hexnan.o)
                                        0x3e5 (size before relaxing)
 .debug_str     0x0000000000003af7       0x5c ../RansacSoftware_bsp//newlib/nios2-elf/lib\libc.a(lib_a-strncmp.o)
                                        0x2c4 (size before relaxing)
 .debug_str     0x0000000000003b53       0x25 ../RansacSoftware_bsp//newlib/nios2-elf/lib\libc.a(lib_a-svfiprintf.o)
                                        0x7e9 (size before relaxing)
 .debug_str     0x0000000000003b78       0x70 ../RansacSoftware_bsp//newlib/nios2-elf/lib\libc.a(lib_a-wcrtomb.o)
                                        0x6b9 (size before relaxing)
 .debug_str     0x0000000000003be8       0x75 ../RansacSoftware_bsp//newlib/nios2-elf/lib\libc.a(lib_a-wctomb_r.o)
                                        0x6c2 (size before relaxing)
 .debug_str     0x0000000000003c5d       0x1a c:/intelfpga_lite/18.1/nios2eds/bin/gnu/h-x86_64-mingw32/bin/../lib/gcc/nios2-elf/5.3.0/mno-hw-mul\libgcc.a(_muldi3.o)
                                        0x225 (size before relaxing)
 .debug_str     0x0000000000003c77        0xd c:/intelfpga_lite/18.1/nios2eds/bin/gnu/h-x86_64-mingw32/bin/../lib/gcc/nios2-elf/5.3.0/mno-hw-mul\libgcc.a(_fixunsdfsi.o)
                                        0x1eb (size before relaxing)
 .debug_str     0x0000000000003c84       0xc2 c:/intelfpga_lite/18.1/nios2eds/bin/gnu/h-x86_64-mingw32/bin/../lib/gcc/nios2-elf/5.3.0/mno-hw-mul\libgcc.a(_udivdi3.o)
                                        0x29c (size before relaxing)
 .debug_str     0x0000000000003d46        0xa c:/intelfpga_lite/18.1/nios2eds/bin/gnu/h-x86_64-mingw32/bin/../lib/gcc/nios2-elf/5.3.0/mno-hw-mul\libgcc.a(_umoddi3.o)
                                        0x29c (size before relaxing)
 .debug_str     0x0000000000003d50       0x37 c:/intelfpga_lite/18.1/nios2eds/bin/gnu/h-x86_64-mingw32/bin/../lib/gcc/nios2-elf/5.3.0/mno-hw-mul\libgcc.a(eqdf2.o)
                                        0x20f (size before relaxing)
 .debug_str     0x0000000000003d87       0x43 c:/intelfpga_lite/18.1/nios2eds/bin/gnu/h-x86_64-mingw32/bin/../lib/gcc/nios2-elf/5.3.0/mno-hw-mul\libgcc.a(floatunsidf.o)
                                        0x23f (size before relaxing)
 .debug_str     0x0000000000003dca       0xf7 ../RansacSoftware_bsp/\libhal_bsp.a(alt_close.o)
                                        0x33e (size before relaxing)
 .debug_str     0x0000000000003ec1       0x50 ../RansacSoftware_bsp/\libhal_bsp.a(alt_dev.o)
                                        0x438 (size before relaxing)
 .debug_str     0x0000000000003f11       0x14 ../RansacSoftware_bsp/\libhal_bsp.a(alt_errno.o)
                                        0x278 (size before relaxing)
 .debug_str     0x0000000000003f25       0x2a ../RansacSoftware_bsp/\libhal_bsp.a(alt_exit.o)
                                        0x284 (size before relaxing)
 .debug_str     0x0000000000003f4f       0x14 ../RansacSoftware_bsp/\libhal_bsp.a(alt_fstat.o)
                                        0x41f (size before relaxing)
 .debug_str     0x0000000000003f63       0x1c ../RansacSoftware_bsp/\libhal_bsp.a(alt_isatty.o)
                                        0x427 (size before relaxing)
 .debug_str     0x0000000000003f7f       0xf1 ../RansacSoftware_bsp/\libhal_bsp.a(alt_load.o)
                                        0x345 (size before relaxing)
 .debug_str     0x0000000000004070       0x14 ../RansacSoftware_bsp/\libhal_bsp.a(alt_lseek.o)
                                        0x344 (size before relaxing)
 .debug_str     0x0000000000004084       0x44 ../RansacSoftware_bsp/\libhal_bsp.a(alt_main.o)
                                        0x2d0 (size before relaxing)
 .debug_str     0x00000000000040c8       0x38 ../RansacSoftware_bsp/\libhal_bsp.a(alt_malloc_lock.o)
                                        0x642 (size before relaxing)
 .debug_str     0x0000000000004100       0x30 ../RansacSoftware_bsp/\libhal_bsp.a(alt_open.o)
                                        0x37e (size before relaxing)
 .debug_str     0x0000000000004130       0x13 ../RansacSoftware_bsp/\libhal_bsp.a(alt_read.o)
                                        0x42a (size before relaxing)
 .debug_str     0x0000000000004143       0x28 ../RansacSoftware_bsp/\libhal_bsp.a(alt_release_fd.o)
                                        0x306 (size before relaxing)
 .debug_str     0x000000000000416b       0x98 ../RansacSoftware_bsp/\libhal_bsp.a(alt_sbrk.o)
                                        0x307 (size before relaxing)
 .debug_str     0x0000000000004203       0x14 ../RansacSoftware_bsp/\libhal_bsp.a(alt_write.o)
                                        0x42b (size before relaxing)
 .debug_str     0x0000000000004217      0x17b ../RansacSoftware_bsp/\libhal_bsp.a(alt_sys_init.o)
                                        0x4b8 (size before relaxing)
 .debug_str     0x0000000000004392       0xac ../RansacSoftware_bsp/\libhal_bsp.a(altera_avalon_jtag_uart_fd.o)
                                        0x4d7 (size before relaxing)
 .debug_str     0x000000000000443e       0xd1 ../RansacSoftware_bsp/\libhal_bsp.a(altera_avalon_jtag_uart_init.o)
                                        0x46b (size before relaxing)
 .debug_str     0x000000000000450f       0x4a ../RansacSoftware_bsp/\libhal_bsp.a(altera_avalon_jtag_uart_ioctl.o)
                                        0x3c6 (size before relaxing)
 .debug_str     0x0000000000004559       0x48 ../RansacSoftware_bsp/\libhal_bsp.a(altera_avalon_jtag_uart_read.o)
                                        0x41b (size before relaxing)
 .debug_str     0x00000000000045a1       0x4a ../RansacSoftware_bsp/\libhal_bsp.a(altera_avalon_jtag_uart_write.o)
                                        0x41c (size before relaxing)
 .debug_str     0x00000000000045eb      0x135 ../RansacSoftware_bsp/\libhal_bsp.a(altera_hostfs.o)
                                        0x56d (size before relaxing)
 .debug_str     0x0000000000004720       0x59 ../RansacSoftware_bsp/\libhal_bsp.a(alt_alarm_start.o)
                                        0x3b1 (size before relaxing)
 .debug_str     0x0000000000004779       0x34 ../RansacSoftware_bsp/\libhal_bsp.a(alt_dcache_flush_all.o)
                                        0x288 (size before relaxing)
 .debug_str     0x00000000000047ad       0x34 ../RansacSoftware_bsp/\libhal_bsp.a(alt_dev_llist_insert.o)
                                        0x2ff (size before relaxing)
 .debug_str     0x00000000000047e1       0x48 ../RansacSoftware_bsp/\libhal_bsp.a(alt_do_ctors.o)
                                        0x203 (size before relaxing)
 .debug_str     0x0000000000004829       0x4c ../RansacSoftware_bsp/\libhal_bsp.a(alt_do_dtors.o)
                                        0x202 (size before relaxing)
 .debug_str     0x0000000000004875       0x24 ../RansacSoftware_bsp/\libhal_bsp.a(alt_find_dev.o)
                                        0x31f (size before relaxing)
 .debug_str     0x0000000000004899       0x26 ../RansacSoftware_bsp/\libhal_bsp.a(alt_find_file.o)
                                        0x32d (size before relaxing)
 .debug_str     0x00000000000048bf       0x20 ../RansacSoftware_bsp/\libhal_bsp.a(alt_fs_reg.o)
                                        0x33c (size before relaxing)
 .debug_str     0x00000000000048df       0x30 ../RansacSoftware_bsp/\libhal_bsp.a(alt_get_fd.o)
                                        0x34f (size before relaxing)
 .debug_str     0x000000000000490f       0x34 ../RansacSoftware_bsp/\libhal_bsp.a(alt_icache_flush_all.o)
                                        0x288 (size before relaxing)
 .debug_str     0x0000000000004943       0xbd ../RansacSoftware_bsp/\libhal_bsp.a(alt_iic.o)
                                        0x371 (size before relaxing)
 .debug_str     0x0000000000004a00       0x4c ../RansacSoftware_bsp/\libhal_bsp.a(alt_iic_isr_register.o)
                                        0x31b (size before relaxing)
 .debug_str     0x0000000000004a4c       0x56 ../RansacSoftware_bsp/\libhal_bsp.a(alt_io_redirect.o)
                                        0x449 (size before relaxing)
 .debug_str     0x0000000000004aa2       0x3a ../RansacSoftware_bsp/\libhal_bsp.a(alt_irq_handler.o)
                                        0x2ca (size before relaxing)
 .debug_str     0x0000000000004adc       0x17 ../RansacSoftware_bsp/\libhal_bsp.a(alt_irq_vars.o)
                                        0x26d (size before relaxing)
 .debug_str     0x0000000000004af3       0x4a ../RansacSoftware_bsp/\libhal_bsp.a(alt_tick.o)
                                        0x385 (size before relaxing)
 .debug_str     0x0000000000004b3d       0x3b ../RansacSoftware_bsp/\libhal_bsp.a(altera_nios2_gen2_irq.o)
                                        0x28f (size before relaxing)
 .debug_str     0x0000000000004b78      0x48b ../RansacSoftware_bsp/\libhal_bsp.a(alt_instruction_exception_entry.o)
                                        0x6d3 (size before relaxing)
 .debug_str     0x0000000000005003       0x83 ../RansacSoftware_bsp//newlib/nios2-elf/lib\libc.a(lib_a-atexit.o)
                                        0x2eb (size before relaxing)
 .debug_str     0x0000000000005086       0x5a ../RansacSoftware_bsp//newlib/nios2-elf/lib\libc.a(lib_a-memcmp.o)
                                        0x2c2 (size before relaxing)
 .debug_str     0x00000000000050e0       0x69 ../RansacSoftware_bsp//newlib/nios2-elf/lib\libc.a(lib_a-__atexit.o)
                                        0x6cd (size before relaxing)

.debug_loc      0x0000000000000000     0x8fb8
 *(.debug_loc)
 .debug_loc     0x0000000000000000      0x4ce c:/intelfpga_lite/18.1/nios2eds/bin/gnu/h-x86_64-mingw32/bin/../lib/gcc/nios2-elf/5.3.0/mno-hw-mul\libgcc.a(lib2-divmod.o)
 .debug_loc     0x00000000000004ce       0x93 c:/intelfpga_lite/18.1/nios2eds/bin/gnu/h-x86_64-mingw32/bin/../lib/gcc/nios2-elf/5.3.0/mno-hw-mul\libgcc.a(lib2-mul.o)
 .debug_loc     0x0000000000000561     0x16f9 c:/intelfpga_lite/18.1/nios2eds/bin/gnu/h-x86_64-mingw32/bin/../lib/gcc/nios2-elf/5.3.0/mno-hw-mul\libgcc.a(adddf3.o)
 .debug_loc     0x0000000000001c5a     0x1c20 c:/intelfpga_lite/18.1/nios2eds/bin/gnu/h-x86_64-mingw32/bin/../lib/gcc/nios2-elf/5.3.0/mno-hw-mul\libgcc.a(divdf3.o)
 .debug_loc     0x000000000000387a       0xf9 c:/intelfpga_lite/18.1/nios2eds/bin/gnu/h-x86_64-mingw32/bin/../lib/gcc/nios2-elf/5.3.0/mno-hw-mul\libgcc.a(gedf2.o)
 .debug_loc     0x0000000000003973      0x163 c:/intelfpga_lite/18.1/nios2eds/bin/gnu/h-x86_64-mingw32/bin/../lib/gcc/nios2-elf/5.3.0/mno-hw-mul\libgcc.a(ledf2.o)
 .debug_loc     0x0000000000003ad6     0x1085 c:/intelfpga_lite/18.1/nios2eds/bin/gnu/h-x86_64-mingw32/bin/../lib/gcc/nios2-elf/5.3.0/mno-hw-mul\libgcc.a(muldf3.o)
 .debug_loc     0x0000000000004b5b     0x1627 c:/intelfpga_lite/18.1/nios2eds/bin/gnu/h-x86_64-mingw32/bin/../lib/gcc/nios2-elf/5.3.0/mno-hw-mul\libgcc.a(subdf3.o)
 .debug_loc     0x0000000000006182      0x121 c:/intelfpga_lite/18.1/nios2eds/bin/gnu/h-x86_64-mingw32/bin/../lib/gcc/nios2-elf/5.3.0/mno-hw-mul\libgcc.a(fixdfsi.o)
 .debug_loc     0x00000000000062a3      0x175 c:/intelfpga_lite/18.1/nios2eds/bin/gnu/h-x86_64-mingw32/bin/../lib/gcc/nios2-elf/5.3.0/mno-hw-mul\libgcc.a(floatsidf.o)
 .debug_loc     0x0000000000006418      0x26d c:/intelfpga_lite/18.1/nios2eds/bin/gnu/h-x86_64-mingw32/bin/../lib/gcc/nios2-elf/5.3.0/mno-hw-mul\libgcc.a(extendsfdf2.o)
 .debug_loc     0x0000000000006685      0x359 c:/intelfpga_lite/18.1/nios2eds/bin/gnu/h-x86_64-mingw32/bin/../lib/gcc/nios2-elf/5.3.0/mno-hw-mul\libgcc.a(truncdfsf2.o)
 .debug_loc     0x00000000000069de       0x6b c:/intelfpga_lite/18.1/nios2eds/bin/gnu/h-x86_64-mingw32/bin/../lib/gcc/nios2-elf/5.3.0/mno-hw-mul\libgcc.a(_clzsi2.o)
 .debug_loc     0x0000000000006a49      0x15d c:/intelfpga_lite/18.1/nios2eds/bin/gnu/h-x86_64-mingw32/bin/../lib/gcc/nios2-elf/5.3.0/mno-hw-mul\libgcc.a(_muldi3.o)
 .debug_loc     0x0000000000006ba6       0x28 c:/intelfpga_lite/18.1/nios2eds/bin/gnu/h-x86_64-mingw32/bin/../lib/gcc/nios2-elf/5.3.0/mno-hw-mul\libgcc.a(_fixunsdfsi.o)
 .debug_loc     0x0000000000006bce     0x1110 c:/intelfpga_lite/18.1/nios2eds/bin/gnu/h-x86_64-mingw32/bin/../lib/gcc/nios2-elf/5.3.0/mno-hw-mul\libgcc.a(_udivdi3.o)
 .debug_loc     0x0000000000007cde     0x10d4 c:/intelfpga_lite/18.1/nios2eds/bin/gnu/h-x86_64-mingw32/bin/../lib/gcc/nios2-elf/5.3.0/mno-hw-mul\libgcc.a(_umoddi3.o)
 .debug_loc     0x0000000000008db2       0x68 c:/intelfpga_lite/18.1/nios2eds/bin/gnu/h-x86_64-mingw32/bin/../lib/gcc/nios2-elf/5.3.0/mno-hw-mul\libgcc.a(eqdf2.o)
 .debug_loc     0x0000000000008e1a      0x19e c:/intelfpga_lite/18.1/nios2eds/bin/gnu/h-x86_64-mingw32/bin/../lib/gcc/nios2-elf/5.3.0/mno-hw-mul\libgcc.a(floatunsidf.o)

.debug_macinfo
 *(.debug_macinfo)

.debug_weaknames
 *(.debug_weaknames)

.debug_funcnames
 *(.debug_funcnames)

.debug_typenames
 *(.debug_typenames)

.debug_varnames
 *(.debug_varnames)

.debug_alt_sim_info
                0x0000000000000000       0x10
 *(.debug_alt_sim_info)
 .debug_alt_sim_info
                0x0000000000000000       0x10 ../RansacSoftware_bsp//obj/HAL/src/crt0.o
                0x00000000000b2000                __alt_data_end = 0xb2000
                0x00000000000b2000                PROVIDE (__alt_stack_pointer, __alt_data_end)
                [!provide]                        PROVIDE (__alt_stack_limit, __alt_stack_base)
                0x00000000000a4e6c                PROVIDE (__alt_heap_start, end)
                0x00000000000b2000                PROVIDE (__alt_heap_limit, 0xb2000)
OUTPUT(RansacSoftware.elf elf32-littlenios2)

.debug_ranges   0x0000000000000000     0x17d8
 .debug_ranges  0x0000000000000000       0x20 ../RansacSoftware_bsp//obj/HAL/src/crt0.o
 .debug_ranges  0x0000000000000020       0x18 obj/default/ransac.o
 .debug_ranges  0x0000000000000038       0x10 ../RansacSoftware_bsp//newlib/nios2-elf/lib\libm.a(lib_a-s_atan.o)
 .debug_ranges  0x0000000000000048       0x10 ../RansacSoftware_bsp//newlib/nios2-elf/lib\libm.a(lib_a-s_fabs.o)
 .debug_ranges  0x0000000000000058       0x60 c:/intelfpga_lite/18.1/nios2eds/bin/gnu/h-x86_64-mingw32/bin/../lib/gcc/nios2-elf/5.3.0/mno-hw-mul\libgcc.a(lib2-divmod.o)
 .debug_ranges  0x00000000000000b8      0x240 c:/intelfpga_lite/18.1/nios2eds/bin/gnu/h-x86_64-mingw32/bin/../lib/gcc/nios2-elf/5.3.0/mno-hw-mul\libgcc.a(adddf3.o)
 .debug_ranges  0x00000000000002f8      0x158 c:/intelfpga_lite/18.1/nios2eds/bin/gnu/h-x86_64-mingw32/bin/../lib/gcc/nios2-elf/5.3.0/mno-hw-mul\libgcc.a(divdf3.o)
 .debug_ranges  0x0000000000000450       0x88 c:/intelfpga_lite/18.1/nios2eds/bin/gnu/h-x86_64-mingw32/bin/../lib/gcc/nios2-elf/5.3.0/mno-hw-mul\libgcc.a(gedf2.o)
 .debug_ranges  0x00000000000004d8       0xa8 c:/intelfpga_lite/18.1/nios2eds/bin/gnu/h-x86_64-mingw32/bin/../lib/gcc/nios2-elf/5.3.0/mno-hw-mul\libgcc.a(ledf2.o)
 .debug_ranges  0x0000000000000580      0x1d0 c:/intelfpga_lite/18.1/nios2eds/bin/gnu/h-x86_64-mingw32/bin/../lib/gcc/nios2-elf/5.3.0/mno-hw-mul\libgcc.a(muldf3.o)
 .debug_ranges  0x0000000000000750      0x268 c:/intelfpga_lite/18.1/nios2eds/bin/gnu/h-x86_64-mingw32/bin/../lib/gcc/nios2-elf/5.3.0/mno-hw-mul\libgcc.a(subdf3.o)
 .debug_ranges  0x00000000000009b8       0x30 c:/intelfpga_lite/18.1/nios2eds/bin/gnu/h-x86_64-mingw32/bin/../lib/gcc/nios2-elf/5.3.0/mno-hw-mul\libgcc.a(fixdfsi.o)
 .debug_ranges  0x00000000000009e8       0x20 c:/intelfpga_lite/18.1/nios2eds/bin/gnu/h-x86_64-mingw32/bin/../lib/gcc/nios2-elf/5.3.0/mno-hw-mul\libgcc.a(floatsidf.o)
 .debug_ranges  0x0000000000000a08       0x48 c:/intelfpga_lite/18.1/nios2eds/bin/gnu/h-x86_64-mingw32/bin/../lib/gcc/nios2-elf/5.3.0/mno-hw-mul\libgcc.a(extendsfdf2.o)
 .debug_ranges  0x0000000000000a50       0x38 c:/intelfpga_lite/18.1/nios2eds/bin/gnu/h-x86_64-mingw32/bin/../lib/gcc/nios2-elf/5.3.0/mno-hw-mul\libgcc.a(truncdfsf2.o)
 .debug_ranges  0x0000000000000a88       0x18 c:/intelfpga_lite/18.1/nios2eds/bin/gnu/h-x86_64-mingw32/bin/../lib/gcc/nios2-elf/5.3.0/mno-hw-mul\libgcc.a(_clzsi2.o)
 .debug_ranges  0x0000000000000aa0       0x10 ../RansacSoftware_bsp//newlib/nios2-elf/lib\libc.a(lib_a-exit.o)
 .debug_ranges  0x0000000000000ab0       0x18 ../RansacSoftware_bsp//newlib/nios2-elf/lib\libc.a(lib_a-fclose.o)
 .debug_ranges  0x0000000000000ac8       0x20 ../RansacSoftware_bsp//newlib/nios2-elf/lib\libc.a(lib_a-fflush.o)
 .debug_ranges  0x0000000000000ae8       0x78 ../RansacSoftware_bsp//newlib/nios2-elf/lib\libc.a(lib_a-findfp.o)
 .debug_ranges  0x0000000000000b60       0x18 ../RansacSoftware_bsp//newlib/nios2-elf/lib\libc.a(lib_a-fopen.o)
 .debug_ranges  0x0000000000000b78       0x18 ../RansacSoftware_bsp//newlib/nios2-elf/lib\libc.a(lib_a-fprintf.o)
 .debug_ranges  0x0000000000000b90       0x18 ../RansacSoftware_bsp//newlib/nios2-elf/lib\libc.a(lib_a-fputc.o)
 .debug_ranges  0x0000000000000ba8       0x18 ../RansacSoftware_bsp//newlib/nios2-elf/lib\libc.a(lib_a-freer.o)
 .debug_ranges  0x0000000000000bc0       0x18 ../RansacSoftware_bsp//newlib/nios2-elf/lib\libc.a(lib_a-fscanf.o)
 .debug_ranges  0x0000000000000bd8       0x18 ../RansacSoftware_bsp//newlib/nios2-elf/lib\libc.a(lib_a-fseek.o)
 .debug_ranges  0x0000000000000bf0       0x18 ../RansacSoftware_bsp//newlib/nios2-elf/lib\libc.a(lib_a-fseeko.o)
 .debug_ranges  0x0000000000000c08       0x10 ../RansacSoftware_bsp//newlib/nios2-elf/lib\libc.a(lib_a-fstatr.o)
 .debug_ranges  0x0000000000000c18       0x18 ../RansacSoftware_bsp//newlib/nios2-elf/lib\libc.a(lib_a-fwalk.o)
 .debug_ranges  0x0000000000000c30       0x18 ../RansacSoftware_bsp//newlib/nios2-elf/lib\libc.a(lib_a-fwrite.o)
 .debug_ranges  0x0000000000000c48       0x10 ../RansacSoftware_bsp//newlib/nios2-elf/lib\libc.a(lib_a-makebuf.o)
 .debug_ranges  0x0000000000000c58       0x18 ../RansacSoftware_bsp//newlib/nios2-elf/lib\libc.a(lib_a-mallocr.o)
 .debug_ranges  0x0000000000000c70       0x10 ../RansacSoftware_bsp//newlib/nios2-elf/lib\libc.a(lib_a-memset.o)
 .debug_ranges  0x0000000000000c80       0x10 ../RansacSoftware_bsp//newlib/nios2-elf/lib\libc.a(lib_a-openr.o)
 .debug_ranges  0x0000000000000c90       0x18 ../RansacSoftware_bsp//newlib/nios2-elf/lib\libc.a(lib_a-putc.o)
 .debug_ranges  0x0000000000000ca8       0x18 ../RansacSoftware_bsp//newlib/nios2-elf/lib\libc.a(lib_a-puts.o)
 .debug_ranges  0x0000000000000cc0       0x18 ../RansacSoftware_bsp//newlib/nios2-elf/lib\libc.a(lib_a-rand.o)
 .debug_ranges  0x0000000000000cd8       0x18 ../RansacSoftware_bsp//newlib/nios2-elf/lib\libc.a(lib_a-refill.o)
 .debug_ranges  0x0000000000000cf0       0x10 ../RansacSoftware_bsp//newlib/nios2-elf/lib\libc.a(lib_a-sbrkr.o)
 .debug_ranges  0x0000000000000d00       0x30 ../RansacSoftware_bsp//newlib/nios2-elf/lib\libc.a(lib_a-stdio.o)
 .debug_ranges  0x0000000000000d30       0x10 ../RansacSoftware_bsp//newlib/nios2-elf/lib\libc.a(lib_a-strlen.o)
 .debug_ranges  0x0000000000000d40       0x90 ../RansacSoftware_bsp//newlib/nios2-elf/lib\libc.a(lib_a-vfprintf.o)
 .debug_ranges  0x0000000000000dd0       0xa0 ../RansacSoftware_bsp//newlib/nios2-elf/lib\libc.a(lib_a-vfscanf.o)
 .debug_ranges  0x0000000000000e70       0x18 ../RansacSoftware_bsp//newlib/nios2-elf/lib\libc.a(lib_a-wbuf.o)
 .debug_ranges  0x0000000000000e88       0x10 ../RansacSoftware_bsp//newlib/nios2-elf/lib\libc.a(lib_a-writer.o)
 .debug_ranges  0x0000000000000e98       0x10 ../RansacSoftware_bsp//newlib/nios2-elf/lib\libc.a(lib_a-wsetup.o)
 .debug_ranges  0x0000000000000ea8       0x10 ../RansacSoftware_bsp//newlib/nios2-elf/lib\libc.a(closer.o)
 .debug_ranges  0x0000000000000eb8       0x10 ../RansacSoftware_bsp//newlib/nios2-elf/lib\libc.a(lib_a-__call_atexit.o)
 .debug_ranges  0x0000000000000ec8       0x18 ../RansacSoftware_bsp//newlib/nios2-elf/lib\libc.a(lib_a-dtoa.o)
 .debug_ranges  0x0000000000000ee0       0x10 ../RansacSoftware_bsp//newlib/nios2-elf/lib\libc.a(lib_a-flags.o)
 .debug_ranges  0x0000000000000ef0       0x18 ../RansacSoftware_bsp//newlib/nios2-elf/lib\libc.a(lib_a-fread.o)
 .debug_ranges  0x0000000000000f08       0x10 ../RansacSoftware_bsp//newlib/nios2-elf/lib\libc.a(lib_a-fvwrite.o)
 .debug_ranges  0x0000000000000f18       0x10 ../RansacSoftware_bsp//newlib/nios2-elf/lib\libc.a(lib_a-isattyr.o)
 .debug_ranges  0x0000000000000f28       0x10 ../RansacSoftware_bsp//newlib/nios2-elf/lib\libc.a(lib_a-iswspace.o)
 .debug_ranges  0x0000000000000f38       0x48 ../RansacSoftware_bsp//newlib/nios2-elf/lib\libc.a(lib_a-locale.o)
 .debug_ranges  0x0000000000000f80       0x10 ../RansacSoftware_bsp//newlib/nios2-elf/lib\libc.a(lib_a-lseekr.o)
 .debug_ranges  0x0000000000000f90       0x18 ../RansacSoftware_bsp//newlib/nios2-elf/lib\libc.a(lib_a-mbrtowc.o)
 .debug_ranges  0x0000000000000fa8       0x18 ../RansacSoftware_bsp//newlib/nios2-elf/lib\libc.a(lib_a-mbtowc_r.o)
 .debug_ranges  0x0000000000000fc0       0x10 ../RansacSoftware_bsp//newlib/nios2-elf/lib\libc.a(lib_a-memchr.o)
 .debug_ranges  0x0000000000000fd0       0x10 ../RansacSoftware_bsp//newlib/nios2-elf/lib\libc.a(lib_a-memcpy.o)
 .debug_ranges  0x0000000000000fe0       0x10 ../RansacSoftware_bsp//newlib/nios2-elf/lib\libc.a(lib_a-memmove.o)
 .debug_ranges  0x0000000000000ff0       0xa0 ../RansacSoftware_bsp//newlib/nios2-elf/lib\libc.a(lib_a-mprec.o)
 .debug_ranges  0x0000000000001090       0x10 ../RansacSoftware_bsp//newlib/nios2-elf/lib\libc.a(lib_a-readr.o)
 .debug_ranges  0x00000000000010a0       0x40 ../RansacSoftware_bsp//newlib/nios2-elf/lib\libc.a(lib_a-reallocr.o)
 .debug_ranges  0x00000000000010e0       0x10 ../RansacSoftware_bsp//newlib/nios2-elf/lib\libc.a(lib_a-s_fpclassify.o)
 .debug_ranges  0x00000000000010f0       0x10 ../RansacSoftware_bsp//newlib/nios2-elf/lib\libc.a(lib_a-sccl.o)
 .debug_ranges  0x0000000000001100       0x10 ../RansacSoftware_bsp//newlib/nios2-elf/lib\libc.a(lib_a-sf_nan.o)
 .debug_ranges  0x0000000000001110       0x18 ../RansacSoftware_bsp//newlib/nios2-elf/lib\libc.a(lib_a-sprintf.o)
 .debug_ranges  0x0000000000001128       0x10 ../RansacSoftware_bsp//newlib/nios2-elf/lib\libc.a(lib_a-strcmp.o)
 .debug_ranges  0x0000000000001138       0x68 ../RansacSoftware_bsp//newlib/nios2-elf/lib\libc.a(lib_a-strtod.o)
 .debug_ranges  0x00000000000011a0       0x18 ../RansacSoftware_bsp//newlib/nios2-elf/lib\libc.a(lib_a-strtol.o)
 .debug_ranges  0x00000000000011b8       0x10 ../RansacSoftware_bsp//newlib/nios2-elf/lib\libc.a(lib_a-strtoll_r.o)
 .debug_ranges  0x00000000000011c8       0x18 ../RansacSoftware_bsp//newlib/nios2-elf/lib\libc.a(lib_a-strtoul.o)
 .debug_ranges  0x00000000000011e0       0x10 ../RansacSoftware_bsp//newlib/nios2-elf/lib\libc.a(lib_a-strtoull_r.o)
 .debug_ranges  0x00000000000011f0       0x80 ../RansacSoftware_bsp//newlib/nios2-elf/lib\libc.a(lib_a-svfprintf.o)
 .debug_ranges  0x0000000000001270       0x20 ../RansacSoftware_bsp//newlib/nios2-elf/lib\libc.a(lib_a-ungetc.o)
 .debug_ranges  0x0000000000001290       0x40 ../RansacSoftware_bsp//newlib/nios2-elf/lib\libc.a(lib_a-vfiprintf.o)
 .debug_ranges  0x00000000000012d0       0x10 ../RansacSoftware_bsp//newlib/nios2-elf/lib\libc.a(lib_a-callocr.o)
 .debug_ranges  0x00000000000012e0       0x20 ../RansacSoftware_bsp//newlib/nios2-elf/lib\libc.a(lib_a-fputwc.o)
 .debug_ranges  0x0000000000001300       0x20 ../RansacSoftware_bsp//newlib/nios2-elf/lib\libc.a(lib_a-gdtoa-gethex.o)
 .debug_ranges  0x0000000000001320       0x18 ../RansacSoftware_bsp//newlib/nios2-elf/lib\libc.a(lib_a-gdtoa-hexnan.o)
 .debug_ranges  0x0000000000001338       0x10 ../RansacSoftware_bsp//newlib/nios2-elf/lib\libc.a(lib_a-strncmp.o)
 .debug_ranges  0x0000000000001348       0x30 ../RansacSoftware_bsp//newlib/nios2-elf/lib\libc.a(lib_a-svfiprintf.o)
 .debug_ranges  0x0000000000001378       0x18 ../RansacSoftware_bsp//newlib/nios2-elf/lib\libc.a(lib_a-wcrtomb.o)
 .debug_ranges  0x0000000000001390       0x18 ../RansacSoftware_bsp//newlib/nios2-elf/lib\libc.a(lib_a-wctomb_r.o)
 .debug_ranges  0x00000000000013a8       0x30 c:/intelfpga_lite/18.1/nios2eds/bin/gnu/h-x86_64-mingw32/bin/../lib/gcc/nios2-elf/5.3.0/mno-hw-mul\libgcc.a(_muldi3.o)
 .debug_ranges  0x00000000000013d8      0x148 c:/intelfpga_lite/18.1/nios2eds/bin/gnu/h-x86_64-mingw32/bin/../lib/gcc/nios2-elf/5.3.0/mno-hw-mul\libgcc.a(_udivdi3.o)
 .debug_ranges  0x0000000000001520      0x160 c:/intelfpga_lite/18.1/nios2eds/bin/gnu/h-x86_64-mingw32/bin/../lib/gcc/nios2-elf/5.3.0/mno-hw-mul\libgcc.a(_umoddi3.o)
 .debug_ranges  0x0000000000001680       0x48 c:/intelfpga_lite/18.1/nios2eds/bin/gnu/h-x86_64-mingw32/bin/../lib/gcc/nios2-elf/5.3.0/mno-hw-mul\libgcc.a(eqdf2.o)
 .debug_ranges  0x00000000000016c8       0x18 c:/intelfpga_lite/18.1/nios2eds/bin/gnu/h-x86_64-mingw32/bin/../lib/gcc/nios2-elf/5.3.0/mno-hw-mul\libgcc.a(floatunsidf.o)
 .debug_ranges  0x00000000000016e0       0x30 ../RansacSoftware_bsp/\libhal_bsp.a(altera_avalon_jtag_uart_init.o)
 .debug_ranges  0x0000000000001710       0x18 ../RansacSoftware_bsp/\libhal_bsp.a(altera_avalon_jtag_uart_read.o)
 .debug_ranges  0x0000000000001728       0x28 ../RansacSoftware_bsp/\libhal_bsp.a(alt_irq_entry.o)
 .debug_ranges  0x0000000000001750       0x10 ../RansacSoftware_bsp/\libhal_bsp.a(alt_irq_handler.o)
 .debug_ranges  0x0000000000001760       0x30 ../RansacSoftware_bsp/\libhal_bsp.a(alt_exception_entry.o)
 .debug_ranges  0x0000000000001790       0x18 ../RansacSoftware_bsp/\libhal_bsp.a(alt_instruction_exception_entry.o)
 .debug_ranges  0x00000000000017a8       0x10 ../RansacSoftware_bsp//newlib/nios2-elf/lib\libc.a(lib_a-atexit.o)
 .debug_ranges  0x00000000000017b8       0x10 ../RansacSoftware_bsp//newlib/nios2-elf/lib\libc.a(lib_a-memcmp.o)
 .debug_ranges  0x00000000000017c8       0x10 ../RansacSoftware_bsp//newlib/nios2-elf/lib\libc.a(lib_a-__atexit.o)
