
RansacSoftware.elf:     file format elf32-littlenios2
RansacSoftware.elf
architecture: nios2:r1, flags 0x00000112:
EXEC_P, HAS_SYMS, D_PAGED
start address 0x00080230

Program Header:
    LOAD off    0x00001000 vaddr 0x00080000 paddr 0x00080000 align 2**12
         filesz 0x00000020 memsz 0x00000020 flags r-x
    LOAD off    0x00001020 vaddr 0x00080020 paddr 0x00080020 align 2**12
         filesz 0x000215d4 memsz 0x000215d4 flags r-x
    LOAD off    0x000225f4 vaddr 0x000a15f4 paddr 0x000a3168 align 2**12
         filesz 0x00001b74 memsz 0x00001b74 flags rw-
    LOAD off    0x00024cdc vaddr 0x000a4cdc paddr 0x000a4cdc align 2**12
         filesz 0x00000000 memsz 0x00000190 flags rw-

Sections:
Idx Name          Size      VMA       LMA       File off  Algn
  0 .entry        00000020  00080000  00080000  00001000  2**5
                  CONTENTS, ALLOC, LOAD, READONLY, CODE
  1 .exceptions   00000210  00080020  00080020  00001020  2**2
                  CONTENTS, ALLOC, LOAD, READONLY, CODE
  2 .text         0002080c  00080230  00080230  00001230  2**2
                  CONTENTS, ALLOC, LOAD, READONLY, CODE
  3 .rodata       00000bb8  000a0a3c  000a0a3c  00021a3c  2**2
                  CONTENTS, ALLOC, LOAD, READONLY, DATA
  4 .rwdata       00001b74  000a15f4  000a3168  000225f4  2**2
                  CONTENTS, ALLOC, LOAD, DATA, SMALL_DATA
  5 .bss          00000190  000a4cdc  000a4cdc  00024cdc  2**2
                  ALLOC, SMALL_DATA
  6 .MemoriaDados 00000000  00000000  00000000  00024168  2**0
                  CONTENTS
  7 .MemoriaPrograma 00000000  000a4e6c  000a4e6c  00024168  2**0
                  CONTENTS
  8 .comment      00000023  00000000  00000000  00024168  2**0
                  CONTENTS, READONLY
  9 .debug_aranges 000014b8  00000000  00000000  00024190  2**3
                  CONTENTS, READONLY, DEBUGGING
 10 .debug_info   00033cc7  00000000  00000000  00025648  2**0
                  CONTENTS, READONLY, DEBUGGING
 11 .debug_abbrev 0000c0da  00000000  00000000  0005930f  2**0
                  CONTENTS, READONLY, DEBUGGING
 12 .debug_line   0000ffae  00000000  00000000  000653e9  2**0
                  CONTENTS, READONLY, DEBUGGING
 13 .debug_frame  00003460  00000000  00000000  00075398  2**2
                  CONTENTS, READONLY, DEBUGGING
 14 .debug_str    00005149  00000000  00000000  000787f8  2**0
                  CONTENTS, READONLY, DEBUGGING
 15 .debug_loc    00008fb8  00000000  00000000  0007d941  2**0
                  CONTENTS, READONLY, DEBUGGING
 16 .debug_alt_sim_info 00000010  00000000  00000000  000868fc  2**2
                  CONTENTS, READONLY, DEBUGGING
 17 .debug_ranges 000017d8  00000000  00000000  00086910  2**3
                  CONTENTS, READONLY, DEBUGGING
 18 .thread_model 00000003  00000000  00000000  0008c1e6  2**0
                  CONTENTS, READONLY
 19 .cpu          0000000b  00000000  00000000  0008c1e9  2**0
                  CONTENTS, READONLY
 20 .qsys         00000001  00000000  00000000  0008c1f4  2**0
                  CONTENTS, READONLY
 21 .simulation_enabled 00000001  00000000  00000000  0008c1f5  2**0
                  CONTENTS, READONLY
 22 .stderr_dev   00000009  00000000  00000000  0008c1f6  2**0
                  CONTENTS, READONLY
 23 .stdin_dev    00000009  00000000  00000000  0008c1ff  2**0
                  CONTENTS, READONLY
 24 .stdout_dev   00000009  00000000  00000000  0008c208  2**0
                  CONTENTS, READONLY
 25 .sopc_system_name 00000010  00000000  00000000  0008c211  2**0
                  CONTENTS, READONLY
 26 .quartus_project_dir 00000028  00000000  00000000  0008c221  2**0
                  CONTENTS, READONLY
 27 .jdi          0000561e  00000000  00000000  0008c249  2**0
                  CONTENTS, READONLY
 28 .sopcinfo     00048992  00000000  00000000  00091867  2**0
                  CONTENTS, READONLY
SYMBOL TABLE:
00080000 l    d  .entry	00000000 .entry
00080020 l    d  .exceptions	00000000 .exceptions
00080230 l    d  .text	00000000 .text
000a0a3c l    d  .rodata	00000000 .rodata
000a15f4 l    d  .rwdata	00000000 .rwdata
000a4cdc l    d  .bss	00000000 .bss
00000000 l    d  .MemoriaDados	00000000 .MemoriaDados
000a4e6c l    d  .MemoriaPrograma	00000000 .MemoriaPrograma
00000000 l    d  .comment	00000000 .comment
00000000 l    d  .debug_aranges	00000000 .debug_aranges
00000000 l    d  .debug_info	00000000 .debug_info
00000000 l    d  .debug_abbrev	00000000 .debug_abbrev
00000000 l    d  .debug_line	00000000 .debug_line
00000000 l    d  .debug_frame	00000000 .debug_frame
00000000 l    d  .debug_str	00000000 .debug_str
00000000 l    d  .debug_loc	00000000 .debug_loc
00000000 l    d  .debug_alt_sim_info	00000000 .debug_alt_sim_info
00000000 l    d  .debug_ranges	00000000 .debug_ranges
00000000 l    df *ABS*	00000000 ../RansacSoftware_bsp//obj/HAL/src/crt0.o
00080268 l       .text	00000000 alt_after_alt_main
00000000 l    df *ABS*	00000000 alt_irq_handler.c
00000000 l    df *ABS*	00000000 alt_instruction_exception_entry.c
00000000 l    df *ABS*	00000000 main.c
00000000 l    df *ABS*	00000000 ransac.c
00000000 l    df *ABS*	00000000 s_atan.c
000a0ce8 l     O .rodata	00000020 atanhi
000a0d08 l     O .rodata	00000020 atanlo
000a0d28 l     O .rodata	00000058 aT
000a30c8 l     O .rwdata	00000008 one
000a30d0 l     O .rwdata	00000008 huge
00000000 l    df *ABS*	00000000 s_fabs.c
00000000 l    df *ABS*	00000000 lib2-divmod.c
00000000 l    df *ABS*	00000000 lib2-mul.c
00000000 l    df *ABS*	00000000 adddf3.c
00000000 l    df *ABS*	00000000 divdf3.c
00000000 l    df *ABS*	00000000 gedf2.c
00000000 l    df *ABS*	00000000 ledf2.c
00000000 l    df *ABS*	00000000 muldf3.c
00000000 l    df *ABS*	00000000 subdf3.c
00000000 l    df *ABS*	00000000 fixdfsi.c
00000000 l    df *ABS*	00000000 floatsidf.c
00000000 l    df *ABS*	00000000 extendsfdf2.c
00000000 l    df *ABS*	00000000 truncdfsf2.c
00000000 l    df *ABS*	00000000 libgcc2.c
00000000 l    df *ABS*	00000000 libgcc2.c
00000000 l    df *ABS*	00000000 exit.c
00000000 l    df *ABS*	00000000 fclose.c
00000000 l    df *ABS*	00000000 fflush.c
00000000 l    df *ABS*	00000000 findfp.c
00085380 l     F .text	000000f4 std
000a4cfc l     O .bss	00000004 __sfp_lock
000a4d00 l     O .bss	00000004 __sinit_lock
00085894 l     F .text	00000024 __fp_lock
000858b8 l     F .text	00000024 __fp_unlock
00000000 l    df *ABS*	00000000 fopen.c
00000000 l    df *ABS*	00000000 fprintf.c
00000000 l    df *ABS*	00000000 fputc.c
00000000 l    df *ABS*	00000000 mallocr.c
00000000 l    df *ABS*	00000000 fscanf.c
00000000 l    df *ABS*	00000000 fseek.c
00000000 l    df *ABS*	00000000 fseeko.c
00000000 l    df *ABS*	00000000 fstatr.c
00000000 l    df *ABS*	00000000 fwalk.c
00000000 l    df *ABS*	00000000 fwrite.c
00000000 l    df *ABS*	00000000 impure.c
000a15f4 l     O .rwdata	00000424 impure_data
00000000 l    df *ABS*	00000000 int_errno.c
00000000 l    df *ABS*	00000000 makebuf.c
00000000 l    df *ABS*	00000000 mallocr.c
000870f0 l     F .text	000003b4 malloc_extend_top
00000000 l    df *ABS*	00000000 memset.c
00000000 l    df *ABS*	00000000 openr.c
00000000 l    df *ABS*	00000000 putc.c
00000000 l    df *ABS*	00000000 puts.c
00000000 l    df *ABS*	00000000 rand.c
00000000 l    df *ABS*	00000000 refill.c
000886bc l     F .text	00000050 lflush
00000000 l    df *ABS*	00000000 sbrkr.c
00000000 l    df *ABS*	00000000 stdio.c
00000000 l    df *ABS*	00000000 strlen.c
00000000 l    df *ABS*	00000000 vfprintf.c
00088d28 l     F .text	000000f0 __sbprintf
0008af50 l     F .text	0000020c cvt
0008b15c l     F .text	00000140 exponent
000a0ee6 l     O .rodata	00000010 blanks.4403
000a0ef6 l     O .rodata	00000010 zeroes.4404
00000000 l    df *ABS*	00000000 vfscanf.c
000a0f0e l     O .rodata	00000022 basefix.4359
00000000 l    df *ABS*	00000000 wbuf.c
00000000 l    df *ABS*	00000000 writer.c
00000000 l    df *ABS*	00000000 wsetup.c
00000000 l    df *ABS*	00000000 closer.c
00000000 l    df *ABS*	00000000 __call_atexit.c
000a4d14 l     O .bss	00000004 __atexit_lock
00000000 l    df *ABS*	00000000 ctype_.c
000a0f30 l     O .rodata	00000180 _ctype_b
00000000 l    df *ABS*	00000000 dtoa.c
0008d584 l     F .text	000003c4 quorem
00000000 l    df *ABS*	00000000 flags.c
00000000 l    df *ABS*	00000000 fread.c
00000000 l    df *ABS*	00000000 fvwrite.c
00000000 l    df *ABS*	00000000 isattyr.c
00000000 l    df *ABS*	00000000 iswspace.c
00000000 l    df *ABS*	00000000 locale.c
000a1e20 l     O .rwdata	00000038 lconv
000a1e58 l     O .rwdata	00000020 lc_ctype_charset
000a1e78 l     O .rwdata	00000020 lc_message_charset
000a4d24 l     O .bss	00000004 lc_ctype_cjk_lang
00000000 l    df *ABS*	00000000 lseekr.c
00000000 l    df *ABS*	00000000 mbrtowc.c
00000000 l    df *ABS*	00000000 mbtowc_r.c
00000000 l    df *ABS*	00000000 memchr.c
00000000 l    df *ABS*	00000000 memcpy.c
00000000 l    df *ABS*	00000000 memmove.c
00000000 l    df *ABS*	00000000 mprec.c
000a12f8 l     O .rodata	0000000c p05.2768
00000000 l    df *ABS*	00000000 readr.c
00000000 l    df *ABS*	00000000 mallocr.c
00000000 l    df *ABS*	00000000 s_fpclassify.c
00000000 l    df *ABS*	00000000 sccl.c
00000000 l    df *ABS*	00000000 sf_nan.c
00000000 l    df *ABS*	00000000 sprintf.c
00000000 l    df *ABS*	00000000 strcmp.c
00000000 l    df *ABS*	00000000 strtod.c
000a1304 l     O .rodata	00000028 tinytens
0009361c l     F .text	000000d8 sulp
000936f4 l     F .text	00000164 ULtod
00093858 l     F .text	000000cc match
000a133c l     O .rodata	00000014 fpi.2737
000a1350 l     O .rodata	00000014 fpinan.2773
00000000 l    df *ABS*	00000000 strtol.c
00000000 l    df *ABS*	00000000 strtoll_r.c
00000000 l    df *ABS*	00000000 strtoul.c
00000000 l    df *ABS*	00000000 strtoull_r.c
00000000 l    df *ABS*	00000000 vfprintf.c
0009856c l     F .text	0000020c cvt
00098778 l     F .text	00000140 exponent
000a13c2 l     O .rodata	00000010 blanks.4388
000a13d2 l     O .rodata	00000010 zeroes.4389
00000000 l    df *ABS*	00000000 ungetc.c
00000000 l    df *ABS*	00000000 vfprintf.c
00098d54 l     F .text	000000f0 __sbprintf
000a142e l     O .rodata	00000010 blanks.4348
000a143e l     O .rodata	00000010 zeroes.4349
00000000 l    df *ABS*	00000000 mallocr.c
00000000 l    df *ABS*	00000000 fputwc.c
00000000 l    df *ABS*	00000000 gdtoa-gethex.c
0009a5b8 l     F .text	000001b0 rshift
0009a768 l     F .text	0000014c increment
00000000 l    df *ABS*	00000000 gdtoa-hexnan.c
0009b358 l     F .text	000000bc L_shift
00000000 l    df *ABS*	00000000 strncmp.c
00000000 l    df *ABS*	00000000 vfprintf.c
000a159a l     O .rodata	00000010 blanks.4332
000a15aa l     O .rodata	00000010 zeroes.4333
00000000 l    df *ABS*	00000000 wcrtomb.c
00000000 l    df *ABS*	00000000 wctomb_r.c
00000000 l    df *ABS*	00000000 libgcc2.c
00000000 l    df *ABS*	00000000 libgcc2.c
00000000 l    df *ABS*	00000000 libgcc2.c
00000000 l    df *ABS*	00000000 libgcc2.c
00000000 l    df *ABS*	00000000 eqdf2.c
00000000 l    df *ABS*	00000000 floatunsidf.c
00000000 l    df *ABS*	00000000 alt_close.c
0009df18 l     F .text	0000003c alt_get_errno
00000000 l    df *ABS*	00000000 alt_dev.c
0009e02c l     F .text	0000002c alt_dev_null_write
00000000 l    df *ABS*	00000000 alt_errno.c
00000000 l    df *ABS*	00000000 alt_exit.c
00000000 l    df *ABS*	00000000 alt_fstat.c
0009e08c l     F .text	0000003c alt_get_errno
00000000 l    df *ABS*	00000000 alt_isatty.c
0009e180 l     F .text	0000003c alt_get_errno
00000000 l    df *ABS*	00000000 alt_load.c
0009e268 l     F .text	00000068 alt_load_section
00000000 l    df *ABS*	00000000 alt_lseek.c
0009e354 l     F .text	0000003c alt_get_errno
00000000 l    df *ABS*	00000000 alt_main.c
00000000 l    df *ABS*	00000000 alt_malloc_lock.c
00000000 l    df *ABS*	00000000 alt_open.c
0009e530 l     F .text	0000003c alt_get_errno
0009e56c l     F .text	000000ec alt_file_locked
00000000 l    df *ABS*	00000000 alt_read.c
0009e7b4 l     F .text	0000003c alt_get_errno
00000000 l    df *ABS*	00000000 alt_release_fd.c
00000000 l    df *ABS*	00000000 alt_sbrk.c
000a3110 l     O .rwdata	00000004 heap_end
00000000 l    df *ABS*	00000000 alt_write.c
0009ea28 l     F .text	0000003c alt_get_errno
00000000 l    df *ABS*	00000000 alt_sys_init.c
0009eb64 l     F .text	00000034 alt_dev_reg
000a2040 l     O .rwdata	00001060 jtag_uart
000a30a0 l     O .rwdata	00000028 altera_hostfs
00000000 l    df *ABS*	00000000 altera_avalon_jtag_uart_fd.c
00000000 l    df *ABS*	00000000 altera_avalon_jtag_uart_init.c
0009ee48 l     F .text	0000020c altera_avalon_jtag_uart_irq
0009f054 l     F .text	000000a0 altera_avalon_jtag_uart_timeout
00000000 l    df *ABS*	00000000 altera_avalon_jtag_uart_ioctl.c
00000000 l    df *ABS*	00000000 altera_avalon_jtag_uart_read.c
00000000 l    df *ABS*	00000000 altera_avalon_jtag_uart_write.c
00000000 l    df *ABS*	00000000 altera_hostfs.c
000a3114 l     O .rwdata	00000009 hcinfo.2538
000a3120 l     O .rwdata	0000000a hcinfo.2551
000a312c l     O .rwdata	00000009 hcinfo.2560
000a3138 l     O .rwdata	0000000a hcinfo.2573
000a3144 l     O .rwdata	0000000a hcinfo.2586
000a3150 l     O .rwdata	0000000a hcinfo.2612
00000000 l    df *ABS*	00000000 alt_alarm_start.c
00000000 l    df *ABS*	00000000 alt_dcache_flush_all.c
00000000 l    df *ABS*	00000000 alt_dev_llist_insert.c
0009fc5c l     F .text	0000003c alt_get_errno
00000000 l    df *ABS*	00000000 alt_do_ctors.c
00000000 l    df *ABS*	00000000 alt_do_dtors.c
00000000 l    df *ABS*	00000000 alt_find_dev.c
00000000 l    df *ABS*	00000000 alt_find_file.c
00000000 l    df *ABS*	00000000 alt_fs_reg.c
00000000 l    df *ABS*	00000000 alt_get_fd.c
00000000 l    df *ABS*	00000000 alt_icache_flush_all.c
00000000 l    df *ABS*	00000000 alt_iic.c
00000000 l    df *ABS*	00000000 alt_iic_isr_register.c
00000000 l    df *ABS*	00000000 alt_io_redirect.c
000a0398 l     F .text	000000e4 alt_open_fd
00000000 l    df *ABS*	00000000 alt_irq_vars.c
00000000 l    df *ABS*	00000000 alt_tick.c
00000000 l    df *ABS*	00000000 altera_nios2_gen2_irq.c
00000000 l    df *ABS*	00000000 atexit.c
00000000 l    df *ABS*	00000000 memcmp.c
00000000 l    df *ABS*	00000000 __atexit.c
000a4d40 g     O .bss	00000004 alt_instruction_exception_handler
00092228 g     F .text	000000b0 _mprec_log10
000923a8 g     F .text	00000134 __any_on
0008ff60 g     F .text	00000060 _isatty_r
000a12d0 g     O .rodata	00000028 __mprec_tinytens
0009e46c g     F .text	0000007c alt_main
00088460 g     F .text	00000118 _puts_r
000a4d6c g     O .bss	00000100 alt_irq
00082164 g     F .text	00000088 fabs
000901b4 g     F .text	00000070 _lseek_r
000a4cdc g     O .bss	00000004 getAngleFromModel_counter
000a3168 g       *ABS*	00000000 __flash_rwdata_start
0008f4c0 g     F .text	0000012c __sflags
0009dde8 g     F .text	00000088 .hidden __eqdf2
000a4e6c g       *ABS*	00000000 __alt_heap_start
0009ce20 g     F .text	000000d4 _wcrtomb_r
00088b40 g     F .text	000000a0 __sseek
0008573c g     F .text	000000d8 __sinit
0008cf80 g     F .text	00000168 __swbuf_r
00090010 g     F .text	00000084 _setlocale_r
00085474 g     F .text	000000bc __sfmoreglue
00098bd8 g     F .text	00000040 ungetc
0009e50c g     F .text	00000024 __malloc_unlock
0009f68c g     F .text	0000011c alt_hostfs_open
00093924 g     F .text	00001d08 _strtod_r
00080c60 g     F .text	00000160 coefficientOfDetermination
00090824 g     F .text	00000208 memmove
00085708 g     F .text	00000034 _cleanup
00090a2c g     F .text	00000130 _Balloc
00083644 g     F .text	000000dc .hidden __gtdf2
000a069c g     F .text	00000024 altera_nios2_gen2_irq_init
00080000 g     F .entry	0000000c __reset
00080020 g       *ABS*	00000000 __flash_exceptions_start
00086b48 g     F .text	00000068 _fstat_r
000a4d04 g     O .bss	00000004 errno
0008b314 g     F .text	00000048 __svfscanf
00088a5c g     F .text	00000030 __seofread
0009bbb8 g     F .text	00001268 ___svfiprintf_internal_r
000a4d2c g     O .bss	00000004 alt_argv
000ab0c8 g       *ABS*	00000000 _gp
00086378 g     F .text	00000060 fscanf
000a1ec0 g     O .rwdata	00000180 alt_fd_list
0009f8c4 g     F .text	00000068 alt_hostfs_seek
0009fdfc g     F .text	00000090 alt_find_dev
0009069c g     F .text	00000188 memcpy
0009b414 g     F .text	0000033c __hexnan
000856c4 g     F .text	00000044 _cleanup_r
000849fc g     F .text	000000dc .hidden __floatsidf
00080898 g     F .text	000000e4 calculateIntersection
0009ff94 g     F .text	00000080 alt_fs_reg
000a047c g     F .text	0000007c alt_io_redirect
00083720 g     F .text	000000f4 .hidden __ltdf2
000a0a3c g       *ABS*	00000000 __DTOR_END__
00088578 g     F .text	00000038 puts
000a06c0 g     F .text	0000009c alt_exception_cause_generated_bad_addr
00090300 g     F .text	000000e4 mbrtowc
0009313c g     F .text	00000104 __fpclassifyd
0008b35c g     F .text	00000074 _vfscanf_r
0009210c g     F .text	0000011c __ratio
00098e44 g     F .text	00000050 __vfiprintf_internal
0009f24c g     F .text	0000021c altera_avalon_jtag_uart_read
000822e4 g     F .text	00000064 .hidden __udivsi3
0009e1bc g     F .text	000000ac isatty
0008ffc0 g     F .text	00000050 iswspace
000a11e0 g     O .rodata	000000c8 __mprec_tens
00090094 g     F .text	00000024 __locale_charset
0009d1b4 g     F .text	00000074 .hidden __fixunsdfsi
000a4d08 g     O .bss	00000004 __malloc_top_pad
00096128 g     F .text	00000048 strtoul
000a30ec g     O .rwdata	00000004 __mb_cur_max
0009011c g     F .text	00000028 _localeconv_r
00096170 g     F .text	00000388 _strtoull_r
0009108c g     F .text	00000058 __i2b
0008f978 g     F .text	000005e8 __sfvwrite_r
00080dc0 g     F .text	00000200 inliersOutliersMemory
00088960 g     F .text	00000060 _sbrk_r
0009f7ec g     F .text	0000006c alt_hostfs_read
000a4ce0 g     O .bss	00000004 inliersOutliers_counter
000813a8 g     F .text	000000d0 squareDistanceBetweenPoints
000924dc g     F .text	00000070 _read_r
000a3108 g     O .rwdata	00000004 alt_max_fd
00084e3c g     F .text	0000012c _fclose_r
0008532c g     F .text	00000054 fflush
000a4d0c g     O .bss	00000004 __malloc_max_sbrked_mem
00084ad8 g     F .text	00000110 .hidden __extendsfdf2
000823c8 g     F .text	000008ac .hidden __adddf3
00091cc8 g     F .text	00000204 __b2d
0009d824 g     F .text	000005c4 .hidden __umoddi3
0009e390 g     F .text	000000dc lseek
000a30dc g     O .rwdata	00000004 _global_impure_ptr
0009254c g     F .text	00000bf0 _realloc_r
000a4e6c g       *ABS*	00000000 __bss_end
000a02a8 g     F .text	000000f0 alt_iic_isr_register
00081478 g     F .text	000002d8 RANSAC
000a0594 g     F .text	00000108 alt_tick
000a144e g     O .rodata	00000100 __hexdig
0009d228 g     F .text	000005fc .hidden __udivdi3
0009a4c8 g     F .text	00000088 _fputwc_r
000a12a8 g     O .rodata	00000028 __mprec_bigtens
00090d84 g     F .text	0000018c __s2b
0009de70 g     F .text	000000a8 .hidden __floatunsidf
00091844 g     F .text	00000114 __mcmp
000858dc g     F .text	00000040 __fp_lock_all
000a025c g     F .text	0000004c alt_ic_irq_enabled
000a04f8 g     F .text	0000009c alt_alarm_stop
00095a7c g     F .text	00000048 strtol
000a4d34 g     O .bss	00000004 alt_irq_active
000864c4 g     F .text	0000063c _fseeko_r
0009f7a8 g     F .text	00000044 alt_hostfs_close
000800fc g     F .exceptions	000000d4 alt_irq_handler
000a1e98 g     O .rwdata	00000028 alt_dev_null
00000000 g       *ABS*	00000000 __alt_mem_MemoriaDados
0009fc3c g     F .text	00000020 alt_dcache_flush_all
00090f10 g     F .text	00000090 __hi0bits
0008497c g     F .text	00000080 .hidden __fixdfsi
0009562c g     F .text	00000058 strtod
000a3168 g       *ABS*	00000000 __ram_rwdata_end
000a3100 g     O .rwdata	00000008 alt_dev_list
00085b6c g     F .text	0000006c _fputc_r
0009ea64 g     F .text	00000100 write
00088254 g     F .text	00000104 _putc_r
000a15f4 g       *ABS*	00000000 __ram_rodata_end
0009e0c8 g     F .text	000000b8 fstat
00085b14 g     F .text	00000058 fprintf
00083720 g     F .text	000000f4 .hidden __ledf2
000914d4 g     F .text	00000178 __pow5mult
00098e94 g     F .text	000012dc ___vfiprintf_internal_r
000a4d18 g     O .bss	00000004 __nlocale_changed
00082348 g     F .text	00000058 .hidden __umodsi3
000a4e6c g       *ABS*	00000000 end
00086b00 g     F .text	00000048 fseeko
00080000 g       *ABS*	00000000 __alt_mem_MemoriaPrograma
0008647c g     F .text	00000048 fseek
0009ed88 g     F .text	000000c0 altera_avalon_jtag_uart_init
000801d0 g     F .exceptions	00000060 alt_instruction_exception_entry
000a0a3c g       *ABS*	00000000 __CTOR_LIST__
000b2000 g       *ABS*	00000000 __alt_stack_pointer
00084d90 g     F .text	00000064 .hidden __clzsi2
000a4ce4 g     O .bss	00000004 calculateIntersection_counter
0009f468 g     F .text	00000224 altera_avalon_jtag_uart_write
00085814 g     F .text	00000020 __sfp_lock_acquire
000904e0 g     F .text	000001bc memchr
00088e68 g     F .text	000020e8 ___vfprintf_internal_r
000933a0 g     F .text	0000009c _sprintf_r
00085c48 g     F .text	00000560 _free_r
000900b8 g     F .text	00000020 __locale_mb_cur_max
0008d398 g     F .text	000001ec __call_exitprocs
000a4d1c g     O .bss	00000004 __mlocale_changed
000a30e4 g     O .rwdata	00000004 __malloc_sbrk_base
00080230 g     F .text	0000003c _start
000a4d38 g     O .bss	00000004 _alt_tick_rate
00095ac4 g     F .text	000003c0 _strtoll_r
000885f4 g     F .text	000000c8 rand
0009164c g     F .text	000001f8 __lshift
000a4d3c g     O .bss	00000004 _alt_nticks
0009e7f0 g     F .text	00000104 read
0009ebd0 g     F .text	00000054 alt_sys_init
0009b8e4 g     F .text	000002d4 __ssprint_r
000881e4 g     F .text	00000070 _open_r
000a08cc g     F .text	00000170 __register_exitproc
0009b750 g     F .text	00000194 strncmp
000910e4 g     F .text	000003f0 __multiply
0009f0f4 g     F .text	00000068 altera_avalon_jtag_uart_close
000823a0 g     F .text	00000028 .hidden __mulsi3
000a15f4 g       *ABS*	00000000 __ram_rwdata_start
000a0a3c g       *ABS*	00000000 __ram_rodata_start
000a4d44 g     O .bss	00000028 __malloc_current_mallinfo
00091ecc g     F .text	00000240 __d2b
0009ec24 g     F .text	00000060 altera_avalon_jtag_uart_read_fd
00095e84 g     F .text	000002a4 _strtoul_r
000a0014 g     F .text	000000c4 alt_get_fd
0008d338 g     F .text	00000060 _close_r
000a0798 g     F .text	00000134 memcmp
0009ece4 g     F .text	00000050 altera_avalon_jtag_uart_close_fd
000a4e6c g       *ABS*	00000000 __alt_stack_base
0009ed34 g     F .text	00000054 altera_avalon_jtag_uart_ioctl_fd
00086d64 g     F .text	0000010c _fwrite_r
0008097c g     F .text	000000b4 getAngleFromModel
0008d198 g     F .text	000001a0 __swsetup_r
00082c74 g     F .text	000009d0 .hidden __divdf3
00085530 g     F .text	00000194 __sfp
000922d8 g     F .text	000000d0 __copybits
000a1a18 g     O .rwdata	00000408 __malloc_av_
00085874 g     F .text	00000020 __sinit_lock_release
00083814 g     F .text	0000086c .hidden __muldf3
000889c0 g     F .text	0000009c __sread
0008f924 g     F .text	00000054 fread
0009fe8c g     F .text	00000108 alt_find_file
0009fc98 g     F .text	000000a4 alt_dev_llist_insert
0009e4e8 g     F .text	00000024 __malloc_lock
00085abc g     F .text	00000058 _fprintf_r
0009e978 g     F .text	000000b0 sbrk
000964f8 g     F .text	00002074 ___svfprintf_internal_r
000852a4 g     F .text	00000088 _fflush_r
0009a170 g     F .text	00000164 _calloc_r
00085a7c g     F .text	00000040 fopen
000a4cdc g       *ABS*	00000000 __bss_start
000863d8 g     F .text	0000005c _fscanf_r
00088020 g     F .text	000001c4 memset
0008026c g     F .text	0000055c main
000a4d30 g     O .bss	00000004 alt_envp
000a4d10 g     O .bss	00000004 __malloc_max_total_mem
0009ec84 g     F .text	00000060 altera_avalon_jtag_uart_write_fd
0008d0e8 g     F .text	00000040 __swbuf
000885b0 g     F .text	00000044 srand
0008f5ec g     F .text	00000338 _fread_r
00088be0 g     F .text	00000054 __sclose
000b2000 g       *ABS*	00000000 __alt_heap_limit
00084f68 g     F .text	00000038 fclose
000957b0 g     F .text	000002cc _strtol_r
00084be8 g     F .text	000001a8 .hidden __truncdfsf2
0008d948 g     F .text	00001b78 _dtoa_r
000874a4 g     F .text	00000b7c _malloc_r
0009d030 g     F .text	00000078 __ascii_wctomb
00080a30 g     F .text	00000230 leastSquare
000a310c g     O .rwdata	00000004 alt_errno
000988b8 g     F .text	00000114 __submore
00086bb0 g     F .text	000000d8 _fwalk
000903e4 g     F .text	00000068 _mbtowc_r
00088358 g     F .text	00000108 putc
000821ec g     F .text	00000084 .hidden __divsi3
000861a8 g     F .text	000001d0 _malloc_trim_r
000a0a3c g       *ABS*	00000000 __CTOR_END__
000934dc g     F .text	00000140 strcmp
000a0a3c g       *ABS*	00000000 __flash_rodata_start
000a0a3c g       *ABS*	00000000 __DTOR_LIST__
0009dde8 g     F .text	00000088 .hidden __nedf2
0009eb98 g     F .text	00000038 alt_irq_init
0009e8f4 g     F .text	00000084 alt_release_fd
00081750 g     F .text	00000a14 atan
0009343c g     F .text	000000a0 sprintf
000a0d80 g     O .rodata	00000100 .hidden __clz_tab
000a4d20 g     O .bss	00000004 _PathLocale
00095684 g     F .text	0000012c strtof
000a075c g     F .text	0000003c atexit
0008d128 g     F .text	00000070 _write_r
00090144 g     F .text	00000040 setlocale
0009336c g     F .text	00000034 nanf
000a30d8 g     O .rwdata	00000004 _impure_ptr
000a4d28 g     O .bss	00000004 alt_argc
00084fa0 g     F .text	00000304 __sflush_r
00090224 g     F .text	000000dc _mbrtowc_r
0009fd9c g     F .text	00000060 _do_dtors
000900fc g     F .text	00000020 __locale_cjk_lang
00086434 g     F .text	00000048 _fseek_r
0008870c g     F .text	00000254 __srefill_r
00080020 g       .exceptions	00000000 alt_irq_entry
0009044c g     F .text	00000094 __ascii_mbtowc
00091bfc g     F .text	000000cc __ulp
0008591c g     F .text	00000040 __fp_unlock_all
00085bd8 g     F .text	00000070 fputc
000a30f8 g     O .rwdata	00000008 alt_fs_list
0009f858 g     F .text	0000006c alt_hostfs_write
000a4ce8 g     O .bss	00000004 square_root_counter
00080fc0 g     F .text	00000208 inliersOutliers
00080020 g       *ABS*	00000000 __ram_exceptions_start
00090184 g     F .text	00000030 localeconv
000a00f8 g     F .text	00000050 alt_ic_isr_register
00086e70 g     F .text	00000054 fwrite
000a3168 g       *ABS*	00000000 _edata
000a4e6c g       *ABS*	00000000 _end
0009a2d4 g     F .text	000001f4 __fputwc
00080230 g       *ABS*	00000000 __ram_exceptions_end
0008b29c g     F .text	00000078 vfscanf
0009f15c g     F .text	000000f0 altera_avalon_jtag_uart_ioctl
000807c8 g     F .text	000000d0 square_root
000811c8 g     F .text	000001e0 checkModel
000a01d0 g     F .text	0000008c alt_ic_irq_disable
00088a8c g     F .text	000000b4 __swrite
000a30e0 g     O .rwdata	00000004 __malloc_trim_threshold
000900d8 g     F .text	00000024 __locale_msgcharset
00084df4 g     F .text	00000048 exit
00086c88 g     F .text	000000dc _fwalk_reent
00091958 g     F .text	000002a4 __mdiff
00082270 g     F .text	00000074 .hidden __modsi3
000a30e8 g     O .rwdata	00000004 __ctype_ptr__
000b2000 g       *ABS*	00000000 __alt_data_end
00080020 g     F .exceptions	00000000 alt_exception
00085834 g     F .text	00000020 __sfp_lock_release
00093240 g     F .text	0000012c __sccl
000a10b0 g     O .rodata	00000101 _ctype_
000a30f0 g     O .rwdata	00000004 __mbtowc
0008595c g     F .text	00000120 _fopen_r
0009e058 g     F .text	00000034 _exit
0009fb10 g     F .text	0000012c alt_alarm_start
0009d0a8 g     F .text	0000010c .hidden __muldi3
00086ec4 g     F .text	0000022c __smakebuf_r
00088c34 g     F .text	000000f4 strlen
0009e658 g     F .text	0000015c open
00083644 g     F .text	000000dc .hidden __gedf2
000a4cec g     O .bss	00000004 coefficientOfDetermination_counter
0009a8b4 g     F .text	00000aa4 __gethex
000a30f4 g     O .rwdata	00000004 __wctomb
00098c18 g     F .text	0000013c __sprint_r
000a00d8 g     F .text	00000020 alt_icache_flush_all
000a315c g     O .rwdata	00000004 alt_priority_mask
000a0148 g     F .text	00000088 alt_ic_irq_enable
00088e18 g     F .text	00000050 __vfprintf_internal
0009cfcc g     F .text	00000064 _wctomb_r
00084080 g     F .text	000008fc .hidden __subdf3
000a4cf0 g     O .bss	00000004 inliersOutliersMemory_counter
00090fa0 g     F .text	000000ec __lo0bits
000a4cf4 g     O .bss	00000004 leastSquare_counter
0008b3d0 g     F .text	00001bb0 __svfscanf_r
000a3160 g     O .rwdata	00000008 alt_alarm_list
000989cc g     F .text	0000020c _ungetc_r
0009fd3c g     F .text	00000060 _do_ctors
0009cef4 g     F .text	000000d8 wcrtomb
0009df54 g     F .text	000000d8 close
000a4cf8 g     O .bss	00000004 squareDistanceBetweenPoints_counter
0009e2d0 g     F .text	00000084 alt_load
0009a550 g     F .text	00000068 fputwc
00085854 g     F .text	00000020 __sinit_lock_acquire
00090bd8 g     F .text	000001ac __multadd
00090b5c g     F .text	0000007c _Bfree
0009f92c g     F .text	000001e4 alt_hostfs_fstat



Disassembly of section .entry:

00080000 <__reset>:
 * Jump to the _start entry point in the .text section if reset code
 * is allowed or if optimizing for RTL simulation.
 */
#if defined(ALT_ALLOW_CODE_AT_RESET) || defined(ALT_SIM_OPTIMIZE)
    /* Jump to the _start entry point in the .text section. */
    movhi r1, %hi(_start)
   80000:	00400234 	movhi	at,8
    ori r1, r1, %lo(_start)
   80004:	08408c14 	ori	at,at,560
    jmp r1
   80008:	0800683a 	jmp	at
	...

Disassembly of section .exceptions:

00080020 <alt_exception>:

#else /* ALT_EXCEPTION_STACK disabled */
        /* 
         * Reserve space on normal stack for registers about to be pushed.
         */
        addi  sp, sp, -76
   80020:	deffed04 	addi	sp,sp,-76
         * documentation for details).
         *
         * Leave a gap in the stack frame at 4(sp) for the muldiv handler to
         * store zero into.
         */
        stw   ra,  0(sp)
   80024:	dfc00015 	stw	ra,0(sp)
        stw   r1,   8(sp)
   80028:	d8400215 	stw	at,8(sp)
        stw   r2,  12(sp)
   8002c:	d8800315 	stw	r2,12(sp)
        stw   r3,  16(sp)
   80030:	d8c00415 	stw	r3,16(sp)
        stw   r4,  20(sp)
   80034:	d9000515 	stw	r4,20(sp)
        stw   r5,  24(sp)
   80038:	d9400615 	stw	r5,24(sp)
        stw   r6,  28(sp)
   8003c:	d9800715 	stw	r6,28(sp)
        stw   r7,  32(sp)
   80040:	d9c00815 	stw	r7,32(sp)
        rdctl r5, estatus   /* Read early to avoid usage stall */
   80044:	000b307a 	rdctl	r5,estatus
        stw   r8,  36(sp)
   80048:	da000915 	stw	r8,36(sp)
        stw   r9,  40(sp)
   8004c:	da400a15 	stw	r9,40(sp)
        stw   r10, 44(sp)
   80050:	da800b15 	stw	r10,44(sp)
        stw   r11, 48(sp)
   80054:	dac00c15 	stw	r11,48(sp)
        stw   r12, 52(sp)
   80058:	db000d15 	stw	r12,52(sp)
        stw   r13, 56(sp)
   8005c:	db400e15 	stw	r13,56(sp)
        stw   r14, 60(sp)
   80060:	db800f15 	stw	r14,60(sp)
        stw   r15, 64(sp)
   80064:	dbc01015 	stw	r15,64(sp)
        /*
         * ea-4 contains the address of the instruction being executed
         * when the exception occured. For interrupt exceptions, we will
         * will be re-issue the isntruction. Store it in 72(sp)
         */
        stw   r5,  68(sp)  /* estatus */
   80068:	d9401115 	stw	r5,68(sp)
        addi  r15, ea, -4  /* instruction that caused exception */
   8006c:	ebffff04 	addi	r15,ea,-4
        stw   r15,  72(sp)
   80070:	dbc01215 	stw	r15,72(sp)
#else
        /*
         * Test to see if the exception was a software exception or caused 
         * by an external interrupt, and vector accordingly.
         */
        rdctl r4, ipending
   80074:	0009313a 	rdctl	r4,ipending
        andi  r2, r5, 1
   80078:	2880004c 	andi	r2,r5,1
        beq   r2, zero, .Lnot_irq
   8007c:	10000326 	beq	r2,zero,8008c <alt_exception+0x6c>
        beq   r4, zero, .Lnot_irq
   80080:	20000226 	beq	r4,zero,8008c <alt_exception+0x6c>
        /*
         * Now that all necessary registers have been preserved, call 
         * alt_irq_handler() to process the interrupts.
         */

        call alt_irq_handler
   80084:	00800fc0 	call	800fc <alt_irq_handler>

        .section .exceptions.irqreturn, "xa"

        br    .Lexception_exit
   80088:	00000706 	br	800a8 <alt_exception+0x88>
         * upon completion, so we write ea (address of instruction *after*
         * the one where the exception occured) into 72(sp). The actual
         * instruction that caused the exception is written in r2, which these
         * handlers will utilize.
         */
        stw ea, 72(sp) /* EA is PC+4 so will skip over instruction causing exception */
   8008c:	df401215 	stw	ea,72(sp)
.Lunknown_16bit:
        addi.n r4, r4, 2 /* Need PC+2 to skip over instruction causing exception */
        stw r4, 72(sp)

#else /* CDX is not Enabled and all instructions are 32bits */
        ldw r2, -4(ea) /* Instruction value that caused exception */
   80090:	e8bfff17 	ldw	r2,-4(ea)
         * debugger is present) or go into an infinite loop since the
         * handling behavior is undefined; in that case we will not return here.
         */

        /* Load exception-causing address as first argument (r4) */
        addi   r4, ea, -4
   80094:	e93fff04 	addi	r4,ea,-4

        /* Call the instruction-exception entry */
        call   alt_instruction_exception_entry
   80098:	00801d00 	call	801d0 <alt_instruction_exception_entry>
         * instruction
         *
         * Return code was 0: Skip. The instruction after the exception is
         * already stored in 72(sp).
         */
        bne   r2, r0, .Lexception_exit
   8009c:	1000021e 	bne	r2,zero,800a8 <alt_exception+0x88>

        /*
         * Otherwise, modify 72(sp) to re-issue the instruction that caused the
         * exception.
         */
        addi  r15, ea, -4  /* instruction that caused exception */
   800a0:	ebffff04 	addi	r15,ea,-4
        stw   r15,  72(sp)
   800a4:	dbc01215 	stw	r15,72(sp)
        /* 
         * Restore the saved registers, so that all general purpose registers 
         * have been restored to their state at the time the interrupt occured.
         */

        ldw   r5,  68(sp)
   800a8:	d9401117 	ldw	r5,68(sp)
        ldw   ea,  72(sp)  /* This becomes the PC once eret is executed */
   800ac:	df401217 	ldw	ea,72(sp)
        ldw   ra,   0(sp)
   800b0:	dfc00017 	ldw	ra,0(sp)

        wrctl estatus, r5
   800b4:	2801707a 	wrctl	estatus,r5

        ldw   r1,   8(sp)
   800b8:	d8400217 	ldw	at,8(sp)
        ldw   r2,  12(sp)
   800bc:	d8800317 	ldw	r2,12(sp)
        ldw   r3,  16(sp)
   800c0:	d8c00417 	ldw	r3,16(sp)
        ldw   r4,  20(sp)
   800c4:	d9000517 	ldw	r4,20(sp)
        ldw   r5,  24(sp)
   800c8:	d9400617 	ldw	r5,24(sp)
        ldw   r6,  28(sp)
   800cc:	d9800717 	ldw	r6,28(sp)
        ldw   r7,  32(sp)
   800d0:	d9c00817 	ldw	r7,32(sp)

#if defined(ALT_EXCEPTION_STACK) && defined(ALT_STACK_CHECK)
        ldw   et, %gprel(alt_exception_old_stack_limit)(gp)
#endif

        ldw   r8,  36(sp)
   800d4:	da000917 	ldw	r8,36(sp)
        ldw   r9,  40(sp)
   800d8:	da400a17 	ldw	r9,40(sp)
        ldw   r10, 44(sp)
   800dc:	da800b17 	ldw	r10,44(sp)
        ldw   r11, 48(sp)
   800e0:	dac00c17 	ldw	r11,48(sp)
        ldw   r12, 52(sp)
   800e4:	db000d17 	ldw	r12,52(sp)
        ldw   r13, 56(sp)
   800e8:	db400e17 	ldw	r13,56(sp)
        ldw   r14, 60(sp)
   800ec:	db800f17 	ldw	r14,60(sp)
        ldw   r15, 64(sp)
   800f0:	dbc01017 	ldw	r15,64(sp)
        stw   et, %gprel(alt_stack_limit_value)(gp)
        stw   zero, %gprel(alt_exception_old_stack_limit)(gp)
#endif /* ALT_STACK_CHECK */
        ldw   sp,  76(sp)
#else /* ALT_EXCEPTION_STACK disabled */
        addi  sp, sp, 76
   800f4:	dec01304 	addi	sp,sp,76

        /*
         * Return to the interrupted instruction.
         */

        eret
   800f8:	ef80083a 	eret

000800fc <alt_irq_handler>:
 * instruction is present if the macro ALT_CI_INTERRUPT_VECTOR defined.
 */

void alt_irq_handler (void) __attribute__ ((section (".exceptions")));
void alt_irq_handler (void)
{
   800fc:	defff904 	addi	sp,sp,-28
   80100:	dfc00615 	stw	ra,24(sp)
   80104:	df000515 	stw	fp,20(sp)
   80108:	df000504 	addi	fp,sp,20
  
  /*
   * Notify the operating system that we are at interrupt level.
   */ 
  
  ALT_OS_INT_ENTER();
   8010c:	0001883a 	nop
#ifndef NIOS2_EIC_PRESENT
static ALT_INLINE alt_u32 ALT_ALWAYS_INLINE alt_irq_pending (void)
{
  alt_u32 active;

  NIOS2_READ_IPENDING (active);
   80110:	0005313a 	rdctl	r2,ipending
   80114:	e0bffe15 	stw	r2,-8(fp)

  return active;
   80118:	e0bffe17 	ldw	r2,-8(fp)
   * Consider the case where the high priority interupt is asserted during
   * the interrupt entry sequence for a lower priority interrupt to see why
   * this is the case.
   */

  active = alt_irq_pending ();
   8011c:	e0bffb15 	stw	r2,-20(fp)

  do
  {
    i = 0;
   80120:	e03ffd15 	stw	zero,-12(fp)
    mask = 1;
   80124:	00800044 	movi	r2,1
   80128:	e0bffc15 	stw	r2,-16(fp)
     * called to clear the interrupt condition.
     */

    do
    {
      if (active & mask)
   8012c:	e0fffb17 	ldw	r3,-20(fp)
   80130:	e0bffc17 	ldw	r2,-16(fp)
   80134:	1884703a 	and	r2,r3,r2
   80138:	10001426 	beq	r2,zero,8018c <alt_irq_handler+0x90>
      { 
#ifdef ALT_ENHANCED_INTERRUPT_API_PRESENT
        alt_irq[i].handler(alt_irq[i].context); 
   8013c:	008002b4 	movhi	r2,10
   80140:	10935b04 	addi	r2,r2,19820
   80144:	e0fffd17 	ldw	r3,-12(fp)
   80148:	180690fa 	slli	r3,r3,3
   8014c:	10c5883a 	add	r2,r2,r3
   80150:	10c00017 	ldw	r3,0(r2)
   80154:	008002b4 	movhi	r2,10
   80158:	10935b04 	addi	r2,r2,19820
   8015c:	e13ffd17 	ldw	r4,-12(fp)
   80160:	200890fa 	slli	r4,r4,3
   80164:	1105883a 	add	r2,r2,r4
   80168:	10800104 	addi	r2,r2,4
   8016c:	10800017 	ldw	r2,0(r2)
   80170:	1009883a 	mov	r4,r2
   80174:	183ee83a 	callr	r3
#else
        alt_irq[i].handler(alt_irq[i].context, i); 
#endif
        break;
   80178:	0001883a 	nop
#ifndef NIOS2_EIC_PRESENT
static ALT_INLINE alt_u32 ALT_ALWAYS_INLINE alt_irq_pending (void)
{
  alt_u32 active;

  NIOS2_READ_IPENDING (active);
   8017c:	0005313a 	rdctl	r2,ipending
   80180:	e0bfff15 	stw	r2,-4(fp)

  return active;
   80184:	e0bfff17 	ldw	r2,-4(fp)
   80188:	00000706 	br	801a8 <alt_irq_handler+0xac>
      }
      mask <<= 1;
   8018c:	e0bffc17 	ldw	r2,-16(fp)
   80190:	1085883a 	add	r2,r2,r2
   80194:	e0bffc15 	stw	r2,-16(fp)
      i++;
   80198:	e0bffd17 	ldw	r2,-12(fp)
   8019c:	10800044 	addi	r2,r2,1
   801a0:	e0bffd15 	stw	r2,-12(fp)

    } while (1);
   801a4:	003fe106 	br	8012c <__alt_data_end+0xfffce12c>

    active = alt_irq_pending ();
   801a8:	e0bffb15 	stw	r2,-20(fp)
    
  } while (active);
   801ac:	e0bffb17 	ldw	r2,-20(fp)
   801b0:	103fdb1e 	bne	r2,zero,80120 <__alt_data_end+0xfffce120>

  /*
   * Notify the operating system that interrupt processing is complete.
   */ 

  ALT_OS_INT_EXIT();
   801b4:	0001883a 	nop
}
   801b8:	0001883a 	nop
   801bc:	e037883a 	mov	sp,fp
   801c0:	dfc00117 	ldw	ra,4(sp)
   801c4:	df000017 	ldw	fp,0(sp)
   801c8:	dec00204 	addi	sp,sp,8
   801cc:	f800283a 	ret

000801d0 <alt_instruction_exception_entry>:
 * that handler if it has been registered. Absent a handler, it will
 * break break or hang as discussed below.
 */
int 
alt_instruction_exception_entry (alt_u32 exception_pc)
{
   801d0:	defffb04 	addi	sp,sp,-20
   801d4:	dfc00415 	stw	ra,16(sp)
   801d8:	df000315 	stw	fp,12(sp)
   801dc:	df000304 	addi	fp,sp,12
   801e0:	e13fff15 	stw	r4,-4(fp)
  cause = ( (cause & NIOS2_EXCEPTION_REG_CAUSE_MASK) >>
              NIOS2_EXCEPTION_REG_CAUSE_OFST );

  NIOS2_READ_BADADDR(badaddr);
#else
  cause = NIOS2_EXCEPTION_CAUSE_NOT_PRESENT;
   801e4:	00bfffc4 	movi	r2,-1
   801e8:	e0bffd15 	stw	r2,-12(fp)
  badaddr = 0;
   801ec:	e03ffe15 	stw	zero,-8(fp)
#endif /* NIOS2_HAS_EXTRA_EXCEPTION_INFO */

  if(alt_instruction_exception_handler) {
   801f0:	d0a71e17 	ldw	r2,-25480(gp)
   801f4:	10000726 	beq	r2,zero,80214 <alt_instruction_exception_entry+0x44>
     * Call handler. Its return value indicates whether the exception-causing
     * instruction should be re-issued. The code that called us,
     * alt_eceptions_entry.S, will look at this value and adjust the ea
     * register as necessary
     */
    return alt_instruction_exception_handler(cause, exception_pc, badaddr);
   801f8:	d0a71e17 	ldw	r2,-25480(gp)
   801fc:	e0fffd17 	ldw	r3,-12(fp)
   80200:	e1bffe17 	ldw	r6,-8(fp)
   80204:	e17fff17 	ldw	r5,-4(fp)
   80208:	1809883a 	mov	r4,r3
   8020c:	103ee83a 	callr	r2
   80210:	00000206 	br	8021c <alt_instruction_exception_entry+0x4c>
   *    (a peripheral which negates its interrupt output before its
   *    interrupt handler has been executed will cause spurious interrupts)
   */
  else {
#ifdef NIOS2_HAS_DEBUG_STUB
    NIOS2_BREAK();
   80214:	003da03a 	break	0
      ;
#endif /* NIOS2_HAS_DEBUG_STUB */
  }

  /* We should not get here. Remove compiler warning. */
  return NIOS2_EXCEPTION_RETURN_REISSUE_INST;
   80218:	0005883a 	mov	r2,zero
}
   8021c:	e037883a 	mov	sp,fp
   80220:	dfc00117 	ldw	ra,4(sp)
   80224:	df000017 	ldw	fp,0(sp)
   80228:	dec00204 	addi	sp,sp,8
   8022c:	f800283a 	ret

Disassembly of section .text:

00080230 <_start>:

    /*
     * Now that the caches are initialized, set up the stack pointer and global pointer.
     * The values provided by the linker are assumed to be correctly aligned.
     */
    movhi sp, %hi(__alt_stack_pointer)
   80230:	06c002f4 	movhi	sp,11
    ori sp, sp, %lo(__alt_stack_pointer)
   80234:	dec80014 	ori	sp,sp,8192
    movhi gp, %hi(_gp)
   80238:	068002b4 	movhi	gp,10
    ori gp, gp, %lo(_gp)
   8023c:	d6ac3214 	ori	gp,gp,45256
 */
#ifndef ALT_SIM_OPTIMIZE
    /* Log that the BSS is about to be cleared. */
    ALT_LOG_PUTS(alt_log_msg_bss)

    movhi r2, %hi(__bss_start)
   80240:	008002b4 	movhi	r2,10
    ori r2, r2, %lo(__bss_start)
   80244:	10933714 	ori	r2,r2,19676

    movhi r3, %hi(__bss_end)
   80248:	00c002b4 	movhi	r3,10
    ori r3, r3, %lo(__bss_end)
   8024c:	18d39b14 	ori	r3,r3,20076

    beq r2, r3, 1f
   80250:	10c00326 	beq	r2,r3,80260 <_start+0x30>

0:
    stw zero, (r2)
   80254:	10000015 	stw	zero,0(r2)
    addi r2, r2, 4
   80258:	10800104 	addi	r2,r2,4
    bltu r2, r3, 0b
   8025c:	10fffd36 	bltu	r2,r3,80254 <__alt_data_end+0xfffce254>
     * section aren't defined until alt_load() has been called).
     */
    mov   et, zero
#endif

    call alt_load
   80260:	009e2d00 	call	9e2d0 <alt_load>

    /* Log that alt_main is about to be called. */
    ALT_LOG_PUTS(alt_log_msg_alt_main)

    /* Call the C entry point. It should never return. */
    call alt_main
   80264:	009e46c0 	call	9e46c <alt_main>

00080268 <alt_after_alt_main>:

    /* Wait in infinite loop in case alt_main does return. */
alt_after_alt_main:
    br alt_after_alt_main
   80268:	003fff06 	br	80268 <__alt_data_end+0xfffce268>

0008026c <main>:
#include <stdlib.h>
#include <math.h>
#include "ransac.h"


int main() {
   8026c:	defeb004 	addi	sp,sp,-1344
   80270:	dfc14f15 	stw	ra,1340(sp)
   80274:	df014e15 	stw	fp,1336(sp)
   80278:	dc414d15 	stw	r17,1332(sp)
   8027c:	dc014c15 	stw	r16,1328(sp)
   80280:	df014e04 	addi	fp,sp,1336

	int *data = END_BASE_DATA;
   80284:	e03ebc15 	stw	zero,-1296(fp)
	int step;
	int data_size;
	int x, y;
	int outliers[MAX_POINTS];

	entrada = fopen("/mnt/host/resultados/FPGAin.txt", "r");
   80288:	014002b4 	movhi	r5,10
   8028c:	29428f04 	addi	r5,r5,2620
   80290:	010002b4 	movhi	r4,10
   80294:	21029004 	addi	r4,r4,2624
   80298:	0085a7c0 	call	85a7c <fopen>
   8029c:	e0bebd15 	stw	r2,-1292(fp)
	saida = fopen("/mnt/host/resultados/FPGAout_InliersOutliers.txt", "w");
   802a0:	014002b4 	movhi	r5,10
   802a4:	29429804 	addi	r5,r5,2656
   802a8:	010002b4 	movhi	r4,10
   802ac:	21029904 	addi	r4,r4,2660
   802b0:	0085a7c0 	call	85a7c <fopen>
   802b4:	e0bebe15 	stw	r2,-1288(fp)
	profiling = fopen("/mnt/host/resultados/Profiling_InliersOutliers.txt", "w");
   802b8:	014002b4 	movhi	r5,10
   802bc:	29429804 	addi	r5,r5,2656
   802c0:	010002b4 	movhi	r4,10
   802c4:	2102a604 	addi	r4,r4,2712
   802c8:	0085a7c0 	call	85a7c <fopen>
   802cc:	e0bebf15 	stw	r2,-1284(fp)
	profilingCSV = fopen("/mnt/host/resultados/Profiling_InliersOutliers.csv", "w");
   802d0:	014002b4 	movhi	r5,10
   802d4:	29429804 	addi	r5,r5,2656
   802d8:	010002b4 	movhi	r4,10
   802dc:	2102b304 	addi	r4,r4,2764
   802e0:	0085a7c0 	call	85a7c <fopen>
   802e4:	e0bec015 	stw	r2,-1280(fp)

	if (entrada == NULL)
   802e8:	e0bebd17 	ldw	r2,-1292(fp)
   802ec:	1000051e 	bne	r2,zero,80304 <main+0x98>
	{
		printf ("Cannot open file.\n");
   802f0:	010002b4 	movhi	r4,10
   802f4:	2102c004 	addi	r4,r4,2816
   802f8:	00885780 	call	88578 <puts>
		exit (1);
   802fc:	01000044 	movi	r4,1
   80300:	0084df40 	call	84df4 <exit>
	}

	//Plot CSV
	fprintf(profilingCSV, "step,square_root,calculateIntersection,getAngleFromModel,leastSquare,coefficientOfDetermination,inliersOutliersMemory,inliersOutliers,squareDistanceBetweenPoints\n");
   80304:	e1fec017 	ldw	r7,-1280(fp)
   80308:	01802884 	movi	r6,162
   8030c:	01400044 	movi	r5,1
   80310:	010002b4 	movhi	r4,10
   80314:	2102c504 	addi	r4,r4,2836
   80318:	0086e700 	call	86e70 <fwrite>

	while (!(feof(entrada))) {
   8031c:	00011506 	br	80774 <main+0x508>
		fscanf(entrada, "%d", &step);
   80320:	e0bec404 	addi	r2,fp,-1264
   80324:	100d883a 	mov	r6,r2
   80328:	014002b4 	movhi	r5,10
   8032c:	2942ee04 	addi	r5,r5,3000
   80330:	e13ebd17 	ldw	r4,-1292(fp)
   80334:	00863780 	call	86378 <fscanf>
		fscanf(entrada, "%d", &data_size);
   80338:	e0bec504 	addi	r2,fp,-1260
   8033c:	100d883a 	mov	r6,r2
   80340:	014002b4 	movhi	r5,10
   80344:	2942ee04 	addi	r5,r5,3000
   80348:	e13ebd17 	ldw	r4,-1292(fp)
   8034c:	00863780 	call	86378 <fscanf>
		for (int i = 0; i < data_size; i++) {
   80350:	e03eb915 	stw	zero,-1308(fp)
   80354:	00001806 	br	803b8 <main+0x14c>
			fscanf(entrada, "%d %d", &x, &y);
   80358:	e0fec704 	addi	r3,fp,-1252
   8035c:	e0bec604 	addi	r2,fp,-1256
   80360:	180f883a 	mov	r7,r3
   80364:	100d883a 	mov	r6,r2
   80368:	014002b4 	movhi	r5,10
   8036c:	2942ef04 	addi	r5,r5,3004
   80370:	e13ebd17 	ldw	r4,-1292(fp)
   80374:	00863780 	call	86378 <fscanf>
			data[i] = PACKING_COORD(x,y);
   80378:	e0beb917 	ldw	r2,-1308(fp)
   8037c:	1085883a 	add	r2,r2,r2
   80380:	1085883a 	add	r2,r2,r2
   80384:	1007883a 	mov	r3,r2
   80388:	e0bebc17 	ldw	r2,-1296(fp)
   8038c:	10c5883a 	add	r2,r2,r3
   80390:	e0fec617 	ldw	r3,-1256(fp)
   80394:	19003fcc 	andi	r4,r3,255
   80398:	e0fec717 	ldw	r3,-1252(fp)
   8039c:	1806923a 	slli	r3,r3,8
   803a0:	18ffffcc 	andi	r3,r3,65535
   803a4:	20c6b03a 	or	r3,r4,r3
   803a8:	10c00015 	stw	r3,0(r2)
	fprintf(profilingCSV, "step,square_root,calculateIntersection,getAngleFromModel,leastSquare,coefficientOfDetermination,inliersOutliersMemory,inliersOutliers,squareDistanceBetweenPoints\n");

	while (!(feof(entrada))) {
		fscanf(entrada, "%d", &step);
		fscanf(entrada, "%d", &data_size);
		for (int i = 0; i < data_size; i++) {
   803ac:	e0beb917 	ldw	r2,-1308(fp)
   803b0:	10800044 	addi	r2,r2,1
   803b4:	e0beb915 	stw	r2,-1308(fp)
   803b8:	e0bec517 	ldw	r2,-1260(fp)
   803bc:	e0feb917 	ldw	r3,-1308(fp)
   803c0:	18bfe516 	blt	r3,r2,80358 <__alt_data_end+0xfffce358>
			fscanf(entrada, "%d %d", &x, &y);
			data[i] = PACKING_COORD(x,y);
		}
		fscanf(entrada, "%c", &next_line);
   803c4:	e0bec304 	addi	r2,fp,-1268
   803c8:	100d883a 	mov	r6,r2
   803cc:	014002b4 	movhi	r5,10
   803d0:	2942f104 	addi	r5,r5,3012
   803d4:	e13ebd17 	ldw	r4,-1292(fp)
   803d8:	00863780 	call	86378 <fscanf>


	if(data_size > MAX_POINTS) data_size = MAX_POINTS;
   803dc:	e0bec517 	ldw	r2,-1260(fp)
   803e0:	10804b50 	cmplti	r2,r2,301
   803e4:	1000021e 	bne	r2,zero,803f0 <main+0x184>
   803e8:	00804b04 	movi	r2,300
   803ec:	e0bec515 	stw	r2,-1260(fp)

	// ------------ Variaveis para modelo de linha ------------//
	//Posicao inical do robo
	int start;
	start = PACKING_COORD(0,25);
   803f0:	00864004 	movi	r2,6400
   803f4:	e0bec115 	stw	r2,-1276(fp)
	RansacResult model;
	Line reference;
	reference.a = 0;
   803f8:	e03ff815 	stw	zero,-32(fp)
	reference.b = 25;
   803fc:	00907234 	movhi	r2,16840
   80400:	e0bff915 	stw	r2,-28(fp)

	// ------------ Inicializa Variaveis para profiling ------------//
	square_root_counter = 0;
   80404:	d0270815 	stw	zero,-25568(gp)
	calculateIntersection_counter = 0;
   80408:	d0270715 	stw	zero,-25572(gp)
	getAngleFromModel_counter = 0;
   8040c:	d0270515 	stw	zero,-25580(gp)
	leastSquare_counter = 0;
   80410:	d0270b15 	stw	zero,-25556(gp)
	coefficientOfDetermination_counter = 0;
   80414:	d0270915 	stw	zero,-25564(gp)
	inliersOutliersMemory_counter = 0;
   80418:	d0270a15 	stw	zero,-25560(gp)
	inliersOutliers_counter = 0;
   8041c:	d0270615 	stw	zero,-25576(gp)
	squareDistanceBetweenPoints_counter = 0;
   80420:	d0270c15 	stw	zero,-25552(gp)

	model = RANSAC(data, start, outliers, data_size);
   80424:	e0bec517 	ldw	r2,-1260(fp)
   80428:	e0fffa04 	addi	r3,fp,-24
   8042c:	e13ec804 	addi	r4,fp,-1248
   80430:	d8800015 	stw	r2,0(sp)
   80434:	200f883a 	mov	r7,r4
   80438:	e1bec117 	ldw	r6,-1276(fp)
   8043c:	e17ebc17 	ldw	r5,-1296(fp)
   80440:	1809883a 	mov	r4,r3
   80444:	00814780 	call	81478 <RANSAC>
   80448:	e0bffa17 	ldw	r2,-24(fp)
   8044c:	e0bff415 	stw	r2,-48(fp)
   80450:	e0bffb17 	ldw	r2,-20(fp)
   80454:	e0bff515 	stw	r2,-44(fp)
   80458:	e0bffc17 	ldw	r2,-16(fp)
   8045c:	e0bff615 	stw	r2,-40(fp)
   80460:	e0bffd17 	ldw	r2,-12(fp)
   80464:	e0bff715 	stw	r2,-36(fp)

	// ------------ Variaveis para resultado final -------------//
	int intersection;
	float distance = 0;
   80468:	e03eba15 	stw	zero,-1304(fp)
	float angle = 0.0;
   8046c:	e03ebb15 	stw	zero,-1300(fp)

	if  ((model.bestModel.a < 0.1)&&(model.bestModel.a > -0.1)){
   80470:	e0bff417 	ldw	r2,-48(fp)
   80474:	1009883a 	mov	r4,r2
   80478:	0084ad80 	call	84ad8 <__extendsfdf2>
   8047c:	1011883a 	mov	r8,r2
   80480:	1813883a 	mov	r9,r3
   80484:	01a666b4 	movhi	r6,39322
   80488:	31a66684 	addi	r6,r6,-26214
   8048c:	01cfeeb4 	movhi	r7,16314
   80490:	39e66644 	addi	r7,r7,-26215
   80494:	4009883a 	mov	r4,r8
   80498:	480b883a 	mov	r5,r9
   8049c:	00837200 	call	83720 <__ledf2>
   804a0:	1000140e 	bge	r2,zero,804f4 <main+0x288>
   804a4:	e0bff417 	ldw	r2,-48(fp)
   804a8:	1009883a 	mov	r4,r2
   804ac:	0084ad80 	call	84ad8 <__extendsfdf2>
   804b0:	1011883a 	mov	r8,r2
   804b4:	1813883a 	mov	r9,r3
   804b8:	01a666b4 	movhi	r6,39322
   804bc:	31a66684 	addi	r6,r6,-26214
   804c0:	01efeeb4 	movhi	r7,49082
   804c4:	39e66644 	addi	r7,r7,-26215
   804c8:	4009883a 	mov	r4,r8
   804cc:	480b883a 	mov	r5,r9
   804d0:	00836440 	call	83644 <__gedf2>
   804d4:	0080070e 	bge	zero,r2,804f4 <main+0x288>
		distance = 50;
   804d8:	00909234 	movhi	r2,16968
   804dc:	e0beba15 	stw	r2,-1304(fp)
		angle = getAngleFromModel (model.bestModel.a);
   804e0:	e0bff417 	ldw	r2,-48(fp)
   804e4:	1009883a 	mov	r4,r2
   804e8:	008097c0 	call	8097c <getAngleFromModel>
   804ec:	e0bebb15 	stw	r2,-1300(fp)
   804f0:	00001106 	br	80538 <main+0x2cc>
	}
	else
	{
		intersection = calculateIntersection(&model.bestModel,  &reference);
   804f4:	e0fff804 	addi	r3,fp,-32
   804f8:	e0bff404 	addi	r2,fp,-48
   804fc:	180b883a 	mov	r5,r3
   80500:	1009883a 	mov	r4,r2
   80504:	00808980 	call	80898 <calculateIntersection>
   80508:	e0bec215 	stw	r2,-1272(fp)
		distance = square_root(squareDistanceBetweenPoints(intersection, start));
   8050c:	e17ec117 	ldw	r5,-1276(fp)
   80510:	e13ec217 	ldw	r4,-1272(fp)
   80514:	00813a80 	call	813a8 <squareDistanceBetweenPoints>
   80518:	1005feb2 	custom	250,r2,r2,zero
   8051c:	1009883a 	mov	r4,r2
   80520:	00807c80 	call	807c8 <square_root>
   80524:	e0beba15 	stw	r2,-1304(fp)
		angle = getAngleFromModel (model.bestModel.a);
   80528:	e0bff417 	ldw	r2,-48(fp)
   8052c:	1009883a 	mov	r4,r2
   80530:	008097c0 	call	8097c <getAngleFromModel>
   80534:	e0bebb15 	stw	r2,-1300(fp)
	}

	fprintf(saida, "%d\n", step);
   80538:	e0bec417 	ldw	r2,-1264(fp)
   8053c:	100d883a 	mov	r6,r2
   80540:	014002b4 	movhi	r5,10
   80544:	2942f204 	addi	r5,r5,3016
   80548:	e13ebe17 	ldw	r4,-1288(fp)
   8054c:	0085b140 	call	85b14 <fprintf>
	fprintf(saida, "[%f, %f]\n", model.bestModel.a, model.bestModel.b );
   80550:	e0bff417 	ldw	r2,-48(fp)
   80554:	1009883a 	mov	r4,r2
   80558:	0084ad80 	call	84ad8 <__extendsfdf2>
   8055c:	1021883a 	mov	r16,r2
   80560:	1823883a 	mov	r17,r3
   80564:	e0bff517 	ldw	r2,-44(fp)
   80568:	1009883a 	mov	r4,r2
   8056c:	0084ad80 	call	84ad8 <__extendsfdf2>
   80570:	1009883a 	mov	r4,r2
   80574:	180b883a 	mov	r5,r3
   80578:	d9000015 	stw	r4,0(sp)
   8057c:	d9400115 	stw	r5,4(sp)
   80580:	800d883a 	mov	r6,r16
   80584:	880f883a 	mov	r7,r17
   80588:	014002b4 	movhi	r5,10
   8058c:	2942f304 	addi	r5,r5,3020
   80590:	e13ebe17 	ldw	r4,-1288(fp)
   80594:	0085b140 	call	85b14 <fprintf>
	fprintf(saida, "%f\n", model.bestFit);
   80598:	e0bff617 	ldw	r2,-40(fp)
   8059c:	1009883a 	mov	r4,r2
   805a0:	0084ad80 	call	84ad8 <__extendsfdf2>
   805a4:	1009883a 	mov	r4,r2
   805a8:	180b883a 	mov	r5,r3
   805ac:	200d883a 	mov	r6,r4
   805b0:	280f883a 	mov	r7,r5
   805b4:	014002b4 	movhi	r5,10
   805b8:	2942f604 	addi	r5,r5,3032
   805bc:	e13ebe17 	ldw	r4,-1288(fp)
   805c0:	0085b140 	call	85b14 <fprintf>
	fprintf(saida, "%d\n", model.bestQty);
   805c4:	e0bff717 	ldw	r2,-36(fp)
   805c8:	100d883a 	mov	r6,r2
   805cc:	014002b4 	movhi	r5,10
   805d0:	2942f204 	addi	r5,r5,3016
   805d4:	e13ebe17 	ldw	r4,-1288(fp)
   805d8:	0085b140 	call	85b14 <fprintf>
	fprintf(saida, "%f\n", angle);
   805dc:	e13ebb17 	ldw	r4,-1300(fp)
   805e0:	0084ad80 	call	84ad8 <__extendsfdf2>
   805e4:	1009883a 	mov	r4,r2
   805e8:	180b883a 	mov	r5,r3
   805ec:	200d883a 	mov	r6,r4
   805f0:	280f883a 	mov	r7,r5
   805f4:	014002b4 	movhi	r5,10
   805f8:	2942f604 	addi	r5,r5,3032
   805fc:	e13ebe17 	ldw	r4,-1288(fp)
   80600:	0085b140 	call	85b14 <fprintf>
	fprintf(saida, "%f", distance);
   80604:	e13eba17 	ldw	r4,-1304(fp)
   80608:	0084ad80 	call	84ad8 <__extendsfdf2>
   8060c:	1009883a 	mov	r4,r2
   80610:	180b883a 	mov	r5,r3
   80614:	200d883a 	mov	r6,r4
   80618:	280f883a 	mov	r7,r5
   8061c:	014002b4 	movhi	r5,10
   80620:	2942f704 	addi	r5,r5,3036
   80624:	e13ebe17 	ldw	r4,-1288(fp)
   80628:	0085b140 	call	85b14 <fprintf>
	fprintf(saida, "%c", '\n');
   8062c:	e17ebe17 	ldw	r5,-1288(fp)
   80630:	01000284 	movi	r4,10
   80634:	0085bd80 	call	85bd8 <fputc>
	fprintf(saida, "%c", '\n');
   80638:	e17ebe17 	ldw	r5,-1288(fp)
   8063c:	01000284 	movi	r4,10
   80640:	0085bd80 	call	85bd8 <fputc>

	//Plot txt
	fprintf(profiling, "\n--Profiling STEP %d--\n", step);
   80644:	e0bec417 	ldw	r2,-1264(fp)
   80648:	100d883a 	mov	r6,r2
   8064c:	014002b4 	movhi	r5,10
   80650:	2942f804 	addi	r5,r5,3040
   80654:	e13ebf17 	ldw	r4,-1284(fp)
   80658:	0085b140 	call	85b14 <fprintf>
	fprintf(profiling, "square_root \t%d\n", square_root_counter);
   8065c:	d0a70817 	ldw	r2,-25568(gp)
   80660:	100d883a 	mov	r6,r2
   80664:	014002b4 	movhi	r5,10
   80668:	2942fe04 	addi	r5,r5,3064
   8066c:	e13ebf17 	ldw	r4,-1284(fp)
   80670:	0085b140 	call	85b14 <fprintf>
	fprintf(profiling, "calculateIntersection \t%d\n", calculateIntersection_counter);
   80674:	d0a70717 	ldw	r2,-25572(gp)
   80678:	100d883a 	mov	r6,r2
   8067c:	014002b4 	movhi	r5,10
   80680:	29430304 	addi	r5,r5,3084
   80684:	e13ebf17 	ldw	r4,-1284(fp)
   80688:	0085b140 	call	85b14 <fprintf>
	fprintf(profiling, "getAngleFromModel \t%d\n", getAngleFromModel_counter);
   8068c:	d0a70517 	ldw	r2,-25580(gp)
   80690:	100d883a 	mov	r6,r2
   80694:	014002b4 	movhi	r5,10
   80698:	29430a04 	addi	r5,r5,3112
   8069c:	e13ebf17 	ldw	r4,-1284(fp)
   806a0:	0085b140 	call	85b14 <fprintf>
	fprintf(profiling, "leastSquare \t%d\n", leastSquare_counter);
   806a4:	d0a70b17 	ldw	r2,-25556(gp)
   806a8:	100d883a 	mov	r6,r2
   806ac:	014002b4 	movhi	r5,10
   806b0:	29431004 	addi	r5,r5,3136
   806b4:	e13ebf17 	ldw	r4,-1284(fp)
   806b8:	0085b140 	call	85b14 <fprintf>
	fprintf(profiling, "coefficientOfDetermination \t%d\n", coefficientOfDetermination_counter);
   806bc:	d0a70917 	ldw	r2,-25564(gp)
   806c0:	100d883a 	mov	r6,r2
   806c4:	014002b4 	movhi	r5,10
   806c8:	29431504 	addi	r5,r5,3156
   806cc:	e13ebf17 	ldw	r4,-1284(fp)
   806d0:	0085b140 	call	85b14 <fprintf>
	fprintf(profiling, "inliersOutliersMemory \t%d\n", inliersOutliersMemory_counter);
   806d4:	d0a70a17 	ldw	r2,-25560(gp)
   806d8:	100d883a 	mov	r6,r2
   806dc:	014002b4 	movhi	r5,10
   806e0:	29431d04 	addi	r5,r5,3188
   806e4:	e13ebf17 	ldw	r4,-1284(fp)
   806e8:	0085b140 	call	85b14 <fprintf>
	fprintf(profiling, "inliersOutliers \t%d\n", inliersOutliers_counter);
   806ec:	d0a70617 	ldw	r2,-25576(gp)
   806f0:	100d883a 	mov	r6,r2
   806f4:	014002b4 	movhi	r5,10
   806f8:	29432404 	addi	r5,r5,3216
   806fc:	e13ebf17 	ldw	r4,-1284(fp)
   80700:	0085b140 	call	85b14 <fprintf>
	fprintf(profiling, "squareDistanceBetweenPoints \t%d\n", squareDistanceBetweenPoints_counter);
   80704:	d0a70c17 	ldw	r2,-25552(gp)
   80708:	100d883a 	mov	r6,r2
   8070c:	014002b4 	movhi	r5,10
   80710:	29432a04 	addi	r5,r5,3240
   80714:	e13ebf17 	ldw	r4,-1284(fp)
   80718:	0085b140 	call	85b14 <fprintf>
	//CSV
	fprintf(profilingCSV, "%d,%d,%d,%d,%d,%d,%d,%d,%d\n", step, square_root_counter, calculateIntersection_counter, getAngleFromModel_counter, leastSquare_counter, coefficientOfDetermination_counter, inliersOutliersMemory_counter, inliersOutliers_counter, squareDistanceBetweenPoints_counter);
   8071c:	e27ec417 	ldw	r9,-1264(fp)
   80720:	d2a70817 	ldw	r10,-25568(gp)
   80724:	d0a70717 	ldw	r2,-25572(gp)
   80728:	d0e70517 	ldw	r3,-25580(gp)
   8072c:	d1270b17 	ldw	r4,-25556(gp)
   80730:	d1670917 	ldw	r5,-25564(gp)
   80734:	d1a70a17 	ldw	r6,-25560(gp)
   80738:	d1e70617 	ldw	r7,-25576(gp)
   8073c:	d2270c17 	ldw	r8,-25552(gp)
   80740:	da000615 	stw	r8,24(sp)
   80744:	d9c00515 	stw	r7,20(sp)
   80748:	d9800415 	stw	r6,16(sp)
   8074c:	d9400315 	stw	r5,12(sp)
   80750:	d9000215 	stw	r4,8(sp)
   80754:	d8c00115 	stw	r3,4(sp)
   80758:	d8800015 	stw	r2,0(sp)
   8075c:	500f883a 	mov	r7,r10
   80760:	480d883a 	mov	r6,r9
   80764:	014002b4 	movhi	r5,10
   80768:	29433304 	addi	r5,r5,3276
   8076c:	e13ec017 	ldw	r4,-1280(fp)
   80770:	0085b140 	call	85b14 <fprintf>
	}

	//Plot CSV
	fprintf(profilingCSV, "step,square_root,calculateIntersection,getAngleFromModel,leastSquare,coefficientOfDetermination,inliersOutliersMemory,inliersOutliers,squareDistanceBetweenPoints\n");

	while (!(feof(entrada))) {
   80774:	e0bebd17 	ldw	r2,-1292(fp)
   80778:	1080030b 	ldhu	r2,12(r2)
   8077c:	10bfffcc 	andi	r2,r2,65535
   80780:	1080080c 	andi	r2,r2,32
   80784:	103ee626 	beq	r2,zero,80320 <__alt_data_end+0xfffce320>
	//CSV
	fprintf(profilingCSV, "%d,%d,%d,%d,%d,%d,%d,%d,%d\n", step, square_root_counter, calculateIntersection_counter, getAngleFromModel_counter, leastSquare_counter, coefficientOfDetermination_counter, inliersOutliersMemory_counter, inliersOutliers_counter, squareDistanceBetweenPoints_counter);

	}

	fclose(entrada);
   80788:	e13ebd17 	ldw	r4,-1292(fp)
   8078c:	0084f680 	call	84f68 <fclose>
	fclose(saida);
   80790:	e13ebe17 	ldw	r4,-1288(fp)
   80794:	0084f680 	call	84f68 <fclose>
	fclose(profiling);
   80798:	e13ebf17 	ldw	r4,-1284(fp)
   8079c:	0084f680 	call	84f68 <fclose>
	fclose(profilingCSV);
   807a0:	e13ec017 	ldw	r4,-1280(fp)
   807a4:	0084f680 	call	84f68 <fclose>

	return 0;
   807a8:	0005883a 	mov	r2,zero

}
   807ac:	e6fffe04 	addi	sp,fp,-8
   807b0:	dfc00317 	ldw	ra,12(sp)
   807b4:	df000217 	ldw	fp,8(sp)
   807b8:	dc400117 	ldw	r17,4(sp)
   807bc:	dc000017 	ldw	r16,0(sp)
   807c0:	dec00404 	addi	sp,sp,16
   807c4:	f800283a 	ret

000807c8 <square_root>:
#define E 5              	// - A threshold value to determine data points that are fit well by the model (inlier).
#define N 10                // - Number of iterations required
#define MIN_DIST_POINTS 25  // - The minimum square distance of points required to select the sample


float square_root(float number) {
   807c8:	defffb04 	addi	sp,sp,-20
   807cc:	df000415 	stw	fp,16(sp)
   807d0:	df000404 	addi	fp,sp,16
   807d4:	e13fff15 	stw	r4,-4(fp)
	*MEDIDOR_ESCRITA = 0; // para resetar a contagem
   807d8:	00800074 	movhi	r2,1
   807dc:	10840c04 	addi	r2,r2,4144
   807e0:	10000015 	stw	zero,0(r2)
	*MEDIDOR_ESCRITA = 1; // para iniciar a contagem
   807e4:	00800074 	movhi	r2,1
   807e8:	10840c04 	addi	r2,r2,4144
   807ec:	00c00044 	movi	r3,1
   807f0:	10c00015 	stw	r3,0(r2)
	float x = number;
   807f4:	e0bfff17 	ldw	r2,-4(fp)
   807f8:	e0bffc15 	stw	r2,-16(fp)
	float y = 1;
   807fc:	008fe034 	movhi	r2,16256
   80800:	e0bffd15 	stw	r2,-12(fp)
    float precision = 0.1;
   80804:	008f7374 	movhi	r2,15821
   80808:	10b33344 	addi	r2,r2,-13107
   8080c:	e0bffe15 	stw	r2,-8(fp)
    while (x - y > precision) {
   80810:	00000a06 	br	8083c <square_root+0x74>
        x = (x + y) / 2;
   80814:	e0fffc17 	ldw	r3,-16(fp)
   80818:	e0bffd17 	ldw	r2,-12(fp)
   8081c:	1887ff72 	custom	253,r3,r3,r2
   80820:	00900034 	movhi	r2,16384
   80824:	1885fff2 	custom	255,r2,r3,r2
   80828:	e0bffc15 	stw	r2,-16(fp)
        y = number / x;
   8082c:	e0ffff17 	ldw	r3,-4(fp)
   80830:	e0bffc17 	ldw	r2,-16(fp)
   80834:	1885fff2 	custom	255,r2,r3,r2
   80838:	e0bffd15 	stw	r2,-12(fp)
	*MEDIDOR_ESCRITA = 0; // para resetar a contagem
	*MEDIDOR_ESCRITA = 1; // para iniciar a contagem
	float x = number;
	float y = 1;
    float precision = 0.1;
    while (x - y > precision) {
   8083c:	e0fffc17 	ldw	r3,-16(fp)
   80840:	e0bffd17 	ldw	r2,-12(fp)
   80844:	1887ffb2 	custom	254,r3,r3,r2
   80848:	e0bffe17 	ldw	r2,-8(fp)
   8084c:	1885f972 	custom	229,r2,r3,r2
   80850:	103ff01e 	bne	r2,zero,80814 <__alt_data_end+0xfffce814>
        x = (x + y) / 2;
        y = number / x;
    }
    *MEDIDOR_ESCRITA = 2; // para pausar a contagem
   80854:	00800074 	movhi	r2,1
   80858:	10840c04 	addi	r2,r2,4144
   8085c:	00c00084 	movi	r3,2
   80860:	10c00015 	stw	r3,0(r2)
    square_root_counter+=*MEDIDOR_LEITURA;
   80864:	00800074 	movhi	r2,1
   80868:	10840b04 	addi	r2,r2,4140
   8086c:	10c00017 	ldw	r3,0(r2)
   80870:	d0a70817 	ldw	r2,-25568(gp)
   80874:	1885883a 	add	r2,r3,r2
   80878:	d0a70815 	stw	r2,-25568(gp)
    //printf("square_root = %d\n", *MEDIDOR_LEITURA);
    return x;
   8087c:	e0bffc17 	ldw	r2,-16(fp)
   80880:	1007883a 	mov	r3,r2
}
   80884:	1805883a 	mov	r2,r3
   80888:	e037883a 	mov	sp,fp
   8088c:	df000017 	ldw	fp,0(sp)
   80890:	dec00104 	addi	sp,sp,4
   80894:	f800283a 	ret

00080898 <calculateIntersection>:

int calculateIntersection(Line* k, Line* l) {
   80898:	defffa04 	addi	sp,sp,-24
   8089c:	df000515 	stw	fp,20(sp)
   808a0:	df000504 	addi	fp,sp,20
   808a4:	e13ffe15 	stw	r4,-8(fp)
   808a8:	e17fff15 	stw	r5,-4(fp)
	*MEDIDOR_ESCRITA = 0; // para resetar a contagem
   808ac:	00800074 	movhi	r2,1
   808b0:	10840c04 	addi	r2,r2,4144
   808b4:	10000015 	stw	zero,0(r2)
	*MEDIDOR_ESCRITA = 1; // para iniciar a contagem
   808b8:	00800074 	movhi	r2,1
   808bc:	10840c04 	addi	r2,r2,4144
   808c0:	00c00044 	movi	r3,1
   808c4:	10c00015 	stw	r3,0(r2)
    int intersection;
    int x = (l->b - k->b) / (k->a - l->a);
   808c8:	e0bfff17 	ldw	r2,-4(fp)
   808cc:	10c00117 	ldw	r3,4(r2)
   808d0:	e13ffe17 	ldw	r4,-8(fp)
   808d4:	20800117 	ldw	r2,4(r4)
   808d8:	1887ffb2 	custom	254,r3,r3,r2
   808dc:	e0bffe17 	ldw	r2,-8(fp)
   808e0:	11000017 	ldw	r4,0(r2)
   808e4:	e17fff17 	ldw	r5,-4(fp)
   808e8:	28800017 	ldw	r2,0(r5)
   808ec:	2085ffb2 	custom	254,r2,r4,r2
   808f0:	1885fff2 	custom	255,r2,r3,r2
   808f4:	1005fe72 	custom	249,r2,r2,zero
   808f8:	e0bffb15 	stw	r2,-20(fp)
    int y = (k->a * x + k->b);
   808fc:	e0bffe17 	ldw	r2,-8(fp)
   80900:	10c00017 	ldw	r3,0(r2)
   80904:	e0bffb17 	ldw	r2,-20(fp)
   80908:	1005feb2 	custom	250,r2,r2,zero
   8090c:	1887ff32 	custom	252,r3,r3,r2
   80910:	e13ffe17 	ldw	r4,-8(fp)
   80914:	20800117 	ldw	r2,4(r4)
   80918:	1885ff72 	custom	253,r2,r3,r2
   8091c:	1005fe72 	custom	249,r2,r2,zero
   80920:	e0bffc15 	stw	r2,-16(fp)
    intersection = PACKING_COORD(x,y);
   80924:	e0bffb17 	ldw	r2,-20(fp)
   80928:	10c03fcc 	andi	r3,r2,255
   8092c:	e0bffc17 	ldw	r2,-16(fp)
   80930:	1004923a 	slli	r2,r2,8
   80934:	10bfffcc 	andi	r2,r2,65535
   80938:	1884b03a 	or	r2,r3,r2
   8093c:	e0bffd15 	stw	r2,-12(fp)
    *MEDIDOR_ESCRITA = 2; // para pausar a contagem
   80940:	00800074 	movhi	r2,1
   80944:	10840c04 	addi	r2,r2,4144
   80948:	00c00084 	movi	r3,2
   8094c:	10c00015 	stw	r3,0(r2)
    //printf("calculateIntersection = %d\n", *MEDIDOR_LEITURA);
    calculateIntersection_counter+=*MEDIDOR_LEITURA;
   80950:	00800074 	movhi	r2,1
   80954:	10840b04 	addi	r2,r2,4140
   80958:	10c00017 	ldw	r3,0(r2)
   8095c:	d0a70717 	ldw	r2,-25572(gp)
   80960:	1885883a 	add	r2,r3,r2
   80964:	d0a70715 	stw	r2,-25572(gp)
    return intersection;
   80968:	e0bffd17 	ldw	r2,-12(fp)
}
   8096c:	e037883a 	mov	sp,fp
   80970:	df000017 	ldw	fp,0(sp)
   80974:	dec00104 	addi	sp,sp,4
   80978:	f800283a 	ret

0008097c <getAngleFromModel>:

float getAngleFromModel(float a) {
   8097c:	defffc04 	addi	sp,sp,-16
   80980:	dfc00315 	stw	ra,12(sp)
   80984:	df000215 	stw	fp,8(sp)
   80988:	df000204 	addi	fp,sp,8
   8098c:	e13fff15 	stw	r4,-4(fp)
	*MEDIDOR_ESCRITA = 0; // para resetar a contagem
   80990:	00800074 	movhi	r2,1
   80994:	10840c04 	addi	r2,r2,4144
   80998:	10000015 	stw	zero,0(r2)
	*MEDIDOR_ESCRITA = 1; // para iniciar a contagem
   8099c:	00800074 	movhi	r2,1
   809a0:	10840c04 	addi	r2,r2,4144
   809a4:	00c00044 	movi	r3,1
   809a8:	10c00015 	stw	r3,0(r2)
    float radian = -atan(a);
   809ac:	e13fff17 	ldw	r4,-4(fp)
   809b0:	0084ad80 	call	84ad8 <__extendsfdf2>
   809b4:	100b883a 	mov	r5,r2
   809b8:	180d883a 	mov	r6,r3
   809bc:	2809883a 	mov	r4,r5
   809c0:	300b883a 	mov	r5,r6
   809c4:	00817500 	call	81750 <atan>
   809c8:	100b883a 	mov	r5,r2
   809cc:	180d883a 	mov	r6,r3
   809d0:	2809883a 	mov	r4,r5
   809d4:	300b883a 	mov	r5,r6
   809d8:	0084be80 	call	84be8 <__truncdfsf2>
   809dc:	1007883a 	mov	r3,r2
   809e0:	1805f872 	custom	225,r2,r3,zero
   809e4:	e0bffe15 	stw	r2,-8(fp)
    *MEDIDOR_ESCRITA = 2; // para pausar a contagem
   809e8:	00800074 	movhi	r2,1
   809ec:	10840c04 	addi	r2,r2,4144
   809f0:	00c00084 	movi	r3,2
   809f4:	10c00015 	stw	r3,0(r2)
    getAngleFromModel_counter+=*MEDIDOR_LEITURA;
   809f8:	00800074 	movhi	r2,1
   809fc:	10840b04 	addi	r2,r2,4140
   80a00:	10c00017 	ldw	r3,0(r2)
   80a04:	d0a70517 	ldw	r2,-25580(gp)
   80a08:	1885883a 	add	r2,r3,r2
   80a0c:	d0a70515 	stw	r2,-25580(gp)
    //printf("getAngleFromModel = %d\n", *MEDIDOR_LEITURA);
    return radian;
   80a10:	e0bffe17 	ldw	r2,-8(fp)
   80a14:	1007883a 	mov	r3,r2
}
   80a18:	1805883a 	mov	r2,r3
   80a1c:	e037883a 	mov	sp,fp
   80a20:	dfc00117 	ldw	ra,4(sp)
   80a24:	df000017 	ldw	fp,0(sp)
   80a28:	dec00204 	addi	sp,sp,8
   80a2c:	f800283a 	ret

00080a30 <leastSquare>:

Line leastSquare(int* data, int size) {
   80a30:	deffeb04 	addi	sp,sp,-84
   80a34:	df001415 	stw	fp,80(sp)
   80a38:	df001404 	addi	fp,sp,80
   80a3c:	e13ffe15 	stw	r4,-8(fp)
   80a40:	e17fff15 	stw	r5,-4(fp)
	*MEDIDOR_ESCRITA = 0; // para resetar a contagem
   80a44:	00800074 	movhi	r2,1
   80a48:	10840c04 	addi	r2,r2,4144
   80a4c:	10000015 	stw	zero,0(r2)
	*MEDIDOR_ESCRITA = 1; // para iniciar a contagem
   80a50:	00800074 	movhi	r2,1
   80a54:	10840c04 	addi	r2,r2,4144
   80a58:	00c00044 	movi	r3,1
   80a5c:	10c00015 	stw	r3,0(r2)

	if (size == 0) {
   80a60:	e0bfff17 	ldw	r2,-4(fp)
   80a64:	1000061e 	bne	r2,zero,80a80 <leastSquare+0x50>
        Line line = {INFINITY, 0};
   80a68:	009fe034 	movhi	r2,32640
   80a6c:	e0bffa15 	stw	r2,-24(fp)
   80a70:	e03ffb15 	stw	zero,-20(fp)
        return line;
   80a74:	e0bffa17 	ldw	r2,-24(fp)
   80a78:	e0fffb17 	ldw	r3,-20(fp)
   80a7c:	00007006 	br	80c40 <leastSquare+0x210>
    }

	float sx = 0.0;
   80a80:	e03fec15 	stw	zero,-80(fp)
    float sy = 0.0;
   80a84:	e03fed15 	stw	zero,-76(fp)
	float sxy = 0.0;
   80a88:	e03fee15 	stw	zero,-72(fp)
	float sx2 = 0.0;
   80a8c:	e03fef15 	stw	zero,-68(fp)

    for (int i = 0; i < size; i++) {
   80a90:	e03ff015 	stw	zero,-64(fp)
   80a94:	00002706 	br	80b34 <leastSquare+0x104>
    	int coord = data[i];
   80a98:	e0bff017 	ldw	r2,-64(fp)
   80a9c:	1085883a 	add	r2,r2,r2
   80aa0:	1085883a 	add	r2,r2,r2
   80aa4:	1007883a 	mov	r3,r2
   80aa8:	e0bffe17 	ldw	r2,-8(fp)
   80aac:	10c5883a 	add	r2,r2,r3
   80ab0:	10800017 	ldw	r2,0(r2)
   80ab4:	e0bff115 	stw	r2,-60(fp)
    	float x = GET_X(coord);
   80ab8:	e0bff117 	ldw	r2,-60(fp)
   80abc:	10803fcc 	andi	r2,r2,255
   80ac0:	1005feb2 	custom	250,r2,r2,zero
   80ac4:	e0bff215 	stw	r2,-56(fp)
    	float y = GET_Y(coord);
   80ac8:	e0bff117 	ldw	r2,-60(fp)
   80acc:	1005d23a 	srai	r2,r2,8
   80ad0:	1005feb2 	custom	250,r2,r2,zero
   80ad4:	e0bff315 	stw	r2,-52(fp)
		sx += x;
   80ad8:	e0ffec17 	ldw	r3,-80(fp)
   80adc:	e0bff217 	ldw	r2,-56(fp)
   80ae0:	1885ff72 	custom	253,r2,r3,r2
   80ae4:	e0bfec15 	stw	r2,-80(fp)
		sy += y;
   80ae8:	e0ffed17 	ldw	r3,-76(fp)
   80aec:	e0bff317 	ldw	r2,-52(fp)
   80af0:	1885ff72 	custom	253,r2,r3,r2
   80af4:	e0bfed15 	stw	r2,-76(fp)
		sxy += x * y;
   80af8:	e0fff217 	ldw	r3,-56(fp)
   80afc:	e0bff317 	ldw	r2,-52(fp)
   80b00:	1885ff32 	custom	252,r2,r3,r2
   80b04:	e0ffee17 	ldw	r3,-72(fp)
   80b08:	1885ff72 	custom	253,r2,r3,r2
   80b0c:	e0bfee15 	stw	r2,-72(fp)
		sx2 += x * x;
   80b10:	e0fff217 	ldw	r3,-56(fp)
   80b14:	e0bff217 	ldw	r2,-56(fp)
   80b18:	1885ff32 	custom	252,r2,r3,r2
   80b1c:	e0ffef17 	ldw	r3,-68(fp)
   80b20:	1885ff72 	custom	253,r2,r3,r2
   80b24:	e0bfef15 	stw	r2,-68(fp)
	float sx = 0.0;
    float sy = 0.0;
	float sxy = 0.0;
	float sx2 = 0.0;

    for (int i = 0; i < size; i++) {
   80b28:	e0bff017 	ldw	r2,-64(fp)
   80b2c:	10800044 	addi	r2,r2,1
   80b30:	e0bff015 	stw	r2,-64(fp)
   80b34:	e0fff017 	ldw	r3,-64(fp)
   80b38:	e0bfff17 	ldw	r2,-4(fp)
   80b3c:	18bfd616 	blt	r3,r2,80a98 <__alt_data_end+0xfffcea98>
		sy += y;
		sxy += x * y;
		sx2 += x * x;
    }

    float avg_y = sy / size;
   80b40:	e0bfff17 	ldw	r2,-4(fp)
   80b44:	1005feb2 	custom	250,r2,r2,zero
   80b48:	e0ffed17 	ldw	r3,-76(fp)
   80b4c:	1885fff2 	custom	255,r2,r3,r2
   80b50:	e0bff415 	stw	r2,-48(fp)
    float den = size * sx2 - sx * sx;
   80b54:	e0bfff17 	ldw	r2,-4(fp)
   80b58:	1007feb2 	custom	250,r3,r2,zero
   80b5c:	e0bfef17 	ldw	r2,-68(fp)
   80b60:	1887ff32 	custom	252,r3,r3,r2
   80b64:	e13fec17 	ldw	r4,-80(fp)
   80b68:	e0bfec17 	ldw	r2,-80(fp)
   80b6c:	2085ff32 	custom	252,r2,r4,r2
   80b70:	1885ffb2 	custom	254,r2,r3,r2
   80b74:	e0bff515 	stw	r2,-44(fp)

    if (den == 0) {
   80b78:	e0bff517 	ldw	r2,-44(fp)
   80b7c:	0007883a 	mov	r3,zero
   80b80:	10c5f8b2 	custom	226,r2,r2,r3
   80b84:	1000071e 	bne	r2,zero,80ba4 <leastSquare+0x174>
        Line line = {INFINITY, avg_y};
   80b88:	009fe034 	movhi	r2,32640
   80b8c:	e0bffc15 	stw	r2,-16(fp)
   80b90:	e0bff417 	ldw	r2,-48(fp)
   80b94:	e0bffd15 	stw	r2,-12(fp)
        return line;
   80b98:	e0bffc17 	ldw	r2,-16(fp)
   80b9c:	e0fffd17 	ldw	r3,-12(fp)
   80ba0:	00002706 	br	80c40 <leastSquare+0x210>
    }

    float a = (size * sxy - sx * sy) / den;
   80ba4:	e0bfff17 	ldw	r2,-4(fp)
   80ba8:	1007feb2 	custom	250,r3,r2,zero
   80bac:	e0bfee17 	ldw	r2,-72(fp)
   80bb0:	1887ff32 	custom	252,r3,r3,r2
   80bb4:	e13fec17 	ldw	r4,-80(fp)
   80bb8:	e0bfed17 	ldw	r2,-76(fp)
   80bbc:	2085ff32 	custom	252,r2,r4,r2
   80bc0:	1887ffb2 	custom	254,r3,r3,r2
   80bc4:	e0bff517 	ldw	r2,-44(fp)
   80bc8:	1885fff2 	custom	255,r2,r3,r2
   80bcc:	e0bff615 	stw	r2,-40(fp)
    float b = (sy / size) - a * (sx / size);
   80bd0:	e0bfff17 	ldw	r2,-4(fp)
   80bd4:	1005feb2 	custom	250,r2,r2,zero
   80bd8:	e0ffed17 	ldw	r3,-76(fp)
   80bdc:	1887fff2 	custom	255,r3,r3,r2
   80be0:	e0bfff17 	ldw	r2,-4(fp)
   80be4:	1005feb2 	custom	250,r2,r2,zero
   80be8:	e13fec17 	ldw	r4,-80(fp)
   80bec:	2089fff2 	custom	255,r4,r4,r2
   80bf0:	e0bff617 	ldw	r2,-40(fp)
   80bf4:	2085ff32 	custom	252,r2,r4,r2
   80bf8:	1885ffb2 	custom	254,r2,r3,r2
   80bfc:	e0bff715 	stw	r2,-36(fp)

    Line line = {a, b};
   80c00:	e0bff617 	ldw	r2,-40(fp)
   80c04:	e0bff815 	stw	r2,-32(fp)
   80c08:	e0bff717 	ldw	r2,-36(fp)
   80c0c:	e0bff915 	stw	r2,-28(fp)

    *MEDIDOR_ESCRITA = 2; // para pausar a contagem
   80c10:	00800074 	movhi	r2,1
   80c14:	10840c04 	addi	r2,r2,4144
   80c18:	00c00084 	movi	r3,2
   80c1c:	10c00015 	stw	r3,0(r2)
    leastSquare_counter+=*MEDIDOR_LEITURA;
   80c20:	00800074 	movhi	r2,1
   80c24:	10840b04 	addi	r2,r2,4140
   80c28:	10c00017 	ldw	r3,0(r2)
   80c2c:	d0a70b17 	ldw	r2,-25556(gp)
   80c30:	1885883a 	add	r2,r3,r2
   80c34:	d0a70b15 	stw	r2,-25556(gp)
    //printf("leastSquare = %d\n", *MEDIDOR_LEITURA);
    return line;
   80c38:	e0bff817 	ldw	r2,-32(fp)
   80c3c:	e0fff917 	ldw	r3,-28(fp)
   80c40:	1009883a 	mov	r4,r2
   80c44:	180b883a 	mov	r5,r3
}
   80c48:	2005883a 	mov	r2,r4
   80c4c:	2807883a 	mov	r3,r5
   80c50:	e037883a 	mov	sp,fp
   80c54:	df000017 	ldw	fp,0(sp)
   80c58:	dec00104 	addi	sp,sp,4
   80c5c:	f800283a 	ret

00080c60 <coefficientOfDetermination>:

float coefficientOfDetermination(int* data, Line model, int avg_y, int data_size) {
   80c60:	defff104 	addi	sp,sp,-60
   80c64:	df000e15 	stw	fp,56(sp)
   80c68:	df000e04 	addi	fp,sp,56
   80c6c:	e13ffc15 	stw	r4,-16(fp)
   80c70:	e17ffd15 	stw	r5,-12(fp)
   80c74:	e1bffe15 	stw	r6,-8(fp)
   80c78:	e1ffff15 	stw	r7,-4(fp)
	*MEDIDOR_ESCRITA = 0; // para resetar a contagem
   80c7c:	00800074 	movhi	r2,1
   80c80:	10840c04 	addi	r2,r2,4144
   80c84:	10000015 	stw	zero,0(r2)
	*MEDIDOR_ESCRITA = 1; // para iniciar a contagem
   80c88:	00800074 	movhi	r2,1
   80c8c:	10840c04 	addi	r2,r2,4144
   80c90:	00c00044 	movi	r3,1
   80c94:	10c00015 	stw	r3,0(r2)

	float ss_res = 0.0;
   80c98:	e03ff215 	stw	zero,-56(fp)
	float ss_tot = 0.0;
   80c9c:	e03ff315 	stw	zero,-52(fp)

	for (int i = 0; i < data_size; i++) {
   80ca0:	e03ff415 	stw	zero,-48(fp)
   80ca4:	00002e06 	br	80d60 <coefficientOfDetermination+0x100>
		int coord = data[i];
   80ca8:	e0bff417 	ldw	r2,-48(fp)
   80cac:	1085883a 	add	r2,r2,r2
   80cb0:	1085883a 	add	r2,r2,r2
   80cb4:	1007883a 	mov	r3,r2
   80cb8:	e0bffc17 	ldw	r2,-16(fp)
   80cbc:	10c5883a 	add	r2,r2,r3
   80cc0:	10800017 	ldw	r2,0(r2)
   80cc4:	e0bff515 	stw	r2,-44(fp)
		float x = GET_X(coord);
   80cc8:	e0bff517 	ldw	r2,-44(fp)
   80ccc:	10803fcc 	andi	r2,r2,255
   80cd0:	1005feb2 	custom	250,r2,r2,zero
   80cd4:	e0bff615 	stw	r2,-40(fp)
		float y = GET_Y(coord);
   80cd8:	e0bff517 	ldw	r2,-44(fp)
   80cdc:	1005d23a 	srai	r2,r2,8
   80ce0:	1005feb2 	custom	250,r2,r2,zero
   80ce4:	e0bff715 	stw	r2,-36(fp)
		float f = model.a * x + model.b;
   80ce8:	e0fffd17 	ldw	r3,-12(fp)
   80cec:	e0bff617 	ldw	r2,-40(fp)
   80cf0:	1887ff32 	custom	252,r3,r3,r2
   80cf4:	e0bffe17 	ldw	r2,-8(fp)
   80cf8:	1885ff72 	custom	253,r2,r3,r2
   80cfc:	e0bff815 	stw	r2,-32(fp)
		float y_f = y - f;
   80d00:	e0fff717 	ldw	r3,-36(fp)
   80d04:	e0bff817 	ldw	r2,-32(fp)
   80d08:	1885ffb2 	custom	254,r2,r3,r2
   80d0c:	e0bff915 	stw	r2,-28(fp)
		float y_y = y - avg_y;
   80d10:	e0bfff17 	ldw	r2,-4(fp)
   80d14:	1005feb2 	custom	250,r2,r2,zero
   80d18:	e0fff717 	ldw	r3,-36(fp)
   80d1c:	1885ffb2 	custom	254,r2,r3,r2
   80d20:	e0bffa15 	stw	r2,-24(fp)
		ss_res += y_f * y_f;
   80d24:	e0fff917 	ldw	r3,-28(fp)
   80d28:	e0bff917 	ldw	r2,-28(fp)
   80d2c:	1885ff32 	custom	252,r2,r3,r2
   80d30:	e0fff217 	ldw	r3,-56(fp)
   80d34:	1885ff72 	custom	253,r2,r3,r2
   80d38:	e0bff215 	stw	r2,-56(fp)
		ss_tot += y_y * y_y;
   80d3c:	e0fffa17 	ldw	r3,-24(fp)
   80d40:	e0bffa17 	ldw	r2,-24(fp)
   80d44:	1885ff32 	custom	252,r2,r3,r2
   80d48:	e0fff317 	ldw	r3,-52(fp)
   80d4c:	1885ff72 	custom	253,r2,r3,r2
   80d50:	e0bff315 	stw	r2,-52(fp)
	*MEDIDOR_ESCRITA = 1; // para iniciar a contagem

	float ss_res = 0.0;
	float ss_tot = 0.0;

	for (int i = 0; i < data_size; i++) {
   80d54:	e0bff417 	ldw	r2,-48(fp)
   80d58:	10800044 	addi	r2,r2,1
   80d5c:	e0bff415 	stw	r2,-48(fp)
   80d60:	e0fff417 	ldw	r3,-48(fp)
   80d64:	e0800117 	ldw	r2,4(fp)
   80d68:	18bfcf16 	blt	r3,r2,80ca8 <__alt_data_end+0xfffceca8>
		float y_y = y - avg_y;
		ss_res += y_f * y_f;
		ss_tot += y_y * y_y;
	}

    float r = (ss_res / ss_tot);
   80d6c:	e0fff217 	ldw	r3,-56(fp)
   80d70:	e0bff317 	ldw	r2,-52(fp)
   80d74:	1885fff2 	custom	255,r2,r3,r2
   80d78:	e0bffb15 	stw	r2,-20(fp)

    *MEDIDOR_ESCRITA = 2; // para pausar a contagem
   80d7c:	00800074 	movhi	r2,1
   80d80:	10840c04 	addi	r2,r2,4144
   80d84:	00c00084 	movi	r3,2
   80d88:	10c00015 	stw	r3,0(r2)
    coefficientOfDetermination_counter+=*MEDIDOR_LEITURA;
   80d8c:	00800074 	movhi	r2,1
   80d90:	10840b04 	addi	r2,r2,4140
   80d94:	10c00017 	ldw	r3,0(r2)
   80d98:	d0a70917 	ldw	r2,-25564(gp)
   80d9c:	1885883a 	add	r2,r3,r2
   80da0:	d0a70915 	stw	r2,-25564(gp)
    //printf("coefficientOfDetermination = %d\n", *MEDIDOR_LEITURA);
    return r;
   80da4:	e0bffb17 	ldw	r2,-20(fp)
   80da8:	1007883a 	mov	r3,r2
}
   80dac:	1805883a 	mov	r2,r3
   80db0:	e037883a 	mov	sp,fp
   80db4:	df000017 	ldw	fp,0(sp)
   80db8:	dec00104 	addi	sp,sp,4
   80dbc:	f800283a 	ret

00080dc0 <inliersOutliersMemory>:

void inliersOutliersMemory(int* data, Line model, int* inliers, int* outliers, int dataSize, int* inlierSize, int* outlierSize) {
   80dc0:	defff404 	addi	sp,sp,-48
   80dc4:	dfc00b15 	stw	ra,44(sp)
   80dc8:	df000a15 	stw	fp,40(sp)
   80dcc:	df000a04 	addi	fp,sp,40
   80dd0:	e13ffc15 	stw	r4,-16(fp)
   80dd4:	e17ffd15 	stw	r5,-12(fp)
   80dd8:	e1bffe15 	stw	r6,-8(fp)
   80ddc:	e1ffff15 	stw	r7,-4(fp)
	*MEDIDOR_ESCRITA = 0; // para resetar a contagem
   80de0:	00800074 	movhi	r2,1
   80de4:	10840c04 	addi	r2,r2,4144
   80de8:	10000015 	stw	zero,0(r2)
	*MEDIDOR_ESCRITA = 1; // para iniciar a contagem
   80dec:	00800074 	movhi	r2,1
   80df0:	10840c04 	addi	r2,r2,4144
   80df4:	00c00044 	movi	r3,1
   80df8:	10c00015 	stw	r3,0(r2)

	const float square2 = E * E * (model.a * model.a + 1.0);
   80dfc:	e0fffd17 	ldw	r3,-12(fp)
   80e00:	e0bffd17 	ldw	r2,-12(fp)
   80e04:	1885ff32 	custom	252,r2,r3,r2
   80e08:	1009883a 	mov	r4,r2
   80e0c:	0084ad80 	call	84ad8 <__extendsfdf2>
   80e10:	1011883a 	mov	r8,r2
   80e14:	1813883a 	mov	r9,r3
   80e18:	000d883a 	mov	r6,zero
   80e1c:	01cffc34 	movhi	r7,16368
   80e20:	4009883a 	mov	r4,r8
   80e24:	480b883a 	mov	r5,r9
   80e28:	00823c80 	call	823c8 <__adddf3>
   80e2c:	1009883a 	mov	r4,r2
   80e30:	180b883a 	mov	r5,r3
   80e34:	2005883a 	mov	r2,r4
   80e38:	2807883a 	mov	r3,r5
   80e3c:	000d883a 	mov	r6,zero
   80e40:	01d00e74 	movhi	r7,16441
   80e44:	1009883a 	mov	r4,r2
   80e48:	180b883a 	mov	r5,r3
   80e4c:	00838140 	call	83814 <__muldf3>
   80e50:	1009883a 	mov	r4,r2
   80e54:	180b883a 	mov	r5,r3
   80e58:	2005883a 	mov	r2,r4
   80e5c:	2807883a 	mov	r3,r5
   80e60:	1009883a 	mov	r4,r2
   80e64:	180b883a 	mov	r5,r3
   80e68:	0084be80 	call	84be8 <__truncdfsf2>
   80e6c:	1007883a 	mov	r3,r2
   80e70:	e0fff715 	stw	r3,-36(fp)
    int tempX, tempY, coord;
    float dist;

    for (int k = 0; k < dataSize; k++) {
   80e74:	e03ff615 	stw	zero,-40(fp)
   80e78:	00003e06 	br	80f74 <inliersOutliersMemory+0x1b4>
    	coord = data[k];
   80e7c:	e0bff617 	ldw	r2,-40(fp)
   80e80:	1085883a 	add	r2,r2,r2
   80e84:	1085883a 	add	r2,r2,r2
   80e88:	1007883a 	mov	r3,r2
   80e8c:	e0bffc17 	ldw	r2,-16(fp)
   80e90:	10c5883a 	add	r2,r2,r3
   80e94:	10800017 	ldw	r2,0(r2)
   80e98:	e0bff815 	stw	r2,-32(fp)
    	tempX = GET_X(coord);
   80e9c:	e0bff817 	ldw	r2,-32(fp)
   80ea0:	10803fcc 	andi	r2,r2,255
   80ea4:	e0bff915 	stw	r2,-28(fp)
    	tempY = GET_Y(coord);
   80ea8:	e0bff817 	ldw	r2,-32(fp)
   80eac:	1005d23a 	srai	r2,r2,8
   80eb0:	e0bffa15 	stw	r2,-24(fp)

        dist = (model.a * tempX - tempY + model.b);
   80eb4:	e0fffd17 	ldw	r3,-12(fp)
   80eb8:	e0bff917 	ldw	r2,-28(fp)
   80ebc:	1005feb2 	custom	250,r2,r2,zero
   80ec0:	1887ff32 	custom	252,r3,r3,r2
   80ec4:	e0bffa17 	ldw	r2,-24(fp)
   80ec8:	1005feb2 	custom	250,r2,r2,zero
   80ecc:	1887ffb2 	custom	254,r3,r3,r2
   80ed0:	e0bffe17 	ldw	r2,-8(fp)
   80ed4:	1885ff72 	custom	253,r2,r3,r2
   80ed8:	e0bffb15 	stw	r2,-20(fp)

        if (dist * dist <= square2) {
   80edc:	e0fffb17 	ldw	r3,-20(fp)
   80ee0:	e0bffb17 	ldw	r2,-20(fp)
   80ee4:	1887ff32 	custom	252,r3,r3,r2
   80ee8:	e0bff717 	ldw	r2,-36(fp)
   80eec:	1885f9b2 	custom	230,r2,r3,r2
   80ef0:	10000f26 	beq	r2,zero,80f30 <inliersOutliersMemory+0x170>
        	inliers[*inlierSize] = coord;
   80ef4:	e0800417 	ldw	r2,16(fp)
   80ef8:	10800017 	ldw	r2,0(r2)
   80efc:	1085883a 	add	r2,r2,r2
   80f00:	1085883a 	add	r2,r2,r2
   80f04:	1007883a 	mov	r3,r2
   80f08:	e0bfff17 	ldw	r2,-4(fp)
   80f0c:	10c5883a 	add	r2,r2,r3
   80f10:	e0fff817 	ldw	r3,-32(fp)
   80f14:	10c00015 	stw	r3,0(r2)
            (*inlierSize)++;
   80f18:	e0800417 	ldw	r2,16(fp)
   80f1c:	10800017 	ldw	r2,0(r2)
   80f20:	10c00044 	addi	r3,r2,1
   80f24:	e0800417 	ldw	r2,16(fp)
   80f28:	10c00015 	stw	r3,0(r2)
   80f2c:	00000e06 	br	80f68 <inliersOutliersMemory+0x1a8>
        } else {
        	outliers[*outlierSize] = coord;
   80f30:	e0800517 	ldw	r2,20(fp)
   80f34:	10800017 	ldw	r2,0(r2)
   80f38:	1085883a 	add	r2,r2,r2
   80f3c:	1085883a 	add	r2,r2,r2
   80f40:	1007883a 	mov	r3,r2
   80f44:	e0800217 	ldw	r2,8(fp)
   80f48:	10c5883a 	add	r2,r2,r3
   80f4c:	e0fff817 	ldw	r3,-32(fp)
   80f50:	10c00015 	stw	r3,0(r2)
            (*outlierSize)++;
   80f54:	e0800517 	ldw	r2,20(fp)
   80f58:	10800017 	ldw	r2,0(r2)
   80f5c:	10c00044 	addi	r3,r2,1
   80f60:	e0800517 	ldw	r2,20(fp)
   80f64:	10c00015 	stw	r3,0(r2)

	const float square2 = E * E * (model.a * model.a + 1.0);
    int tempX, tempY, coord;
    float dist;

    for (int k = 0; k < dataSize; k++) {
   80f68:	e0bff617 	ldw	r2,-40(fp)
   80f6c:	10800044 	addi	r2,r2,1
   80f70:	e0bff615 	stw	r2,-40(fp)
   80f74:	e0fff617 	ldw	r3,-40(fp)
   80f78:	e0800317 	ldw	r2,12(fp)
   80f7c:	18bfbf16 	blt	r3,r2,80e7c <__alt_data_end+0xfffcee7c>
        } else {
        	outliers[*outlierSize] = coord;
            (*outlierSize)++;
        }
    }
    *MEDIDOR_ESCRITA = 2; // para pausar a contagem
   80f80:	00800074 	movhi	r2,1
   80f84:	10840c04 	addi	r2,r2,4144
   80f88:	00c00084 	movi	r3,2
   80f8c:	10c00015 	stw	r3,0(r2)
    inliersOutliersMemory_counter+=*MEDIDOR_LEITURA;
   80f90:	00800074 	movhi	r2,1
   80f94:	10840b04 	addi	r2,r2,4140
   80f98:	10c00017 	ldw	r3,0(r2)
   80f9c:	d0a70a17 	ldw	r2,-25560(gp)
   80fa0:	1885883a 	add	r2,r3,r2
   80fa4:	d0a70a15 	stw	r2,-25560(gp)
    //printf("inliersOutliersMemory = %d\n", *MEDIDOR_LEITURA);
}
   80fa8:	0001883a 	nop
   80fac:	e037883a 	mov	sp,fp
   80fb0:	dfc00117 	ldw	ra,4(sp)
   80fb4:	df000017 	ldw	fp,0(sp)
   80fb8:	dec00204 	addi	sp,sp,8
   80fbc:	f800283a 	ret

00080fc0 <inliersOutliers>:

void inliersOutliers(int* data, Line model, int* inliers, int* outliers, int dataSize, int* inlierSize, int* outlierSize) {
   80fc0:	defff204 	addi	sp,sp,-56
   80fc4:	dfc00d15 	stw	ra,52(sp)
   80fc8:	df000c15 	stw	fp,48(sp)
   80fcc:	df000c04 	addi	fp,sp,48
   80fd0:	e13ffc15 	stw	r4,-16(fp)
   80fd4:	e17ffd15 	stw	r5,-12(fp)
   80fd8:	e1bffe15 	stw	r6,-8(fp)
   80fdc:	e1ffff15 	stw	r7,-4(fp)
	*MEDIDOR_ESCRITA = 0; // para resetar a contagem
   80fe0:	00800074 	movhi	r2,1
   80fe4:	10840c04 	addi	r2,r2,4144
   80fe8:	10000015 	stw	zero,0(r2)
	*MEDIDOR_ESCRITA = 1; // para iniciar a contagem
   80fec:	00800074 	movhi	r2,1
   80ff0:	10840c04 	addi	r2,r2,4144
   80ff4:	00c00044 	movi	r3,1
   80ff8:	10c00015 	stw	r3,0(r2)
	int a, b, px, py, coord;

	int threshold_fixed = (int)(E * SCALE_FACTOR) * (int)(E * SCALE_FACTOR);
   80ffc:	00827104 	movi	r2,2500
   81000:	e0bff515 	stw	r2,-44(fp)
	int * ponteiro = INLIERS_ESCRITA;
   81004:	00800074 	movhi	r2,1
   81008:	10840004 	addi	r2,r2,4096
   8100c:	e0bff615 	stw	r2,-40(fp)

	a = (int)(model.a * SCALE_FACTOR);   // slope of the line
   81010:	e0fffd17 	ldw	r3,-12(fp)
   81014:	00904834 	movhi	r2,16672
   81018:	1885ff32 	custom	252,r2,r3,r2
   8101c:	1005fe72 	custom	249,r2,r2,zero
   81020:	e0bff715 	stw	r2,-36(fp)
	b = (int)(model.b * SCALE_FACTOR);   // y-intercept of the line
   81024:	e0fffe17 	ldw	r3,-8(fp)
   81028:	00904834 	movhi	r2,16672
   8102c:	1885ff32 	custom	252,r2,r3,r2
   81030:	1005fe72 	custom	249,r2,r2,zero
   81034:	e0bff815 	stw	r2,-32(fp)
	ponteiro[0] = SCALE_FACTOR;
   81038:	e0bff617 	ldw	r2,-40(fp)
   8103c:	00c00284 	movi	r3,10
   81040:	10c00015 	stw	r3,0(r2)
	ponteiro[1]  = a;
   81044:	e0bff617 	ldw	r2,-40(fp)
   81048:	10800104 	addi	r2,r2,4
   8104c:	e0fff717 	ldw	r3,-36(fp)
   81050:	10c00015 	stw	r3,0(r2)
	ponteiro[2]  = b;
   81054:	e0bff617 	ldw	r2,-40(fp)
   81058:	10800204 	addi	r2,r2,8
   8105c:	e0fff817 	ldw	r3,-32(fp)
   81060:	10c00015 	stw	r3,0(r2)
	ponteiro[5] = threshold_fixed;
   81064:	e0bff617 	ldw	r2,-40(fp)
   81068:	10800504 	addi	r2,r2,20
   8106c:	e0fff517 	ldw	r3,-44(fp)
   81070:	10c00015 	stw	r3,0(r2)
    for (int k = 0; k < dataSize; k++) {
   81074:	e03ff415 	stw	zero,-48(fp)
   81078:	00004006 	br	8117c <inliersOutliers+0x1bc>
    	coord = data[k];
   8107c:	e0bff417 	ldw	r2,-48(fp)
   81080:	1085883a 	add	r2,r2,r2
   81084:	1085883a 	add	r2,r2,r2
   81088:	1007883a 	mov	r3,r2
   8108c:	e0bffc17 	ldw	r2,-16(fp)
   81090:	10c5883a 	add	r2,r2,r3
   81094:	10800017 	ldw	r2,0(r2)
   81098:	e0bff915 	stw	r2,-28(fp)
		px = (GET_X(coord) * SCALE_FACTOR);  // x-coordinate of the point
   8109c:	e0bff917 	ldw	r2,-28(fp)
   810a0:	10803fcc 	andi	r2,r2,255
   810a4:	01400284 	movi	r5,10
   810a8:	1009883a 	mov	r4,r2
   810ac:	00823a00 	call	823a0 <__mulsi3>
   810b0:	e0bffa15 	stw	r2,-24(fp)
		py = (GET_Y(coord) * SCALE_FACTOR);  // y-coordinate of the point
   810b4:	e0bff917 	ldw	r2,-28(fp)
   810b8:	1005d23a 	srai	r2,r2,8
   810bc:	01400284 	movi	r5,10
   810c0:	1009883a 	mov	r4,r2
   810c4:	00823a00 	call	823a0 <__mulsi3>
   810c8:	e0bffb15 	stw	r2,-20(fp)
		ponteiro[3]  = px;
   810cc:	e0bff617 	ldw	r2,-40(fp)
   810d0:	10800304 	addi	r2,r2,12
   810d4:	e0fffa17 	ldw	r3,-24(fp)
   810d8:	10c00015 	stw	r3,0(r2)
		ponteiro[4] = py;
   810dc:	e0bff617 	ldw	r2,-40(fp)
   810e0:	10800404 	addi	r2,r2,16
   810e4:	e0fffb17 	ldw	r3,-20(fp)
   810e8:	10c00015 	stw	r3,0(r2)

        if (*INLIERS_LEITURA) {
   810ec:	00800074 	movhi	r2,1
   810f0:	10840a04 	addi	r2,r2,4136
   810f4:	10800017 	ldw	r2,0(r2)
   810f8:	10000f26 	beq	r2,zero,81138 <inliersOutliers+0x178>
            inliers[*inlierSize] = coord;
   810fc:	e0800417 	ldw	r2,16(fp)
   81100:	10800017 	ldw	r2,0(r2)
   81104:	1085883a 	add	r2,r2,r2
   81108:	1085883a 	add	r2,r2,r2
   8110c:	1007883a 	mov	r3,r2
   81110:	e0bfff17 	ldw	r2,-4(fp)
   81114:	10c5883a 	add	r2,r2,r3
   81118:	e0fff917 	ldw	r3,-28(fp)
   8111c:	10c00015 	stw	r3,0(r2)
            (*inlierSize)++;
   81120:	e0800417 	ldw	r2,16(fp)
   81124:	10800017 	ldw	r2,0(r2)
   81128:	10c00044 	addi	r3,r2,1
   8112c:	e0800417 	ldw	r2,16(fp)
   81130:	10c00015 	stw	r3,0(r2)
   81134:	00000e06 	br	81170 <inliersOutliers+0x1b0>
        } else {
            outliers[*outlierSize] = coord;
   81138:	e0800517 	ldw	r2,20(fp)
   8113c:	10800017 	ldw	r2,0(r2)
   81140:	1085883a 	add	r2,r2,r2
   81144:	1085883a 	add	r2,r2,r2
   81148:	1007883a 	mov	r3,r2
   8114c:	e0800217 	ldw	r2,8(fp)
   81150:	10c5883a 	add	r2,r2,r3
   81154:	e0fff917 	ldw	r3,-28(fp)
   81158:	10c00015 	stw	r3,0(r2)
            (*outlierSize)++;
   8115c:	e0800517 	ldw	r2,20(fp)
   81160:	10800017 	ldw	r2,0(r2)
   81164:	10c00044 	addi	r3,r2,1
   81168:	e0800517 	ldw	r2,20(fp)
   8116c:	10c00015 	stw	r3,0(r2)
	b = (int)(model.b * SCALE_FACTOR);   // y-intercept of the line
	ponteiro[0] = SCALE_FACTOR;
	ponteiro[1]  = a;
	ponteiro[2]  = b;
	ponteiro[5] = threshold_fixed;
    for (int k = 0; k < dataSize; k++) {
   81170:	e0bff417 	ldw	r2,-48(fp)
   81174:	10800044 	addi	r2,r2,1
   81178:	e0bff415 	stw	r2,-48(fp)
   8117c:	e0fff417 	ldw	r3,-48(fp)
   81180:	e0800317 	ldw	r2,12(fp)
   81184:	18bfbd16 	blt	r3,r2,8107c <__alt_data_end+0xfffcf07c>
        } else {
            outliers[*outlierSize] = coord;
            (*outlierSize)++;
        }
    }
    *MEDIDOR_ESCRITA = 2; // para pausar a contagem
   81188:	00800074 	movhi	r2,1
   8118c:	10840c04 	addi	r2,r2,4144
   81190:	00c00084 	movi	r3,2
   81194:	10c00015 	stw	r3,0(r2)
    inliersOutliers_counter+=*MEDIDOR_LEITURA;
   81198:	00800074 	movhi	r2,1
   8119c:	10840b04 	addi	r2,r2,4140
   811a0:	10c00017 	ldw	r3,0(r2)
   811a4:	d0a70617 	ldw	r2,-25576(gp)
   811a8:	1885883a 	add	r2,r3,r2
   811ac:	d0a70615 	stw	r2,-25576(gp)
    //printf("inliersOutliers = %d\n", *MEDIDOR_LEITURA);
}
   811b0:	0001883a 	nop
   811b4:	e037883a 	mov	sp,fp
   811b8:	dfc00117 	ldw	ra,4(sp)
   811bc:	df000017 	ldw	fp,0(sp)
   811c0:	dec00204 	addi	sp,sp,8
   811c4:	f800283a 	ret

000811c8 <checkModel>:

void checkModel(int* data, int* temp, RansacResult* rs, int data_size, int temp_size) {
   811c8:	defd9504 	addi	sp,sp,-2476
   811cc:	dfc26a15 	stw	ra,2472(sp)
   811d0:	df026915 	stw	fp,2468(sp)
   811d4:	df026904 	addi	fp,sp,2468
   811d8:	e13ffc15 	stw	r4,-16(fp)
   811dc:	e17ffd15 	stw	r5,-12(fp)
   811e0:	e1bffe15 	stw	r6,-8(fp)
   811e4:	e1ffff15 	stw	r7,-4(fp)
    int inliers[MAX_POINTS];
    int outliers[MAX_POINTS];
    int inlinersSize = 0;
   811e8:	e03ff615 	stw	zero,-40(fp)
    int outlierSize = 0;
   811ec:	e03ff715 	stw	zero,-36(fp)
    Line model = leastSquare(temp, temp_size);
   811f0:	e1400217 	ldw	r5,8(fp)
   811f4:	e13ffd17 	ldw	r4,-12(fp)
   811f8:	0080a300 	call	80a30 <leastSquare>
   811fc:	1009883a 	mov	r4,r2
   81200:	180b883a 	mov	r5,r3
   81204:	e13ff815 	stw	r4,-32(fp)
   81208:	e17ff915 	stw	r5,-28(fp)

    inliersOutliers(data, model, inliers, outliers, data_size, &inlinersSize, &outlierSize);
   8120c:	e0fd9e04 	addi	r3,fp,-2440
   81210:	e0bff704 	addi	r2,fp,-36
   81214:	d8800315 	stw	r2,12(sp)
   81218:	e0bff604 	addi	r2,fp,-40
   8121c:	d8800215 	stw	r2,8(sp)
   81220:	e0bfff17 	ldw	r2,-4(fp)
   81224:	d8800115 	stw	r2,4(sp)
   81228:	e0beca04 	addi	r2,fp,-1240
   8122c:	d8800015 	stw	r2,0(sp)
   81230:	180f883a 	mov	r7,r3
   81234:	e17ff817 	ldw	r5,-32(fp)
   81238:	e1bff917 	ldw	r6,-28(fp)
   8123c:	e13ffc17 	ldw	r4,-16(fp)
   81240:	0080fc00 	call	80fc0 <inliersOutliers>

    if(inlinersSize >= rs->bestQty && inlinersSize >= (int)(data_size * C)){
   81244:	e0bffe17 	ldw	r2,-8(fp)
   81248:	10800317 	ldw	r2,12(r2)
   8124c:	e0fff617 	ldw	r3,-40(fp)
   81250:	18804f16 	blt	r3,r2,81390 <checkModel+0x1c8>
   81254:	e13fff17 	ldw	r4,-4(fp)
   81258:	00849fc0 	call	849fc <__floatsidf>
   8125c:	1011883a 	mov	r8,r2
   81260:	1813883a 	mov	r9,r3
   81264:	000d883a 	mov	r6,zero
   81268:	01cff834 	movhi	r7,16352
   8126c:	4009883a 	mov	r4,r8
   81270:	480b883a 	mov	r5,r9
   81274:	00838140 	call	83814 <__muldf3>
   81278:	1009883a 	mov	r4,r2
   8127c:	180b883a 	mov	r5,r3
   81280:	2005883a 	mov	r2,r4
   81284:	2807883a 	mov	r3,r5
   81288:	1009883a 	mov	r4,r2
   8128c:	180b883a 	mov	r5,r3
   81290:	008497c0 	call	8497c <__fixdfsi>
   81294:	1007883a 	mov	r3,r2
   81298:	e0bff617 	ldw	r2,-40(fp)
   8129c:	10c03c16 	blt	r2,r3,81390 <checkModel+0x1c8>
        Line inliersModel = leastSquare(inliers, inlinersSize);
   812a0:	e0fff617 	ldw	r3,-40(fp)
   812a4:	e0bd9e04 	addi	r2,fp,-2440
   812a8:	180b883a 	mov	r5,r3
   812ac:	1009883a 	mov	r4,r2
   812b0:	0080a300 	call	80a30 <leastSquare>
   812b4:	1009883a 	mov	r4,r2
   812b8:	180b883a 	mov	r5,r3
   812bc:	e13ffa15 	stw	r4,-24(fp)
   812c0:	e17ffb15 	stw	r5,-20(fp)
        int inliersAvg_y = 0;
   812c4:	e03d9b15 	stw	zero,-2452(fp)
        for (int i = 0; i < inlinersSize; i++) {
   812c8:	e03d9c15 	stw	zero,-2448(fp)
   812cc:	00000e06 	br	81308 <checkModel+0x140>
            inliersAvg_y += GET_Y(inliers[i]);
   812d0:	e0bd9c17 	ldw	r2,-2448(fp)
   812d4:	1085883a 	add	r2,r2,r2
   812d8:	1085883a 	add	r2,r2,r2
   812dc:	e0fd9b04 	addi	r3,fp,-2452
   812e0:	1885883a 	add	r2,r3,r2
   812e4:	10800304 	addi	r2,r2,12
   812e8:	10800017 	ldw	r2,0(r2)
   812ec:	1005d23a 	srai	r2,r2,8
   812f0:	e0fd9b17 	ldw	r3,-2452(fp)
   812f4:	1885883a 	add	r2,r3,r2
   812f8:	e0bd9b15 	stw	r2,-2452(fp)
    inliersOutliers(data, model, inliers, outliers, data_size, &inlinersSize, &outlierSize);

    if(inlinersSize >= rs->bestQty && inlinersSize >= (int)(data_size * C)){
        Line inliersModel = leastSquare(inliers, inlinersSize);
        int inliersAvg_y = 0;
        for (int i = 0; i < inlinersSize; i++) {
   812fc:	e0bd9c17 	ldw	r2,-2448(fp)
   81300:	10800044 	addi	r2,r2,1
   81304:	e0bd9c15 	stw	r2,-2448(fp)
   81308:	e0bff617 	ldw	r2,-40(fp)
   8130c:	e0fd9c17 	ldw	r3,-2448(fp)
   81310:	18bfef16 	blt	r3,r2,812d0 <__alt_data_end+0xfffcf2d0>
            inliersAvg_y += GET_Y(inliers[i]);
        }
        inliersAvg_y /= inlinersSize;
   81314:	e0bff617 	ldw	r2,-40(fp)
   81318:	100b883a 	mov	r5,r2
   8131c:	e13d9b17 	ldw	r4,-2452(fp)
   81320:	00821ec0 	call	821ec <__divsi3>
   81324:	e0bd9b15 	stw	r2,-2452(fp)
        float  inliersFit = coefficientOfDetermination(inliers, inliersModel, inliersAvg_y, data_size);
   81328:	e0fd9e04 	addi	r3,fp,-2440
   8132c:	e0bfff17 	ldw	r2,-4(fp)
   81330:	d8800015 	stw	r2,0(sp)
   81334:	e1fd9b17 	ldw	r7,-2452(fp)
   81338:	e17ffa17 	ldw	r5,-24(fp)
   8133c:	e1bffb17 	ldw	r6,-20(fp)
   81340:	1809883a 	mov	r4,r3
   81344:	0080c600 	call	80c60 <coefficientOfDetermination>
   81348:	e0bd9d15 	stw	r2,-2444(fp)
        if (inliersFit < rs->bestFit) {
   8134c:	e0bffe17 	ldw	r2,-8(fp)
   81350:	10c00217 	ldw	r3,8(r2)
   81354:	e0bd9d17 	ldw	r2,-2444(fp)
   81358:	1885f972 	custom	229,r2,r3,r2
   8135c:	1000011e 	bne	r2,zero,81364 <checkModel+0x19c>
        rs->bestModel = inliersModel;
        rs->bestFit = inliersFit;
        rs->bestQty = inlinersSize;
        }
    }
}
   81360:	00000b06 	br	81390 <checkModel+0x1c8>
            inliersAvg_y += GET_Y(inliers[i]);
        }
        inliersAvg_y /= inlinersSize;
        float  inliersFit = coefficientOfDetermination(inliers, inliersModel, inliersAvg_y, data_size);
        if (inliersFit < rs->bestFit) {
        rs->bestModel = inliersModel;
   81364:	e0bffe17 	ldw	r2,-8(fp)
   81368:	e0fffa17 	ldw	r3,-24(fp)
   8136c:	10c00015 	stw	r3,0(r2)
   81370:	e0fffb17 	ldw	r3,-20(fp)
   81374:	10c00115 	stw	r3,4(r2)
        rs->bestFit = inliersFit;
   81378:	e0bffe17 	ldw	r2,-8(fp)
   8137c:	e0fd9d17 	ldw	r3,-2444(fp)
   81380:	10c00215 	stw	r3,8(r2)
        rs->bestQty = inlinersSize;
   81384:	e0fff617 	ldw	r3,-40(fp)
   81388:	e0bffe17 	ldw	r2,-8(fp)
   8138c:	10c00315 	stw	r3,12(r2)
        }
    }
}
   81390:	0001883a 	nop
   81394:	e037883a 	mov	sp,fp
   81398:	dfc00117 	ldw	ra,4(sp)
   8139c:	df000017 	ldw	fp,0(sp)
   813a0:	dec00204 	addi	sp,sp,8
   813a4:	f800283a 	ret

000813a8 <squareDistanceBetweenPoints>:

int squareDistanceBetweenPoints (int a, int b){
   813a8:	defff804 	addi	sp,sp,-32
   813ac:	dfc00715 	stw	ra,28(sp)
   813b0:	df000615 	stw	fp,24(sp)
   813b4:	dc000515 	stw	r16,20(sp)
   813b8:	df000604 	addi	fp,sp,24
   813bc:	e13ffd15 	stw	r4,-12(fp)
   813c0:	e17ffe15 	stw	r5,-8(fp)
	*MEDIDOR_ESCRITA = 0; // para resetar a contagem
   813c4:	00800074 	movhi	r2,1
   813c8:	10840c04 	addi	r2,r2,4144
   813cc:	10000015 	stw	zero,0(r2)
	*MEDIDOR_ESCRITA = 1; // para iniciar a contagem
   813d0:	00800074 	movhi	r2,1
   813d4:	10840c04 	addi	r2,r2,4144
   813d8:	00c00044 	movi	r3,1
   813dc:	10c00015 	stw	r3,0(r2)
	int dx = GET_X(a) - GET_X(b);
   813e0:	e0bffd17 	ldw	r2,-12(fp)
   813e4:	10c03fcc 	andi	r3,r2,255
   813e8:	e0bffe17 	ldw	r2,-8(fp)
   813ec:	10803fcc 	andi	r2,r2,255
   813f0:	1885c83a 	sub	r2,r3,r2
   813f4:	e0bffa15 	stw	r2,-24(fp)
    int dy = GET_Y(a) - GET_Y(b);
   813f8:	e0bffd17 	ldw	r2,-12(fp)
   813fc:	1007d23a 	srai	r3,r2,8
   81400:	e0bffe17 	ldw	r2,-8(fp)
   81404:	1005d23a 	srai	r2,r2,8
   81408:	1885c83a 	sub	r2,r3,r2
   8140c:	e0bffb15 	stw	r2,-20(fp)
    int resultado = (dx * dx) + (dy * dy);
   81410:	e17ffa17 	ldw	r5,-24(fp)
   81414:	e13ffa17 	ldw	r4,-24(fp)
   81418:	00823a00 	call	823a0 <__mulsi3>
   8141c:	1021883a 	mov	r16,r2
   81420:	e17ffb17 	ldw	r5,-20(fp)
   81424:	e13ffb17 	ldw	r4,-20(fp)
   81428:	00823a00 	call	823a0 <__mulsi3>
   8142c:	8085883a 	add	r2,r16,r2
   81430:	e0bffc15 	stw	r2,-16(fp)
    *MEDIDOR_ESCRITA = 2; // para pausar a contagem
   81434:	00800074 	movhi	r2,1
   81438:	10840c04 	addi	r2,r2,4144
   8143c:	00c00084 	movi	r3,2
   81440:	10c00015 	stw	r3,0(r2)
    squareDistanceBetweenPoints_counter+=*MEDIDOR_LEITURA;
   81444:	00800074 	movhi	r2,1
   81448:	10840b04 	addi	r2,r2,4140
   8144c:	10c00017 	ldw	r3,0(r2)
   81450:	d0a70c17 	ldw	r2,-25552(gp)
   81454:	1885883a 	add	r2,r3,r2
   81458:	d0a70c15 	stw	r2,-25552(gp)
    //printf("squareDistanceBetweenPoints = %d\n", *MEDIDOR_LEITURA);
    return resultado;
   8145c:	e0bffc17 	ldw	r2,-16(fp)
}
   81460:	e6ffff04 	addi	sp,fp,-4
   81464:	dfc00217 	ldw	ra,8(sp)
   81468:	df000117 	ldw	fp,4(sp)
   8146c:	dc000017 	ldw	r16,0(sp)
   81470:	dec00304 	addi	sp,sp,12
   81474:	f800283a 	ret

00081478 <RANSAC>:

RansacResult RANSAC(int* data, int botPos, int* outliers, int data_size) {
   81478:	defeb404 	addi	sp,sp,-1328
   8147c:	dfc14b15 	stw	ra,1324(sp)
   81480:	df014a15 	stw	fp,1320(sp)
   81484:	ddc14915 	stw	r23,1316(sp)
   81488:	dd814815 	stw	r22,1312(sp)
   8148c:	dd414715 	stw	r21,1308(sp)
   81490:	dd014615 	stw	r20,1304(sp)
   81494:	dcc14515 	stw	r19,1300(sp)
   81498:	dc814415 	stw	r18,1296(sp)
   8149c:	dc414315 	stw	r17,1292(sp)
   814a0:	dc014215 	stw	r16,1288(sp)
   814a4:	df014a04 	addi	fp,sp,1320
   814a8:	e13ff315 	stw	r4,-52(fp)
   814ac:	e17ff415 	stw	r5,-48(fp)
   814b0:	e1bff515 	stw	r6,-44(fp)
   814b4:	e1fff615 	stw	r7,-40(fp)
   814b8:	d805883a 	mov	r2,sp
   814bc:	e0bff715 	stw	r2,-36(fp)
    RansacResult rs;

    rs.bestModel.a = 0.0;
   814c0:	e03ec115 	stw	zero,-1276(fp)
    rs.bestModel.b = (float)GET_Y(botPos);
   814c4:	e0bff517 	ldw	r2,-44(fp)
   814c8:	1005d23a 	srai	r2,r2,8
   814cc:	1005feb2 	custom	250,r2,r2,zero
   814d0:	e0bec215 	stw	r2,-1272(fp)
    rs.bestFit = INFINITY;
   814d4:	009fe034 	movhi	r2,32640
   814d8:	e0bec315 	stw	r2,-1268(fp)
    rs.bestQty = 0;
   814dc:	e03ec415 	stw	zero,-1264(fp)

    int inliers[MAX_POINTS];

    int temp_dist_points = 0;
   814e0:	e03eba15 	stw	zero,-1304(fp)
    int temp_index = 0;
   814e4:	e03ebd15 	stw	zero,-1292(fp)
    int loopCounter = 0;
   814e8:	e03ebb15 	stw	zero,-1300(fp)
    int inlinersSize = 0;
   814ec:	e03ff115 	stw	zero,-60(fp)
    int outlierSize = 0;
   814f0:	e03ff215 	stw	zero,-56(fp)

    inliersOutliersMemory(data, rs.bestModel, inliers, outliers, data_size, &inlinersSize, &outlierSize);
   814f4:	e0fec504 	addi	r3,fp,-1260
   814f8:	e0bff204 	addi	r2,fp,-56
   814fc:	d8800315 	stw	r2,12(sp)
   81500:	e0bff104 	addi	r2,fp,-60
   81504:	d8800215 	stw	r2,8(sp)
   81508:	e0800217 	ldw	r2,8(fp)
   8150c:	d8800115 	stw	r2,4(sp)
   81510:	e0bff617 	ldw	r2,-40(fp)
   81514:	d8800015 	stw	r2,0(sp)
   81518:	180f883a 	mov	r7,r3
   8151c:	e17ec117 	ldw	r5,-1276(fp)
   81520:	e1bec217 	ldw	r6,-1272(fp)
   81524:	e13ff417 	ldw	r4,-48(fp)
   81528:	0080dc00 	call	80dc0 <inliersOutliersMemory>

    if (outlierSize <= 15) {
   8152c:	e0bff217 	ldw	r2,-56(fp)
   81530:	10800408 	cmpgei	r2,r2,16
   81534:	10000e1e 	bne	r2,zero,81570 <RANSAC+0xf8>
        rs.bestFit = INFINITY;
   81538:	009fe034 	movhi	r2,32640
   8153c:	e0bec315 	stw	r2,-1268(fp)
        rs.bestQty = data_size;
   81540:	e0800217 	ldw	r2,8(fp)
   81544:	e0bec415 	stw	r2,-1264(fp)
        return rs;
   81548:	e0bff317 	ldw	r2,-52(fp)
   8154c:	e0fec117 	ldw	r3,-1276(fp)
   81550:	10c00015 	stw	r3,0(r2)
   81554:	e0fec217 	ldw	r3,-1272(fp)
   81558:	10c00115 	stw	r3,4(r2)
   8155c:	e0fec317 	ldw	r3,-1268(fp)
   81560:	10c00215 	stw	r3,8(r2)
   81564:	e0fec417 	ldw	r3,-1264(fp)
   81568:	10c00315 	stw	r3,12(r2)
   8156c:	00006906 	br	81714 <RANSAC+0x29c>
    }

    int temp_size = MIN_POINTS;
   81570:	00800084 	movi	r2,2
   81574:	e0bebe15 	stw	r2,-1288(fp)
    int temp[temp_size]; // alocacaoo tamanho P
   81578:	e0bebe17 	ldw	r2,-1288(fp)
   8157c:	10ffffc4 	addi	r3,r2,-1
   81580:	e0febf15 	stw	r3,-1284(fp)
   81584:	1007883a 	mov	r3,r2
   81588:	182d883a 	mov	r22,r3
   8158c:	002f883a 	mov	r23,zero
   81590:	b006d6fa 	srli	r3,r22,27
   81594:	b826917a 	slli	r19,r23,5
   81598:	1ce6b03a 	or	r19,r3,r19
   8159c:	b024917a 	slli	r18,r22,5
   815a0:	1007883a 	mov	r3,r2
   815a4:	1829883a 	mov	r20,r3
   815a8:	002b883a 	mov	r21,zero
   815ac:	a006d6fa 	srli	r3,r20,27
   815b0:	a822917a 	slli	r17,r21,5
   815b4:	1c62b03a 	or	r17,r3,r17
   815b8:	a020917a 	slli	r16,r20,5
   815bc:	1085883a 	add	r2,r2,r2
   815c0:	1085883a 	add	r2,r2,r2
   815c4:	108000c4 	addi	r2,r2,3
   815c8:	108000c4 	addi	r2,r2,3
   815cc:	1004d0ba 	srli	r2,r2,2
   815d0:	1085883a 	add	r2,r2,r2
   815d4:	1085883a 	add	r2,r2,r2
   815d8:	d8b7c83a 	sub	sp,sp,r2
   815dc:	d8800404 	addi	r2,sp,16
   815e0:	108000c4 	addi	r2,r2,3
   815e4:	1004d0ba 	srli	r2,r2,2
   815e8:	1085883a 	add	r2,r2,r2
   815ec:	1085883a 	add	r2,r2,r2
   815f0:	e0bec015 	stw	r2,-1280(fp)

    //Posicaoo inicial do robo
    temp[0] = outliers[0];
   815f4:	e0bff617 	ldw	r2,-40(fp)
   815f8:	10c00017 	ldw	r3,0(r2)
   815fc:	e0bec017 	ldw	r2,-1280(fp)
   81600:	10c00015 	stw	r3,0(r2)
    //Execute for N iterations
    while(loopCounter < N) {
   81604:	00003706 	br	816e4 <RANSAC+0x26c>
		//Sorteia 2 coordenadas que tenham uma distancia minima entre si
		if(temp_dist_points < MIN_DIST_POINTS) {
   81608:	e0beba17 	ldw	r2,-1304(fp)
   8160c:	10800648 	cmpgei	r2,r2,25
   81610:	1000261e 	bne	r2,zero,816ac <RANSAC+0x234>
		for (int j = 1; j < temp_size; j++) {
   81614:	00800044 	movi	r2,1
   81618:	e0bebc15 	stw	r2,-1296(fp)
   8161c:	00001f06 	br	8169c <RANSAC+0x224>
			temp_index = rand() % outlierSize;
   81620:	00885f40 	call	885f4 <rand>
   81624:	1007883a 	mov	r3,r2
   81628:	e0bff217 	ldw	r2,-56(fp)
   8162c:	100b883a 	mov	r5,r2
   81630:	1809883a 	mov	r4,r3
   81634:	00822700 	call	82270 <__modsi3>
   81638:	e0bebd15 	stw	r2,-1292(fp)
			temp[j] = outliers[temp_index];
   8163c:	e0bebd17 	ldw	r2,-1292(fp)
   81640:	1085883a 	add	r2,r2,r2
   81644:	1085883a 	add	r2,r2,r2
   81648:	1007883a 	mov	r3,r2
   8164c:	e0bff617 	ldw	r2,-40(fp)
   81650:	10c5883a 	add	r2,r2,r3
   81654:	10c00017 	ldw	r3,0(r2)
   81658:	e13ec017 	ldw	r4,-1280(fp)
   8165c:	e0bebc17 	ldw	r2,-1296(fp)
   81660:	1085883a 	add	r2,r2,r2
   81664:	1085883a 	add	r2,r2,r2
   81668:	2085883a 	add	r2,r4,r2
   8166c:	10c00015 	stw	r3,0(r2)
			temp_dist_points = squareDistanceBetweenPoints(temp[0], temp[1]);
   81670:	e0bec017 	ldw	r2,-1280(fp)
   81674:	10c00017 	ldw	r3,0(r2)
   81678:	e0bec017 	ldw	r2,-1280(fp)
   8167c:	10800117 	ldw	r2,4(r2)
   81680:	100b883a 	mov	r5,r2
   81684:	1809883a 	mov	r4,r3
   81688:	00813a80 	call	813a8 <squareDistanceBetweenPoints>
   8168c:	e0beba15 	stw	r2,-1304(fp)
    temp[0] = outliers[0];
    //Execute for N iterations
    while(loopCounter < N) {
		//Sorteia 2 coordenadas que tenham uma distancia minima entre si
		if(temp_dist_points < MIN_DIST_POINTS) {
		for (int j = 1; j < temp_size; j++) {
   81690:	e0bebc17 	ldw	r2,-1296(fp)
   81694:	10800044 	addi	r2,r2,1
   81698:	e0bebc15 	stw	r2,-1296(fp)
   8169c:	e0febc17 	ldw	r3,-1296(fp)
   816a0:	e0bebe17 	ldw	r2,-1288(fp)
   816a4:	18bfde16 	blt	r3,r2,81620 <__alt_data_end+0xfffcf620>
   816a8:	00000e06 	br	816e4 <RANSAC+0x26c>
			temp[j] = outliers[temp_index];
			temp_dist_points = squareDistanceBetweenPoints(temp[0], temp[1]);
		}
        }
        else {
        	checkModel(outliers, temp, &rs, outlierSize, temp_size);
   816ac:	e0fec017 	ldw	r3,-1280(fp)
   816b0:	e17ff217 	ldw	r5,-56(fp)
   816b4:	e13ec104 	addi	r4,fp,-1276
   816b8:	e0bebe17 	ldw	r2,-1288(fp)
   816bc:	d8800015 	stw	r2,0(sp)
   816c0:	280f883a 	mov	r7,r5
   816c4:	200d883a 	mov	r6,r4
   816c8:	180b883a 	mov	r5,r3
   816cc:	e13ff617 	ldw	r4,-40(fp)
   816d0:	00811c80 	call	811c8 <checkModel>
            temp_dist_points = 0;
   816d4:	e03eba15 	stw	zero,-1304(fp)
            loopCounter++;
   816d8:	e0bebb17 	ldw	r2,-1300(fp)
   816dc:	10800044 	addi	r2,r2,1
   816e0:	e0bebb15 	stw	r2,-1300(fp)
    int temp[temp_size]; // alocacaoo tamanho P

    //Posicaoo inicial do robo
    temp[0] = outliers[0];
    //Execute for N iterations
    while(loopCounter < N) {
   816e4:	e0bebb17 	ldw	r2,-1300(fp)
   816e8:	10800290 	cmplti	r2,r2,10
   816ec:	103fc61e 	bne	r2,zero,81608 <__alt_data_end+0xfffcf608>
            temp_dist_points = 0;
            loopCounter++;
        }
    }

    return rs;
   816f0:	e0bff317 	ldw	r2,-52(fp)
   816f4:	e0fec117 	ldw	r3,-1276(fp)
   816f8:	10c00015 	stw	r3,0(r2)
   816fc:	e0fec217 	ldw	r3,-1272(fp)
   81700:	10c00115 	stw	r3,4(r2)
   81704:	e0fec317 	ldw	r3,-1268(fp)
   81708:	10c00215 	stw	r3,8(r2)
   8170c:	e0fec417 	ldw	r3,-1264(fp)
   81710:	10c00315 	stw	r3,12(r2)
   81714:	e6fff717 	ldw	sp,-36(fp)
}
   81718:	e0bff317 	ldw	r2,-52(fp)
   8171c:	e6fff804 	addi	sp,fp,-32
   81720:	dfc00917 	ldw	ra,36(sp)
   81724:	df000817 	ldw	fp,32(sp)
   81728:	ddc00717 	ldw	r23,28(sp)
   8172c:	dd800617 	ldw	r22,24(sp)
   81730:	dd400517 	ldw	r21,20(sp)
   81734:	dd000417 	ldw	r20,16(sp)
   81738:	dcc00317 	ldw	r19,12(sp)
   8173c:	dc800217 	ldw	r18,8(sp)
   81740:	dc400117 	ldw	r17,4(sp)
   81744:	dc000017 	ldw	r16,0(sp)
   81748:	dec00a04 	addi	sp,sp,40
   8174c:	f800283a 	ret

00081750 <atan>:
	double atan(double x)
#else
	double atan(x)
	double x;
#endif
{
   81750:	deffde04 	addi	sp,sp,-136
   81754:	dfc02115 	stw	ra,132(sp)
   81758:	df002015 	stw	fp,128(sp)
   8175c:	ddc01f15 	stw	r23,124(sp)
   81760:	dd801e15 	stw	r22,120(sp)
   81764:	dd401d15 	stw	r21,116(sp)
   81768:	dd001c15 	stw	r20,112(sp)
   8176c:	dcc01b15 	stw	r19,108(sp)
   81770:	dc801a15 	stw	r18,104(sp)
   81774:	dc401915 	stw	r17,100(sp)
   81778:	dc001815 	stw	r16,96(sp)
   8177c:	df002004 	addi	fp,sp,128
   81780:	e13ff015 	stw	r4,-64(fp)
   81784:	e17ff115 	stw	r5,-60(fp)
	double w,s1,s2,z;
	__int32_t ix,hx,id;

	GET_HIGH_WORD(hx,x);
   81788:	e0bff017 	ldw	r2,-64(fp)
   8178c:	e0bfec15 	stw	r2,-80(fp)
   81790:	e0bff117 	ldw	r2,-60(fp)
   81794:	e0bfed15 	stw	r2,-76(fp)
   81798:	e0bfed17 	ldw	r2,-76(fp)
   8179c:	e0bfe115 	stw	r2,-124(fp)
	ix = hx&0x7fffffff;
   817a0:	e0ffe117 	ldw	r3,-124(fp)
   817a4:	00a00034 	movhi	r2,32768
   817a8:	10bfffc4 	addi	r2,r2,-1
   817ac:	1884703a 	and	r2,r3,r2
   817b0:	e0bfe215 	stw	r2,-120(fp)
	if(ix>=0x44100000) {	/* if |x| >= 2^66 */
   817b4:	e0ffe217 	ldw	r3,-120(fp)
   817b8:	00910434 	movhi	r2,17424
   817bc:	18804216 	blt	r3,r2,818c8 <atan+0x178>
	    __uint32_t low;
	    GET_LOW_WORD(low,x);
   817c0:	e0bff017 	ldw	r2,-64(fp)
   817c4:	e0bfee15 	stw	r2,-72(fp)
   817c8:	e0bff117 	ldw	r2,-60(fp)
   817cc:	e0bfef15 	stw	r2,-68(fp)
   817d0:	e0bfee17 	ldw	r2,-72(fp)
   817d4:	e0bfe315 	stw	r2,-116(fp)
	    if(ix>0x7ff00000||
   817d8:	e0bfe217 	ldw	r2,-120(fp)
   817dc:	00dffc34 	movhi	r3,32752
   817e0:	18800516 	blt	r3,r2,817f8 <atan+0xa8>
   817e4:	e0ffe217 	ldw	r3,-120(fp)
   817e8:	009ffc34 	movhi	r2,32752
   817ec:	18800e1e 	bne	r3,r2,81828 <atan+0xd8>
		(ix==0x7ff00000&&(low!=0)))
   817f0:	e0bfe317 	ldw	r2,-116(fp)
   817f4:	10000c26 	beq	r2,zero,81828 <atan+0xd8>
		return x+x;		/* NaN */
   817f8:	e0bff017 	ldw	r2,-64(fp)
   817fc:	e0fff117 	ldw	r3,-60(fp)
   81800:	100d883a 	mov	r6,r2
   81804:	180f883a 	mov	r7,r3
   81808:	1009883a 	mov	r4,r2
   8180c:	180b883a 	mov	r5,r3
   81810:	00823c80 	call	823c8 <__adddf3>
   81814:	1009883a 	mov	r4,r2
   81818:	180b883a 	mov	r5,r3
   8181c:	2021883a 	mov	r16,r4
   81820:	2823883a 	mov	r17,r5
   81824:	00023e06 	br	82120 <atan+0x9d0>
	    if(hx>0) return  atanhi[3]+atanlo[3];
   81828:	e0bfe117 	ldw	r2,-124(fp)
   8182c:	0080120e 	bge	zero,r2,81878 <atan+0x128>
   81830:	00951134 	movhi	r2,21572
   81834:	108b4604 	addi	r2,r2,11544
   81838:	00cffe74 	movhi	r3,16377
   8183c:	18c87ec4 	addi	r3,r3,8699
   81840:	010cc534 	movhi	r4,13076
   81844:	211701c4 	addi	r4,r4,23559
   81848:	014f24b4 	movhi	r5,15506
   8184c:	29698984 	addi	r5,r5,-23002
   81850:	200d883a 	mov	r6,r4
   81854:	280f883a 	mov	r7,r5
   81858:	1009883a 	mov	r4,r2
   8185c:	180b883a 	mov	r5,r3
   81860:	00823c80 	call	823c8 <__adddf3>
   81864:	1009883a 	mov	r4,r2
   81868:	180b883a 	mov	r5,r3
   8186c:	2021883a 	mov	r16,r4
   81870:	2823883a 	mov	r17,r5
   81874:	00022a06 	br	82120 <atan+0x9d0>
	    else     return -atanhi[3]-atanlo[3];
   81878:	00951134 	movhi	r2,21572
   8187c:	108b4604 	addi	r2,r2,11544
   81880:	00cffe74 	movhi	r3,16377
   81884:	18c87ec4 	addi	r3,r3,8699
   81888:	1011883a 	mov	r8,r2
   8188c:	1a60003c 	xorhi	r9,r3,32768
   81890:	008cc534 	movhi	r2,13076
   81894:	109701c4 	addi	r2,r2,23559
   81898:	00cf24b4 	movhi	r3,15506
   8189c:	18e98984 	addi	r3,r3,-23002
   818a0:	100d883a 	mov	r6,r2
   818a4:	180f883a 	mov	r7,r3
   818a8:	4009883a 	mov	r4,r8
   818ac:	480b883a 	mov	r5,r9
   818b0:	00840800 	call	84080 <__subdf3>
   818b4:	1009883a 	mov	r4,r2
   818b8:	180b883a 	mov	r5,r3
   818bc:	2021883a 	mov	r16,r4
   818c0:	2823883a 	mov	r17,r5
   818c4:	00021606 	br	82120 <atan+0x9d0>
	} if (ix < 0x3fdc0000) {	/* |x| < 0.4375 */
   818c8:	e0ffe217 	ldw	r3,-120(fp)
   818cc:	008ff734 	movhi	r2,16348
   818d0:	18801e0e 	bge	r3,r2,8194c <atan+0x1fc>
	    if (ix < 0x3e200000) {	/* |x| < 2^-29 */
   818d4:	e0ffe217 	ldw	r3,-120(fp)
   818d8:	008f8834 	movhi	r2,15904
   818dc:	1880180e 	bge	r3,r2,81940 <atan+0x1f0>
		if(huge+x>one) return x;	/* raise inexact */
   818e0:	00a20034 	movhi	r2,34816
   818e4:	109d6704 	addi	r2,r2,30108
   818e8:	00df8e34 	movhi	r3,32312
   818ec:	18f90f04 	addi	r3,r3,-7108
   818f0:	e1bff017 	ldw	r6,-64(fp)
   818f4:	e1fff117 	ldw	r7,-60(fp)
   818f8:	1009883a 	mov	r4,r2
   818fc:	180b883a 	mov	r5,r3
   81900:	00823c80 	call	823c8 <__adddf3>
   81904:	1009883a 	mov	r4,r2
   81908:	180b883a 	mov	r5,r3
   8190c:	2011883a 	mov	r8,r4
   81910:	2813883a 	mov	r9,r5
   81914:	0005883a 	mov	r2,zero
   81918:	00cffc34 	movhi	r3,16368
   8191c:	100d883a 	mov	r6,r2
   81920:	180f883a 	mov	r7,r3
   81924:	4009883a 	mov	r4,r8
   81928:	480b883a 	mov	r5,r9
   8192c:	00836440 	call	83644 <__gedf2>
   81930:	0080030e 	bge	zero,r2,81940 <atan+0x1f0>
   81934:	e43ff017 	ldw	r16,-64(fp)
   81938:	e47ff117 	ldw	r17,-60(fp)
   8193c:	0001f806 	br	82120 <atan+0x9d0>
	    }
	    id = -1;
   81940:	00bfffc4 	movi	r2,-1
   81944:	e0bfe015 	stw	r2,-128(fp)
   81948:	00008f06 	br	81b88 <atan+0x438>
	} else {
	x = fabs(x);
   8194c:	e13ff017 	ldw	r4,-64(fp)
   81950:	e17ff117 	ldw	r5,-60(fp)
   81954:	00821640 	call	82164 <fabs>
   81958:	e0bff015 	stw	r2,-64(fp)
   8195c:	e0fff115 	stw	r3,-60(fp)
	if (ix < 0x3ff30000) {		/* |x| < 1.1875 */
   81960:	e0ffe217 	ldw	r3,-120(fp)
   81964:	008ffcf4 	movhi	r2,16371
   81968:	18804f0e 	bge	r3,r2,81aa8 <atan+0x358>
	    if (ix < 0x3fe60000) {	/* 7/16 <=|x|<11/16 */
   8196c:	e0ffe217 	ldw	r3,-120(fp)
   81970:	008ff9b4 	movhi	r2,16358
   81974:	18802a0e 	bge	r3,r2,81a20 <atan+0x2d0>
		id = 0; x = (2.0*x-one)/(2.0+x); 
   81978:	e03fe015 	stw	zero,-128(fp)
   8197c:	e0bff017 	ldw	r2,-64(fp)
   81980:	e0fff117 	ldw	r3,-60(fp)
   81984:	100d883a 	mov	r6,r2
   81988:	180f883a 	mov	r7,r3
   8198c:	1009883a 	mov	r4,r2
   81990:	180b883a 	mov	r5,r3
   81994:	00823c80 	call	823c8 <__adddf3>
   81998:	1009883a 	mov	r4,r2
   8199c:	180b883a 	mov	r5,r3
   819a0:	2011883a 	mov	r8,r4
   819a4:	2813883a 	mov	r9,r5
   819a8:	0005883a 	mov	r2,zero
   819ac:	00cffc34 	movhi	r3,16368
   819b0:	100d883a 	mov	r6,r2
   819b4:	180f883a 	mov	r7,r3
   819b8:	4009883a 	mov	r4,r8
   819bc:	480b883a 	mov	r5,r9
   819c0:	00840800 	call	84080 <__subdf3>
   819c4:	1009883a 	mov	r4,r2
   819c8:	180b883a 	mov	r5,r3
   819cc:	2025883a 	mov	r18,r4
   819d0:	2827883a 	mov	r19,r5
   819d4:	000d883a 	mov	r6,zero
   819d8:	01d00034 	movhi	r7,16384
   819dc:	e13ff017 	ldw	r4,-64(fp)
   819e0:	e17ff117 	ldw	r5,-60(fp)
   819e4:	00823c80 	call	823c8 <__adddf3>
   819e8:	1009883a 	mov	r4,r2
   819ec:	180b883a 	mov	r5,r3
   819f0:	2005883a 	mov	r2,r4
   819f4:	2807883a 	mov	r3,r5
   819f8:	100d883a 	mov	r6,r2
   819fc:	180f883a 	mov	r7,r3
   81a00:	9009883a 	mov	r4,r18
   81a04:	980b883a 	mov	r5,r19
   81a08:	0082c740 	call	82c74 <__divdf3>
   81a0c:	1009883a 	mov	r4,r2
   81a10:	180b883a 	mov	r5,r3
   81a14:	e13ff015 	stw	r4,-64(fp)
   81a18:	e17ff115 	stw	r5,-60(fp)
   81a1c:	00005a06 	br	81b88 <atan+0x438>
	    } else {			/* 11/16<=|x|< 19/16 */
		id = 1; x  = (x-one)/(x+one); 
   81a20:	00800044 	movi	r2,1
   81a24:	e0bfe015 	stw	r2,-128(fp)
   81a28:	0005883a 	mov	r2,zero
   81a2c:	00cffc34 	movhi	r3,16368
   81a30:	100d883a 	mov	r6,r2
   81a34:	180f883a 	mov	r7,r3
   81a38:	e13ff017 	ldw	r4,-64(fp)
   81a3c:	e17ff117 	ldw	r5,-60(fp)
   81a40:	00840800 	call	84080 <__subdf3>
   81a44:	1009883a 	mov	r4,r2
   81a48:	180b883a 	mov	r5,r3
   81a4c:	2025883a 	mov	r18,r4
   81a50:	2827883a 	mov	r19,r5
   81a54:	0005883a 	mov	r2,zero
   81a58:	00cffc34 	movhi	r3,16368
   81a5c:	e1bff017 	ldw	r6,-64(fp)
   81a60:	e1fff117 	ldw	r7,-60(fp)
   81a64:	1009883a 	mov	r4,r2
   81a68:	180b883a 	mov	r5,r3
   81a6c:	00823c80 	call	823c8 <__adddf3>
   81a70:	1009883a 	mov	r4,r2
   81a74:	180b883a 	mov	r5,r3
   81a78:	2005883a 	mov	r2,r4
   81a7c:	2807883a 	mov	r3,r5
   81a80:	100d883a 	mov	r6,r2
   81a84:	180f883a 	mov	r7,r3
   81a88:	9009883a 	mov	r4,r18
   81a8c:	980b883a 	mov	r5,r19
   81a90:	0082c740 	call	82c74 <__divdf3>
   81a94:	1009883a 	mov	r4,r2
   81a98:	180b883a 	mov	r5,r3
   81a9c:	e13ff015 	stw	r4,-64(fp)
   81aa0:	e17ff115 	stw	r5,-60(fp)
   81aa4:	00003806 	br	81b88 <atan+0x438>
	    }
	} else {
	    if (ix < 0x40038000) {	/* |x| < 2.4375 */
   81aa8:	e0ffe217 	ldw	r3,-120(fp)
   81aac:	009000f4 	movhi	r2,16387
   81ab0:	109fffc4 	addi	r2,r2,32767
   81ab4:	10c02916 	blt	r2,r3,81b5c <atan+0x40c>
		id = 2; x  = (x-1.5)/(one+1.5*x);
   81ab8:	00800084 	movi	r2,2
   81abc:	e0bfe015 	stw	r2,-128(fp)
   81ac0:	000d883a 	mov	r6,zero
   81ac4:	01cffe34 	movhi	r7,16376
   81ac8:	e13ff017 	ldw	r4,-64(fp)
   81acc:	e17ff117 	ldw	r5,-60(fp)
   81ad0:	00840800 	call	84080 <__subdf3>
   81ad4:	1009883a 	mov	r4,r2
   81ad8:	180b883a 	mov	r5,r3
   81adc:	2025883a 	mov	r18,r4
   81ae0:	2827883a 	mov	r19,r5
   81ae4:	000d883a 	mov	r6,zero
   81ae8:	01cffe34 	movhi	r7,16376
   81aec:	e13ff017 	ldw	r4,-64(fp)
   81af0:	e17ff117 	ldw	r5,-60(fp)
   81af4:	00838140 	call	83814 <__muldf3>
   81af8:	1009883a 	mov	r4,r2
   81afc:	180b883a 	mov	r5,r3
   81b00:	2011883a 	mov	r8,r4
   81b04:	2813883a 	mov	r9,r5
   81b08:	0005883a 	mov	r2,zero
   81b0c:	00cffc34 	movhi	r3,16368
   81b10:	100d883a 	mov	r6,r2
   81b14:	180f883a 	mov	r7,r3
   81b18:	4009883a 	mov	r4,r8
   81b1c:	480b883a 	mov	r5,r9
   81b20:	00823c80 	call	823c8 <__adddf3>
   81b24:	1009883a 	mov	r4,r2
   81b28:	180b883a 	mov	r5,r3
   81b2c:	2005883a 	mov	r2,r4
   81b30:	2807883a 	mov	r3,r5
   81b34:	100d883a 	mov	r6,r2
   81b38:	180f883a 	mov	r7,r3
   81b3c:	9009883a 	mov	r4,r18
   81b40:	980b883a 	mov	r5,r19
   81b44:	0082c740 	call	82c74 <__divdf3>
   81b48:	1009883a 	mov	r4,r2
   81b4c:	180b883a 	mov	r5,r3
   81b50:	e13ff015 	stw	r4,-64(fp)
   81b54:	e17ff115 	stw	r5,-60(fp)
   81b58:	00000b06 	br	81b88 <atan+0x438>
	    } else {			/* 2.4375 <= |x| < 2^66 */
		id = 3; x  = -1.0/x;
   81b5c:	008000c4 	movi	r2,3
   81b60:	e0bfe015 	stw	r2,-128(fp)
   81b64:	e1bff017 	ldw	r6,-64(fp)
   81b68:	e1fff117 	ldw	r7,-60(fp)
   81b6c:	0009883a 	mov	r4,zero
   81b70:	016ffc34 	movhi	r5,49136
   81b74:	0082c740 	call	82c74 <__divdf3>
   81b78:	1009883a 	mov	r4,r2
   81b7c:	180b883a 	mov	r5,r3
   81b80:	e13ff015 	stw	r4,-64(fp)
   81b84:	e17ff115 	stw	r5,-60(fp)
	    }
	}}
    /* end of argument reduction */
	z = x*x;
   81b88:	e1bff017 	ldw	r6,-64(fp)
   81b8c:	e1fff117 	ldw	r7,-60(fp)
   81b90:	e13ff017 	ldw	r4,-64(fp)
   81b94:	e17ff117 	ldw	r5,-60(fp)
   81b98:	00838140 	call	83814 <__muldf3>
   81b9c:	1009883a 	mov	r4,r2
   81ba0:	180b883a 	mov	r5,r3
   81ba4:	e13fe415 	stw	r4,-112(fp)
   81ba8:	e17fe515 	stw	r5,-108(fp)
	w = z*z;
   81bac:	e1bfe417 	ldw	r6,-112(fp)
   81bb0:	e1ffe517 	ldw	r7,-108(fp)
   81bb4:	e13fe417 	ldw	r4,-112(fp)
   81bb8:	e17fe517 	ldw	r5,-108(fp)
   81bbc:	00838140 	call	83814 <__muldf3>
   81bc0:	1009883a 	mov	r4,r2
   81bc4:	180b883a 	mov	r5,r3
   81bc8:	e13fe615 	stw	r4,-104(fp)
   81bcc:	e17fe715 	stw	r5,-100(fp)
    /* break sum from i=0 to 10 aT[i]z**(i+1) into odd and even poly */
	s1 = z*(aT[0]+w*(aT[2]+w*(aT[4]+w*(aT[6]+w*(aT[8]+w*aT[10])))));
   81bd0:	04955574 	movhi	r18,21845
   81bd4:	94954344 	addi	r18,r18,21773
   81bd8:	04cff574 	movhi	r19,16341
   81bdc:	9cd55544 	addi	r19,r19,21845
   81be0:	05248074 	movhi	r20,37377
   81be4:	a520ffc4 	addi	r20,r20,-31745
   81be8:	054ff0b4 	movhi	r21,16322
   81bec:	ad524904 	addi	r21,r21,18724
   81bf0:	05b15334 	movhi	r22,50508
   81bf4:	b5881b84 	addi	r22,r22,8302
   81bf8:	05cfedf4 	movhi	r23,16311
   81bfc:	bdd17344 	addi	r23,r23,17869
   81c00:	00a83434 	movhi	r2,41168
   81c04:	e0bff215 	stw	r2,-56(fp)
   81c08:	e0bff217 	ldw	r2,-56(fp)
   81c0c:	108f5444 	addi	r2,r2,15697
   81c10:	e0bff215 	stw	r2,-56(fp)
   81c14:	008fec74 	movhi	r2,16305
   81c18:	e0bff315 	stw	r2,-52(fp)
   81c1c:	e0bff317 	ldw	r2,-52(fp)
   81c20:	10835984 	addi	r2,r2,3430
   81c24:	e0bff315 	stw	r2,-52(fp)
   81c28:	00891db4 	movhi	r2,9334
   81c2c:	e0bff415 	stw	r2,-48(fp)
   81c30:	e0bff417 	ldw	r2,-48(fp)
   81c34:	10837ac4 	addi	r2,r2,3563
   81c38:	e0bff415 	stw	r2,-48(fp)
   81c3c:	008fea74 	movhi	r2,16297
   81c40:	e0bff515 	stw	r2,-44(fp)
   81c44:	e0bff517 	ldw	r2,-44(fp)
   81c48:	109ed2c4 	addi	r2,r2,31563
   81c4c:	e0bff515 	stw	r2,-44(fp)
   81c50:	00b8c8f4 	movhi	r2,58147
   81c54:	10b68444 	addi	r2,r2,-9711
   81c58:	00cfe474 	movhi	r3,16273
   81c5c:	18eb4e84 	addi	r3,r3,-21190
   81c60:	e1bfe617 	ldw	r6,-104(fp)
   81c64:	e1ffe717 	ldw	r7,-100(fp)
   81c68:	1009883a 	mov	r4,r2
   81c6c:	180b883a 	mov	r5,r3
   81c70:	00838140 	call	83814 <__muldf3>
   81c74:	1009883a 	mov	r4,r2
   81c78:	180b883a 	mov	r5,r3
   81c7c:	2005883a 	mov	r2,r4
   81c80:	2807883a 	mov	r3,r5
   81c84:	100d883a 	mov	r6,r2
   81c88:	180f883a 	mov	r7,r3
   81c8c:	e13ff417 	ldw	r4,-48(fp)
   81c90:	e17ff517 	ldw	r5,-44(fp)
   81c94:	00823c80 	call	823c8 <__adddf3>
   81c98:	1009883a 	mov	r4,r2
   81c9c:	180b883a 	mov	r5,r3
   81ca0:	2005883a 	mov	r2,r4
   81ca4:	2807883a 	mov	r3,r5
   81ca8:	e1bfe617 	ldw	r6,-104(fp)
   81cac:	e1ffe717 	ldw	r7,-100(fp)
   81cb0:	1009883a 	mov	r4,r2
   81cb4:	180b883a 	mov	r5,r3
   81cb8:	00838140 	call	83814 <__muldf3>
   81cbc:	1009883a 	mov	r4,r2
   81cc0:	180b883a 	mov	r5,r3
   81cc4:	2005883a 	mov	r2,r4
   81cc8:	2807883a 	mov	r3,r5
   81ccc:	100d883a 	mov	r6,r2
   81cd0:	180f883a 	mov	r7,r3
   81cd4:	e13ff217 	ldw	r4,-56(fp)
   81cd8:	e17ff317 	ldw	r5,-52(fp)
   81cdc:	00823c80 	call	823c8 <__adddf3>
   81ce0:	1009883a 	mov	r4,r2
   81ce4:	180b883a 	mov	r5,r3
   81ce8:	2005883a 	mov	r2,r4
   81cec:	2807883a 	mov	r3,r5
   81cf0:	e1bfe617 	ldw	r6,-104(fp)
   81cf4:	e1ffe717 	ldw	r7,-100(fp)
   81cf8:	1009883a 	mov	r4,r2
   81cfc:	180b883a 	mov	r5,r3
   81d00:	00838140 	call	83814 <__muldf3>
   81d04:	1009883a 	mov	r4,r2
   81d08:	180b883a 	mov	r5,r3
   81d0c:	2005883a 	mov	r2,r4
   81d10:	2807883a 	mov	r3,r5
   81d14:	100d883a 	mov	r6,r2
   81d18:	180f883a 	mov	r7,r3
   81d1c:	b009883a 	mov	r4,r22
   81d20:	b80b883a 	mov	r5,r23
   81d24:	00823c80 	call	823c8 <__adddf3>
   81d28:	1009883a 	mov	r4,r2
   81d2c:	180b883a 	mov	r5,r3
   81d30:	2005883a 	mov	r2,r4
   81d34:	2807883a 	mov	r3,r5
   81d38:	e1bfe617 	ldw	r6,-104(fp)
   81d3c:	e1ffe717 	ldw	r7,-100(fp)
   81d40:	1009883a 	mov	r4,r2
   81d44:	180b883a 	mov	r5,r3
   81d48:	00838140 	call	83814 <__muldf3>
   81d4c:	1009883a 	mov	r4,r2
   81d50:	180b883a 	mov	r5,r3
   81d54:	2005883a 	mov	r2,r4
   81d58:	2807883a 	mov	r3,r5
   81d5c:	100d883a 	mov	r6,r2
   81d60:	180f883a 	mov	r7,r3
   81d64:	a009883a 	mov	r4,r20
   81d68:	a80b883a 	mov	r5,r21
   81d6c:	00823c80 	call	823c8 <__adddf3>
   81d70:	1009883a 	mov	r4,r2
   81d74:	180b883a 	mov	r5,r3
   81d78:	2005883a 	mov	r2,r4
   81d7c:	2807883a 	mov	r3,r5
   81d80:	e1bfe617 	ldw	r6,-104(fp)
   81d84:	e1ffe717 	ldw	r7,-100(fp)
   81d88:	1009883a 	mov	r4,r2
   81d8c:	180b883a 	mov	r5,r3
   81d90:	00838140 	call	83814 <__muldf3>
   81d94:	1009883a 	mov	r4,r2
   81d98:	180b883a 	mov	r5,r3
   81d9c:	2005883a 	mov	r2,r4
   81da0:	2807883a 	mov	r3,r5
   81da4:	100d883a 	mov	r6,r2
   81da8:	180f883a 	mov	r7,r3
   81dac:	9009883a 	mov	r4,r18
   81db0:	980b883a 	mov	r5,r19
   81db4:	00823c80 	call	823c8 <__adddf3>
   81db8:	1009883a 	mov	r4,r2
   81dbc:	180b883a 	mov	r5,r3
   81dc0:	2005883a 	mov	r2,r4
   81dc4:	2807883a 	mov	r3,r5
   81dc8:	e1bfe417 	ldw	r6,-112(fp)
   81dcc:	e1ffe517 	ldw	r7,-108(fp)
   81dd0:	1009883a 	mov	r4,r2
   81dd4:	180b883a 	mov	r5,r3
   81dd8:	00838140 	call	83814 <__muldf3>
   81ddc:	1009883a 	mov	r4,r2
   81de0:	180b883a 	mov	r5,r3
   81de4:	e13fe815 	stw	r4,-96(fp)
   81de8:	e17fe915 	stw	r5,-92(fp)
	s2 = w*(aT[1]+w*(aT[3]+w*(aT[5]+w*(aT[7]+w*aT[9]))));
   81dec:	04a66674 	movhi	r18,39321
   81df0:	94baf104 	addi	r18,r18,-5180
   81df4:	04eff2b4 	movhi	r19,49098
   81df8:	9ce66644 	addi	r19,r19,-26215
   81dfc:	053f88f4 	movhi	r20,65059
   81e00:	a5059c44 	addi	r20,r20,5745
   81e04:	056fef34 	movhi	r21,49084
   81e08:	ad5c7184 	addi	r21,r21,29126
   81e0c:	05abdd74 	movhi	r22,44917
   81e10:	b5a69b44 	addi	r22,r22,-26003
   81e14:	05efed34 	movhi	r23,49076
   81e18:	bdec3c84 	addi	r23,r23,-20238
   81e1c:	0094b7f4 	movhi	r2,21215
   81e20:	e0bff615 	stw	r2,-40(fp)
   81e24:	e0bff617 	ldw	r2,-40(fp)
   81e28:	10bf6684 	addi	r2,r2,-614
   81e2c:	e0bff615 	stw	r2,-40(fp)
   81e30:	00afebb4 	movhi	r2,49070
   81e34:	e0bff715 	stw	r2,-36(fp)
   81e38:	e0bff717 	ldw	r2,-36(fp)
   81e3c:	10b78b44 	addi	r2,r2,-8659
   81e40:	e0bff715 	stw	r2,-36(fp)
   81e44:	008b1ab4 	movhi	r2,11370
   81e48:	109b0bc4 	addi	r2,r2,27695
   81e4c:	00efe8f4 	movhi	r3,49059
   81e50:	18ed1104 	addi	r3,r3,-19388
   81e54:	e1bfe617 	ldw	r6,-104(fp)
   81e58:	e1ffe717 	ldw	r7,-100(fp)
   81e5c:	1009883a 	mov	r4,r2
   81e60:	180b883a 	mov	r5,r3
   81e64:	00838140 	call	83814 <__muldf3>
   81e68:	1009883a 	mov	r4,r2
   81e6c:	180b883a 	mov	r5,r3
   81e70:	2005883a 	mov	r2,r4
   81e74:	2807883a 	mov	r3,r5
   81e78:	100d883a 	mov	r6,r2
   81e7c:	180f883a 	mov	r7,r3
   81e80:	e13ff617 	ldw	r4,-40(fp)
   81e84:	e17ff717 	ldw	r5,-36(fp)
   81e88:	00823c80 	call	823c8 <__adddf3>
   81e8c:	1009883a 	mov	r4,r2
   81e90:	180b883a 	mov	r5,r3
   81e94:	2005883a 	mov	r2,r4
   81e98:	2807883a 	mov	r3,r5
   81e9c:	e1bfe617 	ldw	r6,-104(fp)
   81ea0:	e1ffe717 	ldw	r7,-100(fp)
   81ea4:	1009883a 	mov	r4,r2
   81ea8:	180b883a 	mov	r5,r3
   81eac:	00838140 	call	83814 <__muldf3>
   81eb0:	1009883a 	mov	r4,r2
   81eb4:	180b883a 	mov	r5,r3
   81eb8:	2005883a 	mov	r2,r4
   81ebc:	2807883a 	mov	r3,r5
   81ec0:	100d883a 	mov	r6,r2
   81ec4:	180f883a 	mov	r7,r3
   81ec8:	b009883a 	mov	r4,r22
   81ecc:	b80b883a 	mov	r5,r23
   81ed0:	00823c80 	call	823c8 <__adddf3>
   81ed4:	1009883a 	mov	r4,r2
   81ed8:	180b883a 	mov	r5,r3
   81edc:	2005883a 	mov	r2,r4
   81ee0:	2807883a 	mov	r3,r5
   81ee4:	e1bfe617 	ldw	r6,-104(fp)
   81ee8:	e1ffe717 	ldw	r7,-100(fp)
   81eec:	1009883a 	mov	r4,r2
   81ef0:	180b883a 	mov	r5,r3
   81ef4:	00838140 	call	83814 <__muldf3>
   81ef8:	1009883a 	mov	r4,r2
   81efc:	180b883a 	mov	r5,r3
   81f00:	2005883a 	mov	r2,r4
   81f04:	2807883a 	mov	r3,r5
   81f08:	100d883a 	mov	r6,r2
   81f0c:	180f883a 	mov	r7,r3
   81f10:	a009883a 	mov	r4,r20
   81f14:	a80b883a 	mov	r5,r21
   81f18:	00823c80 	call	823c8 <__adddf3>
   81f1c:	1009883a 	mov	r4,r2
   81f20:	180b883a 	mov	r5,r3
   81f24:	2005883a 	mov	r2,r4
   81f28:	2807883a 	mov	r3,r5
   81f2c:	e1bfe617 	ldw	r6,-104(fp)
   81f30:	e1ffe717 	ldw	r7,-100(fp)
   81f34:	1009883a 	mov	r4,r2
   81f38:	180b883a 	mov	r5,r3
   81f3c:	00838140 	call	83814 <__muldf3>
   81f40:	1009883a 	mov	r4,r2
   81f44:	180b883a 	mov	r5,r3
   81f48:	2005883a 	mov	r2,r4
   81f4c:	2807883a 	mov	r3,r5
   81f50:	100d883a 	mov	r6,r2
   81f54:	180f883a 	mov	r7,r3
   81f58:	9009883a 	mov	r4,r18
   81f5c:	980b883a 	mov	r5,r19
   81f60:	00823c80 	call	823c8 <__adddf3>
   81f64:	1009883a 	mov	r4,r2
   81f68:	180b883a 	mov	r5,r3
   81f6c:	2005883a 	mov	r2,r4
   81f70:	2807883a 	mov	r3,r5
   81f74:	e1bfe617 	ldw	r6,-104(fp)
   81f78:	e1ffe717 	ldw	r7,-100(fp)
   81f7c:	1009883a 	mov	r4,r2
   81f80:	180b883a 	mov	r5,r3
   81f84:	00838140 	call	83814 <__muldf3>
   81f88:	1009883a 	mov	r4,r2
   81f8c:	180b883a 	mov	r5,r3
   81f90:	e13fea15 	stw	r4,-88(fp)
   81f94:	e17feb15 	stw	r5,-84(fp)
	if (id<0) return x - x*(s1+s2);
   81f98:	e0bfe017 	ldw	r2,-128(fp)
   81f9c:	10001c0e 	bge	r2,zero,82010 <atan+0x8c0>
   81fa0:	e1bfea17 	ldw	r6,-88(fp)
   81fa4:	e1ffeb17 	ldw	r7,-84(fp)
   81fa8:	e13fe817 	ldw	r4,-96(fp)
   81fac:	e17fe917 	ldw	r5,-92(fp)
   81fb0:	00823c80 	call	823c8 <__adddf3>
   81fb4:	1009883a 	mov	r4,r2
   81fb8:	180b883a 	mov	r5,r3
   81fbc:	2005883a 	mov	r2,r4
   81fc0:	2807883a 	mov	r3,r5
   81fc4:	e1bff017 	ldw	r6,-64(fp)
   81fc8:	e1fff117 	ldw	r7,-60(fp)
   81fcc:	1009883a 	mov	r4,r2
   81fd0:	180b883a 	mov	r5,r3
   81fd4:	00838140 	call	83814 <__muldf3>
   81fd8:	1009883a 	mov	r4,r2
   81fdc:	180b883a 	mov	r5,r3
   81fe0:	2005883a 	mov	r2,r4
   81fe4:	2807883a 	mov	r3,r5
   81fe8:	100d883a 	mov	r6,r2
   81fec:	180f883a 	mov	r7,r3
   81ff0:	e13ff017 	ldw	r4,-64(fp)
   81ff4:	e17ff117 	ldw	r5,-60(fp)
   81ff8:	00840800 	call	84080 <__subdf3>
   81ffc:	1009883a 	mov	r4,r2
   82000:	180b883a 	mov	r5,r3
   82004:	2021883a 	mov	r16,r4
   82008:	2823883a 	mov	r17,r5
   8200c:	00004406 	br	82120 <atan+0x9d0>
	else {
	    z = atanhi[id] - ((x*(s1+s2) - atanlo[id]) - x);
   82010:	008002b4 	movhi	r2,10
   82014:	10833a04 	addi	r2,r2,3304
   82018:	e0ffe017 	ldw	r3,-128(fp)
   8201c:	180690fa 	slli	r3,r3,3
   82020:	10c5883a 	add	r2,r2,r3
   82024:	14800017 	ldw	r18,0(r2)
   82028:	14c00117 	ldw	r19,4(r2)
   8202c:	e1bfea17 	ldw	r6,-88(fp)
   82030:	e1ffeb17 	ldw	r7,-84(fp)
   82034:	e13fe817 	ldw	r4,-96(fp)
   82038:	e17fe917 	ldw	r5,-92(fp)
   8203c:	00823c80 	call	823c8 <__adddf3>
   82040:	1009883a 	mov	r4,r2
   82044:	180b883a 	mov	r5,r3
   82048:	2005883a 	mov	r2,r4
   8204c:	2807883a 	mov	r3,r5
   82050:	e1bff017 	ldw	r6,-64(fp)
   82054:	e1fff117 	ldw	r7,-60(fp)
   82058:	1009883a 	mov	r4,r2
   8205c:	180b883a 	mov	r5,r3
   82060:	00838140 	call	83814 <__muldf3>
   82064:	1009883a 	mov	r4,r2
   82068:	180b883a 	mov	r5,r3
   8206c:	2011883a 	mov	r8,r4
   82070:	2813883a 	mov	r9,r5
   82074:	008002b4 	movhi	r2,10
   82078:	10834204 	addi	r2,r2,3336
   8207c:	e0ffe017 	ldw	r3,-128(fp)
   82080:	180690fa 	slli	r3,r3,3
   82084:	10c9883a 	add	r4,r2,r3
   82088:	20800017 	ldw	r2,0(r4)
   8208c:	20c00117 	ldw	r3,4(r4)
   82090:	100d883a 	mov	r6,r2
   82094:	180f883a 	mov	r7,r3
   82098:	4009883a 	mov	r4,r8
   8209c:	480b883a 	mov	r5,r9
   820a0:	00840800 	call	84080 <__subdf3>
   820a4:	1009883a 	mov	r4,r2
   820a8:	180b883a 	mov	r5,r3
   820ac:	2005883a 	mov	r2,r4
   820b0:	2807883a 	mov	r3,r5
   820b4:	e1bff017 	ldw	r6,-64(fp)
   820b8:	e1fff117 	ldw	r7,-60(fp)
   820bc:	1009883a 	mov	r4,r2
   820c0:	180b883a 	mov	r5,r3
   820c4:	00840800 	call	84080 <__subdf3>
   820c8:	1009883a 	mov	r4,r2
   820cc:	180b883a 	mov	r5,r3
   820d0:	2005883a 	mov	r2,r4
   820d4:	2807883a 	mov	r3,r5
   820d8:	100d883a 	mov	r6,r2
   820dc:	180f883a 	mov	r7,r3
   820e0:	9009883a 	mov	r4,r18
   820e4:	980b883a 	mov	r5,r19
   820e8:	00840800 	call	84080 <__subdf3>
   820ec:	1009883a 	mov	r4,r2
   820f0:	180b883a 	mov	r5,r3
   820f4:	e13fe415 	stw	r4,-112(fp)
   820f8:	e17fe515 	stw	r5,-108(fp)
	    return (hx<0)? -z:z;
   820fc:	e0bfe117 	ldw	r2,-124(fp)
   82100:	1000040e 	bge	r2,zero,82114 <atan+0x9c4>
   82104:	e43fe417 	ldw	r16,-112(fp)
   82108:	e0bfe517 	ldw	r2,-108(fp)
   8210c:	1460003c 	xorhi	r17,r2,32768
   82110:	00000206 	br	8211c <atan+0x9cc>
   82114:	e43fe417 	ldw	r16,-112(fp)
   82118:	e47fe517 	ldw	r17,-108(fp)
   8211c:	0001883a 	nop
   82120:	8007883a 	mov	r3,r16
   82124:	8809883a 	mov	r4,r17
	}
}
   82128:	1805883a 	mov	r2,r3
   8212c:	2007883a 	mov	r3,r4
   82130:	e6fff804 	addi	sp,fp,-32
   82134:	dfc00917 	ldw	ra,36(sp)
   82138:	df000817 	ldw	fp,32(sp)
   8213c:	ddc00717 	ldw	r23,28(sp)
   82140:	dd800617 	ldw	r22,24(sp)
   82144:	dd400517 	ldw	r21,20(sp)
   82148:	dd000417 	ldw	r20,16(sp)
   8214c:	dcc00317 	ldw	r19,12(sp)
   82150:	dc800217 	ldw	r18,8(sp)
   82154:	dc400117 	ldw	r17,4(sp)
   82158:	dc000017 	ldw	r16,0(sp)
   8215c:	dec00a04 	addi	sp,sp,40
   82160:	f800283a 	ret

00082164 <fabs>:
	double fabs(double x)
#else
	double fabs(x)
	double x;
#endif
{
   82164:	defff804 	addi	sp,sp,-32
   82168:	df000715 	stw	fp,28(sp)
   8216c:	df000704 	addi	fp,sp,28
   82170:	e13ffe15 	stw	r4,-8(fp)
   82174:	e17fff15 	stw	r5,-4(fp)
	__uint32_t high;
	GET_HIGH_WORD(high,x);
   82178:	e0bffe17 	ldw	r2,-8(fp)
   8217c:	e0bffa15 	stw	r2,-24(fp)
   82180:	e0bfff17 	ldw	r2,-4(fp)
   82184:	e0bffb15 	stw	r2,-20(fp)
   82188:	e0bffb17 	ldw	r2,-20(fp)
   8218c:	e0bff915 	stw	r2,-28(fp)
	SET_HIGH_WORD(x,high&0x7fffffff);
   82190:	e0bffe17 	ldw	r2,-8(fp)
   82194:	e0bffc15 	stw	r2,-16(fp)
   82198:	e0bfff17 	ldw	r2,-4(fp)
   8219c:	e0bffd15 	stw	r2,-12(fp)
   821a0:	e0fff917 	ldw	r3,-28(fp)
   821a4:	00a00034 	movhi	r2,32768
   821a8:	10bfffc4 	addi	r2,r2,-1
   821ac:	1884703a 	and	r2,r3,r2
   821b0:	e0bffd15 	stw	r2,-12(fp)
   821b4:	e0bffc17 	ldw	r2,-16(fp)
   821b8:	e0bffe15 	stw	r2,-8(fp)
   821bc:	e0bffd17 	ldw	r2,-12(fp)
   821c0:	e0bfff15 	stw	r2,-4(fp)
        return x;
   821c4:	e0bffe17 	ldw	r2,-8(fp)
   821c8:	e0ffff17 	ldw	r3,-4(fp)
   821cc:	1009883a 	mov	r4,r2
   821d0:	180b883a 	mov	r5,r3
}
   821d4:	2005883a 	mov	r2,r4
   821d8:	2807883a 	mov	r3,r5
   821dc:	e037883a 	mov	sp,fp
   821e0:	df000017 	ldw	fp,0(sp)
   821e4:	dec00104 	addi	sp,sp,4
   821e8:	f800283a 	ret

000821ec <__divsi3>:
   821ec:	20001b16 	blt	r4,zero,8225c <__divsi3+0x70>
   821f0:	000f883a 	mov	r7,zero
   821f4:	28001616 	blt	r5,zero,82250 <__divsi3+0x64>
   821f8:	200d883a 	mov	r6,r4
   821fc:	29001a2e 	bgeu	r5,r4,82268 <__divsi3+0x7c>
   82200:	00800804 	movi	r2,32
   82204:	00c00044 	movi	r3,1
   82208:	00000106 	br	82210 <__divsi3+0x24>
   8220c:	10000d26 	beq	r2,zero,82244 <__divsi3+0x58>
   82210:	294b883a 	add	r5,r5,r5
   82214:	10bfffc4 	addi	r2,r2,-1
   82218:	18c7883a 	add	r3,r3,r3
   8221c:	293ffb36 	bltu	r5,r4,8220c <__alt_data_end+0xfffd020c>
   82220:	0005883a 	mov	r2,zero
   82224:	18000726 	beq	r3,zero,82244 <__divsi3+0x58>
   82228:	0005883a 	mov	r2,zero
   8222c:	31400236 	bltu	r6,r5,82238 <__divsi3+0x4c>
   82230:	314dc83a 	sub	r6,r6,r5
   82234:	10c4b03a 	or	r2,r2,r3
   82238:	1806d07a 	srli	r3,r3,1
   8223c:	280ad07a 	srli	r5,r5,1
   82240:	183ffa1e 	bne	r3,zero,8222c <__alt_data_end+0xfffd022c>
   82244:	38000126 	beq	r7,zero,8224c <__divsi3+0x60>
   82248:	0085c83a 	sub	r2,zero,r2
   8224c:	f800283a 	ret
   82250:	014bc83a 	sub	r5,zero,r5
   82254:	39c0005c 	xori	r7,r7,1
   82258:	003fe706 	br	821f8 <__alt_data_end+0xfffd01f8>
   8225c:	0109c83a 	sub	r4,zero,r4
   82260:	01c00044 	movi	r7,1
   82264:	003fe306 	br	821f4 <__alt_data_end+0xfffd01f4>
   82268:	00c00044 	movi	r3,1
   8226c:	003fee06 	br	82228 <__alt_data_end+0xfffd0228>

00082270 <__modsi3>:
   82270:	20001716 	blt	r4,zero,822d0 <__modsi3+0x60>
   82274:	000f883a 	mov	r7,zero
   82278:	2005883a 	mov	r2,r4
   8227c:	28001216 	blt	r5,zero,822c8 <__modsi3+0x58>
   82280:	2900162e 	bgeu	r5,r4,822dc <__modsi3+0x6c>
   82284:	01800804 	movi	r6,32
   82288:	00c00044 	movi	r3,1
   8228c:	00000106 	br	82294 <__modsi3+0x24>
   82290:	30000a26 	beq	r6,zero,822bc <__modsi3+0x4c>
   82294:	294b883a 	add	r5,r5,r5
   82298:	31bfffc4 	addi	r6,r6,-1
   8229c:	18c7883a 	add	r3,r3,r3
   822a0:	293ffb36 	bltu	r5,r4,82290 <__alt_data_end+0xfffd0290>
   822a4:	18000526 	beq	r3,zero,822bc <__modsi3+0x4c>
   822a8:	1806d07a 	srli	r3,r3,1
   822ac:	11400136 	bltu	r2,r5,822b4 <__modsi3+0x44>
   822b0:	1145c83a 	sub	r2,r2,r5
   822b4:	280ad07a 	srli	r5,r5,1
   822b8:	183ffb1e 	bne	r3,zero,822a8 <__alt_data_end+0xfffd02a8>
   822bc:	38000126 	beq	r7,zero,822c4 <__modsi3+0x54>
   822c0:	0085c83a 	sub	r2,zero,r2
   822c4:	f800283a 	ret
   822c8:	014bc83a 	sub	r5,zero,r5
   822cc:	003fec06 	br	82280 <__alt_data_end+0xfffd0280>
   822d0:	0109c83a 	sub	r4,zero,r4
   822d4:	01c00044 	movi	r7,1
   822d8:	003fe706 	br	82278 <__alt_data_end+0xfffd0278>
   822dc:	00c00044 	movi	r3,1
   822e0:	003ff106 	br	822a8 <__alt_data_end+0xfffd02a8>

000822e4 <__udivsi3>:
   822e4:	200d883a 	mov	r6,r4
   822e8:	2900152e 	bgeu	r5,r4,82340 <__udivsi3+0x5c>
   822ec:	28001416 	blt	r5,zero,82340 <__udivsi3+0x5c>
   822f0:	00800804 	movi	r2,32
   822f4:	00c00044 	movi	r3,1
   822f8:	00000206 	br	82304 <__udivsi3+0x20>
   822fc:	10000e26 	beq	r2,zero,82338 <__udivsi3+0x54>
   82300:	28000516 	blt	r5,zero,82318 <__udivsi3+0x34>
   82304:	294b883a 	add	r5,r5,r5
   82308:	10bfffc4 	addi	r2,r2,-1
   8230c:	18c7883a 	add	r3,r3,r3
   82310:	293ffa36 	bltu	r5,r4,822fc <__alt_data_end+0xfffd02fc>
   82314:	18000826 	beq	r3,zero,82338 <__udivsi3+0x54>
   82318:	0005883a 	mov	r2,zero
   8231c:	31400236 	bltu	r6,r5,82328 <__udivsi3+0x44>
   82320:	314dc83a 	sub	r6,r6,r5
   82324:	10c4b03a 	or	r2,r2,r3
   82328:	1806d07a 	srli	r3,r3,1
   8232c:	280ad07a 	srli	r5,r5,1
   82330:	183ffa1e 	bne	r3,zero,8231c <__alt_data_end+0xfffd031c>
   82334:	f800283a 	ret
   82338:	0005883a 	mov	r2,zero
   8233c:	f800283a 	ret
   82340:	00c00044 	movi	r3,1
   82344:	003ff406 	br	82318 <__alt_data_end+0xfffd0318>

00082348 <__umodsi3>:
   82348:	2005883a 	mov	r2,r4
   8234c:	2900122e 	bgeu	r5,r4,82398 <__umodsi3+0x50>
   82350:	28001116 	blt	r5,zero,82398 <__umodsi3+0x50>
   82354:	01800804 	movi	r6,32
   82358:	00c00044 	movi	r3,1
   8235c:	00000206 	br	82368 <__umodsi3+0x20>
   82360:	30000c26 	beq	r6,zero,82394 <__umodsi3+0x4c>
   82364:	28000516 	blt	r5,zero,8237c <__umodsi3+0x34>
   82368:	294b883a 	add	r5,r5,r5
   8236c:	31bfffc4 	addi	r6,r6,-1
   82370:	18c7883a 	add	r3,r3,r3
   82374:	293ffa36 	bltu	r5,r4,82360 <__alt_data_end+0xfffd0360>
   82378:	18000626 	beq	r3,zero,82394 <__umodsi3+0x4c>
   8237c:	1806d07a 	srli	r3,r3,1
   82380:	11400136 	bltu	r2,r5,82388 <__umodsi3+0x40>
   82384:	1145c83a 	sub	r2,r2,r5
   82388:	280ad07a 	srli	r5,r5,1
   8238c:	183ffb1e 	bne	r3,zero,8237c <__alt_data_end+0xfffd037c>
   82390:	f800283a 	ret
   82394:	f800283a 	ret
   82398:	00c00044 	movi	r3,1
   8239c:	003ff706 	br	8237c <__alt_data_end+0xfffd037c>

000823a0 <__mulsi3>:
   823a0:	0005883a 	mov	r2,zero
   823a4:	20000726 	beq	r4,zero,823c4 <__mulsi3+0x24>
   823a8:	20c0004c 	andi	r3,r4,1
   823ac:	2008d07a 	srli	r4,r4,1
   823b0:	18000126 	beq	r3,zero,823b8 <__mulsi3+0x18>
   823b4:	1145883a 	add	r2,r2,r5
   823b8:	294b883a 	add	r5,r5,r5
   823bc:	203ffa1e 	bne	r4,zero,823a8 <__alt_data_end+0xfffd03a8>
   823c0:	f800283a 	ret
   823c4:	f800283a 	ret

000823c8 <__adddf3>:
   823c8:	02c00434 	movhi	r11,16
   823cc:	5affffc4 	addi	r11,r11,-1
   823d0:	2806d7fa 	srli	r3,r5,31
   823d4:	2ad4703a 	and	r10,r5,r11
   823d8:	3ad2703a 	and	r9,r7,r11
   823dc:	3804d53a 	srli	r2,r7,20
   823e0:	3018d77a 	srli	r12,r6,29
   823e4:	280ad53a 	srli	r5,r5,20
   823e8:	501490fa 	slli	r10,r10,3
   823ec:	2010d77a 	srli	r8,r4,29
   823f0:	481290fa 	slli	r9,r9,3
   823f4:	380ed7fa 	srli	r7,r7,31
   823f8:	defffb04 	addi	sp,sp,-20
   823fc:	dc800215 	stw	r18,8(sp)
   82400:	dc400115 	stw	r17,4(sp)
   82404:	dc000015 	stw	r16,0(sp)
   82408:	dfc00415 	stw	ra,16(sp)
   8240c:	dcc00315 	stw	r19,12(sp)
   82410:	1c803fcc 	andi	r18,r3,255
   82414:	2c01ffcc 	andi	r16,r5,2047
   82418:	5210b03a 	or	r8,r10,r8
   8241c:	202290fa 	slli	r17,r4,3
   82420:	1081ffcc 	andi	r2,r2,2047
   82424:	4b12b03a 	or	r9,r9,r12
   82428:	300c90fa 	slli	r6,r6,3
   8242c:	91c07526 	beq	r18,r7,82604 <__adddf3+0x23c>
   82430:	8087c83a 	sub	r3,r16,r2
   82434:	00c0ab0e 	bge	zero,r3,826e4 <__adddf3+0x31c>
   82438:	10002a1e 	bne	r2,zero,824e4 <__adddf3+0x11c>
   8243c:	4984b03a 	or	r2,r9,r6
   82440:	1000961e 	bne	r2,zero,8269c <__adddf3+0x2d4>
   82444:	888001cc 	andi	r2,r17,7
   82448:	10000726 	beq	r2,zero,82468 <__adddf3+0xa0>
   8244c:	888003cc 	andi	r2,r17,15
   82450:	00c00104 	movi	r3,4
   82454:	10c00426 	beq	r2,r3,82468 <__adddf3+0xa0>
   82458:	88c7883a 	add	r3,r17,r3
   8245c:	1c63803a 	cmpltu	r17,r3,r17
   82460:	4451883a 	add	r8,r8,r17
   82464:	1823883a 	mov	r17,r3
   82468:	4080202c 	andhi	r2,r8,128
   8246c:	10005926 	beq	r2,zero,825d4 <__adddf3+0x20c>
   82470:	84000044 	addi	r16,r16,1
   82474:	0081ffc4 	movi	r2,2047
   82478:	8080ba26 	beq	r16,r2,82764 <__adddf3+0x39c>
   8247c:	00bfe034 	movhi	r2,65408
   82480:	10bfffc4 	addi	r2,r2,-1
   82484:	4090703a 	and	r8,r8,r2
   82488:	4004977a 	slli	r2,r8,29
   8248c:	4010927a 	slli	r8,r8,9
   82490:	8822d0fa 	srli	r17,r17,3
   82494:	8401ffcc 	andi	r16,r16,2047
   82498:	4010d33a 	srli	r8,r8,12
   8249c:	9007883a 	mov	r3,r18
   824a0:	1444b03a 	or	r2,r2,r17
   824a4:	8401ffcc 	andi	r16,r16,2047
   824a8:	8020953a 	slli	r16,r16,20
   824ac:	18c03fcc 	andi	r3,r3,255
   824b0:	01000434 	movhi	r4,16
   824b4:	213fffc4 	addi	r4,r4,-1
   824b8:	180697fa 	slli	r3,r3,31
   824bc:	4110703a 	and	r8,r8,r4
   824c0:	4410b03a 	or	r8,r8,r16
   824c4:	40c6b03a 	or	r3,r8,r3
   824c8:	dfc00417 	ldw	ra,16(sp)
   824cc:	dcc00317 	ldw	r19,12(sp)
   824d0:	dc800217 	ldw	r18,8(sp)
   824d4:	dc400117 	ldw	r17,4(sp)
   824d8:	dc000017 	ldw	r16,0(sp)
   824dc:	dec00504 	addi	sp,sp,20
   824e0:	f800283a 	ret
   824e4:	0081ffc4 	movi	r2,2047
   824e8:	80bfd626 	beq	r16,r2,82444 <__alt_data_end+0xfffd0444>
   824ec:	4a402034 	orhi	r9,r9,128
   824f0:	00800e04 	movi	r2,56
   824f4:	10c09f16 	blt	r2,r3,82774 <__adddf3+0x3ac>
   824f8:	008007c4 	movi	r2,31
   824fc:	10c0c216 	blt	r2,r3,82808 <__adddf3+0x440>
   82500:	00800804 	movi	r2,32
   82504:	10c5c83a 	sub	r2,r2,r3
   82508:	488a983a 	sll	r5,r9,r2
   8250c:	30c8d83a 	srl	r4,r6,r3
   82510:	3084983a 	sll	r2,r6,r2
   82514:	48c6d83a 	srl	r3,r9,r3
   82518:	290cb03a 	or	r6,r5,r4
   8251c:	1004c03a 	cmpne	r2,r2,zero
   82520:	308cb03a 	or	r6,r6,r2
   82524:	898dc83a 	sub	r6,r17,r6
   82528:	89a3803a 	cmpltu	r17,r17,r6
   8252c:	40d1c83a 	sub	r8,r8,r3
   82530:	4451c83a 	sub	r8,r8,r17
   82534:	3023883a 	mov	r17,r6
   82538:	4080202c 	andhi	r2,r8,128
   8253c:	10002326 	beq	r2,zero,825cc <__adddf3+0x204>
   82540:	04c02034 	movhi	r19,128
   82544:	9cffffc4 	addi	r19,r19,-1
   82548:	44e6703a 	and	r19,r8,r19
   8254c:	98007626 	beq	r19,zero,82728 <__adddf3+0x360>
   82550:	9809883a 	mov	r4,r19
   82554:	0084d900 	call	84d90 <__clzsi2>
   82558:	10fffe04 	addi	r3,r2,-8
   8255c:	010007c4 	movi	r4,31
   82560:	20c07716 	blt	r4,r3,82740 <__adddf3+0x378>
   82564:	00800804 	movi	r2,32
   82568:	10c5c83a 	sub	r2,r2,r3
   8256c:	8884d83a 	srl	r2,r17,r2
   82570:	98d0983a 	sll	r8,r19,r3
   82574:	88e2983a 	sll	r17,r17,r3
   82578:	1204b03a 	or	r2,r2,r8
   8257c:	1c007416 	blt	r3,r16,82750 <__adddf3+0x388>
   82580:	1c21c83a 	sub	r16,r3,r16
   82584:	82000044 	addi	r8,r16,1
   82588:	00c007c4 	movi	r3,31
   8258c:	1a009116 	blt	r3,r8,827d4 <__adddf3+0x40c>
   82590:	00c00804 	movi	r3,32
   82594:	1a07c83a 	sub	r3,r3,r8
   82598:	8a08d83a 	srl	r4,r17,r8
   8259c:	88e2983a 	sll	r17,r17,r3
   825a0:	10c6983a 	sll	r3,r2,r3
   825a4:	1210d83a 	srl	r8,r2,r8
   825a8:	8804c03a 	cmpne	r2,r17,zero
   825ac:	1906b03a 	or	r3,r3,r4
   825b0:	18a2b03a 	or	r17,r3,r2
   825b4:	0021883a 	mov	r16,zero
   825b8:	003fa206 	br	82444 <__alt_data_end+0xfffd0444>
   825bc:	1890b03a 	or	r8,r3,r2
   825c0:	40017d26 	beq	r8,zero,82bb8 <__adddf3+0x7f0>
   825c4:	1011883a 	mov	r8,r2
   825c8:	1823883a 	mov	r17,r3
   825cc:	888001cc 	andi	r2,r17,7
   825d0:	103f9e1e 	bne	r2,zero,8244c <__alt_data_end+0xfffd044c>
   825d4:	4004977a 	slli	r2,r8,29
   825d8:	8822d0fa 	srli	r17,r17,3
   825dc:	4010d0fa 	srli	r8,r8,3
   825e0:	9007883a 	mov	r3,r18
   825e4:	1444b03a 	or	r2,r2,r17
   825e8:	0101ffc4 	movi	r4,2047
   825ec:	81002426 	beq	r16,r4,82680 <__adddf3+0x2b8>
   825f0:	8120703a 	and	r16,r16,r4
   825f4:	01000434 	movhi	r4,16
   825f8:	213fffc4 	addi	r4,r4,-1
   825fc:	4110703a 	and	r8,r8,r4
   82600:	003fa806 	br	824a4 <__alt_data_end+0xfffd04a4>
   82604:	8089c83a 	sub	r4,r16,r2
   82608:	01005e0e 	bge	zero,r4,82784 <__adddf3+0x3bc>
   8260c:	10002b26 	beq	r2,zero,826bc <__adddf3+0x2f4>
   82610:	0081ffc4 	movi	r2,2047
   82614:	80bf8b26 	beq	r16,r2,82444 <__alt_data_end+0xfffd0444>
   82618:	4a402034 	orhi	r9,r9,128
   8261c:	00800e04 	movi	r2,56
   82620:	1100a40e 	bge	r2,r4,828b4 <__adddf3+0x4ec>
   82624:	498cb03a 	or	r6,r9,r6
   82628:	300ac03a 	cmpne	r5,r6,zero
   8262c:	0013883a 	mov	r9,zero
   82630:	2c4b883a 	add	r5,r5,r17
   82634:	2c63803a 	cmpltu	r17,r5,r17
   82638:	4a11883a 	add	r8,r9,r8
   8263c:	8a11883a 	add	r8,r17,r8
   82640:	2823883a 	mov	r17,r5
   82644:	4080202c 	andhi	r2,r8,128
   82648:	103fe026 	beq	r2,zero,825cc <__alt_data_end+0xfffd05cc>
   8264c:	84000044 	addi	r16,r16,1
   82650:	0081ffc4 	movi	r2,2047
   82654:	8080d226 	beq	r16,r2,829a0 <__adddf3+0x5d8>
   82658:	00bfe034 	movhi	r2,65408
   8265c:	10bfffc4 	addi	r2,r2,-1
   82660:	4090703a 	and	r8,r8,r2
   82664:	880ad07a 	srli	r5,r17,1
   82668:	400897fa 	slli	r4,r8,31
   8266c:	88c0004c 	andi	r3,r17,1
   82670:	28e2b03a 	or	r17,r5,r3
   82674:	4010d07a 	srli	r8,r8,1
   82678:	2462b03a 	or	r17,r4,r17
   8267c:	003f7106 	br	82444 <__alt_data_end+0xfffd0444>
   82680:	4088b03a 	or	r4,r8,r2
   82684:	20014526 	beq	r4,zero,82b9c <__adddf3+0x7d4>
   82688:	01000434 	movhi	r4,16
   8268c:	42000234 	orhi	r8,r8,8
   82690:	213fffc4 	addi	r4,r4,-1
   82694:	4110703a 	and	r8,r8,r4
   82698:	003f8206 	br	824a4 <__alt_data_end+0xfffd04a4>
   8269c:	18ffffc4 	addi	r3,r3,-1
   826a0:	1800491e 	bne	r3,zero,827c8 <__adddf3+0x400>
   826a4:	898bc83a 	sub	r5,r17,r6
   826a8:	8963803a 	cmpltu	r17,r17,r5
   826ac:	4251c83a 	sub	r8,r8,r9
   826b0:	4451c83a 	sub	r8,r8,r17
   826b4:	2823883a 	mov	r17,r5
   826b8:	003f9f06 	br	82538 <__alt_data_end+0xfffd0538>
   826bc:	4984b03a 	or	r2,r9,r6
   826c0:	103f6026 	beq	r2,zero,82444 <__alt_data_end+0xfffd0444>
   826c4:	213fffc4 	addi	r4,r4,-1
   826c8:	2000931e 	bne	r4,zero,82918 <__adddf3+0x550>
   826cc:	898d883a 	add	r6,r17,r6
   826d0:	3463803a 	cmpltu	r17,r6,r17
   826d4:	4251883a 	add	r8,r8,r9
   826d8:	8a11883a 	add	r8,r17,r8
   826dc:	3023883a 	mov	r17,r6
   826e0:	003fd806 	br	82644 <__alt_data_end+0xfffd0644>
   826e4:	1800541e 	bne	r3,zero,82838 <__adddf3+0x470>
   826e8:	80800044 	addi	r2,r16,1
   826ec:	1081ffcc 	andi	r2,r2,2047
   826f0:	00c00044 	movi	r3,1
   826f4:	1880a00e 	bge	r3,r2,82978 <__adddf3+0x5b0>
   826f8:	8989c83a 	sub	r4,r17,r6
   826fc:	8905803a 	cmpltu	r2,r17,r4
   82700:	4267c83a 	sub	r19,r8,r9
   82704:	98a7c83a 	sub	r19,r19,r2
   82708:	9880202c 	andhi	r2,r19,128
   8270c:	10006326 	beq	r2,zero,8289c <__adddf3+0x4d4>
   82710:	3463c83a 	sub	r17,r6,r17
   82714:	4a07c83a 	sub	r3,r9,r8
   82718:	344d803a 	cmpltu	r6,r6,r17
   8271c:	19a7c83a 	sub	r19,r3,r6
   82720:	3825883a 	mov	r18,r7
   82724:	983f8a1e 	bne	r19,zero,82550 <__alt_data_end+0xfffd0550>
   82728:	8809883a 	mov	r4,r17
   8272c:	0084d900 	call	84d90 <__clzsi2>
   82730:	10800804 	addi	r2,r2,32
   82734:	10fffe04 	addi	r3,r2,-8
   82738:	010007c4 	movi	r4,31
   8273c:	20ff890e 	bge	r4,r3,82564 <__alt_data_end+0xfffd0564>
   82740:	10bff604 	addi	r2,r2,-40
   82744:	8884983a 	sll	r2,r17,r2
   82748:	0023883a 	mov	r17,zero
   8274c:	1c3f8c0e 	bge	r3,r16,82580 <__alt_data_end+0xfffd0580>
   82750:	023fe034 	movhi	r8,65408
   82754:	423fffc4 	addi	r8,r8,-1
   82758:	80e1c83a 	sub	r16,r16,r3
   8275c:	1210703a 	and	r8,r2,r8
   82760:	003f3806 	br	82444 <__alt_data_end+0xfffd0444>
   82764:	9007883a 	mov	r3,r18
   82768:	0011883a 	mov	r8,zero
   8276c:	0005883a 	mov	r2,zero
   82770:	003f4c06 	br	824a4 <__alt_data_end+0xfffd04a4>
   82774:	498cb03a 	or	r6,r9,r6
   82778:	300cc03a 	cmpne	r6,r6,zero
   8277c:	0007883a 	mov	r3,zero
   82780:	003f6806 	br	82524 <__alt_data_end+0xfffd0524>
   82784:	20009c1e 	bne	r4,zero,829f8 <__adddf3+0x630>
   82788:	80800044 	addi	r2,r16,1
   8278c:	1141ffcc 	andi	r5,r2,2047
   82790:	01000044 	movi	r4,1
   82794:	2140670e 	bge	r4,r5,82934 <__adddf3+0x56c>
   82798:	0101ffc4 	movi	r4,2047
   8279c:	11007f26 	beq	r2,r4,8299c <__adddf3+0x5d4>
   827a0:	898d883a 	add	r6,r17,r6
   827a4:	4247883a 	add	r3,r8,r9
   827a8:	3451803a 	cmpltu	r8,r6,r17
   827ac:	40d1883a 	add	r8,r8,r3
   827b0:	402297fa 	slli	r17,r8,31
   827b4:	300cd07a 	srli	r6,r6,1
   827b8:	4010d07a 	srli	r8,r8,1
   827bc:	1021883a 	mov	r16,r2
   827c0:	89a2b03a 	or	r17,r17,r6
   827c4:	003f1f06 	br	82444 <__alt_data_end+0xfffd0444>
   827c8:	0081ffc4 	movi	r2,2047
   827cc:	80bf481e 	bne	r16,r2,824f0 <__alt_data_end+0xfffd04f0>
   827d0:	003f1c06 	br	82444 <__alt_data_end+0xfffd0444>
   827d4:	843ff844 	addi	r16,r16,-31
   827d8:	01000804 	movi	r4,32
   827dc:	1406d83a 	srl	r3,r2,r16
   827e0:	41005026 	beq	r8,r4,82924 <__adddf3+0x55c>
   827e4:	01001004 	movi	r4,64
   827e8:	2211c83a 	sub	r8,r4,r8
   827ec:	1204983a 	sll	r2,r2,r8
   827f0:	88a2b03a 	or	r17,r17,r2
   827f4:	8822c03a 	cmpne	r17,r17,zero
   827f8:	1c62b03a 	or	r17,r3,r17
   827fc:	0011883a 	mov	r8,zero
   82800:	0021883a 	mov	r16,zero
   82804:	003f7106 	br	825cc <__alt_data_end+0xfffd05cc>
   82808:	193ff804 	addi	r4,r3,-32
   8280c:	00800804 	movi	r2,32
   82810:	4908d83a 	srl	r4,r9,r4
   82814:	18804526 	beq	r3,r2,8292c <__adddf3+0x564>
   82818:	00801004 	movi	r2,64
   8281c:	10c5c83a 	sub	r2,r2,r3
   82820:	4886983a 	sll	r3,r9,r2
   82824:	198cb03a 	or	r6,r3,r6
   82828:	300cc03a 	cmpne	r6,r6,zero
   8282c:	218cb03a 	or	r6,r4,r6
   82830:	0007883a 	mov	r3,zero
   82834:	003f3b06 	br	82524 <__alt_data_end+0xfffd0524>
   82838:	80002a26 	beq	r16,zero,828e4 <__adddf3+0x51c>
   8283c:	0101ffc4 	movi	r4,2047
   82840:	11006826 	beq	r2,r4,829e4 <__adddf3+0x61c>
   82844:	00c7c83a 	sub	r3,zero,r3
   82848:	42002034 	orhi	r8,r8,128
   8284c:	01000e04 	movi	r4,56
   82850:	20c07c16 	blt	r4,r3,82a44 <__adddf3+0x67c>
   82854:	010007c4 	movi	r4,31
   82858:	20c0da16 	blt	r4,r3,82bc4 <__adddf3+0x7fc>
   8285c:	01000804 	movi	r4,32
   82860:	20c9c83a 	sub	r4,r4,r3
   82864:	4114983a 	sll	r10,r8,r4
   82868:	88cad83a 	srl	r5,r17,r3
   8286c:	8908983a 	sll	r4,r17,r4
   82870:	40c6d83a 	srl	r3,r8,r3
   82874:	5162b03a 	or	r17,r10,r5
   82878:	2008c03a 	cmpne	r4,r4,zero
   8287c:	8922b03a 	or	r17,r17,r4
   82880:	3463c83a 	sub	r17,r6,r17
   82884:	48c7c83a 	sub	r3,r9,r3
   82888:	344d803a 	cmpltu	r6,r6,r17
   8288c:	1991c83a 	sub	r8,r3,r6
   82890:	1021883a 	mov	r16,r2
   82894:	3825883a 	mov	r18,r7
   82898:	003f2706 	br	82538 <__alt_data_end+0xfffd0538>
   8289c:	24d0b03a 	or	r8,r4,r19
   828a0:	40001b1e 	bne	r8,zero,82910 <__adddf3+0x548>
   828a4:	0005883a 	mov	r2,zero
   828a8:	0007883a 	mov	r3,zero
   828ac:	0021883a 	mov	r16,zero
   828b0:	003f4d06 	br	825e8 <__alt_data_end+0xfffd05e8>
   828b4:	008007c4 	movi	r2,31
   828b8:	11003c16 	blt	r2,r4,829ac <__adddf3+0x5e4>
   828bc:	00800804 	movi	r2,32
   828c0:	1105c83a 	sub	r2,r2,r4
   828c4:	488e983a 	sll	r7,r9,r2
   828c8:	310ad83a 	srl	r5,r6,r4
   828cc:	3084983a 	sll	r2,r6,r2
   828d0:	4912d83a 	srl	r9,r9,r4
   828d4:	394ab03a 	or	r5,r7,r5
   828d8:	1004c03a 	cmpne	r2,r2,zero
   828dc:	288ab03a 	or	r5,r5,r2
   828e0:	003f5306 	br	82630 <__alt_data_end+0xfffd0630>
   828e4:	4448b03a 	or	r4,r8,r17
   828e8:	20003e26 	beq	r4,zero,829e4 <__adddf3+0x61c>
   828ec:	00c6303a 	nor	r3,zero,r3
   828f0:	18003a1e 	bne	r3,zero,829dc <__adddf3+0x614>
   828f4:	3463c83a 	sub	r17,r6,r17
   828f8:	4a07c83a 	sub	r3,r9,r8
   828fc:	344d803a 	cmpltu	r6,r6,r17
   82900:	1991c83a 	sub	r8,r3,r6
   82904:	1021883a 	mov	r16,r2
   82908:	3825883a 	mov	r18,r7
   8290c:	003f0a06 	br	82538 <__alt_data_end+0xfffd0538>
   82910:	2023883a 	mov	r17,r4
   82914:	003f0d06 	br	8254c <__alt_data_end+0xfffd054c>
   82918:	0081ffc4 	movi	r2,2047
   8291c:	80bf3f1e 	bne	r16,r2,8261c <__alt_data_end+0xfffd061c>
   82920:	003ec806 	br	82444 <__alt_data_end+0xfffd0444>
   82924:	0005883a 	mov	r2,zero
   82928:	003fb106 	br	827f0 <__alt_data_end+0xfffd07f0>
   8292c:	0007883a 	mov	r3,zero
   82930:	003fbc06 	br	82824 <__alt_data_end+0xfffd0824>
   82934:	4444b03a 	or	r2,r8,r17
   82938:	8000871e 	bne	r16,zero,82b58 <__adddf3+0x790>
   8293c:	1000ba26 	beq	r2,zero,82c28 <__adddf3+0x860>
   82940:	4984b03a 	or	r2,r9,r6
   82944:	103ebf26 	beq	r2,zero,82444 <__alt_data_end+0xfffd0444>
   82948:	8985883a 	add	r2,r17,r6
   8294c:	4247883a 	add	r3,r8,r9
   82950:	1451803a 	cmpltu	r8,r2,r17
   82954:	40d1883a 	add	r8,r8,r3
   82958:	40c0202c 	andhi	r3,r8,128
   8295c:	1023883a 	mov	r17,r2
   82960:	183f1a26 	beq	r3,zero,825cc <__alt_data_end+0xfffd05cc>
   82964:	00bfe034 	movhi	r2,65408
   82968:	10bfffc4 	addi	r2,r2,-1
   8296c:	2021883a 	mov	r16,r4
   82970:	4090703a 	and	r8,r8,r2
   82974:	003eb306 	br	82444 <__alt_data_end+0xfffd0444>
   82978:	4444b03a 	or	r2,r8,r17
   8297c:	8000291e 	bne	r16,zero,82a24 <__adddf3+0x65c>
   82980:	10004b1e 	bne	r2,zero,82ab0 <__adddf3+0x6e8>
   82984:	4990b03a 	or	r8,r9,r6
   82988:	40008b26 	beq	r8,zero,82bb8 <__adddf3+0x7f0>
   8298c:	4811883a 	mov	r8,r9
   82990:	3023883a 	mov	r17,r6
   82994:	3825883a 	mov	r18,r7
   82998:	003eaa06 	br	82444 <__alt_data_end+0xfffd0444>
   8299c:	1021883a 	mov	r16,r2
   829a0:	0011883a 	mov	r8,zero
   829a4:	0005883a 	mov	r2,zero
   829a8:	003f0f06 	br	825e8 <__alt_data_end+0xfffd05e8>
   829ac:	217ff804 	addi	r5,r4,-32
   829b0:	00800804 	movi	r2,32
   829b4:	494ad83a 	srl	r5,r9,r5
   829b8:	20807d26 	beq	r4,r2,82bb0 <__adddf3+0x7e8>
   829bc:	00801004 	movi	r2,64
   829c0:	1109c83a 	sub	r4,r2,r4
   829c4:	4912983a 	sll	r9,r9,r4
   829c8:	498cb03a 	or	r6,r9,r6
   829cc:	300cc03a 	cmpne	r6,r6,zero
   829d0:	298ab03a 	or	r5,r5,r6
   829d4:	0013883a 	mov	r9,zero
   829d8:	003f1506 	br	82630 <__alt_data_end+0xfffd0630>
   829dc:	0101ffc4 	movi	r4,2047
   829e0:	113f9a1e 	bne	r2,r4,8284c <__alt_data_end+0xfffd084c>
   829e4:	4811883a 	mov	r8,r9
   829e8:	3023883a 	mov	r17,r6
   829ec:	1021883a 	mov	r16,r2
   829f0:	3825883a 	mov	r18,r7
   829f4:	003e9306 	br	82444 <__alt_data_end+0xfffd0444>
   829f8:	8000161e 	bne	r16,zero,82a54 <__adddf3+0x68c>
   829fc:	444ab03a 	or	r5,r8,r17
   82a00:	28005126 	beq	r5,zero,82b48 <__adddf3+0x780>
   82a04:	0108303a 	nor	r4,zero,r4
   82a08:	20004d1e 	bne	r4,zero,82b40 <__adddf3+0x778>
   82a0c:	89a3883a 	add	r17,r17,r6
   82a10:	4253883a 	add	r9,r8,r9
   82a14:	898d803a 	cmpltu	r6,r17,r6
   82a18:	3251883a 	add	r8,r6,r9
   82a1c:	1021883a 	mov	r16,r2
   82a20:	003f0806 	br	82644 <__alt_data_end+0xfffd0644>
   82a24:	1000301e 	bne	r2,zero,82ae8 <__adddf3+0x720>
   82a28:	4984b03a 	or	r2,r9,r6
   82a2c:	10007126 	beq	r2,zero,82bf4 <__adddf3+0x82c>
   82a30:	4811883a 	mov	r8,r9
   82a34:	3023883a 	mov	r17,r6
   82a38:	3825883a 	mov	r18,r7
   82a3c:	0401ffc4 	movi	r16,2047
   82a40:	003e8006 	br	82444 <__alt_data_end+0xfffd0444>
   82a44:	4462b03a 	or	r17,r8,r17
   82a48:	8822c03a 	cmpne	r17,r17,zero
   82a4c:	0007883a 	mov	r3,zero
   82a50:	003f8b06 	br	82880 <__alt_data_end+0xfffd0880>
   82a54:	0141ffc4 	movi	r5,2047
   82a58:	11403b26 	beq	r2,r5,82b48 <__adddf3+0x780>
   82a5c:	0109c83a 	sub	r4,zero,r4
   82a60:	42002034 	orhi	r8,r8,128
   82a64:	01400e04 	movi	r5,56
   82a68:	29006716 	blt	r5,r4,82c08 <__adddf3+0x840>
   82a6c:	014007c4 	movi	r5,31
   82a70:	29007016 	blt	r5,r4,82c34 <__adddf3+0x86c>
   82a74:	01400804 	movi	r5,32
   82a78:	290bc83a 	sub	r5,r5,r4
   82a7c:	4154983a 	sll	r10,r8,r5
   82a80:	890ed83a 	srl	r7,r17,r4
   82a84:	894a983a 	sll	r5,r17,r5
   82a88:	4108d83a 	srl	r4,r8,r4
   82a8c:	51e2b03a 	or	r17,r10,r7
   82a90:	280ac03a 	cmpne	r5,r5,zero
   82a94:	8962b03a 	or	r17,r17,r5
   82a98:	89a3883a 	add	r17,r17,r6
   82a9c:	2253883a 	add	r9,r4,r9
   82aa0:	898d803a 	cmpltu	r6,r17,r6
   82aa4:	3251883a 	add	r8,r6,r9
   82aa8:	1021883a 	mov	r16,r2
   82aac:	003ee506 	br	82644 <__alt_data_end+0xfffd0644>
   82ab0:	4984b03a 	or	r2,r9,r6
   82ab4:	103e6326 	beq	r2,zero,82444 <__alt_data_end+0xfffd0444>
   82ab8:	8987c83a 	sub	r3,r17,r6
   82abc:	88c9803a 	cmpltu	r4,r17,r3
   82ac0:	4245c83a 	sub	r2,r8,r9
   82ac4:	1105c83a 	sub	r2,r2,r4
   82ac8:	1100202c 	andhi	r4,r2,128
   82acc:	203ebb26 	beq	r4,zero,825bc <__alt_data_end+0xfffd05bc>
   82ad0:	3463c83a 	sub	r17,r6,r17
   82ad4:	4a07c83a 	sub	r3,r9,r8
   82ad8:	344d803a 	cmpltu	r6,r6,r17
   82adc:	1991c83a 	sub	r8,r3,r6
   82ae0:	3825883a 	mov	r18,r7
   82ae4:	003e5706 	br	82444 <__alt_data_end+0xfffd0444>
   82ae8:	4984b03a 	or	r2,r9,r6
   82aec:	10002e26 	beq	r2,zero,82ba8 <__adddf3+0x7e0>
   82af0:	4004d0fa 	srli	r2,r8,3
   82af4:	8822d0fa 	srli	r17,r17,3
   82af8:	4010977a 	slli	r8,r8,29
   82afc:	10c0022c 	andhi	r3,r2,8
   82b00:	4462b03a 	or	r17,r8,r17
   82b04:	18000826 	beq	r3,zero,82b28 <__adddf3+0x760>
   82b08:	4808d0fa 	srli	r4,r9,3
   82b0c:	20c0022c 	andhi	r3,r4,8
   82b10:	1800051e 	bne	r3,zero,82b28 <__adddf3+0x760>
   82b14:	300cd0fa 	srli	r6,r6,3
   82b18:	4806977a 	slli	r3,r9,29
   82b1c:	2005883a 	mov	r2,r4
   82b20:	3825883a 	mov	r18,r7
   82b24:	19a2b03a 	or	r17,r3,r6
   82b28:	8810d77a 	srli	r8,r17,29
   82b2c:	100490fa 	slli	r2,r2,3
   82b30:	882290fa 	slli	r17,r17,3
   82b34:	0401ffc4 	movi	r16,2047
   82b38:	4090b03a 	or	r8,r8,r2
   82b3c:	003e4106 	br	82444 <__alt_data_end+0xfffd0444>
   82b40:	0141ffc4 	movi	r5,2047
   82b44:	117fc71e 	bne	r2,r5,82a64 <__alt_data_end+0xfffd0a64>
   82b48:	4811883a 	mov	r8,r9
   82b4c:	3023883a 	mov	r17,r6
   82b50:	1021883a 	mov	r16,r2
   82b54:	003e3b06 	br	82444 <__alt_data_end+0xfffd0444>
   82b58:	10002f26 	beq	r2,zero,82c18 <__adddf3+0x850>
   82b5c:	4984b03a 	or	r2,r9,r6
   82b60:	10001126 	beq	r2,zero,82ba8 <__adddf3+0x7e0>
   82b64:	4004d0fa 	srli	r2,r8,3
   82b68:	8822d0fa 	srli	r17,r17,3
   82b6c:	4010977a 	slli	r8,r8,29
   82b70:	10c0022c 	andhi	r3,r2,8
   82b74:	4462b03a 	or	r17,r8,r17
   82b78:	183feb26 	beq	r3,zero,82b28 <__alt_data_end+0xfffd0b28>
   82b7c:	4808d0fa 	srli	r4,r9,3
   82b80:	20c0022c 	andhi	r3,r4,8
   82b84:	183fe81e 	bne	r3,zero,82b28 <__alt_data_end+0xfffd0b28>
   82b88:	300cd0fa 	srli	r6,r6,3
   82b8c:	4806977a 	slli	r3,r9,29
   82b90:	2005883a 	mov	r2,r4
   82b94:	19a2b03a 	or	r17,r3,r6
   82b98:	003fe306 	br	82b28 <__alt_data_end+0xfffd0b28>
   82b9c:	0011883a 	mov	r8,zero
   82ba0:	0005883a 	mov	r2,zero
   82ba4:	003e3f06 	br	824a4 <__alt_data_end+0xfffd04a4>
   82ba8:	0401ffc4 	movi	r16,2047
   82bac:	003e2506 	br	82444 <__alt_data_end+0xfffd0444>
   82bb0:	0013883a 	mov	r9,zero
   82bb4:	003f8406 	br	829c8 <__alt_data_end+0xfffd09c8>
   82bb8:	0005883a 	mov	r2,zero
   82bbc:	0007883a 	mov	r3,zero
   82bc0:	003e8906 	br	825e8 <__alt_data_end+0xfffd05e8>
   82bc4:	197ff804 	addi	r5,r3,-32
   82bc8:	01000804 	movi	r4,32
   82bcc:	414ad83a 	srl	r5,r8,r5
   82bd0:	19002426 	beq	r3,r4,82c64 <__adddf3+0x89c>
   82bd4:	01001004 	movi	r4,64
   82bd8:	20c7c83a 	sub	r3,r4,r3
   82bdc:	40c6983a 	sll	r3,r8,r3
   82be0:	1c46b03a 	or	r3,r3,r17
   82be4:	1806c03a 	cmpne	r3,r3,zero
   82be8:	28e2b03a 	or	r17,r5,r3
   82bec:	0007883a 	mov	r3,zero
   82bf0:	003f2306 	br	82880 <__alt_data_end+0xfffd0880>
   82bf4:	0007883a 	mov	r3,zero
   82bf8:	5811883a 	mov	r8,r11
   82bfc:	00bfffc4 	movi	r2,-1
   82c00:	0401ffc4 	movi	r16,2047
   82c04:	003e7806 	br	825e8 <__alt_data_end+0xfffd05e8>
   82c08:	4462b03a 	or	r17,r8,r17
   82c0c:	8822c03a 	cmpne	r17,r17,zero
   82c10:	0009883a 	mov	r4,zero
   82c14:	003fa006 	br	82a98 <__alt_data_end+0xfffd0a98>
   82c18:	4811883a 	mov	r8,r9
   82c1c:	3023883a 	mov	r17,r6
   82c20:	0401ffc4 	movi	r16,2047
   82c24:	003e0706 	br	82444 <__alt_data_end+0xfffd0444>
   82c28:	4811883a 	mov	r8,r9
   82c2c:	3023883a 	mov	r17,r6
   82c30:	003e0406 	br	82444 <__alt_data_end+0xfffd0444>
   82c34:	21fff804 	addi	r7,r4,-32
   82c38:	01400804 	movi	r5,32
   82c3c:	41ced83a 	srl	r7,r8,r7
   82c40:	21400a26 	beq	r4,r5,82c6c <__adddf3+0x8a4>
   82c44:	01401004 	movi	r5,64
   82c48:	2909c83a 	sub	r4,r5,r4
   82c4c:	4108983a 	sll	r4,r8,r4
   82c50:	2448b03a 	or	r4,r4,r17
   82c54:	2008c03a 	cmpne	r4,r4,zero
   82c58:	3922b03a 	or	r17,r7,r4
   82c5c:	0009883a 	mov	r4,zero
   82c60:	003f8d06 	br	82a98 <__alt_data_end+0xfffd0a98>
   82c64:	0007883a 	mov	r3,zero
   82c68:	003fdd06 	br	82be0 <__alt_data_end+0xfffd0be0>
   82c6c:	0009883a 	mov	r4,zero
   82c70:	003ff706 	br	82c50 <__alt_data_end+0xfffd0c50>

00082c74 <__divdf3>:
   82c74:	defff004 	addi	sp,sp,-64
   82c78:	dc800815 	stw	r18,32(sp)
   82c7c:	2824d53a 	srli	r18,r5,20
   82c80:	dd800c15 	stw	r22,48(sp)
   82c84:	282cd7fa 	srli	r22,r5,31
   82c88:	dc000615 	stw	r16,24(sp)
   82c8c:	04000434 	movhi	r16,16
   82c90:	843fffc4 	addi	r16,r16,-1
   82c94:	dfc00f15 	stw	ra,60(sp)
   82c98:	df000e15 	stw	fp,56(sp)
   82c9c:	ddc00d15 	stw	r23,52(sp)
   82ca0:	dd400b15 	stw	r21,44(sp)
   82ca4:	dd000a15 	stw	r20,40(sp)
   82ca8:	dcc00915 	stw	r19,36(sp)
   82cac:	dc400715 	stw	r17,28(sp)
   82cb0:	9481ffcc 	andi	r18,r18,2047
   82cb4:	2c20703a 	and	r16,r5,r16
   82cb8:	b2003fcc 	andi	r8,r22,255
   82cbc:	90006126 	beq	r18,zero,82e44 <__divdf3+0x1d0>
   82cc0:	0081ffc4 	movi	r2,2047
   82cc4:	202b883a 	mov	r21,r4
   82cc8:	90803726 	beq	r18,r2,82da8 <__divdf3+0x134>
   82ccc:	80800434 	orhi	r2,r16,16
   82cd0:	100490fa 	slli	r2,r2,3
   82cd4:	2020d77a 	srli	r16,r4,29
   82cd8:	202a90fa 	slli	r21,r4,3
   82cdc:	94bf0044 	addi	r18,r18,-1023
   82ce0:	80a0b03a 	or	r16,r16,r2
   82ce4:	0013883a 	mov	r9,zero
   82ce8:	000b883a 	mov	r5,zero
   82cec:	3806d53a 	srli	r3,r7,20
   82cf0:	382ed7fa 	srli	r23,r7,31
   82cf4:	04400434 	movhi	r17,16
   82cf8:	8c7fffc4 	addi	r17,r17,-1
   82cfc:	18c1ffcc 	andi	r3,r3,2047
   82d00:	3029883a 	mov	r20,r6
   82d04:	3c62703a 	and	r17,r7,r17
   82d08:	bf003fcc 	andi	fp,r23,255
   82d0c:	18006e26 	beq	r3,zero,82ec8 <__divdf3+0x254>
   82d10:	0081ffc4 	movi	r2,2047
   82d14:	18806626 	beq	r3,r2,82eb0 <__divdf3+0x23c>
   82d18:	88800434 	orhi	r2,r17,16
   82d1c:	100490fa 	slli	r2,r2,3
   82d20:	3022d77a 	srli	r17,r6,29
   82d24:	302890fa 	slli	r20,r6,3
   82d28:	18ff0044 	addi	r3,r3,-1023
   82d2c:	88a2b03a 	or	r17,r17,r2
   82d30:	000f883a 	mov	r7,zero
   82d34:	b5e6f03a 	xor	r19,r22,r23
   82d38:	3a4cb03a 	or	r6,r7,r9
   82d3c:	008003c4 	movi	r2,15
   82d40:	9809883a 	mov	r4,r19
   82d44:	90c7c83a 	sub	r3,r18,r3
   82d48:	9cc03fcc 	andi	r19,r19,255
   82d4c:	11809636 	bltu	r2,r6,82fa8 <__divdf3+0x334>
   82d50:	300c90ba 	slli	r6,r6,2
   82d54:	00800234 	movhi	r2,8
   82d58:	108b5a04 	addi	r2,r2,11624
   82d5c:	308d883a 	add	r6,r6,r2
   82d60:	30800017 	ldw	r2,0(r6)
   82d64:	1000683a 	jmp	r2
   82d68:	00082fa8 	cmpgeui	zero,zero,8382
   82d6c:	00082de0 	cmpeqi	zero,zero,8375
   82d70:	00082f98 	cmpnei	zero,zero,8382
   82d74:	00082dd4 	movui	zero,8375
   82d78:	00082f98 	cmpnei	zero,zero,8382
   82d7c:	00082f6c 	andhi	zero,zero,8381
   82d80:	00082f98 	cmpnei	zero,zero,8382
   82d84:	00082dd4 	movui	zero,8375
   82d88:	00082de0 	cmpeqi	zero,zero,8375
   82d8c:	00082de0 	cmpeqi	zero,zero,8375
   82d90:	00082f6c 	andhi	zero,zero,8381
   82d94:	00082dd4 	movui	zero,8375
   82d98:	00082dc4 	movi	zero,8375
   82d9c:	00082dc4 	movi	zero,8375
   82da0:	00082dc4 	movi	zero,8375
   82da4:	00083330 	cmpltui	zero,zero,8396
   82da8:	2404b03a 	or	r2,r4,r16
   82dac:	10006c1e 	bne	r2,zero,82f60 <__divdf3+0x2ec>
   82db0:	02400204 	movi	r9,8
   82db4:	0021883a 	mov	r16,zero
   82db8:	002b883a 	mov	r21,zero
   82dbc:	01400084 	movi	r5,2
   82dc0:	003fca06 	br	82cec <__alt_data_end+0xfffd0cec>
   82dc4:	8023883a 	mov	r17,r16
   82dc8:	a829883a 	mov	r20,r21
   82dcc:	4039883a 	mov	fp,r8
   82dd0:	280f883a 	mov	r7,r5
   82dd4:	00800084 	movi	r2,2
   82dd8:	3881601e 	bne	r7,r2,8335c <__divdf3+0x6e8>
   82ddc:	e027883a 	mov	r19,fp
   82de0:	9900004c 	andi	r4,r19,1
   82de4:	0081ffc4 	movi	r2,2047
   82de8:	0021883a 	mov	r16,zero
   82dec:	002b883a 	mov	r21,zero
   82df0:	1004953a 	slli	r2,r2,20
   82df4:	20c03fcc 	andi	r3,r4,255
   82df8:	01400434 	movhi	r5,16
   82dfc:	297fffc4 	addi	r5,r5,-1
   82e00:	180697fa 	slli	r3,r3,31
   82e04:	8160703a 	and	r16,r16,r5
   82e08:	80a0b03a 	or	r16,r16,r2
   82e0c:	80c6b03a 	or	r3,r16,r3
   82e10:	a805883a 	mov	r2,r21
   82e14:	dfc00f17 	ldw	ra,60(sp)
   82e18:	df000e17 	ldw	fp,56(sp)
   82e1c:	ddc00d17 	ldw	r23,52(sp)
   82e20:	dd800c17 	ldw	r22,48(sp)
   82e24:	dd400b17 	ldw	r21,44(sp)
   82e28:	dd000a17 	ldw	r20,40(sp)
   82e2c:	dcc00917 	ldw	r19,36(sp)
   82e30:	dc800817 	ldw	r18,32(sp)
   82e34:	dc400717 	ldw	r17,28(sp)
   82e38:	dc000617 	ldw	r16,24(sp)
   82e3c:	dec01004 	addi	sp,sp,64
   82e40:	f800283a 	ret
   82e44:	2404b03a 	or	r2,r4,r16
   82e48:	2023883a 	mov	r17,r4
   82e4c:	10003f26 	beq	r2,zero,82f4c <__divdf3+0x2d8>
   82e50:	80015e26 	beq	r16,zero,833cc <__divdf3+0x758>
   82e54:	8009883a 	mov	r4,r16
   82e58:	d9800215 	stw	r6,8(sp)
   82e5c:	d9c00515 	stw	r7,20(sp)
   82e60:	da000415 	stw	r8,16(sp)
   82e64:	0084d900 	call	84d90 <__clzsi2>
   82e68:	d9800217 	ldw	r6,8(sp)
   82e6c:	d9c00517 	ldw	r7,20(sp)
   82e70:	da000417 	ldw	r8,16(sp)
   82e74:	113ffd44 	addi	r4,r2,-11
   82e78:	00c00704 	movi	r3,28
   82e7c:	19014f16 	blt	r3,r4,833bc <__divdf3+0x748>
   82e80:	00c00744 	movi	r3,29
   82e84:	157ffe04 	addi	r21,r2,-8
   82e88:	1907c83a 	sub	r3,r3,r4
   82e8c:	8560983a 	sll	r16,r16,r21
   82e90:	88c6d83a 	srl	r3,r17,r3
   82e94:	8d6a983a 	sll	r21,r17,r21
   82e98:	1c20b03a 	or	r16,r3,r16
   82e9c:	1080fcc4 	addi	r2,r2,1011
   82ea0:	00a5c83a 	sub	r18,zero,r2
   82ea4:	0013883a 	mov	r9,zero
   82ea8:	000b883a 	mov	r5,zero
   82eac:	003f8f06 	br	82cec <__alt_data_end+0xfffd0cec>
   82eb0:	3444b03a 	or	r2,r6,r17
   82eb4:	1000231e 	bne	r2,zero,82f44 <__divdf3+0x2d0>
   82eb8:	0023883a 	mov	r17,zero
   82ebc:	0029883a 	mov	r20,zero
   82ec0:	01c00084 	movi	r7,2
   82ec4:	003f9b06 	br	82d34 <__alt_data_end+0xfffd0d34>
   82ec8:	3444b03a 	or	r2,r6,r17
   82ecc:	10001926 	beq	r2,zero,82f34 <__divdf3+0x2c0>
   82ed0:	88014b26 	beq	r17,zero,83400 <__divdf3+0x78c>
   82ed4:	8809883a 	mov	r4,r17
   82ed8:	d9400115 	stw	r5,4(sp)
   82edc:	d9800215 	stw	r6,8(sp)
   82ee0:	da000415 	stw	r8,16(sp)
   82ee4:	da400315 	stw	r9,12(sp)
   82ee8:	0084d900 	call	84d90 <__clzsi2>
   82eec:	d9400117 	ldw	r5,4(sp)
   82ef0:	d9800217 	ldw	r6,8(sp)
   82ef4:	da000417 	ldw	r8,16(sp)
   82ef8:	da400317 	ldw	r9,12(sp)
   82efc:	113ffd44 	addi	r4,r2,-11
   82f00:	00c00704 	movi	r3,28
   82f04:	19013a16 	blt	r3,r4,833f0 <__divdf3+0x77c>
   82f08:	00c00744 	movi	r3,29
   82f0c:	153ffe04 	addi	r20,r2,-8
   82f10:	1907c83a 	sub	r3,r3,r4
   82f14:	8d22983a 	sll	r17,r17,r20
   82f18:	30c6d83a 	srl	r3,r6,r3
   82f1c:	3528983a 	sll	r20,r6,r20
   82f20:	1c62b03a 	or	r17,r3,r17
   82f24:	1080fcc4 	addi	r2,r2,1011
   82f28:	0087c83a 	sub	r3,zero,r2
   82f2c:	000f883a 	mov	r7,zero
   82f30:	003f8006 	br	82d34 <__alt_data_end+0xfffd0d34>
   82f34:	0023883a 	mov	r17,zero
   82f38:	0029883a 	mov	r20,zero
   82f3c:	01c00044 	movi	r7,1
   82f40:	003f7c06 	br	82d34 <__alt_data_end+0xfffd0d34>
   82f44:	01c000c4 	movi	r7,3
   82f48:	003f7a06 	br	82d34 <__alt_data_end+0xfffd0d34>
   82f4c:	02400104 	movi	r9,4
   82f50:	0021883a 	mov	r16,zero
   82f54:	002b883a 	mov	r21,zero
   82f58:	01400044 	movi	r5,1
   82f5c:	003f6306 	br	82cec <__alt_data_end+0xfffd0cec>
   82f60:	02400304 	movi	r9,12
   82f64:	014000c4 	movi	r5,3
   82f68:	003f6006 	br	82cec <__alt_data_end+0xfffd0cec>
   82f6c:	04000434 	movhi	r16,16
   82f70:	0009883a 	mov	r4,zero
   82f74:	843fffc4 	addi	r16,r16,-1
   82f78:	057fffc4 	movi	r21,-1
   82f7c:	0081ffc4 	movi	r2,2047
   82f80:	003f9b06 	br	82df0 <__alt_data_end+0xfffd0df0>
   82f84:	00c00044 	movi	r3,1
   82f88:	1887c83a 	sub	r3,r3,r2
   82f8c:	01000e04 	movi	r4,56
   82f90:	20c1530e 	bge	r4,r3,834e0 <__divdf3+0x86c>
   82f94:	9900004c 	andi	r4,r19,1
   82f98:	0005883a 	mov	r2,zero
   82f9c:	0021883a 	mov	r16,zero
   82fa0:	002b883a 	mov	r21,zero
   82fa4:	003f9206 	br	82df0 <__alt_data_end+0xfffd0df0>
   82fa8:	8c012e36 	bltu	r17,r16,83464 <__divdf3+0x7f0>
   82fac:	84412c26 	beq	r16,r17,83460 <__divdf3+0x7ec>
   82fb0:	a82f883a 	mov	r23,r21
   82fb4:	18ffffc4 	addi	r3,r3,-1
   82fb8:	002b883a 	mov	r21,zero
   82fbc:	a004d63a 	srli	r2,r20,24
   82fc0:	8822923a 	slli	r17,r17,8
   82fc4:	a028923a 	slli	r20,r20,8
   82fc8:	8009883a 	mov	r4,r16
   82fcc:	88acb03a 	or	r22,r17,r2
   82fd0:	dd000015 	stw	r20,0(sp)
   82fd4:	b028d43a 	srli	r20,r22,16
   82fd8:	d8c00215 	stw	r3,8(sp)
   82fdc:	b4bfffcc 	andi	r18,r22,65535
   82fe0:	a00b883a 	mov	r5,r20
   82fe4:	00822e40 	call	822e4 <__udivsi3>
   82fe8:	100b883a 	mov	r5,r2
   82fec:	9009883a 	mov	r4,r18
   82ff0:	1023883a 	mov	r17,r2
   82ff4:	00823a00 	call	823a0 <__mulsi3>
   82ff8:	8009883a 	mov	r4,r16
   82ffc:	a00b883a 	mov	r5,r20
   83000:	1039883a 	mov	fp,r2
   83004:	00823480 	call	82348 <__umodsi3>
   83008:	1004943a 	slli	r2,r2,16
   8300c:	b808d43a 	srli	r4,r23,16
   83010:	d8c00217 	ldw	r3,8(sp)
   83014:	2084b03a 	or	r2,r4,r2
   83018:	1700062e 	bgeu	r2,fp,83034 <__divdf3+0x3c0>
   8301c:	1585883a 	add	r2,r2,r22
   83020:	893fffc4 	addi	r4,r17,-1
   83024:	15811d36 	bltu	r2,r22,8349c <__divdf3+0x828>
   83028:	17011c2e 	bgeu	r2,fp,8349c <__divdf3+0x828>
   8302c:	8c7fff84 	addi	r17,r17,-2
   83030:	1585883a 	add	r2,r2,r22
   83034:	1739c83a 	sub	fp,r2,fp
   83038:	a00b883a 	mov	r5,r20
   8303c:	e009883a 	mov	r4,fp
   83040:	d8c00215 	stw	r3,8(sp)
   83044:	00822e40 	call	822e4 <__udivsi3>
   83048:	100b883a 	mov	r5,r2
   8304c:	9009883a 	mov	r4,r18
   83050:	1021883a 	mov	r16,r2
   83054:	00823a00 	call	823a0 <__mulsi3>
   83058:	a00b883a 	mov	r5,r20
   8305c:	e009883a 	mov	r4,fp
   83060:	d8800415 	stw	r2,16(sp)
   83064:	00823480 	call	82348 <__umodsi3>
   83068:	1004943a 	slli	r2,r2,16
   8306c:	da000417 	ldw	r8,16(sp)
   83070:	bdffffcc 	andi	r23,r23,65535
   83074:	b884b03a 	or	r2,r23,r2
   83078:	d8c00217 	ldw	r3,8(sp)
   8307c:	1200062e 	bgeu	r2,r8,83098 <__divdf3+0x424>
   83080:	1585883a 	add	r2,r2,r22
   83084:	813fffc4 	addi	r4,r16,-1
   83088:	15810236 	bltu	r2,r22,83494 <__divdf3+0x820>
   8308c:	1201012e 	bgeu	r2,r8,83494 <__divdf3+0x820>
   83090:	843fff84 	addi	r16,r16,-2
   83094:	1585883a 	add	r2,r2,r22
   83098:	8822943a 	slli	r17,r17,16
   8309c:	d9800017 	ldw	r6,0(sp)
   830a0:	1211c83a 	sub	r8,r2,r8
   830a4:	8c22b03a 	or	r17,r17,r16
   830a8:	373fffcc 	andi	fp,r6,65535
   830ac:	8abfffcc 	andi	r10,r17,65535
   830b0:	8820d43a 	srli	r16,r17,16
   830b4:	5009883a 	mov	r4,r10
   830b8:	e00b883a 	mov	r5,fp
   830bc:	302ed43a 	srli	r23,r6,16
   830c0:	d8c00215 	stw	r3,8(sp)
   830c4:	da000415 	stw	r8,16(sp)
   830c8:	da800115 	stw	r10,4(sp)
   830cc:	00823a00 	call	823a0 <__mulsi3>
   830d0:	800b883a 	mov	r5,r16
   830d4:	e009883a 	mov	r4,fp
   830d8:	d8800515 	stw	r2,20(sp)
   830dc:	00823a00 	call	823a0 <__mulsi3>
   830e0:	8009883a 	mov	r4,r16
   830e4:	b80b883a 	mov	r5,r23
   830e8:	d8800315 	stw	r2,12(sp)
   830ec:	00823a00 	call	823a0 <__mulsi3>
   830f0:	da800117 	ldw	r10,4(sp)
   830f4:	b80b883a 	mov	r5,r23
   830f8:	1021883a 	mov	r16,r2
   830fc:	5009883a 	mov	r4,r10
   83100:	00823a00 	call	823a0 <__mulsi3>
   83104:	d9c00517 	ldw	r7,20(sp)
   83108:	da400317 	ldw	r9,12(sp)
   8310c:	d8c00217 	ldw	r3,8(sp)
   83110:	3808d43a 	srli	r4,r7,16
   83114:	1245883a 	add	r2,r2,r9
   83118:	da000417 	ldw	r8,16(sp)
   8311c:	2085883a 	add	r2,r4,r2
   83120:	1240022e 	bgeu	r2,r9,8312c <__divdf3+0x4b8>
   83124:	01000074 	movhi	r4,1
   83128:	8121883a 	add	r16,r16,r4
   8312c:	1008d43a 	srli	r4,r2,16
   83130:	1004943a 	slli	r2,r2,16
   83134:	39ffffcc 	andi	r7,r7,65535
   83138:	2409883a 	add	r4,r4,r16
   8313c:	11c5883a 	add	r2,r2,r7
   83140:	4100bb36 	bltu	r8,r4,83430 <__divdf3+0x7bc>
   83144:	4100d726 	beq	r8,r4,834a4 <__divdf3+0x830>
   83148:	4109c83a 	sub	r4,r8,r4
   8314c:	a8a1c83a 	sub	r16,r21,r2
   83150:	ac2b803a 	cmpltu	r21,r21,r16
   83154:	256bc83a 	sub	r21,r4,r21
   83158:	b540d926 	beq	r22,r21,834c0 <__divdf3+0x84c>
   8315c:	a00b883a 	mov	r5,r20
   83160:	a809883a 	mov	r4,r21
   83164:	d8c00215 	stw	r3,8(sp)
   83168:	00822e40 	call	822e4 <__udivsi3>
   8316c:	100b883a 	mov	r5,r2
   83170:	9009883a 	mov	r4,r18
   83174:	d8800515 	stw	r2,20(sp)
   83178:	00823a00 	call	823a0 <__mulsi3>
   8317c:	a809883a 	mov	r4,r21
   83180:	a00b883a 	mov	r5,r20
   83184:	d8800415 	stw	r2,16(sp)
   83188:	00823480 	call	82348 <__umodsi3>
   8318c:	1004943a 	slli	r2,r2,16
   83190:	8008d43a 	srli	r4,r16,16
   83194:	da000417 	ldw	r8,16(sp)
   83198:	d8c00217 	ldw	r3,8(sp)
   8319c:	2084b03a 	or	r2,r4,r2
   831a0:	d9c00517 	ldw	r7,20(sp)
   831a4:	1200062e 	bgeu	r2,r8,831c0 <__divdf3+0x54c>
   831a8:	1585883a 	add	r2,r2,r22
   831ac:	393fffc4 	addi	r4,r7,-1
   831b0:	1580c536 	bltu	r2,r22,834c8 <__divdf3+0x854>
   831b4:	1200c42e 	bgeu	r2,r8,834c8 <__divdf3+0x854>
   831b8:	39ffff84 	addi	r7,r7,-2
   831bc:	1585883a 	add	r2,r2,r22
   831c0:	122bc83a 	sub	r21,r2,r8
   831c4:	a00b883a 	mov	r5,r20
   831c8:	a809883a 	mov	r4,r21
   831cc:	d8c00215 	stw	r3,8(sp)
   831d0:	d9c00515 	stw	r7,20(sp)
   831d4:	00822e40 	call	822e4 <__udivsi3>
   831d8:	9009883a 	mov	r4,r18
   831dc:	100b883a 	mov	r5,r2
   831e0:	d8800415 	stw	r2,16(sp)
   831e4:	00823a00 	call	823a0 <__mulsi3>
   831e8:	a809883a 	mov	r4,r21
   831ec:	a00b883a 	mov	r5,r20
   831f0:	1025883a 	mov	r18,r2
   831f4:	00823480 	call	82348 <__umodsi3>
   831f8:	1004943a 	slli	r2,r2,16
   831fc:	813fffcc 	andi	r4,r16,65535
   83200:	d8c00217 	ldw	r3,8(sp)
   83204:	20a0b03a 	or	r16,r4,r2
   83208:	d9c00517 	ldw	r7,20(sp)
   8320c:	da000417 	ldw	r8,16(sp)
   83210:	8480062e 	bgeu	r16,r18,8322c <__divdf3+0x5b8>
   83214:	85a1883a 	add	r16,r16,r22
   83218:	40bfffc4 	addi	r2,r8,-1
   8321c:	8580ac36 	bltu	r16,r22,834d0 <__divdf3+0x85c>
   83220:	8480ab2e 	bgeu	r16,r18,834d0 <__divdf3+0x85c>
   83224:	423fff84 	addi	r8,r8,-2
   83228:	85a1883a 	add	r16,r16,r22
   8322c:	3804943a 	slli	r2,r7,16
   83230:	84a1c83a 	sub	r16,r16,r18
   83234:	e009883a 	mov	r4,fp
   83238:	1228b03a 	or	r20,r2,r8
   8323c:	a1ffffcc 	andi	r7,r20,65535
   83240:	a024d43a 	srli	r18,r20,16
   83244:	380b883a 	mov	r5,r7
   83248:	d8c00215 	stw	r3,8(sp)
   8324c:	d9c00515 	stw	r7,20(sp)
   83250:	00823a00 	call	823a0 <__mulsi3>
   83254:	900b883a 	mov	r5,r18
   83258:	e009883a 	mov	r4,fp
   8325c:	102b883a 	mov	r21,r2
   83260:	00823a00 	call	823a0 <__mulsi3>
   83264:	900b883a 	mov	r5,r18
   83268:	b809883a 	mov	r4,r23
   8326c:	1039883a 	mov	fp,r2
   83270:	00823a00 	call	823a0 <__mulsi3>
   83274:	d9c00517 	ldw	r7,20(sp)
   83278:	b80b883a 	mov	r5,r23
   8327c:	1025883a 	mov	r18,r2
   83280:	3809883a 	mov	r4,r7
   83284:	00823a00 	call	823a0 <__mulsi3>
   83288:	a808d43a 	srli	r4,r21,16
   8328c:	1705883a 	add	r2,r2,fp
   83290:	d8c00217 	ldw	r3,8(sp)
   83294:	2085883a 	add	r2,r4,r2
   83298:	1700022e 	bgeu	r2,fp,832a4 <__divdf3+0x630>
   8329c:	01000074 	movhi	r4,1
   832a0:	9125883a 	add	r18,r18,r4
   832a4:	1008d43a 	srli	r4,r2,16
   832a8:	1004943a 	slli	r2,r2,16
   832ac:	ad7fffcc 	andi	r21,r21,65535
   832b0:	2489883a 	add	r4,r4,r18
   832b4:	1545883a 	add	r2,r2,r21
   832b8:	81003836 	bltu	r16,r4,8339c <__divdf3+0x728>
   832bc:	81003626 	beq	r16,r4,83398 <__divdf3+0x724>
   832c0:	a5000054 	ori	r20,r20,1
   832c4:	1880ffc4 	addi	r2,r3,1023
   832c8:	00bf2e0e 	bge	zero,r2,82f84 <__alt_data_end+0xfffd0f84>
   832cc:	a10001cc 	andi	r4,r20,7
   832d0:	20000726 	beq	r4,zero,832f0 <__divdf3+0x67c>
   832d4:	a10003cc 	andi	r4,r20,15
   832d8:	01400104 	movi	r5,4
   832dc:	21400426 	beq	r4,r5,832f0 <__divdf3+0x67c>
   832e0:	a149883a 	add	r4,r20,r5
   832e4:	2529803a 	cmpltu	r20,r4,r20
   832e8:	8d23883a 	add	r17,r17,r20
   832ec:	2029883a 	mov	r20,r4
   832f0:	8900402c 	andhi	r4,r17,256
   832f4:	20000426 	beq	r4,zero,83308 <__divdf3+0x694>
   832f8:	18810004 	addi	r2,r3,1024
   832fc:	00ffc034 	movhi	r3,65280
   83300:	18ffffc4 	addi	r3,r3,-1
   83304:	88e2703a 	and	r17,r17,r3
   83308:	00c1ff84 	movi	r3,2046
   8330c:	18beb416 	blt	r3,r2,82de0 <__alt_data_end+0xfffd0de0>
   83310:	a028d0fa 	srli	r20,r20,3
   83314:	882a977a 	slli	r21,r17,29
   83318:	8820927a 	slli	r16,r17,9
   8331c:	1081ffcc 	andi	r2,r2,2047
   83320:	ad2ab03a 	or	r21,r21,r20
   83324:	8020d33a 	srli	r16,r16,12
   83328:	9900004c 	andi	r4,r19,1
   8332c:	003eb006 	br	82df0 <__alt_data_end+0xfffd0df0>
   83330:	8080022c 	andhi	r2,r16,8
   83334:	10001226 	beq	r2,zero,83380 <__divdf3+0x70c>
   83338:	8880022c 	andhi	r2,r17,8
   8333c:	1000101e 	bne	r2,zero,83380 <__divdf3+0x70c>
   83340:	00800434 	movhi	r2,16
   83344:	8c000234 	orhi	r16,r17,8
   83348:	10bfffc4 	addi	r2,r2,-1
   8334c:	b809883a 	mov	r4,r23
   83350:	80a0703a 	and	r16,r16,r2
   83354:	a02b883a 	mov	r21,r20
   83358:	003f0806 	br	82f7c <__alt_data_end+0xfffd0f7c>
   8335c:	008000c4 	movi	r2,3
   83360:	3880b126 	beq	r7,r2,83628 <__divdf3+0x9b4>
   83364:	00800044 	movi	r2,1
   83368:	38805b1e 	bne	r7,r2,834d8 <__divdf3+0x864>
   8336c:	e009883a 	mov	r4,fp
   83370:	0005883a 	mov	r2,zero
   83374:	0021883a 	mov	r16,zero
   83378:	002b883a 	mov	r21,zero
   8337c:	003e9c06 	br	82df0 <__alt_data_end+0xfffd0df0>
   83380:	00800434 	movhi	r2,16
   83384:	84000234 	orhi	r16,r16,8
   83388:	10bfffc4 	addi	r2,r2,-1
   8338c:	b009883a 	mov	r4,r22
   83390:	80a0703a 	and	r16,r16,r2
   83394:	003ef906 	br	82f7c <__alt_data_end+0xfffd0f7c>
   83398:	103fca26 	beq	r2,zero,832c4 <__alt_data_end+0xfffd12c4>
   8339c:	b421883a 	add	r16,r22,r16
   833a0:	a17fffc4 	addi	r5,r20,-1
   833a4:	8580422e 	bgeu	r16,r22,834b0 <__divdf3+0x83c>
   833a8:	2829883a 	mov	r20,r5
   833ac:	813fc41e 	bne	r16,r4,832c0 <__alt_data_end+0xfffd12c0>
   833b0:	d9800017 	ldw	r6,0(sp)
   833b4:	30bfc21e 	bne	r6,r2,832c0 <__alt_data_end+0xfffd12c0>
   833b8:	003fc206 	br	832c4 <__alt_data_end+0xfffd12c4>
   833bc:	143ff604 	addi	r16,r2,-40
   833c0:	8c20983a 	sll	r16,r17,r16
   833c4:	002b883a 	mov	r21,zero
   833c8:	003eb406 	br	82e9c <__alt_data_end+0xfffd0e9c>
   833cc:	d9800215 	stw	r6,8(sp)
   833d0:	d9c00515 	stw	r7,20(sp)
   833d4:	da000415 	stw	r8,16(sp)
   833d8:	0084d900 	call	84d90 <__clzsi2>
   833dc:	10800804 	addi	r2,r2,32
   833e0:	da000417 	ldw	r8,16(sp)
   833e4:	d9c00517 	ldw	r7,20(sp)
   833e8:	d9800217 	ldw	r6,8(sp)
   833ec:	003ea106 	br	82e74 <__alt_data_end+0xfffd0e74>
   833f0:	147ff604 	addi	r17,r2,-40
   833f4:	3462983a 	sll	r17,r6,r17
   833f8:	0029883a 	mov	r20,zero
   833fc:	003ec906 	br	82f24 <__alt_data_end+0xfffd0f24>
   83400:	3009883a 	mov	r4,r6
   83404:	d9400115 	stw	r5,4(sp)
   83408:	d9800215 	stw	r6,8(sp)
   8340c:	da000415 	stw	r8,16(sp)
   83410:	da400315 	stw	r9,12(sp)
   83414:	0084d900 	call	84d90 <__clzsi2>
   83418:	10800804 	addi	r2,r2,32
   8341c:	da400317 	ldw	r9,12(sp)
   83420:	da000417 	ldw	r8,16(sp)
   83424:	d9800217 	ldw	r6,8(sp)
   83428:	d9400117 	ldw	r5,4(sp)
   8342c:	003eb306 	br	82efc <__alt_data_end+0xfffd0efc>
   83430:	d9800017 	ldw	r6,0(sp)
   83434:	a9ab883a 	add	r21,r21,r6
   83438:	a98b803a 	cmpltu	r5,r21,r6
   8343c:	2d8b883a 	add	r5,r5,r22
   83440:	2a11883a 	add	r8,r5,r8
   83444:	897fffc4 	addi	r5,r17,-1
   83448:	b2000c2e 	bgeu	r22,r8,8347c <__divdf3+0x808>
   8344c:	41003f36 	bltu	r8,r4,8354c <__divdf3+0x8d8>
   83450:	22006c26 	beq	r4,r8,83604 <__divdf3+0x990>
   83454:	4109c83a 	sub	r4,r8,r4
   83458:	2823883a 	mov	r17,r5
   8345c:	003f3b06 	br	8314c <__alt_data_end+0xfffd114c>
   83460:	ad3ed336 	bltu	r21,r20,82fb0 <__alt_data_end+0xfffd0fb0>
   83464:	a804d07a 	srli	r2,r21,1
   83468:	802e97fa 	slli	r23,r16,31
   8346c:	a82a97fa 	slli	r21,r21,31
   83470:	8020d07a 	srli	r16,r16,1
   83474:	b8aeb03a 	or	r23,r23,r2
   83478:	003ed006 	br	82fbc <__alt_data_end+0xfffd0fbc>
   8347c:	b23ff51e 	bne	r22,r8,83454 <__alt_data_end+0xfffd1454>
   83480:	d9800017 	ldw	r6,0(sp)
   83484:	a9bff12e 	bgeu	r21,r6,8344c <__alt_data_end+0xfffd144c>
   83488:	b109c83a 	sub	r4,r22,r4
   8348c:	2823883a 	mov	r17,r5
   83490:	003f2e06 	br	8314c <__alt_data_end+0xfffd114c>
   83494:	2021883a 	mov	r16,r4
   83498:	003eff06 	br	83098 <__alt_data_end+0xfffd1098>
   8349c:	2023883a 	mov	r17,r4
   834a0:	003ee406 	br	83034 <__alt_data_end+0xfffd1034>
   834a4:	a8bfe236 	bltu	r21,r2,83430 <__alt_data_end+0xfffd1430>
   834a8:	0009883a 	mov	r4,zero
   834ac:	003f2706 	br	8314c <__alt_data_end+0xfffd114c>
   834b0:	81002d36 	bltu	r16,r4,83568 <__divdf3+0x8f4>
   834b4:	24005626 	beq	r4,r16,83610 <__divdf3+0x99c>
   834b8:	2829883a 	mov	r20,r5
   834bc:	003f8006 	br	832c0 <__alt_data_end+0xfffd12c0>
   834c0:	053fffc4 	movi	r20,-1
   834c4:	003f7f06 	br	832c4 <__alt_data_end+0xfffd12c4>
   834c8:	200f883a 	mov	r7,r4
   834cc:	003f3c06 	br	831c0 <__alt_data_end+0xfffd11c0>
   834d0:	1011883a 	mov	r8,r2
   834d4:	003f5506 	br	8322c <__alt_data_end+0xfffd122c>
   834d8:	e027883a 	mov	r19,fp
   834dc:	003f7906 	br	832c4 <__alt_data_end+0xfffd12c4>
   834e0:	010007c4 	movi	r4,31
   834e4:	20c02816 	blt	r4,r3,83588 <__divdf3+0x914>
   834e8:	00800804 	movi	r2,32
   834ec:	10c5c83a 	sub	r2,r2,r3
   834f0:	888a983a 	sll	r5,r17,r2
   834f4:	a0c8d83a 	srl	r4,r20,r3
   834f8:	a084983a 	sll	r2,r20,r2
   834fc:	88e2d83a 	srl	r17,r17,r3
   83500:	2906b03a 	or	r3,r5,r4
   83504:	1004c03a 	cmpne	r2,r2,zero
   83508:	1886b03a 	or	r3,r3,r2
   8350c:	188001cc 	andi	r2,r3,7
   83510:	10000726 	beq	r2,zero,83530 <__divdf3+0x8bc>
   83514:	188003cc 	andi	r2,r3,15
   83518:	01000104 	movi	r4,4
   8351c:	11000426 	beq	r2,r4,83530 <__divdf3+0x8bc>
   83520:	1805883a 	mov	r2,r3
   83524:	10c00104 	addi	r3,r2,4
   83528:	1885803a 	cmpltu	r2,r3,r2
   8352c:	88a3883a 	add	r17,r17,r2
   83530:	8880202c 	andhi	r2,r17,128
   83534:	10002926 	beq	r2,zero,835dc <__divdf3+0x968>
   83538:	9900004c 	andi	r4,r19,1
   8353c:	00800044 	movi	r2,1
   83540:	0021883a 	mov	r16,zero
   83544:	002b883a 	mov	r21,zero
   83548:	003e2906 	br	82df0 <__alt_data_end+0xfffd0df0>
   8354c:	d9800017 	ldw	r6,0(sp)
   83550:	8c7fff84 	addi	r17,r17,-2
   83554:	a9ab883a 	add	r21,r21,r6
   83558:	a98b803a 	cmpltu	r5,r21,r6
   8355c:	2d8b883a 	add	r5,r5,r22
   83560:	2a11883a 	add	r8,r5,r8
   83564:	003ef806 	br	83148 <__alt_data_end+0xfffd1148>
   83568:	d9800017 	ldw	r6,0(sp)
   8356c:	318f883a 	add	r7,r6,r6
   83570:	398b803a 	cmpltu	r5,r7,r6
   83574:	2d8d883a 	add	r6,r5,r22
   83578:	81a1883a 	add	r16,r16,r6
   8357c:	a17fff84 	addi	r5,r20,-2
   83580:	d9c00015 	stw	r7,0(sp)
   83584:	003f8806 	br	833a8 <__alt_data_end+0xfffd13a8>
   83588:	013ff844 	movi	r4,-31
   8358c:	2085c83a 	sub	r2,r4,r2
   83590:	8888d83a 	srl	r4,r17,r2
   83594:	00800804 	movi	r2,32
   83598:	18802126 	beq	r3,r2,83620 <__divdf3+0x9ac>
   8359c:	04001004 	movi	r16,64
   835a0:	80c7c83a 	sub	r3,r16,r3
   835a4:	88e0983a 	sll	r16,r17,r3
   835a8:	8504b03a 	or	r2,r16,r20
   835ac:	1004c03a 	cmpne	r2,r2,zero
   835b0:	2084b03a 	or	r2,r4,r2
   835b4:	144001cc 	andi	r17,r2,7
   835b8:	88000d1e 	bne	r17,zero,835f0 <__divdf3+0x97c>
   835bc:	0021883a 	mov	r16,zero
   835c0:	102ad0fa 	srli	r21,r2,3
   835c4:	9900004c 	andi	r4,r19,1
   835c8:	0005883a 	mov	r2,zero
   835cc:	ac6ab03a 	or	r21,r21,r17
   835d0:	003e0706 	br	82df0 <__alt_data_end+0xfffd0df0>
   835d4:	1007883a 	mov	r3,r2
   835d8:	0023883a 	mov	r17,zero
   835dc:	8820927a 	slli	r16,r17,9
   835e0:	1805883a 	mov	r2,r3
   835e4:	8822977a 	slli	r17,r17,29
   835e8:	8020d33a 	srli	r16,r16,12
   835ec:	003ff406 	br	835c0 <__alt_data_end+0xfffd15c0>
   835f0:	10c003cc 	andi	r3,r2,15
   835f4:	01000104 	movi	r4,4
   835f8:	193ff626 	beq	r3,r4,835d4 <__alt_data_end+0xfffd15d4>
   835fc:	0023883a 	mov	r17,zero
   83600:	003fc806 	br	83524 <__alt_data_end+0xfffd1524>
   83604:	a8bfd136 	bltu	r21,r2,8354c <__alt_data_end+0xfffd154c>
   83608:	2823883a 	mov	r17,r5
   8360c:	003fa606 	br	834a8 <__alt_data_end+0xfffd14a8>
   83610:	d9800017 	ldw	r6,0(sp)
   83614:	30bfd436 	bltu	r6,r2,83568 <__alt_data_end+0xfffd1568>
   83618:	2829883a 	mov	r20,r5
   8361c:	003f6406 	br	833b0 <__alt_data_end+0xfffd13b0>
   83620:	0021883a 	mov	r16,zero
   83624:	003fe006 	br	835a8 <__alt_data_end+0xfffd15a8>
   83628:	00800434 	movhi	r2,16
   8362c:	8c000234 	orhi	r16,r17,8
   83630:	10bfffc4 	addi	r2,r2,-1
   83634:	e009883a 	mov	r4,fp
   83638:	80a0703a 	and	r16,r16,r2
   8363c:	a02b883a 	mov	r21,r20
   83640:	003e4e06 	br	82f7c <__alt_data_end+0xfffd0f7c>

00083644 <__gedf2>:
   83644:	2804d53a 	srli	r2,r5,20
   83648:	3806d53a 	srli	r3,r7,20
   8364c:	02000434 	movhi	r8,16
   83650:	423fffc4 	addi	r8,r8,-1
   83654:	1081ffcc 	andi	r2,r2,2047
   83658:	0241ffc4 	movi	r9,2047
   8365c:	2a14703a 	and	r10,r5,r8
   83660:	18c1ffcc 	andi	r3,r3,2047
   83664:	3a10703a 	and	r8,r7,r8
   83668:	280ad7fa 	srli	r5,r5,31
   8366c:	380ed7fa 	srli	r7,r7,31
   83670:	12401d26 	beq	r2,r9,836e8 <__gedf2+0xa4>
   83674:	0241ffc4 	movi	r9,2047
   83678:	1a401226 	beq	r3,r9,836c4 <__gedf2+0x80>
   8367c:	1000081e 	bne	r2,zero,836a0 <__gedf2+0x5c>
   83680:	2296b03a 	or	r11,r4,r10
   83684:	5813003a 	cmpeq	r9,r11,zero
   83688:	1800091e 	bne	r3,zero,836b0 <__gedf2+0x6c>
   8368c:	3218b03a 	or	r12,r6,r8
   83690:	6000071e 	bne	r12,zero,836b0 <__gedf2+0x6c>
   83694:	0005883a 	mov	r2,zero
   83698:	5800101e 	bne	r11,zero,836dc <__gedf2+0x98>
   8369c:	f800283a 	ret
   836a0:	18000c1e 	bne	r3,zero,836d4 <__gedf2+0x90>
   836a4:	3212b03a 	or	r9,r6,r8
   836a8:	48000c26 	beq	r9,zero,836dc <__gedf2+0x98>
   836ac:	0013883a 	mov	r9,zero
   836b0:	39c03fcc 	andi	r7,r7,255
   836b4:	48000826 	beq	r9,zero,836d8 <__gedf2+0x94>
   836b8:	38000926 	beq	r7,zero,836e0 <__gedf2+0x9c>
   836bc:	00800044 	movi	r2,1
   836c0:	f800283a 	ret
   836c4:	3212b03a 	or	r9,r6,r8
   836c8:	483fec26 	beq	r9,zero,8367c <__alt_data_end+0xfffd167c>
   836cc:	00bfff84 	movi	r2,-2
   836d0:	f800283a 	ret
   836d4:	39c03fcc 	andi	r7,r7,255
   836d8:	29c00626 	beq	r5,r7,836f4 <__gedf2+0xb0>
   836dc:	283ff726 	beq	r5,zero,836bc <__alt_data_end+0xfffd16bc>
   836e0:	00bfffc4 	movi	r2,-1
   836e4:	f800283a 	ret
   836e8:	2292b03a 	or	r9,r4,r10
   836ec:	483fe126 	beq	r9,zero,83674 <__alt_data_end+0xfffd1674>
   836f0:	003ff606 	br	836cc <__alt_data_end+0xfffd16cc>
   836f4:	18bff916 	blt	r3,r2,836dc <__alt_data_end+0xfffd16dc>
   836f8:	10c00316 	blt	r2,r3,83708 <__gedf2+0xc4>
   836fc:	42bff736 	bltu	r8,r10,836dc <__alt_data_end+0xfffd16dc>
   83700:	52000326 	beq	r10,r8,83710 <__gedf2+0xcc>
   83704:	5200042e 	bgeu	r10,r8,83718 <__gedf2+0xd4>
   83708:	283fec1e 	bne	r5,zero,836bc <__alt_data_end+0xfffd16bc>
   8370c:	003ff406 	br	836e0 <__alt_data_end+0xfffd16e0>
   83710:	313ff236 	bltu	r6,r4,836dc <__alt_data_end+0xfffd16dc>
   83714:	21bffc36 	bltu	r4,r6,83708 <__alt_data_end+0xfffd1708>
   83718:	0005883a 	mov	r2,zero
   8371c:	f800283a 	ret

00083720 <__ledf2>:
   83720:	2804d53a 	srli	r2,r5,20
   83724:	3810d53a 	srli	r8,r7,20
   83728:	00c00434 	movhi	r3,16
   8372c:	18ffffc4 	addi	r3,r3,-1
   83730:	1081ffcc 	andi	r2,r2,2047
   83734:	0241ffc4 	movi	r9,2047
   83738:	28d4703a 	and	r10,r5,r3
   8373c:	4201ffcc 	andi	r8,r8,2047
   83740:	38c6703a 	and	r3,r7,r3
   83744:	280ad7fa 	srli	r5,r5,31
   83748:	380ed7fa 	srli	r7,r7,31
   8374c:	12401f26 	beq	r2,r9,837cc <__ledf2+0xac>
   83750:	0241ffc4 	movi	r9,2047
   83754:	42401426 	beq	r8,r9,837a8 <__ledf2+0x88>
   83758:	1000091e 	bne	r2,zero,83780 <__ledf2+0x60>
   8375c:	2296b03a 	or	r11,r4,r10
   83760:	5813003a 	cmpeq	r9,r11,zero
   83764:	29403fcc 	andi	r5,r5,255
   83768:	40000a1e 	bne	r8,zero,83794 <__ledf2+0x74>
   8376c:	30d8b03a 	or	r12,r6,r3
   83770:	6000081e 	bne	r12,zero,83794 <__ledf2+0x74>
   83774:	0005883a 	mov	r2,zero
   83778:	5800111e 	bne	r11,zero,837c0 <__ledf2+0xa0>
   8377c:	f800283a 	ret
   83780:	29403fcc 	andi	r5,r5,255
   83784:	40000c1e 	bne	r8,zero,837b8 <__ledf2+0x98>
   83788:	30d2b03a 	or	r9,r6,r3
   8378c:	48000c26 	beq	r9,zero,837c0 <__ledf2+0xa0>
   83790:	0013883a 	mov	r9,zero
   83794:	39c03fcc 	andi	r7,r7,255
   83798:	48000826 	beq	r9,zero,837bc <__ledf2+0x9c>
   8379c:	38001126 	beq	r7,zero,837e4 <__ledf2+0xc4>
   837a0:	00800044 	movi	r2,1
   837a4:	f800283a 	ret
   837a8:	30d2b03a 	or	r9,r6,r3
   837ac:	483fea26 	beq	r9,zero,83758 <__alt_data_end+0xfffd1758>
   837b0:	00800084 	movi	r2,2
   837b4:	f800283a 	ret
   837b8:	39c03fcc 	andi	r7,r7,255
   837bc:	39400726 	beq	r7,r5,837dc <__ledf2+0xbc>
   837c0:	2800081e 	bne	r5,zero,837e4 <__ledf2+0xc4>
   837c4:	00800044 	movi	r2,1
   837c8:	f800283a 	ret
   837cc:	2292b03a 	or	r9,r4,r10
   837d0:	483fdf26 	beq	r9,zero,83750 <__alt_data_end+0xfffd1750>
   837d4:	00800084 	movi	r2,2
   837d8:	f800283a 	ret
   837dc:	4080030e 	bge	r8,r2,837ec <__ledf2+0xcc>
   837e0:	383fef26 	beq	r7,zero,837a0 <__alt_data_end+0xfffd17a0>
   837e4:	00bfffc4 	movi	r2,-1
   837e8:	f800283a 	ret
   837ec:	123feb16 	blt	r2,r8,8379c <__alt_data_end+0xfffd179c>
   837f0:	1abff336 	bltu	r3,r10,837c0 <__alt_data_end+0xfffd17c0>
   837f4:	50c00326 	beq	r10,r3,83804 <__ledf2+0xe4>
   837f8:	50c0042e 	bgeu	r10,r3,8380c <__ledf2+0xec>
   837fc:	283fe81e 	bne	r5,zero,837a0 <__alt_data_end+0xfffd17a0>
   83800:	003ff806 	br	837e4 <__alt_data_end+0xfffd17e4>
   83804:	313fee36 	bltu	r6,r4,837c0 <__alt_data_end+0xfffd17c0>
   83808:	21bffc36 	bltu	r4,r6,837fc <__alt_data_end+0xfffd17fc>
   8380c:	0005883a 	mov	r2,zero
   83810:	f800283a 	ret

00083814 <__muldf3>:
   83814:	deffee04 	addi	sp,sp,-72
   83818:	dd000c15 	stw	r20,48(sp)
   8381c:	2828d53a 	srli	r20,r5,20
   83820:	ddc00f15 	stw	r23,60(sp)
   83824:	282ed7fa 	srli	r23,r5,31
   83828:	dc000815 	stw	r16,32(sp)
   8382c:	04000434 	movhi	r16,16
   83830:	dcc00b15 	stw	r19,44(sp)
   83834:	843fffc4 	addi	r16,r16,-1
   83838:	dfc01115 	stw	ra,68(sp)
   8383c:	df001015 	stw	fp,64(sp)
   83840:	dd800e15 	stw	r22,56(sp)
   83844:	dd400d15 	stw	r21,52(sp)
   83848:	dc800a15 	stw	r18,40(sp)
   8384c:	dc400915 	stw	r17,36(sp)
   83850:	a501ffcc 	andi	r20,r20,2047
   83854:	2c20703a 	and	r16,r5,r16
   83858:	b827883a 	mov	r19,r23
   8385c:	ba403fcc 	andi	r9,r23,255
   83860:	a0006026 	beq	r20,zero,839e4 <__muldf3+0x1d0>
   83864:	0081ffc4 	movi	r2,2047
   83868:	202d883a 	mov	r22,r4
   8386c:	a0803626 	beq	r20,r2,83948 <__muldf3+0x134>
   83870:	84000434 	orhi	r16,r16,16
   83874:	200ad77a 	srli	r5,r4,29
   83878:	800490fa 	slli	r2,r16,3
   8387c:	202c90fa 	slli	r22,r4,3
   83880:	a53f0044 	addi	r20,r20,-1023
   83884:	28a0b03a 	or	r16,r5,r2
   83888:	002b883a 	mov	r21,zero
   8388c:	000b883a 	mov	r5,zero
   83890:	3804d53a 	srli	r2,r7,20
   83894:	3838d7fa 	srli	fp,r7,31
   83898:	04400434 	movhi	r17,16
   8389c:	8c7fffc4 	addi	r17,r17,-1
   838a0:	1081ffcc 	andi	r2,r2,2047
   838a4:	3025883a 	mov	r18,r6
   838a8:	3c62703a 	and	r17,r7,r17
   838ac:	e2803fcc 	andi	r10,fp,255
   838b0:	10006d26 	beq	r2,zero,83a68 <__muldf3+0x254>
   838b4:	00c1ffc4 	movi	r3,2047
   838b8:	10c06526 	beq	r2,r3,83a50 <__muldf3+0x23c>
   838bc:	8c400434 	orhi	r17,r17,16
   838c0:	300ed77a 	srli	r7,r6,29
   838c4:	880690fa 	slli	r3,r17,3
   838c8:	302490fa 	slli	r18,r6,3
   838cc:	10bf0044 	addi	r2,r2,-1023
   838d0:	38e2b03a 	or	r17,r7,r3
   838d4:	000f883a 	mov	r7,zero
   838d8:	a087883a 	add	r3,r20,r2
   838dc:	010003c4 	movi	r4,15
   838e0:	3d44b03a 	or	r2,r7,r21
   838e4:	e5ccf03a 	xor	r6,fp,r23
   838e8:	1a000044 	addi	r8,r3,1
   838ec:	20809b36 	bltu	r4,r2,83b5c <__muldf3+0x348>
   838f0:	100490ba 	slli	r2,r2,2
   838f4:	01000234 	movhi	r4,8
   838f8:	210e4204 	addi	r4,r4,14600
   838fc:	1105883a 	add	r2,r2,r4
   83900:	10800017 	ldw	r2,0(r2)
   83904:	1000683a 	jmp	r2
   83908:	00083b5c 	xori	zero,zero,8429
   8390c:	00083968 	cmpgeui	zero,zero,8421
   83910:	00083968 	cmpgeui	zero,zero,8421
   83914:	00083964 	muli	zero,zero,8421
   83918:	00083b38 	rdprs	zero,zero,8428
   8391c:	00083b38 	rdprs	zero,zero,8428
   83920:	00083b20 	cmpeqi	zero,zero,8428
   83924:	00083964 	muli	zero,zero,8421
   83928:	00083b38 	rdprs	zero,zero,8428
   8392c:	00083b20 	cmpeqi	zero,zero,8428
   83930:	00083b38 	rdprs	zero,zero,8428
   83934:	00083964 	muli	zero,zero,8421
   83938:	00083b48 	cmpgei	zero,zero,8429
   8393c:	00083b48 	cmpgei	zero,zero,8429
   83940:	00083b48 	cmpgei	zero,zero,8429
   83944:	00083ea8 	cmpgeui	zero,zero,8442
   83948:	2404b03a 	or	r2,r4,r16
   8394c:	1000711e 	bne	r2,zero,83b14 <__muldf3+0x300>
   83950:	05400204 	movi	r21,8
   83954:	0021883a 	mov	r16,zero
   83958:	002d883a 	mov	r22,zero
   8395c:	01400084 	movi	r5,2
   83960:	003fcb06 	br	83890 <__alt_data_end+0xfffd1890>
   83964:	500d883a 	mov	r6,r10
   83968:	00800084 	movi	r2,2
   8396c:	38805926 	beq	r7,r2,83ad4 <__muldf3+0x2c0>
   83970:	008000c4 	movi	r2,3
   83974:	3881bb26 	beq	r7,r2,84064 <__muldf3+0x850>
   83978:	00800044 	movi	r2,1
   8397c:	3881961e 	bne	r7,r2,83fd8 <__muldf3+0x7c4>
   83980:	3027883a 	mov	r19,r6
   83984:	0005883a 	mov	r2,zero
   83988:	0021883a 	mov	r16,zero
   8398c:	002d883a 	mov	r22,zero
   83990:	1004953a 	slli	r2,r2,20
   83994:	98c03fcc 	andi	r3,r19,255
   83998:	04400434 	movhi	r17,16
   8399c:	8c7fffc4 	addi	r17,r17,-1
   839a0:	180697fa 	slli	r3,r3,31
   839a4:	8460703a 	and	r16,r16,r17
   839a8:	80a0b03a 	or	r16,r16,r2
   839ac:	80c6b03a 	or	r3,r16,r3
   839b0:	b005883a 	mov	r2,r22
   839b4:	dfc01117 	ldw	ra,68(sp)
   839b8:	df001017 	ldw	fp,64(sp)
   839bc:	ddc00f17 	ldw	r23,60(sp)
   839c0:	dd800e17 	ldw	r22,56(sp)
   839c4:	dd400d17 	ldw	r21,52(sp)
   839c8:	dd000c17 	ldw	r20,48(sp)
   839cc:	dcc00b17 	ldw	r19,44(sp)
   839d0:	dc800a17 	ldw	r18,40(sp)
   839d4:	dc400917 	ldw	r17,36(sp)
   839d8:	dc000817 	ldw	r16,32(sp)
   839dc:	dec01204 	addi	sp,sp,72
   839e0:	f800283a 	ret
   839e4:	2404b03a 	or	r2,r4,r16
   839e8:	202b883a 	mov	r21,r4
   839ec:	10004426 	beq	r2,zero,83b00 <__muldf3+0x2ec>
   839f0:	80015126 	beq	r16,zero,83f38 <__muldf3+0x724>
   839f4:	8009883a 	mov	r4,r16
   839f8:	d9800715 	stw	r6,28(sp)
   839fc:	d9c00215 	stw	r7,8(sp)
   83a00:	da400415 	stw	r9,16(sp)
   83a04:	0084d900 	call	84d90 <__clzsi2>
   83a08:	d9800717 	ldw	r6,28(sp)
   83a0c:	d9c00217 	ldw	r7,8(sp)
   83a10:	da400417 	ldw	r9,16(sp)
   83a14:	113ffd44 	addi	r4,r2,-11
   83a18:	00c00704 	movi	r3,28
   83a1c:	19014216 	blt	r3,r4,83f28 <__muldf3+0x714>
   83a20:	00c00744 	movi	r3,29
   83a24:	15bffe04 	addi	r22,r2,-8
   83a28:	1907c83a 	sub	r3,r3,r4
   83a2c:	85a0983a 	sll	r16,r16,r22
   83a30:	a8c6d83a 	srl	r3,r21,r3
   83a34:	adac983a 	sll	r22,r21,r22
   83a38:	1c20b03a 	or	r16,r3,r16
   83a3c:	1080fcc4 	addi	r2,r2,1011
   83a40:	00a9c83a 	sub	r20,zero,r2
   83a44:	002b883a 	mov	r21,zero
   83a48:	000b883a 	mov	r5,zero
   83a4c:	003f9006 	br	83890 <__alt_data_end+0xfffd1890>
   83a50:	3446b03a 	or	r3,r6,r17
   83a54:	1800281e 	bne	r3,zero,83af8 <__muldf3+0x2e4>
   83a58:	0023883a 	mov	r17,zero
   83a5c:	0025883a 	mov	r18,zero
   83a60:	01c00084 	movi	r7,2
   83a64:	003f9c06 	br	838d8 <__alt_data_end+0xfffd18d8>
   83a68:	3446b03a 	or	r3,r6,r17
   83a6c:	18001e26 	beq	r3,zero,83ae8 <__muldf3+0x2d4>
   83a70:	88012126 	beq	r17,zero,83ef8 <__muldf3+0x6e4>
   83a74:	8809883a 	mov	r4,r17
   83a78:	d9400215 	stw	r5,8(sp)
   83a7c:	d9800715 	stw	r6,28(sp)
   83a80:	da400415 	stw	r9,16(sp)
   83a84:	da800315 	stw	r10,12(sp)
   83a88:	0084d900 	call	84d90 <__clzsi2>
   83a8c:	d9400217 	ldw	r5,8(sp)
   83a90:	d9800717 	ldw	r6,28(sp)
   83a94:	da400417 	ldw	r9,16(sp)
   83a98:	da800317 	ldw	r10,12(sp)
   83a9c:	113ffd44 	addi	r4,r2,-11
   83aa0:	00c00704 	movi	r3,28
   83aa4:	19011016 	blt	r3,r4,83ee8 <__muldf3+0x6d4>
   83aa8:	00c00744 	movi	r3,29
   83aac:	14bffe04 	addi	r18,r2,-8
   83ab0:	1907c83a 	sub	r3,r3,r4
   83ab4:	8ca2983a 	sll	r17,r17,r18
   83ab8:	30c6d83a 	srl	r3,r6,r3
   83abc:	34a4983a 	sll	r18,r6,r18
   83ac0:	1c62b03a 	or	r17,r3,r17
   83ac4:	1080fcc4 	addi	r2,r2,1011
   83ac8:	0085c83a 	sub	r2,zero,r2
   83acc:	000f883a 	mov	r7,zero
   83ad0:	003f8106 	br	838d8 <__alt_data_end+0xfffd18d8>
   83ad4:	3027883a 	mov	r19,r6
   83ad8:	0081ffc4 	movi	r2,2047
   83adc:	0021883a 	mov	r16,zero
   83ae0:	002d883a 	mov	r22,zero
   83ae4:	003faa06 	br	83990 <__alt_data_end+0xfffd1990>
   83ae8:	0023883a 	mov	r17,zero
   83aec:	0025883a 	mov	r18,zero
   83af0:	01c00044 	movi	r7,1
   83af4:	003f7806 	br	838d8 <__alt_data_end+0xfffd18d8>
   83af8:	01c000c4 	movi	r7,3
   83afc:	003f7606 	br	838d8 <__alt_data_end+0xfffd18d8>
   83b00:	05400104 	movi	r21,4
   83b04:	0021883a 	mov	r16,zero
   83b08:	002d883a 	mov	r22,zero
   83b0c:	01400044 	movi	r5,1
   83b10:	003f5f06 	br	83890 <__alt_data_end+0xfffd1890>
   83b14:	05400304 	movi	r21,12
   83b18:	014000c4 	movi	r5,3
   83b1c:	003f5c06 	br	83890 <__alt_data_end+0xfffd1890>
   83b20:	04000434 	movhi	r16,16
   83b24:	0027883a 	mov	r19,zero
   83b28:	843fffc4 	addi	r16,r16,-1
   83b2c:	05bfffc4 	movi	r22,-1
   83b30:	0081ffc4 	movi	r2,2047
   83b34:	003f9606 	br	83990 <__alt_data_end+0xfffd1990>
   83b38:	8023883a 	mov	r17,r16
   83b3c:	b025883a 	mov	r18,r22
   83b40:	280f883a 	mov	r7,r5
   83b44:	003f8806 	br	83968 <__alt_data_end+0xfffd1968>
   83b48:	8023883a 	mov	r17,r16
   83b4c:	b025883a 	mov	r18,r22
   83b50:	480d883a 	mov	r6,r9
   83b54:	280f883a 	mov	r7,r5
   83b58:	003f8306 	br	83968 <__alt_data_end+0xfffd1968>
   83b5c:	b026d43a 	srli	r19,r22,16
   83b60:	902ed43a 	srli	r23,r18,16
   83b64:	b5bfffcc 	andi	r22,r22,65535
   83b68:	94bfffcc 	andi	r18,r18,65535
   83b6c:	b00b883a 	mov	r5,r22
   83b70:	9009883a 	mov	r4,r18
   83b74:	d8c00515 	stw	r3,20(sp)
   83b78:	d9800715 	stw	r6,28(sp)
   83b7c:	da000615 	stw	r8,24(sp)
   83b80:	00823a00 	call	823a0 <__mulsi3>
   83b84:	980b883a 	mov	r5,r19
   83b88:	9009883a 	mov	r4,r18
   83b8c:	1029883a 	mov	r20,r2
   83b90:	00823a00 	call	823a0 <__mulsi3>
   83b94:	b80b883a 	mov	r5,r23
   83b98:	9809883a 	mov	r4,r19
   83b9c:	102b883a 	mov	r21,r2
   83ba0:	00823a00 	call	823a0 <__mulsi3>
   83ba4:	b809883a 	mov	r4,r23
   83ba8:	b00b883a 	mov	r5,r22
   83bac:	1039883a 	mov	fp,r2
   83bb0:	00823a00 	call	823a0 <__mulsi3>
   83bb4:	a008d43a 	srli	r4,r20,16
   83bb8:	1545883a 	add	r2,r2,r21
   83bbc:	d8c00517 	ldw	r3,20(sp)
   83bc0:	2085883a 	add	r2,r4,r2
   83bc4:	d9800717 	ldw	r6,28(sp)
   83bc8:	da000617 	ldw	r8,24(sp)
   83bcc:	1540022e 	bgeu	r2,r21,83bd8 <__muldf3+0x3c4>
   83bd0:	01000074 	movhi	r4,1
   83bd4:	e139883a 	add	fp,fp,r4
   83bd8:	100e943a 	slli	r7,r2,16
   83bdc:	1004d43a 	srli	r2,r2,16
   83be0:	882ad43a 	srli	r21,r17,16
   83be4:	a53fffcc 	andi	r20,r20,65535
   83be8:	8c7fffcc 	andi	r17,r17,65535
   83bec:	3d29883a 	add	r20,r7,r20
   83bf0:	b00b883a 	mov	r5,r22
   83bf4:	8809883a 	mov	r4,r17
   83bf8:	d8c00515 	stw	r3,20(sp)
   83bfc:	d9800715 	stw	r6,28(sp)
   83c00:	da000615 	stw	r8,24(sp)
   83c04:	dd000115 	stw	r20,4(sp)
   83c08:	d8800015 	stw	r2,0(sp)
   83c0c:	00823a00 	call	823a0 <__mulsi3>
   83c10:	980b883a 	mov	r5,r19
   83c14:	8809883a 	mov	r4,r17
   83c18:	d8800215 	stw	r2,8(sp)
   83c1c:	00823a00 	call	823a0 <__mulsi3>
   83c20:	9809883a 	mov	r4,r19
   83c24:	a80b883a 	mov	r5,r21
   83c28:	1029883a 	mov	r20,r2
   83c2c:	00823a00 	call	823a0 <__mulsi3>
   83c30:	b00b883a 	mov	r5,r22
   83c34:	a809883a 	mov	r4,r21
   83c38:	d8800415 	stw	r2,16(sp)
   83c3c:	00823a00 	call	823a0 <__mulsi3>
   83c40:	d9c00217 	ldw	r7,8(sp)
   83c44:	1505883a 	add	r2,r2,r20
   83c48:	d8c00517 	ldw	r3,20(sp)
   83c4c:	3826d43a 	srli	r19,r7,16
   83c50:	d9800717 	ldw	r6,28(sp)
   83c54:	da000617 	ldw	r8,24(sp)
   83c58:	9885883a 	add	r2,r19,r2
   83c5c:	da400417 	ldw	r9,16(sp)
   83c60:	1500022e 	bgeu	r2,r20,83c6c <__muldf3+0x458>
   83c64:	01000074 	movhi	r4,1
   83c68:	4913883a 	add	r9,r9,r4
   83c6c:	1028d43a 	srli	r20,r2,16
   83c70:	1004943a 	slli	r2,r2,16
   83c74:	802cd43a 	srli	r22,r16,16
   83c78:	843fffcc 	andi	r16,r16,65535
   83c7c:	3cffffcc 	andi	r19,r7,65535
   83c80:	9009883a 	mov	r4,r18
   83c84:	800b883a 	mov	r5,r16
   83c88:	a269883a 	add	r20,r20,r9
   83c8c:	d8c00515 	stw	r3,20(sp)
   83c90:	d9800715 	stw	r6,28(sp)
   83c94:	da000615 	stw	r8,24(sp)
   83c98:	14e7883a 	add	r19,r2,r19
   83c9c:	00823a00 	call	823a0 <__mulsi3>
   83ca0:	9009883a 	mov	r4,r18
   83ca4:	b00b883a 	mov	r5,r22
   83ca8:	d8800315 	stw	r2,12(sp)
   83cac:	00823a00 	call	823a0 <__mulsi3>
   83cb0:	b809883a 	mov	r4,r23
   83cb4:	b00b883a 	mov	r5,r22
   83cb8:	d8800215 	stw	r2,8(sp)
   83cbc:	00823a00 	call	823a0 <__mulsi3>
   83cc0:	b80b883a 	mov	r5,r23
   83cc4:	8009883a 	mov	r4,r16
   83cc8:	d8800415 	stw	r2,16(sp)
   83ccc:	00823a00 	call	823a0 <__mulsi3>
   83cd0:	da800317 	ldw	r10,12(sp)
   83cd4:	d9c00217 	ldw	r7,8(sp)
   83cd8:	d9000017 	ldw	r4,0(sp)
   83cdc:	502ed43a 	srli	r23,r10,16
   83ce0:	11c5883a 	add	r2,r2,r7
   83ce4:	24e5883a 	add	r18,r4,r19
   83ce8:	b885883a 	add	r2,r23,r2
   83cec:	d8c00517 	ldw	r3,20(sp)
   83cf0:	d9800717 	ldw	r6,28(sp)
   83cf4:	da000617 	ldw	r8,24(sp)
   83cf8:	da400417 	ldw	r9,16(sp)
   83cfc:	11c0022e 	bgeu	r2,r7,83d08 <__muldf3+0x4f4>
   83d00:	01000074 	movhi	r4,1
   83d04:	4913883a 	add	r9,r9,r4
   83d08:	100ed43a 	srli	r7,r2,16
   83d0c:	1004943a 	slli	r2,r2,16
   83d10:	55ffffcc 	andi	r23,r10,65535
   83d14:	3a53883a 	add	r9,r7,r9
   83d18:	8809883a 	mov	r4,r17
   83d1c:	800b883a 	mov	r5,r16
   83d20:	d8c00515 	stw	r3,20(sp)
   83d24:	d9800715 	stw	r6,28(sp)
   83d28:	da000615 	stw	r8,24(sp)
   83d2c:	da400415 	stw	r9,16(sp)
   83d30:	15ef883a 	add	r23,r2,r23
   83d34:	00823a00 	call	823a0 <__mulsi3>
   83d38:	8809883a 	mov	r4,r17
   83d3c:	b00b883a 	mov	r5,r22
   83d40:	d8800215 	stw	r2,8(sp)
   83d44:	00823a00 	call	823a0 <__mulsi3>
   83d48:	b00b883a 	mov	r5,r22
   83d4c:	a809883a 	mov	r4,r21
   83d50:	d8800315 	stw	r2,12(sp)
   83d54:	00823a00 	call	823a0 <__mulsi3>
   83d58:	8009883a 	mov	r4,r16
   83d5c:	a80b883a 	mov	r5,r21
   83d60:	1023883a 	mov	r17,r2
   83d64:	00823a00 	call	823a0 <__mulsi3>
   83d68:	d9c00217 	ldw	r7,8(sp)
   83d6c:	da800317 	ldw	r10,12(sp)
   83d70:	d8c00517 	ldw	r3,20(sp)
   83d74:	3808d43a 	srli	r4,r7,16
   83d78:	1285883a 	add	r2,r2,r10
   83d7c:	d9800717 	ldw	r6,28(sp)
   83d80:	2085883a 	add	r2,r4,r2
   83d84:	da000617 	ldw	r8,24(sp)
   83d88:	da400417 	ldw	r9,16(sp)
   83d8c:	1280022e 	bgeu	r2,r10,83d98 <__muldf3+0x584>
   83d90:	01000074 	movhi	r4,1
   83d94:	8923883a 	add	r17,r17,r4
   83d98:	1008943a 	slli	r4,r2,16
   83d9c:	39ffffcc 	andi	r7,r7,65535
   83da0:	e4b9883a 	add	fp,fp,r18
   83da4:	21cf883a 	add	r7,r4,r7
   83da8:	e4e7803a 	cmpltu	r19,fp,r19
   83dac:	3d0f883a 	add	r7,r7,r20
   83db0:	bf39883a 	add	fp,r23,fp
   83db4:	99c9883a 	add	r4,r19,r7
   83db8:	e5ef803a 	cmpltu	r23,fp,r23
   83dbc:	490b883a 	add	r5,r9,r4
   83dc0:	1004d43a 	srli	r2,r2,16
   83dc4:	b965883a 	add	r18,r23,r5
   83dc8:	24c9803a 	cmpltu	r4,r4,r19
   83dcc:	3d29803a 	cmpltu	r20,r7,r20
   83dd0:	a128b03a 	or	r20,r20,r4
   83dd4:	95ef803a 	cmpltu	r23,r18,r23
   83dd8:	2a53803a 	cmpltu	r9,r5,r9
   83ddc:	a0a9883a 	add	r20,r20,r2
   83de0:	4deeb03a 	or	r23,r9,r23
   83de4:	a5ef883a 	add	r23,r20,r23
   83de8:	bc63883a 	add	r17,r23,r17
   83dec:	e004927a 	slli	r2,fp,9
   83df0:	d9000117 	ldw	r4,4(sp)
   83df4:	882e927a 	slli	r23,r17,9
   83df8:	9022d5fa 	srli	r17,r18,23
   83dfc:	e038d5fa 	srli	fp,fp,23
   83e00:	1104b03a 	or	r2,r2,r4
   83e04:	9024927a 	slli	r18,r18,9
   83e08:	1004c03a 	cmpne	r2,r2,zero
   83e0c:	bc62b03a 	or	r17,r23,r17
   83e10:	1738b03a 	or	fp,r2,fp
   83e14:	8880402c 	andhi	r2,r17,256
   83e18:	e4a4b03a 	or	r18,fp,r18
   83e1c:	10000726 	beq	r2,zero,83e3c <__muldf3+0x628>
   83e20:	9006d07a 	srli	r3,r18,1
   83e24:	880497fa 	slli	r2,r17,31
   83e28:	9480004c 	andi	r18,r18,1
   83e2c:	8822d07a 	srli	r17,r17,1
   83e30:	1ca4b03a 	or	r18,r3,r18
   83e34:	14a4b03a 	or	r18,r2,r18
   83e38:	4007883a 	mov	r3,r8
   83e3c:	1880ffc4 	addi	r2,r3,1023
   83e40:	0080460e 	bge	zero,r2,83f5c <__muldf3+0x748>
   83e44:	910001cc 	andi	r4,r18,7
   83e48:	20000726 	beq	r4,zero,83e68 <__muldf3+0x654>
   83e4c:	910003cc 	andi	r4,r18,15
   83e50:	01400104 	movi	r5,4
   83e54:	21400426 	beq	r4,r5,83e68 <__muldf3+0x654>
   83e58:	9149883a 	add	r4,r18,r5
   83e5c:	24a5803a 	cmpltu	r18,r4,r18
   83e60:	8ca3883a 	add	r17,r17,r18
   83e64:	2025883a 	mov	r18,r4
   83e68:	8900402c 	andhi	r4,r17,256
   83e6c:	20000426 	beq	r4,zero,83e80 <__muldf3+0x66c>
   83e70:	18810004 	addi	r2,r3,1024
   83e74:	00ffc034 	movhi	r3,65280
   83e78:	18ffffc4 	addi	r3,r3,-1
   83e7c:	88e2703a 	and	r17,r17,r3
   83e80:	00c1ff84 	movi	r3,2046
   83e84:	18bf1316 	blt	r3,r2,83ad4 <__alt_data_end+0xfffd1ad4>
   83e88:	882c977a 	slli	r22,r17,29
   83e8c:	9024d0fa 	srli	r18,r18,3
   83e90:	8822927a 	slli	r17,r17,9
   83e94:	1081ffcc 	andi	r2,r2,2047
   83e98:	b4acb03a 	or	r22,r22,r18
   83e9c:	8820d33a 	srli	r16,r17,12
   83ea0:	3027883a 	mov	r19,r6
   83ea4:	003eba06 	br	83990 <__alt_data_end+0xfffd1990>
   83ea8:	8080022c 	andhi	r2,r16,8
   83eac:	10000926 	beq	r2,zero,83ed4 <__muldf3+0x6c0>
   83eb0:	8880022c 	andhi	r2,r17,8
   83eb4:	1000071e 	bne	r2,zero,83ed4 <__muldf3+0x6c0>
   83eb8:	00800434 	movhi	r2,16
   83ebc:	8c000234 	orhi	r16,r17,8
   83ec0:	10bfffc4 	addi	r2,r2,-1
   83ec4:	e027883a 	mov	r19,fp
   83ec8:	80a0703a 	and	r16,r16,r2
   83ecc:	902d883a 	mov	r22,r18
   83ed0:	003f1706 	br	83b30 <__alt_data_end+0xfffd1b30>
   83ed4:	00800434 	movhi	r2,16
   83ed8:	84000234 	orhi	r16,r16,8
   83edc:	10bfffc4 	addi	r2,r2,-1
   83ee0:	80a0703a 	and	r16,r16,r2
   83ee4:	003f1206 	br	83b30 <__alt_data_end+0xfffd1b30>
   83ee8:	147ff604 	addi	r17,r2,-40
   83eec:	3462983a 	sll	r17,r6,r17
   83ef0:	0025883a 	mov	r18,zero
   83ef4:	003ef306 	br	83ac4 <__alt_data_end+0xfffd1ac4>
   83ef8:	3009883a 	mov	r4,r6
   83efc:	d9400215 	stw	r5,8(sp)
   83f00:	d9800715 	stw	r6,28(sp)
   83f04:	da400415 	stw	r9,16(sp)
   83f08:	da800315 	stw	r10,12(sp)
   83f0c:	0084d900 	call	84d90 <__clzsi2>
   83f10:	10800804 	addi	r2,r2,32
   83f14:	da800317 	ldw	r10,12(sp)
   83f18:	da400417 	ldw	r9,16(sp)
   83f1c:	d9800717 	ldw	r6,28(sp)
   83f20:	d9400217 	ldw	r5,8(sp)
   83f24:	003edd06 	br	83a9c <__alt_data_end+0xfffd1a9c>
   83f28:	143ff604 	addi	r16,r2,-40
   83f2c:	ac20983a 	sll	r16,r21,r16
   83f30:	002d883a 	mov	r22,zero
   83f34:	003ec106 	br	83a3c <__alt_data_end+0xfffd1a3c>
   83f38:	d9800715 	stw	r6,28(sp)
   83f3c:	d9c00215 	stw	r7,8(sp)
   83f40:	da400415 	stw	r9,16(sp)
   83f44:	0084d900 	call	84d90 <__clzsi2>
   83f48:	10800804 	addi	r2,r2,32
   83f4c:	da400417 	ldw	r9,16(sp)
   83f50:	d9c00217 	ldw	r7,8(sp)
   83f54:	d9800717 	ldw	r6,28(sp)
   83f58:	003eae06 	br	83a14 <__alt_data_end+0xfffd1a14>
   83f5c:	00c00044 	movi	r3,1
   83f60:	1887c83a 	sub	r3,r3,r2
   83f64:	01000e04 	movi	r4,56
   83f68:	20fe8516 	blt	r4,r3,83980 <__alt_data_end+0xfffd1980>
   83f6c:	010007c4 	movi	r4,31
   83f70:	20c01b16 	blt	r4,r3,83fe0 <__muldf3+0x7cc>
   83f74:	00800804 	movi	r2,32
   83f78:	10c5c83a 	sub	r2,r2,r3
   83f7c:	888a983a 	sll	r5,r17,r2
   83f80:	90c8d83a 	srl	r4,r18,r3
   83f84:	9084983a 	sll	r2,r18,r2
   83f88:	88e2d83a 	srl	r17,r17,r3
   83f8c:	2906b03a 	or	r3,r5,r4
   83f90:	1004c03a 	cmpne	r2,r2,zero
   83f94:	1886b03a 	or	r3,r3,r2
   83f98:	188001cc 	andi	r2,r3,7
   83f9c:	10000726 	beq	r2,zero,83fbc <__muldf3+0x7a8>
   83fa0:	188003cc 	andi	r2,r3,15
   83fa4:	01000104 	movi	r4,4
   83fa8:	11000426 	beq	r2,r4,83fbc <__muldf3+0x7a8>
   83fac:	1805883a 	mov	r2,r3
   83fb0:	10c00104 	addi	r3,r2,4
   83fb4:	1885803a 	cmpltu	r2,r3,r2
   83fb8:	88a3883a 	add	r17,r17,r2
   83fbc:	8880202c 	andhi	r2,r17,128
   83fc0:	10001c26 	beq	r2,zero,84034 <__muldf3+0x820>
   83fc4:	3027883a 	mov	r19,r6
   83fc8:	00800044 	movi	r2,1
   83fcc:	0021883a 	mov	r16,zero
   83fd0:	002d883a 	mov	r22,zero
   83fd4:	003e6e06 	br	83990 <__alt_data_end+0xfffd1990>
   83fd8:	4007883a 	mov	r3,r8
   83fdc:	003f9706 	br	83e3c <__alt_data_end+0xfffd1e3c>
   83fe0:	017ff844 	movi	r5,-31
   83fe4:	2885c83a 	sub	r2,r5,r2
   83fe8:	888ad83a 	srl	r5,r17,r2
   83fec:	00800804 	movi	r2,32
   83ff0:	18801a26 	beq	r3,r2,8405c <__muldf3+0x848>
   83ff4:	01001004 	movi	r4,64
   83ff8:	20c7c83a 	sub	r3,r4,r3
   83ffc:	88e2983a 	sll	r17,r17,r3
   84000:	8ca4b03a 	or	r18,r17,r18
   84004:	9004c03a 	cmpne	r2,r18,zero
   84008:	2884b03a 	or	r2,r5,r2
   8400c:	144001cc 	andi	r17,r2,7
   84010:	88000d1e 	bne	r17,zero,84048 <__muldf3+0x834>
   84014:	0021883a 	mov	r16,zero
   84018:	102cd0fa 	srli	r22,r2,3
   8401c:	3027883a 	mov	r19,r6
   84020:	0005883a 	mov	r2,zero
   84024:	b46cb03a 	or	r22,r22,r17
   84028:	003e5906 	br	83990 <__alt_data_end+0xfffd1990>
   8402c:	1007883a 	mov	r3,r2
   84030:	0023883a 	mov	r17,zero
   84034:	8820927a 	slli	r16,r17,9
   84038:	1805883a 	mov	r2,r3
   8403c:	8822977a 	slli	r17,r17,29
   84040:	8020d33a 	srli	r16,r16,12
   84044:	003ff406 	br	84018 <__alt_data_end+0xfffd2018>
   84048:	10c003cc 	andi	r3,r2,15
   8404c:	01000104 	movi	r4,4
   84050:	193ff626 	beq	r3,r4,8402c <__alt_data_end+0xfffd202c>
   84054:	0023883a 	mov	r17,zero
   84058:	003fd506 	br	83fb0 <__alt_data_end+0xfffd1fb0>
   8405c:	0023883a 	mov	r17,zero
   84060:	003fe706 	br	84000 <__alt_data_end+0xfffd2000>
   84064:	00800434 	movhi	r2,16
   84068:	8c000234 	orhi	r16,r17,8
   8406c:	10bfffc4 	addi	r2,r2,-1
   84070:	3027883a 	mov	r19,r6
   84074:	80a0703a 	and	r16,r16,r2
   84078:	902d883a 	mov	r22,r18
   8407c:	003eac06 	br	83b30 <__alt_data_end+0xfffd1b30>

00084080 <__subdf3>:
   84080:	02000434 	movhi	r8,16
   84084:	423fffc4 	addi	r8,r8,-1
   84088:	defffb04 	addi	sp,sp,-20
   8408c:	2a14703a 	and	r10,r5,r8
   84090:	3812d53a 	srli	r9,r7,20
   84094:	3a10703a 	and	r8,r7,r8
   84098:	2006d77a 	srli	r3,r4,29
   8409c:	3004d77a 	srli	r2,r6,29
   840a0:	dc000015 	stw	r16,0(sp)
   840a4:	501490fa 	slli	r10,r10,3
   840a8:	2820d53a 	srli	r16,r5,20
   840ac:	401090fa 	slli	r8,r8,3
   840b0:	dc800215 	stw	r18,8(sp)
   840b4:	dc400115 	stw	r17,4(sp)
   840b8:	dfc00415 	stw	ra,16(sp)
   840bc:	202290fa 	slli	r17,r4,3
   840c0:	dcc00315 	stw	r19,12(sp)
   840c4:	4a41ffcc 	andi	r9,r9,2047
   840c8:	0101ffc4 	movi	r4,2047
   840cc:	2824d7fa 	srli	r18,r5,31
   840d0:	8401ffcc 	andi	r16,r16,2047
   840d4:	50c6b03a 	or	r3,r10,r3
   840d8:	380ed7fa 	srli	r7,r7,31
   840dc:	408ab03a 	or	r5,r8,r2
   840e0:	300c90fa 	slli	r6,r6,3
   840e4:	49009626 	beq	r9,r4,84340 <__subdf3+0x2c0>
   840e8:	39c0005c 	xori	r7,r7,1
   840ec:	8245c83a 	sub	r2,r16,r9
   840f0:	3c807426 	beq	r7,r18,842c4 <__subdf3+0x244>
   840f4:	0080af0e 	bge	zero,r2,843b4 <__subdf3+0x334>
   840f8:	48002a1e 	bne	r9,zero,841a4 <__subdf3+0x124>
   840fc:	2988b03a 	or	r4,r5,r6
   84100:	20009a1e 	bne	r4,zero,8436c <__subdf3+0x2ec>
   84104:	888001cc 	andi	r2,r17,7
   84108:	10000726 	beq	r2,zero,84128 <__subdf3+0xa8>
   8410c:	888003cc 	andi	r2,r17,15
   84110:	01000104 	movi	r4,4
   84114:	11000426 	beq	r2,r4,84128 <__subdf3+0xa8>
   84118:	890b883a 	add	r5,r17,r4
   8411c:	2c63803a 	cmpltu	r17,r5,r17
   84120:	1c47883a 	add	r3,r3,r17
   84124:	2823883a 	mov	r17,r5
   84128:	1880202c 	andhi	r2,r3,128
   8412c:	10005926 	beq	r2,zero,84294 <__subdf3+0x214>
   84130:	84000044 	addi	r16,r16,1
   84134:	0081ffc4 	movi	r2,2047
   84138:	8080be26 	beq	r16,r2,84434 <__subdf3+0x3b4>
   8413c:	017fe034 	movhi	r5,65408
   84140:	297fffc4 	addi	r5,r5,-1
   84144:	1946703a 	and	r3,r3,r5
   84148:	1804977a 	slli	r2,r3,29
   8414c:	1806927a 	slli	r3,r3,9
   84150:	8822d0fa 	srli	r17,r17,3
   84154:	8401ffcc 	andi	r16,r16,2047
   84158:	180ad33a 	srli	r5,r3,12
   8415c:	9100004c 	andi	r4,r18,1
   84160:	1444b03a 	or	r2,r2,r17
   84164:	80c1ffcc 	andi	r3,r16,2047
   84168:	1820953a 	slli	r16,r3,20
   8416c:	20c03fcc 	andi	r3,r4,255
   84170:	180897fa 	slli	r4,r3,31
   84174:	00c00434 	movhi	r3,16
   84178:	18ffffc4 	addi	r3,r3,-1
   8417c:	28c6703a 	and	r3,r5,r3
   84180:	1c06b03a 	or	r3,r3,r16
   84184:	1906b03a 	or	r3,r3,r4
   84188:	dfc00417 	ldw	ra,16(sp)
   8418c:	dcc00317 	ldw	r19,12(sp)
   84190:	dc800217 	ldw	r18,8(sp)
   84194:	dc400117 	ldw	r17,4(sp)
   84198:	dc000017 	ldw	r16,0(sp)
   8419c:	dec00504 	addi	sp,sp,20
   841a0:	f800283a 	ret
   841a4:	0101ffc4 	movi	r4,2047
   841a8:	813fd626 	beq	r16,r4,84104 <__alt_data_end+0xfffd2104>
   841ac:	29402034 	orhi	r5,r5,128
   841b0:	01000e04 	movi	r4,56
   841b4:	2080a316 	blt	r4,r2,84444 <__subdf3+0x3c4>
   841b8:	010007c4 	movi	r4,31
   841bc:	2080c616 	blt	r4,r2,844d8 <__subdf3+0x458>
   841c0:	01000804 	movi	r4,32
   841c4:	2089c83a 	sub	r4,r4,r2
   841c8:	2910983a 	sll	r8,r5,r4
   841cc:	308ed83a 	srl	r7,r6,r2
   841d0:	3108983a 	sll	r4,r6,r4
   841d4:	2884d83a 	srl	r2,r5,r2
   841d8:	41ccb03a 	or	r6,r8,r7
   841dc:	2008c03a 	cmpne	r4,r4,zero
   841e0:	310cb03a 	or	r6,r6,r4
   841e4:	898dc83a 	sub	r6,r17,r6
   841e8:	89a3803a 	cmpltu	r17,r17,r6
   841ec:	1887c83a 	sub	r3,r3,r2
   841f0:	1c47c83a 	sub	r3,r3,r17
   841f4:	3023883a 	mov	r17,r6
   841f8:	1880202c 	andhi	r2,r3,128
   841fc:	10002326 	beq	r2,zero,8428c <__subdf3+0x20c>
   84200:	04c02034 	movhi	r19,128
   84204:	9cffffc4 	addi	r19,r19,-1
   84208:	1ce6703a 	and	r19,r3,r19
   8420c:	98007a26 	beq	r19,zero,843f8 <__subdf3+0x378>
   84210:	9809883a 	mov	r4,r19
   84214:	0084d900 	call	84d90 <__clzsi2>
   84218:	113ffe04 	addi	r4,r2,-8
   8421c:	00c007c4 	movi	r3,31
   84220:	19007b16 	blt	r3,r4,84410 <__subdf3+0x390>
   84224:	00800804 	movi	r2,32
   84228:	1105c83a 	sub	r2,r2,r4
   8422c:	8884d83a 	srl	r2,r17,r2
   84230:	9906983a 	sll	r3,r19,r4
   84234:	8922983a 	sll	r17,r17,r4
   84238:	10c4b03a 	or	r2,r2,r3
   8423c:	24007816 	blt	r4,r16,84420 <__subdf3+0x3a0>
   84240:	2421c83a 	sub	r16,r4,r16
   84244:	80c00044 	addi	r3,r16,1
   84248:	010007c4 	movi	r4,31
   8424c:	20c09516 	blt	r4,r3,844a4 <__subdf3+0x424>
   84250:	01400804 	movi	r5,32
   84254:	28cbc83a 	sub	r5,r5,r3
   84258:	88c8d83a 	srl	r4,r17,r3
   8425c:	8962983a 	sll	r17,r17,r5
   84260:	114a983a 	sll	r5,r2,r5
   84264:	10c6d83a 	srl	r3,r2,r3
   84268:	8804c03a 	cmpne	r2,r17,zero
   8426c:	290ab03a 	or	r5,r5,r4
   84270:	28a2b03a 	or	r17,r5,r2
   84274:	0021883a 	mov	r16,zero
   84278:	003fa206 	br	84104 <__alt_data_end+0xfffd2104>
   8427c:	2090b03a 	or	r8,r4,r2
   84280:	40018e26 	beq	r8,zero,848bc <__subdf3+0x83c>
   84284:	1007883a 	mov	r3,r2
   84288:	2023883a 	mov	r17,r4
   8428c:	888001cc 	andi	r2,r17,7
   84290:	103f9e1e 	bne	r2,zero,8410c <__alt_data_end+0xfffd210c>
   84294:	1804977a 	slli	r2,r3,29
   84298:	8822d0fa 	srli	r17,r17,3
   8429c:	1810d0fa 	srli	r8,r3,3
   842a0:	9100004c 	andi	r4,r18,1
   842a4:	1444b03a 	or	r2,r2,r17
   842a8:	00c1ffc4 	movi	r3,2047
   842ac:	80c02826 	beq	r16,r3,84350 <__subdf3+0x2d0>
   842b0:	01400434 	movhi	r5,16
   842b4:	297fffc4 	addi	r5,r5,-1
   842b8:	80e0703a 	and	r16,r16,r3
   842bc:	414a703a 	and	r5,r8,r5
   842c0:	003fa806 	br	84164 <__alt_data_end+0xfffd2164>
   842c4:	0080630e 	bge	zero,r2,84454 <__subdf3+0x3d4>
   842c8:	48003026 	beq	r9,zero,8438c <__subdf3+0x30c>
   842cc:	0101ffc4 	movi	r4,2047
   842d0:	813f8c26 	beq	r16,r4,84104 <__alt_data_end+0xfffd2104>
   842d4:	29402034 	orhi	r5,r5,128
   842d8:	01000e04 	movi	r4,56
   842dc:	2080a90e 	bge	r4,r2,84584 <__subdf3+0x504>
   842e0:	298cb03a 	or	r6,r5,r6
   842e4:	3012c03a 	cmpne	r9,r6,zero
   842e8:	0005883a 	mov	r2,zero
   842ec:	4c53883a 	add	r9,r9,r17
   842f0:	4c63803a 	cmpltu	r17,r9,r17
   842f4:	10c7883a 	add	r3,r2,r3
   842f8:	88c7883a 	add	r3,r17,r3
   842fc:	4823883a 	mov	r17,r9
   84300:	1880202c 	andhi	r2,r3,128
   84304:	1000d026 	beq	r2,zero,84648 <__subdf3+0x5c8>
   84308:	84000044 	addi	r16,r16,1
   8430c:	0081ffc4 	movi	r2,2047
   84310:	8080fe26 	beq	r16,r2,8470c <__subdf3+0x68c>
   84314:	00bfe034 	movhi	r2,65408
   84318:	10bfffc4 	addi	r2,r2,-1
   8431c:	1886703a 	and	r3,r3,r2
   84320:	880ad07a 	srli	r5,r17,1
   84324:	180497fa 	slli	r2,r3,31
   84328:	8900004c 	andi	r4,r17,1
   8432c:	2922b03a 	or	r17,r5,r4
   84330:	1806d07a 	srli	r3,r3,1
   84334:	1462b03a 	or	r17,r2,r17
   84338:	3825883a 	mov	r18,r7
   8433c:	003f7106 	br	84104 <__alt_data_end+0xfffd2104>
   84340:	2984b03a 	or	r2,r5,r6
   84344:	103f6826 	beq	r2,zero,840e8 <__alt_data_end+0xfffd20e8>
   84348:	39c03fcc 	andi	r7,r7,255
   8434c:	003f6706 	br	840ec <__alt_data_end+0xfffd20ec>
   84350:	4086b03a 	or	r3,r8,r2
   84354:	18015226 	beq	r3,zero,848a0 <__subdf3+0x820>
   84358:	00c00434 	movhi	r3,16
   8435c:	41400234 	orhi	r5,r8,8
   84360:	18ffffc4 	addi	r3,r3,-1
   84364:	28ca703a 	and	r5,r5,r3
   84368:	003f7e06 	br	84164 <__alt_data_end+0xfffd2164>
   8436c:	10bfffc4 	addi	r2,r2,-1
   84370:	1000491e 	bne	r2,zero,84498 <__subdf3+0x418>
   84374:	898fc83a 	sub	r7,r17,r6
   84378:	89e3803a 	cmpltu	r17,r17,r7
   8437c:	1947c83a 	sub	r3,r3,r5
   84380:	1c47c83a 	sub	r3,r3,r17
   84384:	3823883a 	mov	r17,r7
   84388:	003f9b06 	br	841f8 <__alt_data_end+0xfffd21f8>
   8438c:	2988b03a 	or	r4,r5,r6
   84390:	203f5c26 	beq	r4,zero,84104 <__alt_data_end+0xfffd2104>
   84394:	10bfffc4 	addi	r2,r2,-1
   84398:	1000931e 	bne	r2,zero,845e8 <__subdf3+0x568>
   8439c:	898d883a 	add	r6,r17,r6
   843a0:	3463803a 	cmpltu	r17,r6,r17
   843a4:	1947883a 	add	r3,r3,r5
   843a8:	88c7883a 	add	r3,r17,r3
   843ac:	3023883a 	mov	r17,r6
   843b0:	003fd306 	br	84300 <__alt_data_end+0xfffd2300>
   843b4:	1000541e 	bne	r2,zero,84508 <__subdf3+0x488>
   843b8:	80800044 	addi	r2,r16,1
   843bc:	1081ffcc 	andi	r2,r2,2047
   843c0:	01000044 	movi	r4,1
   843c4:	2080a20e 	bge	r4,r2,84650 <__subdf3+0x5d0>
   843c8:	8989c83a 	sub	r4,r17,r6
   843cc:	8905803a 	cmpltu	r2,r17,r4
   843d0:	1967c83a 	sub	r19,r3,r5
   843d4:	98a7c83a 	sub	r19,r19,r2
   843d8:	9880202c 	andhi	r2,r19,128
   843dc:	10006326 	beq	r2,zero,8456c <__subdf3+0x4ec>
   843e0:	3463c83a 	sub	r17,r6,r17
   843e4:	28c7c83a 	sub	r3,r5,r3
   843e8:	344d803a 	cmpltu	r6,r6,r17
   843ec:	19a7c83a 	sub	r19,r3,r6
   843f0:	3825883a 	mov	r18,r7
   843f4:	983f861e 	bne	r19,zero,84210 <__alt_data_end+0xfffd2210>
   843f8:	8809883a 	mov	r4,r17
   843fc:	0084d900 	call	84d90 <__clzsi2>
   84400:	10800804 	addi	r2,r2,32
   84404:	113ffe04 	addi	r4,r2,-8
   84408:	00c007c4 	movi	r3,31
   8440c:	193f850e 	bge	r3,r4,84224 <__alt_data_end+0xfffd2224>
   84410:	10bff604 	addi	r2,r2,-40
   84414:	8884983a 	sll	r2,r17,r2
   84418:	0023883a 	mov	r17,zero
   8441c:	243f880e 	bge	r4,r16,84240 <__alt_data_end+0xfffd2240>
   84420:	00ffe034 	movhi	r3,65408
   84424:	18ffffc4 	addi	r3,r3,-1
   84428:	8121c83a 	sub	r16,r16,r4
   8442c:	10c6703a 	and	r3,r2,r3
   84430:	003f3406 	br	84104 <__alt_data_end+0xfffd2104>
   84434:	9100004c 	andi	r4,r18,1
   84438:	000b883a 	mov	r5,zero
   8443c:	0005883a 	mov	r2,zero
   84440:	003f4806 	br	84164 <__alt_data_end+0xfffd2164>
   84444:	298cb03a 	or	r6,r5,r6
   84448:	300cc03a 	cmpne	r6,r6,zero
   8444c:	0005883a 	mov	r2,zero
   84450:	003f6406 	br	841e4 <__alt_data_end+0xfffd21e4>
   84454:	10009a1e 	bne	r2,zero,846c0 <__subdf3+0x640>
   84458:	82400044 	addi	r9,r16,1
   8445c:	4881ffcc 	andi	r2,r9,2047
   84460:	02800044 	movi	r10,1
   84464:	5080670e 	bge	r10,r2,84604 <__subdf3+0x584>
   84468:	0081ffc4 	movi	r2,2047
   8446c:	4880af26 	beq	r9,r2,8472c <__subdf3+0x6ac>
   84470:	898d883a 	add	r6,r17,r6
   84474:	1945883a 	add	r2,r3,r5
   84478:	3447803a 	cmpltu	r3,r6,r17
   8447c:	1887883a 	add	r3,r3,r2
   84480:	182297fa 	slli	r17,r3,31
   84484:	300cd07a 	srli	r6,r6,1
   84488:	1806d07a 	srli	r3,r3,1
   8448c:	4821883a 	mov	r16,r9
   84490:	89a2b03a 	or	r17,r17,r6
   84494:	003f1b06 	br	84104 <__alt_data_end+0xfffd2104>
   84498:	0101ffc4 	movi	r4,2047
   8449c:	813f441e 	bne	r16,r4,841b0 <__alt_data_end+0xfffd21b0>
   844a0:	003f1806 	br	84104 <__alt_data_end+0xfffd2104>
   844a4:	843ff844 	addi	r16,r16,-31
   844a8:	01400804 	movi	r5,32
   844ac:	1408d83a 	srl	r4,r2,r16
   844b0:	19405026 	beq	r3,r5,845f4 <__subdf3+0x574>
   844b4:	01401004 	movi	r5,64
   844b8:	28c7c83a 	sub	r3,r5,r3
   844bc:	10c4983a 	sll	r2,r2,r3
   844c0:	88a2b03a 	or	r17,r17,r2
   844c4:	8822c03a 	cmpne	r17,r17,zero
   844c8:	2462b03a 	or	r17,r4,r17
   844cc:	0007883a 	mov	r3,zero
   844d0:	0021883a 	mov	r16,zero
   844d4:	003f6d06 	br	8428c <__alt_data_end+0xfffd228c>
   844d8:	11fff804 	addi	r7,r2,-32
   844dc:	01000804 	movi	r4,32
   844e0:	29ced83a 	srl	r7,r5,r7
   844e4:	11004526 	beq	r2,r4,845fc <__subdf3+0x57c>
   844e8:	01001004 	movi	r4,64
   844ec:	2089c83a 	sub	r4,r4,r2
   844f0:	2904983a 	sll	r2,r5,r4
   844f4:	118cb03a 	or	r6,r2,r6
   844f8:	300cc03a 	cmpne	r6,r6,zero
   844fc:	398cb03a 	or	r6,r7,r6
   84500:	0005883a 	mov	r2,zero
   84504:	003f3706 	br	841e4 <__alt_data_end+0xfffd21e4>
   84508:	80002a26 	beq	r16,zero,845b4 <__subdf3+0x534>
   8450c:	0101ffc4 	movi	r4,2047
   84510:	49006626 	beq	r9,r4,846ac <__subdf3+0x62c>
   84514:	0085c83a 	sub	r2,zero,r2
   84518:	18c02034 	orhi	r3,r3,128
   8451c:	01000e04 	movi	r4,56
   84520:	20807e16 	blt	r4,r2,8471c <__subdf3+0x69c>
   84524:	010007c4 	movi	r4,31
   84528:	2080e716 	blt	r4,r2,848c8 <__subdf3+0x848>
   8452c:	01000804 	movi	r4,32
   84530:	2089c83a 	sub	r4,r4,r2
   84534:	1914983a 	sll	r10,r3,r4
   84538:	8890d83a 	srl	r8,r17,r2
   8453c:	8908983a 	sll	r4,r17,r4
   84540:	1884d83a 	srl	r2,r3,r2
   84544:	5222b03a 	or	r17,r10,r8
   84548:	2006c03a 	cmpne	r3,r4,zero
   8454c:	88e2b03a 	or	r17,r17,r3
   84550:	3463c83a 	sub	r17,r6,r17
   84554:	2885c83a 	sub	r2,r5,r2
   84558:	344d803a 	cmpltu	r6,r6,r17
   8455c:	1187c83a 	sub	r3,r2,r6
   84560:	4821883a 	mov	r16,r9
   84564:	3825883a 	mov	r18,r7
   84568:	003f2306 	br	841f8 <__alt_data_end+0xfffd21f8>
   8456c:	24d0b03a 	or	r8,r4,r19
   84570:	40001b1e 	bne	r8,zero,845e0 <__subdf3+0x560>
   84574:	0005883a 	mov	r2,zero
   84578:	0009883a 	mov	r4,zero
   8457c:	0021883a 	mov	r16,zero
   84580:	003f4906 	br	842a8 <__alt_data_end+0xfffd22a8>
   84584:	010007c4 	movi	r4,31
   84588:	20803a16 	blt	r4,r2,84674 <__subdf3+0x5f4>
   8458c:	01000804 	movi	r4,32
   84590:	2089c83a 	sub	r4,r4,r2
   84594:	2912983a 	sll	r9,r5,r4
   84598:	3090d83a 	srl	r8,r6,r2
   8459c:	3108983a 	sll	r4,r6,r4
   845a0:	2884d83a 	srl	r2,r5,r2
   845a4:	4a12b03a 	or	r9,r9,r8
   845a8:	2008c03a 	cmpne	r4,r4,zero
   845ac:	4912b03a 	or	r9,r9,r4
   845b0:	003f4e06 	br	842ec <__alt_data_end+0xfffd22ec>
   845b4:	1c48b03a 	or	r4,r3,r17
   845b8:	20003c26 	beq	r4,zero,846ac <__subdf3+0x62c>
   845bc:	0084303a 	nor	r2,zero,r2
   845c0:	1000381e 	bne	r2,zero,846a4 <__subdf3+0x624>
   845c4:	3463c83a 	sub	r17,r6,r17
   845c8:	28c5c83a 	sub	r2,r5,r3
   845cc:	344d803a 	cmpltu	r6,r6,r17
   845d0:	1187c83a 	sub	r3,r2,r6
   845d4:	4821883a 	mov	r16,r9
   845d8:	3825883a 	mov	r18,r7
   845dc:	003f0606 	br	841f8 <__alt_data_end+0xfffd21f8>
   845e0:	2023883a 	mov	r17,r4
   845e4:	003f0906 	br	8420c <__alt_data_end+0xfffd220c>
   845e8:	0101ffc4 	movi	r4,2047
   845ec:	813f3a1e 	bne	r16,r4,842d8 <__alt_data_end+0xfffd22d8>
   845f0:	003ec406 	br	84104 <__alt_data_end+0xfffd2104>
   845f4:	0005883a 	mov	r2,zero
   845f8:	003fb106 	br	844c0 <__alt_data_end+0xfffd24c0>
   845fc:	0005883a 	mov	r2,zero
   84600:	003fbc06 	br	844f4 <__alt_data_end+0xfffd24f4>
   84604:	1c44b03a 	or	r2,r3,r17
   84608:	80008e1e 	bne	r16,zero,84844 <__subdf3+0x7c4>
   8460c:	1000c826 	beq	r2,zero,84930 <__subdf3+0x8b0>
   84610:	2984b03a 	or	r2,r5,r6
   84614:	103ebb26 	beq	r2,zero,84104 <__alt_data_end+0xfffd2104>
   84618:	8989883a 	add	r4,r17,r6
   8461c:	1945883a 	add	r2,r3,r5
   84620:	2447803a 	cmpltu	r3,r4,r17
   84624:	1887883a 	add	r3,r3,r2
   84628:	1880202c 	andhi	r2,r3,128
   8462c:	2023883a 	mov	r17,r4
   84630:	103f1626 	beq	r2,zero,8428c <__alt_data_end+0xfffd228c>
   84634:	00bfe034 	movhi	r2,65408
   84638:	10bfffc4 	addi	r2,r2,-1
   8463c:	5021883a 	mov	r16,r10
   84640:	1886703a 	and	r3,r3,r2
   84644:	003eaf06 	br	84104 <__alt_data_end+0xfffd2104>
   84648:	3825883a 	mov	r18,r7
   8464c:	003f0f06 	br	8428c <__alt_data_end+0xfffd228c>
   84650:	1c44b03a 	or	r2,r3,r17
   84654:	8000251e 	bne	r16,zero,846ec <__subdf3+0x66c>
   84658:	1000661e 	bne	r2,zero,847f4 <__subdf3+0x774>
   8465c:	2990b03a 	or	r8,r5,r6
   84660:	40009626 	beq	r8,zero,848bc <__subdf3+0x83c>
   84664:	2807883a 	mov	r3,r5
   84668:	3023883a 	mov	r17,r6
   8466c:	3825883a 	mov	r18,r7
   84670:	003ea406 	br	84104 <__alt_data_end+0xfffd2104>
   84674:	127ff804 	addi	r9,r2,-32
   84678:	01000804 	movi	r4,32
   8467c:	2a52d83a 	srl	r9,r5,r9
   84680:	11008c26 	beq	r2,r4,848b4 <__subdf3+0x834>
   84684:	01001004 	movi	r4,64
   84688:	2085c83a 	sub	r2,r4,r2
   8468c:	2884983a 	sll	r2,r5,r2
   84690:	118cb03a 	or	r6,r2,r6
   84694:	300cc03a 	cmpne	r6,r6,zero
   84698:	4992b03a 	or	r9,r9,r6
   8469c:	0005883a 	mov	r2,zero
   846a0:	003f1206 	br	842ec <__alt_data_end+0xfffd22ec>
   846a4:	0101ffc4 	movi	r4,2047
   846a8:	493f9c1e 	bne	r9,r4,8451c <__alt_data_end+0xfffd251c>
   846ac:	2807883a 	mov	r3,r5
   846b0:	3023883a 	mov	r17,r6
   846b4:	4821883a 	mov	r16,r9
   846b8:	3825883a 	mov	r18,r7
   846bc:	003e9106 	br	84104 <__alt_data_end+0xfffd2104>
   846c0:	80001f1e 	bne	r16,zero,84740 <__subdf3+0x6c0>
   846c4:	1c48b03a 	or	r4,r3,r17
   846c8:	20005a26 	beq	r4,zero,84834 <__subdf3+0x7b4>
   846cc:	0084303a 	nor	r2,zero,r2
   846d0:	1000561e 	bne	r2,zero,8482c <__subdf3+0x7ac>
   846d4:	89a3883a 	add	r17,r17,r6
   846d8:	1945883a 	add	r2,r3,r5
   846dc:	898d803a 	cmpltu	r6,r17,r6
   846e0:	3087883a 	add	r3,r6,r2
   846e4:	4821883a 	mov	r16,r9
   846e8:	003f0506 	br	84300 <__alt_data_end+0xfffd2300>
   846ec:	10002b1e 	bne	r2,zero,8479c <__subdf3+0x71c>
   846f0:	2984b03a 	or	r2,r5,r6
   846f4:	10008026 	beq	r2,zero,848f8 <__subdf3+0x878>
   846f8:	2807883a 	mov	r3,r5
   846fc:	3023883a 	mov	r17,r6
   84700:	3825883a 	mov	r18,r7
   84704:	0401ffc4 	movi	r16,2047
   84708:	003e7e06 	br	84104 <__alt_data_end+0xfffd2104>
   8470c:	3809883a 	mov	r4,r7
   84710:	0011883a 	mov	r8,zero
   84714:	0005883a 	mov	r2,zero
   84718:	003ee306 	br	842a8 <__alt_data_end+0xfffd22a8>
   8471c:	1c62b03a 	or	r17,r3,r17
   84720:	8822c03a 	cmpne	r17,r17,zero
   84724:	0005883a 	mov	r2,zero
   84728:	003f8906 	br	84550 <__alt_data_end+0xfffd2550>
   8472c:	3809883a 	mov	r4,r7
   84730:	4821883a 	mov	r16,r9
   84734:	0011883a 	mov	r8,zero
   84738:	0005883a 	mov	r2,zero
   8473c:	003eda06 	br	842a8 <__alt_data_end+0xfffd22a8>
   84740:	0101ffc4 	movi	r4,2047
   84744:	49003b26 	beq	r9,r4,84834 <__subdf3+0x7b4>
   84748:	0085c83a 	sub	r2,zero,r2
   8474c:	18c02034 	orhi	r3,r3,128
   84750:	01000e04 	movi	r4,56
   84754:	20806e16 	blt	r4,r2,84910 <__subdf3+0x890>
   84758:	010007c4 	movi	r4,31
   8475c:	20807716 	blt	r4,r2,8493c <__subdf3+0x8bc>
   84760:	01000804 	movi	r4,32
   84764:	2089c83a 	sub	r4,r4,r2
   84768:	1914983a 	sll	r10,r3,r4
   8476c:	8890d83a 	srl	r8,r17,r2
   84770:	8908983a 	sll	r4,r17,r4
   84774:	1884d83a 	srl	r2,r3,r2
   84778:	5222b03a 	or	r17,r10,r8
   8477c:	2006c03a 	cmpne	r3,r4,zero
   84780:	88e2b03a 	or	r17,r17,r3
   84784:	89a3883a 	add	r17,r17,r6
   84788:	1145883a 	add	r2,r2,r5
   8478c:	898d803a 	cmpltu	r6,r17,r6
   84790:	3087883a 	add	r3,r6,r2
   84794:	4821883a 	mov	r16,r9
   84798:	003ed906 	br	84300 <__alt_data_end+0xfffd2300>
   8479c:	2984b03a 	or	r2,r5,r6
   847a0:	10004226 	beq	r2,zero,848ac <__subdf3+0x82c>
   847a4:	1808d0fa 	srli	r4,r3,3
   847a8:	8822d0fa 	srli	r17,r17,3
   847ac:	1806977a 	slli	r3,r3,29
   847b0:	2080022c 	andhi	r2,r4,8
   847b4:	1c62b03a 	or	r17,r3,r17
   847b8:	10000826 	beq	r2,zero,847dc <__subdf3+0x75c>
   847bc:	2812d0fa 	srli	r9,r5,3
   847c0:	4880022c 	andhi	r2,r9,8
   847c4:	1000051e 	bne	r2,zero,847dc <__subdf3+0x75c>
   847c8:	300cd0fa 	srli	r6,r6,3
   847cc:	2804977a 	slli	r2,r5,29
   847d0:	4809883a 	mov	r4,r9
   847d4:	3825883a 	mov	r18,r7
   847d8:	11a2b03a 	or	r17,r2,r6
   847dc:	8806d77a 	srli	r3,r17,29
   847e0:	200890fa 	slli	r4,r4,3
   847e4:	882290fa 	slli	r17,r17,3
   847e8:	0401ffc4 	movi	r16,2047
   847ec:	1906b03a 	or	r3,r3,r4
   847f0:	003e4406 	br	84104 <__alt_data_end+0xfffd2104>
   847f4:	2984b03a 	or	r2,r5,r6
   847f8:	103e4226 	beq	r2,zero,84104 <__alt_data_end+0xfffd2104>
   847fc:	8989c83a 	sub	r4,r17,r6
   84800:	8911803a 	cmpltu	r8,r17,r4
   84804:	1945c83a 	sub	r2,r3,r5
   84808:	1205c83a 	sub	r2,r2,r8
   8480c:	1200202c 	andhi	r8,r2,128
   84810:	403e9a26 	beq	r8,zero,8427c <__alt_data_end+0xfffd227c>
   84814:	3463c83a 	sub	r17,r6,r17
   84818:	28c5c83a 	sub	r2,r5,r3
   8481c:	344d803a 	cmpltu	r6,r6,r17
   84820:	1187c83a 	sub	r3,r2,r6
   84824:	3825883a 	mov	r18,r7
   84828:	003e3606 	br	84104 <__alt_data_end+0xfffd2104>
   8482c:	0101ffc4 	movi	r4,2047
   84830:	493fc71e 	bne	r9,r4,84750 <__alt_data_end+0xfffd2750>
   84834:	2807883a 	mov	r3,r5
   84838:	3023883a 	mov	r17,r6
   8483c:	4821883a 	mov	r16,r9
   84840:	003e3006 	br	84104 <__alt_data_end+0xfffd2104>
   84844:	10003626 	beq	r2,zero,84920 <__subdf3+0x8a0>
   84848:	2984b03a 	or	r2,r5,r6
   8484c:	10001726 	beq	r2,zero,848ac <__subdf3+0x82c>
   84850:	1808d0fa 	srli	r4,r3,3
   84854:	8822d0fa 	srli	r17,r17,3
   84858:	1806977a 	slli	r3,r3,29
   8485c:	2080022c 	andhi	r2,r4,8
   84860:	1c62b03a 	or	r17,r3,r17
   84864:	10000726 	beq	r2,zero,84884 <__subdf3+0x804>
   84868:	2812d0fa 	srli	r9,r5,3
   8486c:	4880022c 	andhi	r2,r9,8
   84870:	1000041e 	bne	r2,zero,84884 <__subdf3+0x804>
   84874:	300cd0fa 	srli	r6,r6,3
   84878:	2804977a 	slli	r2,r5,29
   8487c:	4809883a 	mov	r4,r9
   84880:	11a2b03a 	or	r17,r2,r6
   84884:	8806d77a 	srli	r3,r17,29
   84888:	200890fa 	slli	r4,r4,3
   8488c:	882290fa 	slli	r17,r17,3
   84890:	3825883a 	mov	r18,r7
   84894:	1906b03a 	or	r3,r3,r4
   84898:	0401ffc4 	movi	r16,2047
   8489c:	003e1906 	br	84104 <__alt_data_end+0xfffd2104>
   848a0:	000b883a 	mov	r5,zero
   848a4:	0005883a 	mov	r2,zero
   848a8:	003e2e06 	br	84164 <__alt_data_end+0xfffd2164>
   848ac:	0401ffc4 	movi	r16,2047
   848b0:	003e1406 	br	84104 <__alt_data_end+0xfffd2104>
   848b4:	0005883a 	mov	r2,zero
   848b8:	003f7506 	br	84690 <__alt_data_end+0xfffd2690>
   848bc:	0005883a 	mov	r2,zero
   848c0:	0009883a 	mov	r4,zero
   848c4:	003e7806 	br	842a8 <__alt_data_end+0xfffd22a8>
   848c8:	123ff804 	addi	r8,r2,-32
   848cc:	01000804 	movi	r4,32
   848d0:	1a10d83a 	srl	r8,r3,r8
   848d4:	11002526 	beq	r2,r4,8496c <__subdf3+0x8ec>
   848d8:	01001004 	movi	r4,64
   848dc:	2085c83a 	sub	r2,r4,r2
   848e0:	1884983a 	sll	r2,r3,r2
   848e4:	1444b03a 	or	r2,r2,r17
   848e8:	1004c03a 	cmpne	r2,r2,zero
   848ec:	40a2b03a 	or	r17,r8,r2
   848f0:	0005883a 	mov	r2,zero
   848f4:	003f1606 	br	84550 <__alt_data_end+0xfffd2550>
   848f8:	02000434 	movhi	r8,16
   848fc:	0009883a 	mov	r4,zero
   84900:	423fffc4 	addi	r8,r8,-1
   84904:	00bfffc4 	movi	r2,-1
   84908:	0401ffc4 	movi	r16,2047
   8490c:	003e6606 	br	842a8 <__alt_data_end+0xfffd22a8>
   84910:	1c62b03a 	or	r17,r3,r17
   84914:	8822c03a 	cmpne	r17,r17,zero
   84918:	0005883a 	mov	r2,zero
   8491c:	003f9906 	br	84784 <__alt_data_end+0xfffd2784>
   84920:	2807883a 	mov	r3,r5
   84924:	3023883a 	mov	r17,r6
   84928:	0401ffc4 	movi	r16,2047
   8492c:	003df506 	br	84104 <__alt_data_end+0xfffd2104>
   84930:	2807883a 	mov	r3,r5
   84934:	3023883a 	mov	r17,r6
   84938:	003df206 	br	84104 <__alt_data_end+0xfffd2104>
   8493c:	123ff804 	addi	r8,r2,-32
   84940:	01000804 	movi	r4,32
   84944:	1a10d83a 	srl	r8,r3,r8
   84948:	11000a26 	beq	r2,r4,84974 <__subdf3+0x8f4>
   8494c:	01001004 	movi	r4,64
   84950:	2085c83a 	sub	r2,r4,r2
   84954:	1884983a 	sll	r2,r3,r2
   84958:	1444b03a 	or	r2,r2,r17
   8495c:	1004c03a 	cmpne	r2,r2,zero
   84960:	40a2b03a 	or	r17,r8,r2
   84964:	0005883a 	mov	r2,zero
   84968:	003f8606 	br	84784 <__alt_data_end+0xfffd2784>
   8496c:	0005883a 	mov	r2,zero
   84970:	003fdc06 	br	848e4 <__alt_data_end+0xfffd28e4>
   84974:	0005883a 	mov	r2,zero
   84978:	003ff706 	br	84958 <__alt_data_end+0xfffd2958>

0008497c <__fixdfsi>:
   8497c:	280cd53a 	srli	r6,r5,20
   84980:	00c00434 	movhi	r3,16
   84984:	18ffffc4 	addi	r3,r3,-1
   84988:	3181ffcc 	andi	r6,r6,2047
   8498c:	01c0ff84 	movi	r7,1022
   84990:	28c6703a 	and	r3,r5,r3
   84994:	280ad7fa 	srli	r5,r5,31
   84998:	3980120e 	bge	r7,r6,849e4 <__fixdfsi+0x68>
   8499c:	00810744 	movi	r2,1053
   849a0:	11800c16 	blt	r2,r6,849d4 <__fixdfsi+0x58>
   849a4:	00810cc4 	movi	r2,1075
   849a8:	1185c83a 	sub	r2,r2,r6
   849ac:	01c007c4 	movi	r7,31
   849b0:	18c00434 	orhi	r3,r3,16
   849b4:	38800d16 	blt	r7,r2,849ec <__fixdfsi+0x70>
   849b8:	31befb44 	addi	r6,r6,-1043
   849bc:	2084d83a 	srl	r2,r4,r2
   849c0:	1986983a 	sll	r3,r3,r6
   849c4:	1884b03a 	or	r2,r3,r2
   849c8:	28000726 	beq	r5,zero,849e8 <__fixdfsi+0x6c>
   849cc:	0085c83a 	sub	r2,zero,r2
   849d0:	f800283a 	ret
   849d4:	00a00034 	movhi	r2,32768
   849d8:	10bfffc4 	addi	r2,r2,-1
   849dc:	2885883a 	add	r2,r5,r2
   849e0:	f800283a 	ret
   849e4:	0005883a 	mov	r2,zero
   849e8:	f800283a 	ret
   849ec:	008104c4 	movi	r2,1043
   849f0:	1185c83a 	sub	r2,r2,r6
   849f4:	1884d83a 	srl	r2,r3,r2
   849f8:	003ff306 	br	849c8 <__alt_data_end+0xfffd29c8>

000849fc <__floatsidf>:
   849fc:	defffd04 	addi	sp,sp,-12
   84a00:	dfc00215 	stw	ra,8(sp)
   84a04:	dc400115 	stw	r17,4(sp)
   84a08:	dc000015 	stw	r16,0(sp)
   84a0c:	20002b26 	beq	r4,zero,84abc <__floatsidf+0xc0>
   84a10:	2023883a 	mov	r17,r4
   84a14:	2020d7fa 	srli	r16,r4,31
   84a18:	20002d16 	blt	r4,zero,84ad0 <__floatsidf+0xd4>
   84a1c:	8809883a 	mov	r4,r17
   84a20:	0084d900 	call	84d90 <__clzsi2>
   84a24:	01410784 	movi	r5,1054
   84a28:	288bc83a 	sub	r5,r5,r2
   84a2c:	01010cc4 	movi	r4,1075
   84a30:	2149c83a 	sub	r4,r4,r5
   84a34:	00c007c4 	movi	r3,31
   84a38:	1900160e 	bge	r3,r4,84a94 <__floatsidf+0x98>
   84a3c:	00c104c4 	movi	r3,1043
   84a40:	1947c83a 	sub	r3,r3,r5
   84a44:	88c6983a 	sll	r3,r17,r3
   84a48:	00800434 	movhi	r2,16
   84a4c:	10bfffc4 	addi	r2,r2,-1
   84a50:	1886703a 	and	r3,r3,r2
   84a54:	2941ffcc 	andi	r5,r5,2047
   84a58:	800d883a 	mov	r6,r16
   84a5c:	0005883a 	mov	r2,zero
   84a60:	280a953a 	slli	r5,r5,20
   84a64:	31803fcc 	andi	r6,r6,255
   84a68:	01000434 	movhi	r4,16
   84a6c:	300c97fa 	slli	r6,r6,31
   84a70:	213fffc4 	addi	r4,r4,-1
   84a74:	1906703a 	and	r3,r3,r4
   84a78:	1946b03a 	or	r3,r3,r5
   84a7c:	1986b03a 	or	r3,r3,r6
   84a80:	dfc00217 	ldw	ra,8(sp)
   84a84:	dc400117 	ldw	r17,4(sp)
   84a88:	dc000017 	ldw	r16,0(sp)
   84a8c:	dec00304 	addi	sp,sp,12
   84a90:	f800283a 	ret
   84a94:	00c002c4 	movi	r3,11
   84a98:	1887c83a 	sub	r3,r3,r2
   84a9c:	88c6d83a 	srl	r3,r17,r3
   84aa0:	8904983a 	sll	r2,r17,r4
   84aa4:	01000434 	movhi	r4,16
   84aa8:	213fffc4 	addi	r4,r4,-1
   84aac:	2941ffcc 	andi	r5,r5,2047
   84ab0:	1906703a 	and	r3,r3,r4
   84ab4:	800d883a 	mov	r6,r16
   84ab8:	003fe906 	br	84a60 <__alt_data_end+0xfffd2a60>
   84abc:	000d883a 	mov	r6,zero
   84ac0:	000b883a 	mov	r5,zero
   84ac4:	0007883a 	mov	r3,zero
   84ac8:	0005883a 	mov	r2,zero
   84acc:	003fe406 	br	84a60 <__alt_data_end+0xfffd2a60>
   84ad0:	0123c83a 	sub	r17,zero,r4
   84ad4:	003fd106 	br	84a1c <__alt_data_end+0xfffd2a1c>

00084ad8 <__extendsfdf2>:
   84ad8:	200ad5fa 	srli	r5,r4,23
   84adc:	defffd04 	addi	sp,sp,-12
   84ae0:	dc400115 	stw	r17,4(sp)
   84ae4:	29403fcc 	andi	r5,r5,255
   84ae8:	29800044 	addi	r6,r5,1
   84aec:	04402034 	movhi	r17,128
   84af0:	dc000015 	stw	r16,0(sp)
   84af4:	8c7fffc4 	addi	r17,r17,-1
   84af8:	dfc00215 	stw	ra,8(sp)
   84afc:	31803fcc 	andi	r6,r6,255
   84b00:	00800044 	movi	r2,1
   84b04:	8922703a 	and	r17,r17,r4
   84b08:	2020d7fa 	srli	r16,r4,31
   84b0c:	1180110e 	bge	r2,r6,84b54 <__extendsfdf2+0x7c>
   84b10:	880cd0fa 	srli	r6,r17,3
   84b14:	8822977a 	slli	r17,r17,29
   84b18:	2940e004 	addi	r5,r5,896
   84b1c:	2941ffcc 	andi	r5,r5,2047
   84b20:	2804953a 	slli	r2,r5,20
   84b24:	01400434 	movhi	r5,16
   84b28:	800697fa 	slli	r3,r16,31
   84b2c:	297fffc4 	addi	r5,r5,-1
   84b30:	314a703a 	and	r5,r6,r5
   84b34:	288ab03a 	or	r5,r5,r2
   84b38:	28c6b03a 	or	r3,r5,r3
   84b3c:	8805883a 	mov	r2,r17
   84b40:	dfc00217 	ldw	ra,8(sp)
   84b44:	dc400117 	ldw	r17,4(sp)
   84b48:	dc000017 	ldw	r16,0(sp)
   84b4c:	dec00304 	addi	sp,sp,12
   84b50:	f800283a 	ret
   84b54:	2800111e 	bne	r5,zero,84b9c <__extendsfdf2+0xc4>
   84b58:	88001c26 	beq	r17,zero,84bcc <__extendsfdf2+0xf4>
   84b5c:	8809883a 	mov	r4,r17
   84b60:	0084d900 	call	84d90 <__clzsi2>
   84b64:	00c00284 	movi	r3,10
   84b68:	18801b16 	blt	r3,r2,84bd8 <__extendsfdf2+0x100>
   84b6c:	018002c4 	movi	r6,11
   84b70:	308dc83a 	sub	r6,r6,r2
   84b74:	11000544 	addi	r4,r2,21
   84b78:	8986d83a 	srl	r3,r17,r6
   84b7c:	8922983a 	sll	r17,r17,r4
   84b80:	0180e244 	movi	r6,905
   84b84:	01400434 	movhi	r5,16
   84b88:	3085c83a 	sub	r2,r6,r2
   84b8c:	297fffc4 	addi	r5,r5,-1
   84b90:	194c703a 	and	r6,r3,r5
   84b94:	1141ffcc 	andi	r5,r2,2047
   84b98:	003fe006 	br	84b1c <__alt_data_end+0xfffd2b1c>
   84b9c:	88000826 	beq	r17,zero,84bc0 <__extendsfdf2+0xe8>
   84ba0:	880cd0fa 	srli	r6,r17,3
   84ba4:	00800434 	movhi	r2,16
   84ba8:	10bfffc4 	addi	r2,r2,-1
   84bac:	31800234 	orhi	r6,r6,8
   84bb0:	8822977a 	slli	r17,r17,29
   84bb4:	308c703a 	and	r6,r6,r2
   84bb8:	0141ffc4 	movi	r5,2047
   84bbc:	003fd706 	br	84b1c <__alt_data_end+0xfffd2b1c>
   84bc0:	0141ffc4 	movi	r5,2047
   84bc4:	000d883a 	mov	r6,zero
   84bc8:	003fd406 	br	84b1c <__alt_data_end+0xfffd2b1c>
   84bcc:	000b883a 	mov	r5,zero
   84bd0:	000d883a 	mov	r6,zero
   84bd4:	003fd106 	br	84b1c <__alt_data_end+0xfffd2b1c>
   84bd8:	11bffd44 	addi	r6,r2,-11
   84bdc:	8986983a 	sll	r3,r17,r6
   84be0:	0023883a 	mov	r17,zero
   84be4:	003fe606 	br	84b80 <__alt_data_end+0xfffd2b80>

00084be8 <__truncdfsf2>:
   84be8:	2810d53a 	srli	r8,r5,20
   84bec:	01c00434 	movhi	r7,16
   84bf0:	39ffffc4 	addi	r7,r7,-1
   84bf4:	29ce703a 	and	r7,r5,r7
   84bf8:	4201ffcc 	andi	r8,r8,2047
   84bfc:	380e90fa 	slli	r7,r7,3
   84c00:	200cd77a 	srli	r6,r4,29
   84c04:	42400044 	addi	r9,r8,1
   84c08:	4a41ffcc 	andi	r9,r9,2047
   84c0c:	00c00044 	movi	r3,1
   84c10:	280ad7fa 	srli	r5,r5,31
   84c14:	31ceb03a 	or	r7,r6,r7
   84c18:	200490fa 	slli	r2,r4,3
   84c1c:	1a40230e 	bge	r3,r9,84cac <__truncdfsf2+0xc4>
   84c20:	40ff2004 	addi	r3,r8,-896
   84c24:	01803f84 	movi	r6,254
   84c28:	30c01516 	blt	r6,r3,84c80 <__truncdfsf2+0x98>
   84c2c:	00c0380e 	bge	zero,r3,84d10 <__truncdfsf2+0x128>
   84c30:	200c91ba 	slli	r6,r4,6
   84c34:	380e90fa 	slli	r7,r7,3
   84c38:	1004d77a 	srli	r2,r2,29
   84c3c:	300cc03a 	cmpne	r6,r6,zero
   84c40:	31ccb03a 	or	r6,r6,r7
   84c44:	308cb03a 	or	r6,r6,r2
   84c48:	308001cc 	andi	r2,r6,7
   84c4c:	10000426 	beq	r2,zero,84c60 <__truncdfsf2+0x78>
   84c50:	308003cc 	andi	r2,r6,15
   84c54:	01000104 	movi	r4,4
   84c58:	11000126 	beq	r2,r4,84c60 <__truncdfsf2+0x78>
   84c5c:	31800104 	addi	r6,r6,4
   84c60:	3081002c 	andhi	r2,r6,1024
   84c64:	10001626 	beq	r2,zero,84cc0 <__truncdfsf2+0xd8>
   84c68:	18c00044 	addi	r3,r3,1
   84c6c:	00803fc4 	movi	r2,255
   84c70:	18800326 	beq	r3,r2,84c80 <__truncdfsf2+0x98>
   84c74:	300c91ba 	slli	r6,r6,6
   84c78:	300cd27a 	srli	r6,r6,9
   84c7c:	00000206 	br	84c88 <__truncdfsf2+0xa0>
   84c80:	00ffffc4 	movi	r3,-1
   84c84:	000d883a 	mov	r6,zero
   84c88:	18c03fcc 	andi	r3,r3,255
   84c8c:	180895fa 	slli	r4,r3,23
   84c90:	00c02034 	movhi	r3,128
   84c94:	280a97fa 	slli	r5,r5,31
   84c98:	18ffffc4 	addi	r3,r3,-1
   84c9c:	30c6703a 	and	r3,r6,r3
   84ca0:	1906b03a 	or	r3,r3,r4
   84ca4:	1944b03a 	or	r2,r3,r5
   84ca8:	f800283a 	ret
   84cac:	40000b1e 	bne	r8,zero,84cdc <__truncdfsf2+0xf4>
   84cb0:	388cb03a 	or	r6,r7,r2
   84cb4:	0007883a 	mov	r3,zero
   84cb8:	30000426 	beq	r6,zero,84ccc <__truncdfsf2+0xe4>
   84cbc:	01800144 	movi	r6,5
   84cc0:	00803fc4 	movi	r2,255
   84cc4:	300cd0fa 	srli	r6,r6,3
   84cc8:	18800a26 	beq	r3,r2,84cf4 <__truncdfsf2+0x10c>
   84ccc:	00802034 	movhi	r2,128
   84cd0:	10bfffc4 	addi	r2,r2,-1
   84cd4:	308c703a 	and	r6,r6,r2
   84cd8:	003feb06 	br	84c88 <__alt_data_end+0xfffd2c88>
   84cdc:	3888b03a 	or	r4,r7,r2
   84ce0:	203fe726 	beq	r4,zero,84c80 <__alt_data_end+0xfffd2c80>
   84ce4:	380c90fa 	slli	r6,r7,3
   84ce8:	00c03fc4 	movi	r3,255
   84cec:	31808034 	orhi	r6,r6,512
   84cf0:	003fd506 	br	84c48 <__alt_data_end+0xfffd2c48>
   84cf4:	303fe226 	beq	r6,zero,84c80 <__alt_data_end+0xfffd2c80>
   84cf8:	00802034 	movhi	r2,128
   84cfc:	31801034 	orhi	r6,r6,64
   84d00:	10bfffc4 	addi	r2,r2,-1
   84d04:	00ffffc4 	movi	r3,-1
   84d08:	308c703a 	and	r6,r6,r2
   84d0c:	003fde06 	br	84c88 <__alt_data_end+0xfffd2c88>
   84d10:	013ffa44 	movi	r4,-23
   84d14:	19000e16 	blt	r3,r4,84d50 <__truncdfsf2+0x168>
   84d18:	01000784 	movi	r4,30
   84d1c:	20c9c83a 	sub	r4,r4,r3
   84d20:	018007c4 	movi	r6,31
   84d24:	39c02034 	orhi	r7,r7,128
   84d28:	31000b16 	blt	r6,r4,84d58 <__truncdfsf2+0x170>
   84d2c:	423f2084 	addi	r8,r8,-894
   84d30:	120c983a 	sll	r6,r2,r8
   84d34:	3a0e983a 	sll	r7,r7,r8
   84d38:	1104d83a 	srl	r2,r2,r4
   84d3c:	300cc03a 	cmpne	r6,r6,zero
   84d40:	31ceb03a 	or	r7,r6,r7
   84d44:	388cb03a 	or	r6,r7,r2
   84d48:	0007883a 	mov	r3,zero
   84d4c:	003fbe06 	br	84c48 <__alt_data_end+0xfffd2c48>
   84d50:	0007883a 	mov	r3,zero
   84d54:	003fd906 	br	84cbc <__alt_data_end+0xfffd2cbc>
   84d58:	01bfff84 	movi	r6,-2
   84d5c:	30cdc83a 	sub	r6,r6,r3
   84d60:	00c00804 	movi	r3,32
   84d64:	398cd83a 	srl	r6,r7,r6
   84d68:	20c00726 	beq	r4,r3,84d88 <__truncdfsf2+0x1a0>
   84d6c:	423f2884 	addi	r8,r8,-862
   84d70:	3a0e983a 	sll	r7,r7,r8
   84d74:	3884b03a 	or	r2,r7,r2
   84d78:	1004c03a 	cmpne	r2,r2,zero
   84d7c:	118cb03a 	or	r6,r2,r6
   84d80:	0007883a 	mov	r3,zero
   84d84:	003fb006 	br	84c48 <__alt_data_end+0xfffd2c48>
   84d88:	000f883a 	mov	r7,zero
   84d8c:	003ff906 	br	84d74 <__alt_data_end+0xfffd2d74>

00084d90 <__clzsi2>:
   84d90:	00bfffd4 	movui	r2,65535
   84d94:	11000536 	bltu	r2,r4,84dac <__clzsi2+0x1c>
   84d98:	00803fc4 	movi	r2,255
   84d9c:	11000f36 	bltu	r2,r4,84ddc <__clzsi2+0x4c>
   84da0:	00800804 	movi	r2,32
   84da4:	0007883a 	mov	r3,zero
   84da8:	00000506 	br	84dc0 <__clzsi2+0x30>
   84dac:	00804034 	movhi	r2,256
   84db0:	10bfffc4 	addi	r2,r2,-1
   84db4:	11000c2e 	bgeu	r2,r4,84de8 <__clzsi2+0x58>
   84db8:	00800204 	movi	r2,8
   84dbc:	00c00604 	movi	r3,24
   84dc0:	20c8d83a 	srl	r4,r4,r3
   84dc4:	00c002b4 	movhi	r3,10
   84dc8:	18c36004 	addi	r3,r3,3456
   84dcc:	1909883a 	add	r4,r3,r4
   84dd0:	20c00003 	ldbu	r3,0(r4)
   84dd4:	10c5c83a 	sub	r2,r2,r3
   84dd8:	f800283a 	ret
   84ddc:	00800604 	movi	r2,24
   84de0:	00c00204 	movi	r3,8
   84de4:	003ff606 	br	84dc0 <__alt_data_end+0xfffd2dc0>
   84de8:	00800404 	movi	r2,16
   84dec:	1007883a 	mov	r3,r2
   84df0:	003ff306 	br	84dc0 <__alt_data_end+0xfffd2dc0>

00084df4 <exit>:
 */

void
_DEFUN (exit, (code),
	int code)
{
   84df4:	defffd04 	addi	sp,sp,-12
   84df8:	dfc00215 	stw	ra,8(sp)
   84dfc:	df000115 	stw	fp,4(sp)
   84e00:	df000104 	addi	fp,sp,4
   84e04:	e13fff15 	stw	r4,-4(fp)
#ifdef _LITE_EXIT
  /* Refer to comments in __atexit.c for more details of lite exit.  */
  void __call_exitprocs _PARAMS ((int, _PTR)) __attribute__((weak));
  if (__call_exitprocs)
#endif
    __call_exitprocs (code, NULL);
   84e08:	000b883a 	mov	r5,zero
   84e0c:	e13fff17 	ldw	r4,-4(fp)
   84e10:	008d3980 	call	8d398 <__call_exitprocs>

#ifndef WANT_SMALL_STDIO				/* AlteraSpecific */
  if (_GLOBAL_REENT->__cleanup)
   84e14:	d0a00517 	ldw	r2,-32748(gp)
   84e18:	10800f17 	ldw	r2,60(r2)
   84e1c:	10000526 	beq	r2,zero,84e34 <exit+0x40>
    (*_GLOBAL_REENT->__cleanup) (_GLOBAL_REENT);
   84e20:	d0a00517 	ldw	r2,-32748(gp)
   84e24:	10800f17 	ldw	r2,60(r2)
   84e28:	d0e00517 	ldw	r3,-32748(gp)
   84e2c:	1809883a 	mov	r4,r3
   84e30:	103ee83a 	callr	r2
#endif							/* AlteraSpecific */
  _exit (code);
   84e34:	e13fff17 	ldw	r4,-4(fp)
   84e38:	009e0580 	call	9e058 <_exit>

00084e3c <_fclose_r>:

int
_DEFUN(_fclose_r, (rptr, fp),
      struct _reent *rptr _AND
      register FILE * fp)
{
   84e3c:	defffa04 	addi	sp,sp,-24
   84e40:	dfc00515 	stw	ra,20(sp)
   84e44:	df000415 	stw	fp,16(sp)
   84e48:	dc000315 	stw	r16,12(sp)
   84e4c:	df000404 	addi	fp,sp,16
   84e50:	e13ffe15 	stw	r4,-8(fp)
   84e54:	2821883a 	mov	r16,r5
  int r;

  if (fp == NULL)
   84e58:	8000021e 	bne	r16,zero,84e64 <_fclose_r+0x28>
    return (0);			/* on NULL */
   84e5c:	0005883a 	mov	r2,zero
   84e60:	00003b06 	br	84f50 <_fclose_r+0x114>

  CHECK_INIT (rptr, fp);
   84e64:	e0bffe17 	ldw	r2,-8(fp)
   84e68:	e0bffd15 	stw	r2,-12(fp)
   84e6c:	e0bffd17 	ldw	r2,-12(fp)
   84e70:	10000526 	beq	r2,zero,84e88 <_fclose_r+0x4c>
   84e74:	e0bffd17 	ldw	r2,-12(fp)
   84e78:	10800e17 	ldw	r2,56(r2)
   84e7c:	1000021e 	bne	r2,zero,84e88 <_fclose_r+0x4c>
   84e80:	e13ffd17 	ldw	r4,-12(fp)
   84e84:	008573c0 	call	8573c <__sinit>
  int __oldcancel;
  pthread_setcancelstate (PTHREAD_CANCEL_DISABLE, &__oldcancel);
#endif
  _flockfile (fp);

  if (fp->_flags == 0)		/* not open! */
   84e88:	8080030b 	ldhu	r2,12(r16)
   84e8c:	10bfffcc 	andi	r2,r2,65535
   84e90:	10a0001c 	xori	r2,r2,32768
   84e94:	10a00004 	addi	r2,r2,-32768
   84e98:	1000021e 	bne	r2,zero,84ea4 <_fclose_r+0x68>
    {
      _funlockfile (fp);
#ifdef _STDIO_WITH_THREAD_CANCELLATION_SUPPORT
      pthread_setcancelstate (__oldcancel, &__oldcancel);
#endif
      return (0);
   84e9c:	0005883a 	mov	r2,zero
   84ea0:	00002b06 	br	84f50 <_fclose_r+0x114>
  r = (fp->_flags & __SWR) ? __sflush_r (rptr, fp) : 0;
#else
  /* Follow POSIX semantics exactly.  Unconditionally flush to allow
     special handling for seekable read files to reposition file to last
     byte processed as opposed to last byte read ahead into the buffer. */
  r = __sflush_r (rptr, fp);
   84ea4:	800b883a 	mov	r5,r16
   84ea8:	e13ffe17 	ldw	r4,-8(fp)
   84eac:	0084fa00 	call	84fa0 <__sflush_r>
   84eb0:	e0bffc15 	stw	r2,-16(fp)
#endif
  if (fp->_close != NULL && fp->_close (rptr, fp->_cookie) < 0)
   84eb4:	80800b17 	ldw	r2,44(r16)
   84eb8:	10000826 	beq	r2,zero,84edc <_fclose_r+0xa0>
   84ebc:	80800b17 	ldw	r2,44(r16)
   84ec0:	80c00717 	ldw	r3,28(r16)
   84ec4:	180b883a 	mov	r5,r3
   84ec8:	e13ffe17 	ldw	r4,-8(fp)
   84ecc:	103ee83a 	callr	r2
   84ed0:	1000020e 	bge	r2,zero,84edc <_fclose_r+0xa0>
    r = EOF;
   84ed4:	00bfffc4 	movi	r2,-1
   84ed8:	e0bffc15 	stw	r2,-16(fp)
  if (fp->_flags & __SMBF)
   84edc:	8080030b 	ldhu	r2,12(r16)
   84ee0:	10bfffcc 	andi	r2,r2,65535
   84ee4:	1080200c 	andi	r2,r2,128
   84ee8:	10000426 	beq	r2,zero,84efc <_fclose_r+0xc0>
    _free_r (rptr, (char *) fp->_bf._base);
   84eec:	80800417 	ldw	r2,16(r16)
   84ef0:	100b883a 	mov	r5,r2
   84ef4:	e13ffe17 	ldw	r4,-8(fp)
   84ef8:	0085c480 	call	85c48 <_free_r>
  if (HASUB (fp))
   84efc:	80800c17 	ldw	r2,48(r16)
   84f00:	10000826 	beq	r2,zero,84f24 <_fclose_r+0xe8>
    FREEUB (rptr, fp);
   84f04:	80c00c17 	ldw	r3,48(r16)
   84f08:	80801004 	addi	r2,r16,64
   84f0c:	18800426 	beq	r3,r2,84f20 <_fclose_r+0xe4>
   84f10:	80800c17 	ldw	r2,48(r16)
   84f14:	100b883a 	mov	r5,r2
   84f18:	e13ffe17 	ldw	r4,-8(fp)
   84f1c:	0085c480 	call	85c48 <_free_r>
   84f20:	80000c15 	stw	zero,48(r16)
  if (HASLB (fp))
   84f24:	80801117 	ldw	r2,68(r16)
   84f28:	10000526 	beq	r2,zero,84f40 <_fclose_r+0x104>
    FREELB (rptr, fp);
   84f2c:	80801117 	ldw	r2,68(r16)
   84f30:	100b883a 	mov	r5,r2
   84f34:	e13ffe17 	ldw	r4,-8(fp)
   84f38:	0085c480 	call	85c48 <_free_r>
   84f3c:	80001115 	stw	zero,68(r16)
  __sfp_lock_acquire ();
   84f40:	00858140 	call	85814 <__sfp_lock_acquire>
  fp->_flags = 0;		/* release this FILE for reuse */
   84f44:	8000030d 	sth	zero,12(r16)
  _funlockfile (fp);
#ifndef __SINGLE_THREAD__
  __lock_close_recursive (fp->_lock);
#endif

  __sfp_lock_release ();
   84f48:	00858340 	call	85834 <__sfp_lock_release>
#ifdef _STDIO_WITH_THREAD_CANCELLATION_SUPPORT
  pthread_setcancelstate (__oldcancel, &__oldcancel);
#endif

  return (r);
   84f4c:	e0bffc17 	ldw	r2,-16(fp)
}
   84f50:	e6ffff04 	addi	sp,fp,-4
   84f54:	dfc00217 	ldw	ra,8(sp)
   84f58:	df000117 	ldw	fp,4(sp)
   84f5c:	dc000017 	ldw	r16,0(sp)
   84f60:	dec00304 	addi	sp,sp,12
   84f64:	f800283a 	ret

00084f68 <fclose>:
#ifndef _REENT_ONLY

int
_DEFUN(fclose, (fp),
       register FILE * fp)
{
   84f68:	defffe04 	addi	sp,sp,-8
   84f6c:	dfc00115 	stw	ra,4(sp)
   84f70:	df000015 	stw	fp,0(sp)
   84f74:	d839883a 	mov	fp,sp
   84f78:	2007883a 	mov	r3,r4
  return _fclose_r(_REENT, fp);
   84f7c:	d0a00417 	ldw	r2,-32752(gp)
   84f80:	180b883a 	mov	r5,r3
   84f84:	1009883a 	mov	r4,r2
   84f88:	0084e3c0 	call	84e3c <_fclose_r>
}
   84f8c:	e037883a 	mov	sp,fp
   84f90:	dfc00117 	ldw	ra,4(sp)
   84f94:	df000017 	ldw	fp,0(sp)
   84f98:	dec00204 	addi	sp,sp,8
   84f9c:	f800283a 	ret

00084fa0 <__sflush_r>:
   directly from __srefill. */
int
_DEFUN(__sflush_r, (ptr, fp),
       struct _reent *ptr _AND
       register FILE * fp)
{
   84fa0:	defff504 	addi	sp,sp,-44
   84fa4:	dfc00a15 	stw	ra,40(sp)
   84fa8:	df000915 	stw	fp,36(sp)
   84fac:	dcc00815 	stw	r19,32(sp)
   84fb0:	dc800715 	stw	r18,28(sp)
   84fb4:	dc400615 	stw	r17,24(sp)
   84fb8:	dc000515 	stw	r16,20(sp)
   84fbc:	df000904 	addi	fp,sp,36
   84fc0:	e13ffb15 	stw	r4,-20(fp)
   84fc4:	2821883a 	mov	r16,r5
  register unsigned char *p;
  register _READ_WRITE_BUFSIZE_TYPE n;
  register _READ_WRITE_RETURN_TYPE t;
  short flags;

  flags = fp->_flags;
   84fc8:	8080030b 	ldhu	r2,12(r16)
   84fcc:	e0bff90d 	sth	r2,-28(fp)
  if ((flags & __SWR) == 0)
   84fd0:	e0bff90b 	ldhu	r2,-28(fp)
   84fd4:	10bfffcc 	andi	r2,r2,65535
   84fd8:	1080020c 	andi	r2,r2,8
   84fdc:	1000831e 	bne	r2,zero,851ec <__sflush_r+0x24c>
    {
#ifdef _FSEEK_OPTIMIZATION
      /* For a read stream, an fflush causes the next seek to be
         unoptimized (i.e. forces a system-level seek).  This conforms
         to the POSIX and SUSv3 standards.  */
      fp->_flags |= __SNPT;
   84fe0:	8080030b 	ldhu	r2,12(r16)
   84fe4:	10820014 	ori	r2,r2,2048
   84fe8:	8080030d 	sth	r2,12(r16)
         the next byte from the file rather than the buffer.  This conforms
         to the POSIX and SUSv3 standards.  Note that the standards allow
         this seek to be deferred until necessary, but we choose to do it here
         to make the change simpler, more contained, and less likely
         to miss a code scenario.  */
      if ((fp->_r > 0 || fp->_ur > 0) && fp->_seek != NULL)
   84fec:	80800117 	ldw	r2,4(r16)
   84ff0:	00800216 	blt	zero,r2,84ffc <__sflush_r+0x5c>
   84ff4:	80800f17 	ldw	r2,60(r16)
   84ff8:	00807a0e 	bge	zero,r2,851e4 <__sflush_r+0x244>
   84ffc:	80800a17 	ldw	r2,40(r16)
   85000:	10007826 	beq	r2,zero,851e4 <__sflush_r+0x244>
#endif

	  /* Save last errno and set errno to 0, so we can check if a device
	     returns with a valid position -1.  We restore the last errno if
	     no other error condition has been encountered. */
	  tmp_errno = ptr->_errno;
   85004:	e0bffb17 	ldw	r2,-20(fp)
   85008:	10800017 	ldw	r2,0(r2)
   8500c:	e0bffa15 	stw	r2,-24(fp)
	  ptr->_errno = 0;
   85010:	e0bffb17 	ldw	r2,-20(fp)
   85014:	10000015 	stw	zero,0(r2)
	  /* Get the physical position we are at in the file.  */
	  if (fp->_flags & __SOFF)
   85018:	8080030b 	ldhu	r2,12(r16)
   8501c:	10bfffcc 	andi	r2,r2,65535
   85020:	1084000c 	andi	r2,r2,4096
   85024:	10000326 	beq	r2,zero,85034 <__sflush_r+0x94>
	    curoff = fp->_offset;
   85028:	80801417 	ldw	r2,80(r16)
   8502c:	e0bff715 	stw	r2,-36(fp)
   85030:	00002206 	br	850bc <__sflush_r+0x11c>
#ifdef __LARGE64_FILES
	      if (fp->_flags & __SL64)
		curoff = fp->_seek64 (ptr, fp->_cookie, 0, SEEK_CUR);
	      else
#endif
		curoff = fp->_seek (ptr, fp->_cookie, 0, SEEK_CUR);
   85034:	80800a17 	ldw	r2,40(r16)
   85038:	80c00717 	ldw	r3,28(r16)
   8503c:	01c00044 	movi	r7,1
   85040:	000d883a 	mov	r6,zero
   85044:	180b883a 	mov	r5,r3
   85048:	e13ffb17 	ldw	r4,-20(fp)
   8504c:	103ee83a 	callr	r2
   85050:	e0bff715 	stw	r2,-36(fp)
	      if (curoff == -1L && ptr->_errno != 0)
   85054:	e0bff717 	ldw	r2,-36(fp)
   85058:	10bfffd8 	cmpnei	r2,r2,-1
   8505c:	1000171e 	bne	r2,zero,850bc <__sflush_r+0x11c>
   85060:	e0bffb17 	ldw	r2,-20(fp)
   85064:	10800017 	ldw	r2,0(r2)
   85068:	10001426 	beq	r2,zero,850bc <__sflush_r+0x11c>
		{
		  int result = EOF;
   8506c:	00bfffc4 	movi	r2,-1
   85070:	e0bff815 	stw	r2,-32(fp)
		  if (ptr->_errno == ESPIPE || ptr->_errno == EINVAL)
   85074:	e0bffb17 	ldw	r2,-20(fp)
   85078:	10800017 	ldw	r2,0(r2)
   8507c:	10800760 	cmpeqi	r2,r2,29
   85080:	1000041e 	bne	r2,zero,85094 <__sflush_r+0xf4>
   85084:	e0bffb17 	ldw	r2,-20(fp)
   85088:	10800017 	ldw	r2,0(r2)
   8508c:	10800598 	cmpnei	r2,r2,22
   85090:	1000051e 	bne	r2,zero,850a8 <__sflush_r+0x108>
		    {
		      result = 0;
   85094:	e03ff815 	stw	zero,-32(fp)
		      ptr->_errno = tmp_errno;
   85098:	e0bffb17 	ldw	r2,-20(fp)
   8509c:	e0fffa17 	ldw	r3,-24(fp)
   850a0:	10c00015 	stw	r3,0(r2)
   850a4:	00000306 	br	850b4 <__sflush_r+0x114>
		    }
		  else
		    fp->_flags |= __SERR;
   850a8:	8080030b 	ldhu	r2,12(r16)
   850ac:	10801014 	ori	r2,r2,64
   850b0:	8080030d 	sth	r2,12(r16)
		  return result;
   850b4:	e0bff817 	ldw	r2,-32(fp)
   850b8:	00007106 	br	85280 <__sflush_r+0x2e0>
		}
            }
          if (fp->_flags & __SRD)
   850bc:	8080030b 	ldhu	r2,12(r16)
   850c0:	10bfffcc 	andi	r2,r2,65535
   850c4:	1080010c 	andi	r2,r2,4
   850c8:	10000a26 	beq	r2,zero,850f4 <__sflush_r+0x154>
            {
              /* Current offset is at end of buffer.  Compensate for
                 characters not yet read.  */
              curoff -= fp->_r;
   850cc:	80800117 	ldw	r2,4(r16)
   850d0:	e0fff717 	ldw	r3,-36(fp)
   850d4:	1885c83a 	sub	r2,r3,r2
   850d8:	e0bff715 	stw	r2,-36(fp)
              if (HASUB (fp))
   850dc:	80800c17 	ldw	r2,48(r16)
   850e0:	10000426 	beq	r2,zero,850f4 <__sflush_r+0x154>
                curoff -= fp->_ur;
   850e4:	80800f17 	ldw	r2,60(r16)
   850e8:	e0fff717 	ldw	r3,-36(fp)
   850ec:	1885c83a 	sub	r2,r3,r2
   850f0:	e0bff715 	stw	r2,-36(fp)
#ifdef __LARGE64_FILES
	  if (fp->_flags & __SL64)
	    curoff = fp->_seek64 (ptr, fp->_cookie, curoff, SEEK_SET);
	  else
#endif
	    curoff = fp->_seek (ptr, fp->_cookie, curoff, SEEK_SET);
   850f4:	80800a17 	ldw	r2,40(r16)
   850f8:	80c00717 	ldw	r3,28(r16)
   850fc:	000f883a 	mov	r7,zero
   85100:	e1bff717 	ldw	r6,-36(fp)
   85104:	180b883a 	mov	r5,r3
   85108:	e13ffb17 	ldw	r4,-20(fp)
   8510c:	103ee83a 	callr	r2
   85110:	e0bff715 	stw	r2,-36(fp)
	  if (curoff != -1 || ptr->_errno == 0
   85114:	e0bff717 	ldw	r2,-36(fp)
   85118:	10bfffd8 	cmpnei	r2,r2,-1
   8511c:	10000b1e 	bne	r2,zero,8514c <__sflush_r+0x1ac>
   85120:	e0bffb17 	ldw	r2,-20(fp)
   85124:	10800017 	ldw	r2,0(r2)
   85128:	10000826 	beq	r2,zero,8514c <__sflush_r+0x1ac>
	      || ptr->_errno == ESPIPE || ptr->_errno == EINVAL)
   8512c:	e0bffb17 	ldw	r2,-20(fp)
   85130:	10800017 	ldw	r2,0(r2)
   85134:	10800760 	cmpeqi	r2,r2,29
   85138:	1000041e 	bne	r2,zero,8514c <__sflush_r+0x1ac>
   8513c:	e0bffb17 	ldw	r2,-20(fp)
   85140:	10800017 	ldw	r2,0(r2)
   85144:	10800598 	cmpnei	r2,r2,22
   85148:	1000211e 	bne	r2,zero,851d0 <__sflush_r+0x230>
	    {
	      /* Seek successful or ignorable error condition.
		 We can clear read buffer now.  */
#ifdef _FSEEK_OPTIMIZATION
	      fp->_flags &= ~__SNPT;
   8514c:	80c0030b 	ldhu	r3,12(r16)
