
TesteLeitura.elf:     file format elf32-littlenios2
TesteLeitura.elf
architecture: nios2:r1, flags 0x00000112:
EXEC_P, HAS_SYMS, D_PAGED
start address 0x00040230

Program Header:
    LOAD off    0x00001000 vaddr 0x00040000 paddr 0x00040000 align 2**12
         filesz 0x00000020 memsz 0x00000020 flags r-x
    LOAD off    0x00001020 vaddr 0x00040020 paddr 0x00040020 align 2**12
         filesz 0x0000fba0 memsz 0x0000fba0 flags r-x
    LOAD off    0x00010bc0 vaddr 0x0004fbc0 paddr 0x000517f8 align 2**12
         filesz 0x00001c38 memsz 0x00001c38 flags rw-
    LOAD off    0x00013430 vaddr 0x00053430 paddr 0x00053430 align 2**12
         filesz 0x00000000 memsz 0x00000164 flags rw-

Sections:
Idx Name          Size      VMA       LMA       File off  Algn
  0 .entry        00000020  00040000  00040000  00001000  2**5
                  CONTENTS, ALLOC, LOAD, READONLY, CODE
  1 .exceptions   00000210  00040020  00040020  00001020  2**2
                  CONTENTS, ALLOC, LOAD, READONLY, CODE
  2 .text         0000f694  00040230  00040230  00001230  2**2
                  CONTENTS, ALLOC, LOAD, READONLY, CODE
  3 .rodata       000002fc  0004f8c4  0004f8c4  000108c4  2**2
                  CONTENTS, ALLOC, LOAD, READONLY, DATA
  4 .rwdata       00001c38  0004fbc0  000517f8  00010bc0  2**2
                  CONTENTS, ALLOC, LOAD, DATA, SMALL_DATA
  5 .bss          00000164  00053430  00053430  00013430  2**2
                  ALLOC, SMALL_DATA
  6 .MemoriaDados 00000000  00000000  00000000  000127f8  2**0
                  CONTENTS
  7 .MemoriaPrograma 00000000  00053594  00053594  000127f8  2**0
                  CONTENTS
  8 .comment      00000023  00000000  00000000  000127f8  2**0
                  CONTENTS, READONLY
  9 .debug_aranges 00000e70  00000000  00000000  00012820  2**3
                  CONTENTS, READONLY, DEBUGGING
 10 .debug_info   00022888  00000000  00000000  00013690  2**0
                  CONTENTS, READONLY, DEBUGGING
 11 .debug_abbrev 00008c3f  00000000  00000000  00035f18  2**0
                  CONTENTS, READONLY, DEBUGGING
 12 .debug_line   0000b126  00000000  00000000  0003eb57  2**0
                  CONTENTS, READONLY, DEBUGGING
 13 .debug_frame  00001ff4  00000000  00000000  00049c80  2**2
                  CONTENTS, READONLY, DEBUGGING
 14 .debug_str    00003812  00000000  00000000  0004bc74  2**0
                  CONTENTS, READONLY, DEBUGGING
 15 .debug_loc    00017755  00000000  00000000  0004f486  2**0
                  CONTENTS, READONLY, DEBUGGING
 16 .debug_alt_sim_info 00000010  00000000  00000000  00066bdc  2**2
                  CONTENTS, READONLY, DEBUGGING
 17 .debug_ranges 000018a0  00000000  00000000  00066bf0  2**3
                  CONTENTS, READONLY, DEBUGGING
 18 .thread_model 00000003  00000000  00000000  0006b4f5  2**0
                  CONTENTS, READONLY
 19 .cpu          0000000b  00000000  00000000  0006b4f8  2**0
                  CONTENTS, READONLY
 20 .qsys         00000001  00000000  00000000  0006b503  2**0
                  CONTENTS, READONLY
 21 .simulation_enabled 00000001  00000000  00000000  0006b504  2**0
                  CONTENTS, READONLY
 22 .stderr_dev   00000009  00000000  00000000  0006b505  2**0
                  CONTENTS, READONLY
 23 .stdin_dev    00000009  00000000  00000000  0006b50e  2**0
                  CONTENTS, READONLY
 24 .stdout_dev   00000009  00000000  00000000  0006b517  2**0
                  CONTENTS, READONLY
 25 .sopc_system_name 00000010  00000000  00000000  0006b520  2**0
                  CONTENTS, READONLY
 26 .quartus_project_dir 0000001f  00000000  00000000  0006b530  2**0
                  CONTENTS, READONLY
 27 .sopcinfo     00035628  00000000  00000000  0006b54f  2**0
                  CONTENTS, READONLY
SYMBOL TABLE:
00040000 l    d  .entry	00000000 .entry
00040020 l    d  .exceptions	00000000 .exceptions
00040230 l    d  .text	00000000 .text
0004f8c4 l    d  .rodata	00000000 .rodata
0004fbc0 l    d  .rwdata	00000000 .rwdata
00053430 l    d  .bss	00000000 .bss
00000000 l    d  .MemoriaDados	00000000 .MemoriaDados
00053594 l    d  .MemoriaPrograma	00000000 .MemoriaPrograma
00000000 l    d  .comment	00000000 .comment
00000000 l    d  .debug_aranges	00000000 .debug_aranges
00000000 l    d  .debug_info	00000000 .debug_info
00000000 l    d  .debug_abbrev	00000000 .debug_abbrev
00000000 l    d  .debug_line	00000000 .debug_line
00000000 l    d  .debug_frame	00000000 .debug_frame
00000000 l    d  .debug_str	00000000 .debug_str
00000000 l    d  .debug_loc	00000000 .debug_loc
00000000 l    d  .debug_alt_sim_info	00000000 .debug_alt_sim_info
00000000 l    d  .debug_ranges	00000000 .debug_ranges
00000000 l    df *ABS*	00000000 ../TesteLeitura_bsp//obj/HAL/src/crt0.o
00040268 l       .text	00000000 alt_after_alt_main
00000000 l    df *ABS*	00000000 alt_irq_handler.c
00000000 l    df *ABS*	00000000 alt_instruction_exception_entry.c
00000000 l    df *ABS*	00000000 main.c
00000000 l    df *ABS*	00000000 printf.c
00000000 l    df *ABS*	00000000 vfprintf.c
0004f90e l     O .rodata	00000010 zeroes.4404
00042728 l     F .text	000000bc __sbprintf
0004f91e l     O .rodata	00000010 blanks.4403
00000000 l    df *ABS*	00000000 wsetup.c
00000000 l    df *ABS*	00000000 dtoa.c
00042938 l     F .text	00000228 quorem
00000000 l    df *ABS*	00000000 fflush.c
00000000 l    df *ABS*	00000000 findfp.c
00044490 l     F .text	00000008 __fp_unlock
000444a4 l     F .text	0000019c __sinit.part.1
00044640 l     F .text	00000008 __fp_lock
00000000 l    df *ABS*	00000000 mallocr.c
00000000 l    df *ABS*	00000000 fwalk.c
00000000 l    df *ABS*	00000000 impure.c
0004fcf4 l     O .rwdata	00000424 impure_data
00000000 l    df *ABS*	00000000 locale.c
00050138 l     O .rwdata	00000020 lc_ctype_charset
00050118 l     O .rwdata	00000020 lc_message_charset
00050158 l     O .rwdata	00000038 lconv
00000000 l    df *ABS*	00000000 makebuf.c
00000000 l    df *ABS*	00000000 mallocr.c
00000000 l    df *ABS*	00000000 memchr.c
00000000 l    df *ABS*	00000000 memcpy.c
00000000 l    df *ABS*	00000000 memset.c
00000000 l    df *ABS*	00000000 mprec.c
0004f950 l     O .rodata	0000000c p05.2768
00000000 l    df *ABS*	00000000 s_fpclassify.c
00000000 l    df *ABS*	00000000 sbrkr.c
00000000 l    df *ABS*	00000000 stdio.c
00000000 l    df *ABS*	00000000 strcmp.c
00000000 l    df *ABS*	00000000 strlen.c
00000000 l    df *ABS*	00000000 vfprintf.c
00047024 l     F .text	000000fc __sprint_r.part.0
0004fa74 l     O .rodata	00000010 zeroes.4349
00048660 l     F .text	000000bc __sbprintf
0004fa84 l     O .rodata	00000010 blanks.4348
00000000 l    df *ABS*	00000000 writer.c
00000000 l    df *ABS*	00000000 closer.c
00000000 l    df *ABS*	00000000 mallocr.c
00000000 l    df *ABS*	00000000 fclose.c
00000000 l    df *ABS*	00000000 fputwc.c
00000000 l    df *ABS*	00000000 fstatr.c
00000000 l    df *ABS*	00000000 fvwrite.c
00000000 l    df *ABS*	00000000 int_errno.c
00000000 l    df *ABS*	00000000 isattyr.c
00000000 l    df *ABS*	00000000 lseekr.c
00000000 l    df *ABS*	00000000 memmove.c
00000000 l    df *ABS*	00000000 readr.c
00000000 l    df *ABS*	00000000 mallocr.c
00000000 l    df *ABS*	00000000 wbuf.c
00000000 l    df *ABS*	00000000 wcrtomb.c
00000000 l    df *ABS*	00000000 wctomb_r.c
00000000 l    df *ABS*	00000000 libgcc2.c
00000000 l    df *ABS*	00000000 libgcc2.c
00000000 l    df *ABS*	00000000 lib2-divmod.c
00000000 l    df *ABS*	00000000 lib2-mul.c
00000000 l    df *ABS*	00000000 adddf3.c
00000000 l    df *ABS*	00000000 divdf3.c
00000000 l    df *ABS*	00000000 eqdf2.c
00000000 l    df *ABS*	00000000 gedf2.c
00000000 l    df *ABS*	00000000 ledf2.c
00000000 l    df *ABS*	00000000 muldf3.c
00000000 l    df *ABS*	00000000 subdf3.c
00000000 l    df *ABS*	00000000 fixdfsi.c
00000000 l    df *ABS*	00000000 floatsidf.c
00000000 l    df *ABS*	00000000 floatunsidf.c
00000000 l    df *ABS*	00000000 libgcc2.c
00000000 l    df *ABS*	00000000 libgcc2.c
00000000 l    df *ABS*	00000000 alt_close.c
0004d230 l     F .text	0000003c alt_get_errno
00000000 l    df *ABS*	00000000 alt_dev.c
0004d344 l     F .text	0000002c alt_dev_null_write
00000000 l    df *ABS*	00000000 alt_errno.c
00000000 l    df *ABS*	00000000 alt_fstat.c
0004d370 l     F .text	0000003c alt_get_errno
00000000 l    df *ABS*	00000000 alt_isatty.c
0004d464 l     F .text	0000003c alt_get_errno
00000000 l    df *ABS*	00000000 alt_load.c
0004d54c l     F .text	00000068 alt_load_section
00000000 l    df *ABS*	00000000 alt_lseek.c
0004d638 l     F .text	0000003c alt_get_errno
00000000 l    df *ABS*	00000000 alt_main.c
00000000 l    df *ABS*	00000000 alt_malloc_lock.c
00000000 l    df *ABS*	00000000 alt_read.c
0004d814 l     F .text	0000003c alt_get_errno
00000000 l    df *ABS*	00000000 alt_release_fd.c
00000000 l    df *ABS*	00000000 alt_sbrk.c
000517e8 l     O .rwdata	00000004 heap_end
00000000 l    df *ABS*	00000000 alt_write.c
0004da88 l     F .text	0000003c alt_get_errno
00000000 l    df *ABS*	00000000 alt_sys_init.c
0004dbc4 l     F .text	00000034 alt_dev_reg
00050740 l     O .rwdata	00001060 jtag_uart
00000000 l    df *ABS*	00000000 altera_avalon_jtag_uart_fd.c
00000000 l    df *ABS*	00000000 altera_avalon_jtag_uart_init.c
0004de9c l     F .text	0000020c altera_avalon_jtag_uart_irq
0004e0a8 l     F .text	000000a0 altera_avalon_jtag_uart_timeout
00000000 l    df *ABS*	00000000 altera_avalon_jtag_uart_ioctl.c
00000000 l    df *ABS*	00000000 altera_avalon_jtag_uart_read.c
00000000 l    df *ABS*	00000000 altera_avalon_jtag_uart_write.c
00000000 l    df *ABS*	00000000 alt_alarm_start.c
00000000 l    df *ABS*	00000000 alt_dcache_flush_all.c
00000000 l    df *ABS*	00000000 alt_dev_llist_insert.c
0004e82c l     F .text	0000003c alt_get_errno
00000000 l    df *ABS*	00000000 alt_do_ctors.c
00000000 l    df *ABS*	00000000 alt_do_dtors.c
00000000 l    df *ABS*	00000000 alt_icache_flush_all.c
00000000 l    df *ABS*	00000000 alt_iic.c
00000000 l    df *ABS*	00000000 alt_iic_isr_register.c
00000000 l    df *ABS*	00000000 alt_io_redirect.c
0004ec8c l     F .text	000000e4 alt_open_fd
00000000 l    df *ABS*	00000000 alt_irq_vars.c
00000000 l    df *ABS*	00000000 alt_open.c
0004edec l     F .text	0000003c alt_get_errno
0004ee28 l     F .text	000000ec alt_file_locked
00000000 l    df *ABS*	00000000 alt_tick.c
00000000 l    df *ABS*	00000000 altera_nios2_gen2_irq.c
00000000 l    df *ABS*	00000000 alt_find_dev.c
00000000 l    df *ABS*	00000000 alt_find_file.c
00000000 l    df *ABS*	00000000 alt_get_fd.c
00000000 l    df *ABS*	00000000 atexit.c
00000000 l    df *ABS*	00000000 exit.c
00000000 l    df *ABS*	00000000 memcmp.c
00000000 l    df *ABS*	00000000 __atexit.c
00000000 l    df *ABS*	00000000 __call_atexit.c
00000000 l    df *ABS*	00000000 alt_exit.c
00053468 g     O .bss	00000004 alt_instruction_exception_handler
00046b34 g     F .text	00000074 _mprec_log10
00046c20 g     F .text	0000008c __any_on
000490dc g     F .text	00000054 _isatty_r
0004f95c g     O .rodata	00000028 __mprec_tinytens
0004d750 g     F .text	0000007c alt_main
00053494 g     O .bss	00000100 alt_irq
000517a4 g     O .rwdata	00000004 data_Y
00049130 g     F .text	00000060 _lseek_r
000517f8 g       *ABS*	00000000 __flash_rwdata_start
0004bc08 g     F .text	00000088 .hidden __eqdf2
00053594 g       *ABS*	00000000 __alt_heap_start
000403f4 g     F .text	0000003c printf
00049a08 g     F .text	0000009c _wcrtomb_r
00046e4c g     F .text	0000005c __sseek
000447f0 g     F .text	00000010 __sinit
000498b0 g     F .text	00000140 __swbuf_r
00044dfc g     F .text	0000007c _setlocale_r
00044648 g     F .text	00000078 __sfmoreglue
0004d7f0 g     F .text	00000024 __malloc_unlock
00049190 g     F .text	0000015c memmove
000447d8 g     F .text	00000018 _cleanup
00045bf4 g     F .text	000000a8 _Balloc
0004bc90 g     F .text	000000dc .hidden __gtdf2
0004f214 g     F .text	00000024 altera_nios2_gen2_irq_init
00040000 g     F .entry	0000000c __reset
00040020 g       *ABS*	00000000 __flash_exceptions_start
00048bb8 g     F .text	0000005c _fstat_r
0005344c g     O .bss	00000004 errno
00046dc8 g     F .text	00000008 __seofread
00053454 g     O .bss	00000004 alt_argv
000597a0 g       *ABS*	00000000 _gp
000505c0 g     O .rwdata	00000180 alt_fd_list
0004f238 g     F .text	00000090 alt_find_dev
00045984 g     F .text	00000148 memcpy
00044498 g     F .text	0000000c _cleanup_r
0004d048 g     F .text	000000dc .hidden __floatsidf
0004ed70 g     F .text	0000007c alt_io_redirect
0004bd6c g     F .text	000000f4 .hidden __ltdf2
0004f8c4 g       *ABS*	00000000 __DTOR_END__
0004f494 g     F .text	0000009c alt_exception_cause_generated_bad_addr
00046cac g     F .text	00000074 __fpclassifyd
00046a90 g     F .text	000000a4 __ratio
00048644 g     F .text	0000001c __vfiprintf_internal
0004e2a0 g     F .text	0000021c altera_avalon_jtag_uart_read
000403c4 g     F .text	00000030 _printf_r
0004a8a8 g     F .text	00000064 .hidden __udivsi3
0004d4a0 g     F .text	000000ac isatty
0004f9ac g     O .rodata	000000c8 __mprec_tens
00044e78 g     F .text	0000000c __locale_charset
00053448 g     O .bss	00000004 __malloc_top_pad
000517c0 g     O .rwdata	00000004 __mb_cur_max
00044ea8 g     F .text	0000000c _localeconv_r
00048c14 g     F .text	000004c8 __sfvwrite_r
00046028 g     F .text	0000003c __i2b
00046d20 g     F .text	00000054 _sbrk_r
000492ec g     F .text	00000060 _read_r
000517e0 g     O .rwdata	00000004 alt_max_fd
000488ac g     F .text	000000f0 _fclose_r
00044460 g     F .text	00000030 fflush
00053444 g     O .bss	00000004 __malloc_max_sbrked_mem
0004a98c g     F .text	000008ac .hidden __adddf3
00046838 g     F .text	0000010c __b2d
0004a1ec g     F .text	000005c4 .hidden __umoddi3
0004d674 g     F .text	000000dc lseek
000517b8 g     O .rwdata	00000004 _global_impure_ptr
0004934c g     F .text	00000564 _realloc_r
00053594 g       *ABS*	00000000 __bss_end
0004eb9c g     F .text	000000f0 alt_iic_isr_register
0004f10c g     F .text	00000108 alt_tick
00049bf0 g     F .text	000005fc .hidden __udivdi3
00048b14 g     F .text	00000024 _fputwc_r
0004f984 g     O .rodata	00000028 __mprec_bigtens
00045e0c g     F .text	00000104 __s2b
0004d124 g     F .text	000000a8 .hidden __floatunsidf
00046578 g     F .text	00000060 __mcmp
00044810 g     F .text	00000018 __fp_lock_all
0004eb50 g     F .text	0000004c alt_ic_irq_enabled
0004f070 g     F .text	0000009c alt_alarm_stop
0005345c g     O .bss	00000004 alt_irq_active
000400fc g     F .exceptions	000000d4 alt_irq_handler
00050598 g     O .rwdata	00000028 alt_dev_null
00000000 g       *ABS*	00000000 __alt_mem_MemoriaDados
0004e80c g     F .text	00000020 alt_dcache_flush_all
00045f10 g     F .text	00000068 __hi0bits
0004cfc8 g     F .text	00000080 .hidden __fixdfsi
000517f8 g       *ABS*	00000000 __ram_rwdata_end
000517d8 g     O .rwdata	00000008 alt_dev_list
0004dac4 g     F .text	00000100 write
0004fbc0 g       *ABS*	00000000 __ram_rodata_end
0004d3ac g     F .text	000000b8 fstat
0004bd6c g     F .text	000000f4 .hidden __ledf2
000462f0 g     F .text	00000140 __pow5mult
00047138 g     F .text	0000150c ___vfiprintf_internal_r
0005343c g     O .bss	00000004 __nlocale_changed
0004a90c g     F .text	00000058 .hidden __umodsi3
00053594 g       *ABS*	00000000 end
00053430 g     O .bss	00000004 cena
00040000 g       *ABS*	00000000 __alt_mem_MemoriaPrograma
0004dddc g     F .text	000000c0 altera_avalon_jtag_uart_init
000401d0 g     F .exceptions	00000060 alt_instruction_exception_entry
0004f8c4 g       *ABS*	00000000 __CTOR_LIST__
0005c3c0 g       *ABS*	00000000 __alt_stack_pointer
0004d1cc g     F .text	00000064 .hidden __clzsi2
0004e4bc g     F .text	00000224 altera_avalon_jtag_uart_write
00044800 g     F .text	00000004 __sfp_lock_acquire
000458a0 g     F .text	000000e4 memchr
00040430 g     F .text	000022dc ___vfprintf_internal_r
00044964 g     F .text	00000310 _free_r
00044e84 g     F .text	00000010 __locale_mb_cur_max
0004f710 g     F .text	00000180 __call_exitprocs
00053438 g     O .bss	00000004 __mlocale_changed
000517c4 g     O .rwdata	00000004 __malloc_sbrk_base
00040230 g     F .text	0000003c _start
00053460 g     O .bss	00000004 _alt_tick_rate
00046430 g     F .text	00000148 __lshift
00053464 g     O .bss	00000004 _alt_nticks
0004d850 g     F .text	00000104 read
0004dc30 g     F .text	00000048 alt_sys_init
0004f5f8 g     F .text	00000118 __register_exitproc
00046064 g     F .text	0000028c __multiply
0004e148 g     F .text	00000068 altera_avalon_jtag_uart_close
0004a964 g     F .text	00000028 .hidden __mulsi3
0004fbc0 g       *ABS*	00000000 __ram_rwdata_start
0004f8c4 g       *ABS*	00000000 __ram_rodata_start
0005346c g     O .bss	00000028 __malloc_current_mallinfo
00046944 g     F .text	0000014c __d2b
0004dc78 g     F .text	00000060 altera_avalon_jtag_uart_read_fd
0004f3d0 g     F .text	000000c4 alt_get_fd
0004877c g     F .text	00000054 _close_r
0004f57c g     F .text	0000007c memcmp
0004dd38 g     F .text	00000050 altera_avalon_jtag_uart_close_fd
00053594 g       *ABS*	00000000 __alt_stack_base
0004dd88 g     F .text	00000054 altera_avalon_jtag_uart_ioctl_fd
000427e4 g     F .text	00000154 __swsetup_r
0004b238 g     F .text	000009d0 .hidden __divdf3
000446c0 g     F .text	00000118 __sfp
00046ba8 g     F .text	00000078 __copybits
00050190 g     O .rwdata	00000408 __malloc_av_
0004480c g     F .text	00000004 __sinit_lock_release
0004be60 g     F .text	0000086c .hidden __muldf3
00046d74 g     F .text	00000054 __sread
0004f2c8 g     F .text	00000108 alt_find_file
0004e868 g     F .text	000000a4 alt_dev_llist_insert
0004d7cc g     F .text	00000024 __malloc_lock
0004d9d8 g     F .text	000000b0 sbrk
00044404 g     F .text	0000005c _fflush_r
000487d0 g     F .text	000000dc _calloc_r
00053430 g       *ABS*	00000000 __bss_start
000517a0 g     O .rwdata	00000004 data
00045acc g     F .text	00000128 memset
0004026c g     F .text	00000158 main
00053458 g     O .bss	00000004 alt_envp
00053440 g     O .bss	00000004 __malloc_max_total_mem
0004dcd8 g     F .text	00000060 altera_avalon_jtag_uart_write_fd
000499f0 g     F .text	00000018 __swbuf
000517a8 g     O .rwdata	00000004 store_distance
00046ea8 g     F .text	00000008 __sclose
0005c3c0 g       *ABS*	00000000 __alt_heap_limit
0004899c g     F .text	00000014 fclose
000517b4 g     O .rwdata	00000004 size
00042b60 g     F .text	00001688 _dtoa_r
00045094 g     F .text	0000080c _malloc_r
00049b64 g     F .text	00000030 __ascii_wctomb
000517e4 g     O .rwdata	00000004 alt_errno
00044c74 g     F .text	000000c4 _fwalk
0004a7b0 g     F .text	00000084 .hidden __divsi3
00044840 g     F .text	00000124 _malloc_trim_r
0004f8c4 g       *ABS*	00000000 __CTOR_END__
00046eb0 g     F .text	000000dc strcmp
0004f8c4 g       *ABS*	00000000 __flash_rodata_start
0004f8c4 g       *ABS*	00000000 __DTOR_LIST__
0004bc08 g     F .text	00000088 .hidden __nedf2
0004dbf8 g     F .text	00000038 alt_irq_init
0004d954 g     F .text	00000084 alt_release_fd
0004fa94 g     O .rodata	00000100 .hidden __clz_tab
00053434 g     O .bss	00000004 _PathLocale
0004f530 g     F .text	00000014 atexit
0004871c g     F .text	00000060 _write_r
00044eb4 g     F .text	00000018 setlocale
000517bc g     O .rwdata	00000004 _impure_ptr
00053450 g     O .bss	00000004 alt_argc
000441e8 g     F .text	0000021c __sflush_r
0004e96c g     F .text	00000060 _do_dtors
00044ea0 g     F .text	00000008 __locale_cjk_lang
00040020 g       .exceptions	00000000 alt_irq_entry
000467d4 g     F .text	00000064 __ulp
00044828 g     F .text	00000018 __fp_unlock_all
000517d0 g     O .rwdata	00000008 alt_fs_list
0004fbc0 g     O .rwdata	00000132 coords
00040020 g       *ABS*	00000000 __ram_exceptions_start
00044ecc g     F .text	0000000c localeconv
0004e9ec g     F .text	00000050 alt_ic_isr_register
000517f8 g       *ABS*	00000000 _edata
00053594 g       *ABS*	00000000 _end
000489b0 g     F .text	00000164 __fputwc
00040230 g       *ABS*	00000000 __ram_exceptions_end
0004e1b0 g     F .text	000000f0 altera_avalon_jtag_uart_ioctl
0004eac4 g     F .text	0000008c alt_ic_irq_disable
00046dd0 g     F .text	0000007c __swrite
000517c8 g     O .rwdata	00000004 __malloc_trim_threshold
00044e94 g     F .text	0000000c __locale_msgcharset
0004f544 g     F .text	00000038 exit
00044d38 g     F .text	000000c4 _fwalk_reent
000465d8 g     F .text	000001fc __mdiff
0004a834 g     F .text	00000074 .hidden __modsi3
0005c3c0 g       *ABS*	00000000 __alt_data_end
00040020 g     F .exceptions	00000000 alt_exception
00044804 g     F .text	00000004 __sfp_lock_release
0004f890 g     F .text	00000034 _exit
0004e6e0 g     F .text	0000012c alt_alarm_start
00044ed8 g     F .text	000001bc __smakebuf_r
00046f8c g     F .text	00000098 strlen
000517b0 g     O .rwdata	00000004 controle
0004ef14 g     F .text	0000015c open
0004bc90 g     F .text	000000dc .hidden __gedf2
000517cc g     O .rwdata	00000004 __wctomb
00047120 g     F .text	00000018 __sprint_r
0004e9cc g     F .text	00000020 alt_icache_flush_all
000517ec g     O .rwdata	00000004 alt_priority_mask
0004ea3c g     F .text	00000088 alt_ic_irq_enable
0004270c g     F .text	0000001c __vfprintf_internal
00049b94 g     F .text	0000005c _wctomb_r
000517ac g     O .rwdata	00000004 store_angle
0004c6cc g     F .text	000008fc .hidden __subdf3
00045f78 g     F .text	000000b0 __lo0bits
000517f0 g     O .rwdata	00000008 alt_alarm_list
0004e90c g     F .text	00000060 _do_ctors
00049aa4 g     F .text	000000c0 wcrtomb
0004d26c g     F .text	000000d8 close
0004d5b4 g     F .text	00000084 alt_load
00048b38 g     F .text	00000080 fputwc
00044808 g     F .text	00000004 __sinit_lock_acquire
00045cc4 g     F .text	00000148 __multadd
00045c9c g     F .text	00000028 _Bfree



Disassembly of section .entry:

00040000 <__reset>:
 * Jump to the _start entry point in the .text section if reset code
 * is allowed or if optimizing for RTL simulation.
 */
#if defined(ALT_ALLOW_CODE_AT_RESET) || defined(ALT_SIM_OPTIMIZE)
    /* Jump to the _start entry point in the .text section. */
    movhi r1, %hi(_start)
   40000:	00400134 	movhi	at,4
    ori r1, r1, %lo(_start)
   40004:	08408c14 	ori	at,at,560
    jmp r1
   40008:	0800683a 	jmp	at
	...

Disassembly of section .exceptions:

00040020 <alt_exception>:

#else /* ALT_EXCEPTION_STACK disabled */
        /* 
         * Reserve space on normal stack for registers about to be pushed.
         */
        addi  sp, sp, -76
   40020:	deffed04 	addi	sp,sp,-76
         * documentation for details).
         *
         * Leave a gap in the stack frame at 4(sp) for the muldiv handler to
         * store zero into.
         */
        stw   ra,  0(sp)
   40024:	dfc00015 	stw	ra,0(sp)
        stw   r1,   8(sp)
   40028:	d8400215 	stw	at,8(sp)
        stw   r2,  12(sp)
   4002c:	d8800315 	stw	r2,12(sp)
        stw   r3,  16(sp)
   40030:	d8c00415 	stw	r3,16(sp)
        stw   r4,  20(sp)
   40034:	d9000515 	stw	r4,20(sp)
        stw   r5,  24(sp)
   40038:	d9400615 	stw	r5,24(sp)
        stw   r6,  28(sp)
   4003c:	d9800715 	stw	r6,28(sp)
        stw   r7,  32(sp)
   40040:	d9c00815 	stw	r7,32(sp)
        rdctl r5, estatus   /* Read early to avoid usage stall */
   40044:	000b307a 	rdctl	r5,estatus
        stw   r8,  36(sp)
   40048:	da000915 	stw	r8,36(sp)
        stw   r9,  40(sp)
   4004c:	da400a15 	stw	r9,40(sp)
        stw   r10, 44(sp)
   40050:	da800b15 	stw	r10,44(sp)
        stw   r11, 48(sp)
   40054:	dac00c15 	stw	r11,48(sp)
        stw   r12, 52(sp)
   40058:	db000d15 	stw	r12,52(sp)
        stw   r13, 56(sp)
   4005c:	db400e15 	stw	r13,56(sp)
        stw   r14, 60(sp)
   40060:	db800f15 	stw	r14,60(sp)
        stw   r15, 64(sp)
   40064:	dbc01015 	stw	r15,64(sp)
        /*
         * ea-4 contains the address of the instruction being executed
         * when the exception occured. For interrupt exceptions, we will
         * will be re-issue the isntruction. Store it in 72(sp)
         */
        stw   r5,  68(sp)  /* estatus */
   40068:	d9401115 	stw	r5,68(sp)
        addi  r15, ea, -4  /* instruction that caused exception */
   4006c:	ebffff04 	addi	r15,ea,-4
        stw   r15,  72(sp)
   40070:	dbc01215 	stw	r15,72(sp)
#else
        /*
         * Test to see if the exception was a software exception or caused 
         * by an external interrupt, and vector accordingly.
         */
        rdctl r4, ipending
   40074:	0009313a 	rdctl	r4,ipending
        andi  r2, r5, 1
   40078:	2880004c 	andi	r2,r5,1
        beq   r2, zero, .Lnot_irq
   4007c:	10000326 	beq	r2,zero,4008c <alt_exception+0x6c>
        beq   r4, zero, .Lnot_irq
   40080:	20000226 	beq	r4,zero,4008c <alt_exception+0x6c>
        /*
         * Now that all necessary registers have been preserved, call 
         * alt_irq_handler() to process the interrupts.
         */

        call alt_irq_handler
   40084:	00400fc0 	call	400fc <alt_irq_handler>

        .section .exceptions.irqreturn, "xa"

        br    .Lexception_exit
   40088:	00000706 	br	400a8 <alt_exception+0x88>
         * upon completion, so we write ea (address of instruction *after*
         * the one where the exception occured) into 72(sp). The actual
         * instruction that caused the exception is written in r2, which these
         * handlers will utilize.
         */
        stw ea, 72(sp) /* EA is PC+4 so will skip over instruction causing exception */
   4008c:	df401215 	stw	ea,72(sp)
.Lunknown_16bit:
        addi.n r4, r4, 2 /* Need PC+2 to skip over instruction causing exception */
        stw r4, 72(sp)

#else /* CDX is not Enabled and all instructions are 32bits */
        ldw r2, -4(ea) /* Instruction value that caused exception */
   40090:	e8bfff17 	ldw	r2,-4(ea)
         * debugger is present) or go into an infinite loop since the
         * handling behavior is undefined; in that case we will not return here.
         */

        /* Load exception-causing address as first argument (r4) */
        addi   r4, ea, -4
   40094:	e93fff04 	addi	r4,ea,-4

        /* Call the instruction-exception entry */
        call   alt_instruction_exception_entry
   40098:	00401d00 	call	401d0 <alt_instruction_exception_entry>
         * instruction
         *
         * Return code was 0: Skip. The instruction after the exception is
         * already stored in 72(sp).
         */
        bne   r2, r0, .Lexception_exit
   4009c:	1000021e 	bne	r2,zero,400a8 <alt_exception+0x88>

        /*
         * Otherwise, modify 72(sp) to re-issue the instruction that caused the
         * exception.
         */
        addi  r15, ea, -4  /* instruction that caused exception */
   400a0:	ebffff04 	addi	r15,ea,-4
        stw   r15,  72(sp)
   400a4:	dbc01215 	stw	r15,72(sp)
        /* 
         * Restore the saved registers, so that all general purpose registers 
         * have been restored to their state at the time the interrupt occured.
         */

        ldw   r5,  68(sp)
   400a8:	d9401117 	ldw	r5,68(sp)
        ldw   ea,  72(sp)  /* This becomes the PC once eret is executed */
   400ac:	df401217 	ldw	ea,72(sp)
        ldw   ra,   0(sp)
   400b0:	dfc00017 	ldw	ra,0(sp)

        wrctl estatus, r5
   400b4:	2801707a 	wrctl	estatus,r5

        ldw   r1,   8(sp)
   400b8:	d8400217 	ldw	at,8(sp)
        ldw   r2,  12(sp)
   400bc:	d8800317 	ldw	r2,12(sp)
        ldw   r3,  16(sp)
   400c0:	d8c00417 	ldw	r3,16(sp)
        ldw   r4,  20(sp)
   400c4:	d9000517 	ldw	r4,20(sp)
        ldw   r5,  24(sp)
   400c8:	d9400617 	ldw	r5,24(sp)
        ldw   r6,  28(sp)
   400cc:	d9800717 	ldw	r6,28(sp)
        ldw   r7,  32(sp)
   400d0:	d9c00817 	ldw	r7,32(sp)

#if defined(ALT_EXCEPTION_STACK) && defined(ALT_STACK_CHECK)
        ldw   et, %gprel(alt_exception_old_stack_limit)(gp)
#endif

        ldw   r8,  36(sp)
   400d4:	da000917 	ldw	r8,36(sp)
        ldw   r9,  40(sp)
   400d8:	da400a17 	ldw	r9,40(sp)
        ldw   r10, 44(sp)
   400dc:	da800b17 	ldw	r10,44(sp)
        ldw   r11, 48(sp)
   400e0:	dac00c17 	ldw	r11,48(sp)
        ldw   r12, 52(sp)
   400e4:	db000d17 	ldw	r12,52(sp)
        ldw   r13, 56(sp)
   400e8:	db400e17 	ldw	r13,56(sp)
        ldw   r14, 60(sp)
   400ec:	db800f17 	ldw	r14,60(sp)
        ldw   r15, 64(sp)
   400f0:	dbc01017 	ldw	r15,64(sp)
        stw   et, %gprel(alt_stack_limit_value)(gp)
        stw   zero, %gprel(alt_exception_old_stack_limit)(gp)
#endif /* ALT_STACK_CHECK */
        ldw   sp,  76(sp)
#else /* ALT_EXCEPTION_STACK disabled */
        addi  sp, sp, 76
   400f4:	dec01304 	addi	sp,sp,76

        /*
         * Return to the interrupted instruction.
         */

        eret
   400f8:	ef80083a 	eret

000400fc <alt_irq_handler>:
 * instruction is present if the macro ALT_CI_INTERRUPT_VECTOR defined.
 */

void alt_irq_handler (void) __attribute__ ((section (".exceptions")));
void alt_irq_handler (void)
{
   400fc:	defff904 	addi	sp,sp,-28
   40100:	dfc00615 	stw	ra,24(sp)
   40104:	df000515 	stw	fp,20(sp)
   40108:	df000504 	addi	fp,sp,20
  
  /*
   * Notify the operating system that we are at interrupt level.
   */ 
  
  ALT_OS_INT_ENTER();
   4010c:	0001883a 	nop
#ifndef NIOS2_EIC_PRESENT
static ALT_INLINE alt_u32 ALT_ALWAYS_INLINE alt_irq_pending (void)
{
  alt_u32 active;

  NIOS2_READ_IPENDING (active);
   40110:	0005313a 	rdctl	r2,ipending
   40114:	e0bffe15 	stw	r2,-8(fp)

  return active;
   40118:	e0bffe17 	ldw	r2,-8(fp)
   * Consider the case where the high priority interupt is asserted during
   * the interrupt entry sequence for a lower priority interrupt to see why
   * this is the case.
   */

  active = alt_irq_pending ();
   4011c:	e0bffb15 	stw	r2,-20(fp)

  do
  {
    i = 0;
   40120:	e03ffd15 	stw	zero,-12(fp)
    mask = 1;
   40124:	00800044 	movi	r2,1
   40128:	e0bffc15 	stw	r2,-16(fp)
     * called to clear the interrupt condition.
     */

    do
    {
      if (active & mask)
   4012c:	e0fffb17 	ldw	r3,-20(fp)
   40130:	e0bffc17 	ldw	r2,-16(fp)
   40134:	1884703a 	and	r2,r3,r2
   40138:	10001426 	beq	r2,zero,4018c <alt_irq_handler+0x90>
      { 
#ifdef ALT_ENHANCED_INTERRUPT_API_PRESENT
        alt_irq[i].handler(alt_irq[i].context); 
   4013c:	00800174 	movhi	r2,5
   40140:	108d2504 	addi	r2,r2,13460
   40144:	e0fffd17 	ldw	r3,-12(fp)
   40148:	180690fa 	slli	r3,r3,3
   4014c:	10c5883a 	add	r2,r2,r3
   40150:	10c00017 	ldw	r3,0(r2)
   40154:	00800174 	movhi	r2,5
   40158:	108d2504 	addi	r2,r2,13460
   4015c:	e13ffd17 	ldw	r4,-12(fp)
   40160:	200890fa 	slli	r4,r4,3
   40164:	1105883a 	add	r2,r2,r4
   40168:	10800104 	addi	r2,r2,4
   4016c:	10800017 	ldw	r2,0(r2)
   40170:	1009883a 	mov	r4,r2
   40174:	183ee83a 	callr	r3
#else
        alt_irq[i].handler(alt_irq[i].context, i); 
#endif
        break;
   40178:	0001883a 	nop
#ifndef NIOS2_EIC_PRESENT
static ALT_INLINE alt_u32 ALT_ALWAYS_INLINE alt_irq_pending (void)
{
  alt_u32 active;

  NIOS2_READ_IPENDING (active);
   4017c:	0005313a 	rdctl	r2,ipending
   40180:	e0bfff15 	stw	r2,-4(fp)

  return active;
   40184:	e0bfff17 	ldw	r2,-4(fp)
   40188:	00000706 	br	401a8 <alt_irq_handler+0xac>
      }
      mask <<= 1;
   4018c:	e0bffc17 	ldw	r2,-16(fp)
   40190:	1085883a 	add	r2,r2,r2
   40194:	e0bffc15 	stw	r2,-16(fp)
      i++;
   40198:	e0bffd17 	ldw	r2,-12(fp)
   4019c:	10800044 	addi	r2,r2,1
   401a0:	e0bffd15 	stw	r2,-12(fp)

    } while (1);
   401a4:	003fe106 	br	4012c <__alt_data_end+0xfffe3d6c>

    active = alt_irq_pending ();
   401a8:	e0bffb15 	stw	r2,-20(fp)
    
  } while (active);
   401ac:	e0bffb17 	ldw	r2,-20(fp)
   401b0:	103fdb1e 	bne	r2,zero,40120 <__alt_data_end+0xfffe3d60>

  /*
   * Notify the operating system that interrupt processing is complete.
   */ 

  ALT_OS_INT_EXIT();
   401b4:	0001883a 	nop
}
   401b8:	0001883a 	nop
   401bc:	e037883a 	mov	sp,fp
   401c0:	dfc00117 	ldw	ra,4(sp)
   401c4:	df000017 	ldw	fp,0(sp)
   401c8:	dec00204 	addi	sp,sp,8
   401cc:	f800283a 	ret

000401d0 <alt_instruction_exception_entry>:
 * that handler if it has been registered. Absent a handler, it will
 * break break or hang as discussed below.
 */
int 
alt_instruction_exception_entry (alt_u32 exception_pc)
{
   401d0:	defffb04 	addi	sp,sp,-20
   401d4:	dfc00415 	stw	ra,16(sp)
   401d8:	df000315 	stw	fp,12(sp)
   401dc:	df000304 	addi	fp,sp,12
   401e0:	e13fff15 	stw	r4,-4(fp)
  cause = ( (cause & NIOS2_EXCEPTION_REG_CAUSE_MASK) >>
              NIOS2_EXCEPTION_REG_CAUSE_OFST );

  NIOS2_READ_BADADDR(badaddr);
#else
  cause = NIOS2_EXCEPTION_CAUSE_NOT_PRESENT;
   401e4:	00bfffc4 	movi	r2,-1
   401e8:	e0bffd15 	stw	r2,-12(fp)
  badaddr = 0;
   401ec:	e03ffe15 	stw	zero,-8(fp)
#endif /* NIOS2_HAS_EXTRA_EXCEPTION_INFO */

  if(alt_instruction_exception_handler) {
   401f0:	d0a73217 	ldw	r2,-25400(gp)
   401f4:	10000726 	beq	r2,zero,40214 <alt_instruction_exception_entry+0x44>
     * Call handler. Its return value indicates whether the exception-causing
     * instruction should be re-issued. The code that called us,
     * alt_eceptions_entry.S, will look at this value and adjust the ea
     * register as necessary
     */
    return alt_instruction_exception_handler(cause, exception_pc, badaddr);
   401f8:	d0a73217 	ldw	r2,-25400(gp)
   401fc:	e0fffd17 	ldw	r3,-12(fp)
   40200:	e1bffe17 	ldw	r6,-8(fp)
   40204:	e17fff17 	ldw	r5,-4(fp)
   40208:	1809883a 	mov	r4,r3
   4020c:	103ee83a 	callr	r2
   40210:	00000206 	br	4021c <alt_instruction_exception_entry+0x4c>
   *    (a peripheral which negates its interrupt output before its
   *    interrupt handler has been executed will cause spurious interrupts)
   */
  else {
#ifdef NIOS2_HAS_DEBUG_STUB
    NIOS2_BREAK();
   40214:	003da03a 	break	0
      ;
#endif /* NIOS2_HAS_DEBUG_STUB */
  }

  /* We should not get here. Remove compiler warning. */
  return NIOS2_EXCEPTION_RETURN_REISSUE_INST;
   40218:	0005883a 	mov	r2,zero
}
   4021c:	e037883a 	mov	sp,fp
   40220:	dfc00117 	ldw	ra,4(sp)
   40224:	df000017 	ldw	fp,0(sp)
   40228:	dec00204 	addi	sp,sp,8
   4022c:	f800283a 	ret

Disassembly of section .text:

00040230 <_start>:

    /*
     * Now that the caches are initialized, set up the stack pointer and global pointer.
     * The values provided by the linker are assumed to be correctly aligned.
     */
    movhi sp, %hi(__alt_stack_pointer)
   40230:	06c00174 	movhi	sp,5
    ori sp, sp, %lo(__alt_stack_pointer)
   40234:	def0f014 	ori	sp,sp,50112
    movhi gp, %hi(_gp)
   40238:	06800174 	movhi	gp,5
    ori gp, gp, %lo(_gp)
   4023c:	d6a5e814 	ori	gp,gp,38816
 */
#ifndef ALT_SIM_OPTIMIZE
    /* Log that the BSS is about to be cleared. */
    ALT_LOG_PUTS(alt_log_msg_bss)

    movhi r2, %hi(__bss_start)
   40240:	00800174 	movhi	r2,5
    ori r2, r2, %lo(__bss_start)
   40244:	108d0c14 	ori	r2,r2,13360

    movhi r3, %hi(__bss_end)
   40248:	00c00174 	movhi	r3,5
    ori r3, r3, %lo(__bss_end)
   4024c:	18cd6514 	ori	r3,r3,13716

    beq r2, r3, 1f
   40250:	10c00326 	beq	r2,r3,40260 <_start+0x30>

0:
    stw zero, (r2)
   40254:	10000015 	stw	zero,0(r2)
    addi r2, r2, 4
   40258:	10800104 	addi	r2,r2,4
    bltu r2, r3, 0b
   4025c:	10fffd36 	bltu	r2,r3,40254 <__alt_data_end+0xfffe3e94>
     * section aren't defined until alt_load() has been called).
     */
    mov   et, zero
#endif

    call alt_load
   40260:	004d5b40 	call	4d5b4 <alt_load>

    /* Log that alt_main is about to be called. */
    ALT_LOG_PUTS(alt_log_msg_alt_main)

    /* Call the C entry point. It should never return. */
    call alt_main
   40264:	004d7500 	call	4d750 <alt_main>

00040268 <alt_after_alt_main>:

    /* Wait in infinite loop in case alt_main does return. */
alt_after_alt_main:
    br alt_after_alt_main
   40268:	003fff06 	br	40268 <__alt_data_end+0xfffe3ea8>

0004026c <main>:
#include <math.h>
#include "ransac.h"



int main() {
   4026c:	defff804 	addi	sp,sp,-32
   40270:	dfc00715 	stw	ra,28(sp)
   40274:	df000615 	stw	fp,24(sp)
   40278:	df000604 	addi	fp,sp,24

    int data_size = 2*size;
   4027c:	d0a00517 	ldw	r2,-32748(gp)
   40280:	1085883a 	add	r2,r2,r2
   40284:	e0bffd15 	stw	r2,-12(fp)
    int temp_x = 0;
   40288:	e03ffe15 	stw	zero,-8(fp)
    int temp_y = 0;
   4028c:	e03fff15 	stw	zero,-4(fp)

    int j = 0;
   40290:	e03ffa15 	stw	zero,-24(fp)
    for (int i = 0; i<data_size; i+=1) {
   40294:	e03ffb15 	stw	zero,-20(fp)
   40298:	00002306 	br	40328 <main+0xbc>
    	data[i] = (coords[X]&0xFF)|(coords[Y]<<8);
   4029c:	d0e00017 	ldw	r3,-32768(gp)
   402a0:	e0bffb17 	ldw	r2,-20(fp)
   402a4:	1085883a 	add	r2,r2,r2
   402a8:	1085883a 	add	r2,r2,r2
   402ac:	1887883a 	add	r3,r3,r2
   402b0:	00800174 	movhi	r2,5
   402b4:	10bef004 	addi	r2,r2,-1088
   402b8:	e13ffa17 	ldw	r4,-24(fp)
   402bc:	1105883a 	add	r2,r2,r4
   402c0:	10800003 	ldbu	r2,0(r2)
   402c4:	10803fcc 	andi	r2,r2,255
   402c8:	1080201c 	xori	r2,r2,128
   402cc:	10bfe004 	addi	r2,r2,-128
   402d0:	11003fcc 	andi	r4,r2,255
   402d4:	e0bffa17 	ldw	r2,-24(fp)
   402d8:	11400044 	addi	r5,r2,1
   402dc:	00800174 	movhi	r2,5
   402e0:	10bef004 	addi	r2,r2,-1088
   402e4:	1145883a 	add	r2,r2,r5
   402e8:	10800003 	ldbu	r2,0(r2)
   402ec:	10803fcc 	andi	r2,r2,255
   402f0:	1080201c 	xori	r2,r2,128
   402f4:	10bfe004 	addi	r2,r2,-128
   402f8:	1004923a 	slli	r2,r2,8
   402fc:	2084b03a 	or	r2,r4,r2
   40300:	18800015 	stw	r2,0(r3)
    	controle[0] = i;
   40304:	d0a00417 	ldw	r2,-32752(gp)
   40308:	e0fffb17 	ldw	r3,-20(fp)
   4030c:	10c00015 	stw	r3,0(r2)
    	j+=2;
   40310:	e0bffa17 	ldw	r2,-24(fp)
   40314:	10800084 	addi	r2,r2,2
   40318:	e0bffa15 	stw	r2,-24(fp)
    int data_size = 2*size;
    int temp_x = 0;
    int temp_y = 0;

    int j = 0;
    for (int i = 0; i<data_size; i+=1) {
   4031c:	e0bffb17 	ldw	r2,-20(fp)
   40320:	10800044 	addi	r2,r2,1
   40324:	e0bffb15 	stw	r2,-20(fp)
   40328:	e0fffb17 	ldw	r3,-20(fp)
   4032c:	e0bffd17 	ldw	r2,-12(fp)
   40330:	18bfda16 	blt	r3,r2,4029c <__alt_data_end+0xfffe3edc>
    	data[i] = (coords[X]&0xFF)|(coords[Y]<<8);
    	controle[0] = i;
    	j+=2;
    }
    for (int i = 0; i<size; i+=1) {
   40334:	e03ffc15 	stw	zero,-16(fp)
   40338:	00001906 	br	403a0 <main+0x134>
    	temp_x = data[i]&0xFF;
   4033c:	d0e00017 	ldw	r3,-32768(gp)
   40340:	e0bffc17 	ldw	r2,-16(fp)
   40344:	1085883a 	add	r2,r2,r2
   40348:	1085883a 	add	r2,r2,r2
   4034c:	1885883a 	add	r2,r3,r2
   40350:	10800017 	ldw	r2,0(r2)
   40354:	10803fcc 	andi	r2,r2,255
   40358:	e0bffe15 	stw	r2,-8(fp)
    	temp_y = (data[i]>>8)&0xFF;
   4035c:	d0e00017 	ldw	r3,-32768(gp)
   40360:	e0bffc17 	ldw	r2,-16(fp)
   40364:	1085883a 	add	r2,r2,r2
   40368:	1085883a 	add	r2,r2,r2
   4036c:	1885883a 	add	r2,r3,r2
   40370:	10800017 	ldw	r2,0(r2)
   40374:	1005d23a 	srai	r2,r2,8
   40378:	10803fcc 	andi	r2,r2,255
   4037c:	e0bfff15 	stw	r2,-4(fp)
    	printf("%d, %d\n", temp_x, temp_y);
   40380:	e1bfff17 	ldw	r6,-4(fp)
   40384:	e17ffe17 	ldw	r5,-8(fp)
   40388:	01000174 	movhi	r4,5
   4038c:	213e3104 	addi	r4,r4,-1852
   40390:	00403f40 	call	403f4 <printf>
    for (int i = 0; i<data_size; i+=1) {
    	data[i] = (coords[X]&0xFF)|(coords[Y]<<8);
    	controle[0] = i;
    	j+=2;
    }
    for (int i = 0; i<size; i+=1) {
   40394:	e0bffc17 	ldw	r2,-16(fp)
   40398:	10800044 	addi	r2,r2,1
   4039c:	e0bffc15 	stw	r2,-16(fp)
   403a0:	d0a00517 	ldw	r2,-32748(gp)
   403a4:	e0fffc17 	ldw	r3,-16(fp)
   403a8:	18bfe416 	blt	r3,r2,4033c <__alt_data_end+0xfffe3f7c>
    	temp_x = data[i]&0xFF;
    	temp_y = (data[i]>>8)&0xFF;
    	printf("%d, %d\n", temp_x, temp_y);
    }
    return 0;
   403ac:	0005883a 	mov	r2,zero
}
   403b0:	e037883a 	mov	sp,fp
   403b4:	dfc00117 	ldw	ra,4(sp)
   403b8:	df000017 	ldw	fp,0(sp)
   403bc:	dec00204 	addi	sp,sp,8
   403c0:	f800283a 	ret

000403c4 <_printf_r>:
   403c4:	defffd04 	addi	sp,sp,-12
   403c8:	2805883a 	mov	r2,r5
   403cc:	dfc00015 	stw	ra,0(sp)
   403d0:	d9800115 	stw	r6,4(sp)
   403d4:	d9c00215 	stw	r7,8(sp)
   403d8:	21400217 	ldw	r5,8(r4)
   403dc:	d9c00104 	addi	r7,sp,4
   403e0:	100d883a 	mov	r6,r2
   403e4:	00404300 	call	40430 <___vfprintf_internal_r>
   403e8:	dfc00017 	ldw	ra,0(sp)
   403ec:	dec00304 	addi	sp,sp,12
   403f0:	f800283a 	ret

000403f4 <printf>:
   403f4:	defffc04 	addi	sp,sp,-16
   403f8:	dfc00015 	stw	ra,0(sp)
   403fc:	d9400115 	stw	r5,4(sp)
   40400:	d9800215 	stw	r6,8(sp)
   40404:	d9c00315 	stw	r7,12(sp)
   40408:	00800174 	movhi	r2,5
   4040c:	1085ef04 	addi	r2,r2,6076
   40410:	10800017 	ldw	r2,0(r2)
   40414:	200b883a 	mov	r5,r4
   40418:	d9800104 	addi	r6,sp,4
   4041c:	11000217 	ldw	r4,8(r2)
   40420:	004270c0 	call	4270c <__vfprintf_internal>
   40424:	dfc00017 	ldw	ra,0(sp)
   40428:	dec00404 	addi	sp,sp,16
   4042c:	f800283a 	ret

00040430 <___vfprintf_internal_r>:
   40430:	deffb804 	addi	sp,sp,-288
   40434:	dfc04715 	stw	ra,284(sp)
   40438:	ddc04515 	stw	r23,276(sp)
   4043c:	dd404315 	stw	r21,268(sp)
   40440:	d9002d15 	stw	r4,180(sp)
   40444:	282f883a 	mov	r23,r5
   40448:	302b883a 	mov	r21,r6
   4044c:	d9c02e15 	stw	r7,184(sp)
   40450:	df004615 	stw	fp,280(sp)
   40454:	dd804415 	stw	r22,272(sp)
   40458:	dd004215 	stw	r20,264(sp)
   4045c:	dcc04115 	stw	r19,260(sp)
   40460:	dc804015 	stw	r18,256(sp)
   40464:	dc403f15 	stw	r17,252(sp)
   40468:	dc003e15 	stw	r16,248(sp)
   4046c:	0044ea80 	call	44ea8 <_localeconv_r>
   40470:	10800017 	ldw	r2,0(r2)
   40474:	1009883a 	mov	r4,r2
   40478:	d8803415 	stw	r2,208(sp)
   4047c:	0046f8c0 	call	46f8c <strlen>
   40480:	d8803715 	stw	r2,220(sp)
   40484:	d8802d17 	ldw	r2,180(sp)
   40488:	10000226 	beq	r2,zero,40494 <___vfprintf_internal_r+0x64>
   4048c:	10800e17 	ldw	r2,56(r2)
   40490:	1000fb26 	beq	r2,zero,40880 <___vfprintf_internal_r+0x450>
   40494:	b880030b 	ldhu	r2,12(r23)
   40498:	10c8000c 	andi	r3,r2,8192
   4049c:	1800061e 	bne	r3,zero,404b8 <___vfprintf_internal_r+0x88>
   404a0:	b9001917 	ldw	r4,100(r23)
   404a4:	00f7ffc4 	movi	r3,-8193
   404a8:	10880014 	ori	r2,r2,8192
   404ac:	20c6703a 	and	r3,r4,r3
   404b0:	b880030d 	sth	r2,12(r23)
   404b4:	b8c01915 	stw	r3,100(r23)
   404b8:	10c0020c 	andi	r3,r2,8
   404bc:	1800c326 	beq	r3,zero,407cc <___vfprintf_internal_r+0x39c>
   404c0:	b8c00417 	ldw	r3,16(r23)
   404c4:	1800c126 	beq	r3,zero,407cc <___vfprintf_internal_r+0x39c>
   404c8:	1080068c 	andi	r2,r2,26
   404cc:	00c00284 	movi	r3,10
   404d0:	10c0c626 	beq	r2,r3,407ec <___vfprintf_internal_r+0x3bc>
   404d4:	d8c00404 	addi	r3,sp,16
   404d8:	05000174 	movhi	r20,5
   404dc:	d9001e04 	addi	r4,sp,120
   404e0:	a53e4384 	addi	r20,r20,-1778
   404e4:	d8c01e15 	stw	r3,120(sp)
   404e8:	d8002015 	stw	zero,128(sp)
   404ec:	d8001f15 	stw	zero,124(sp)
   404f0:	d8003315 	stw	zero,204(sp)
   404f4:	d8003615 	stw	zero,216(sp)
   404f8:	d8003815 	stw	zero,224(sp)
   404fc:	1811883a 	mov	r8,r3
   40500:	d8003915 	stw	zero,228(sp)
   40504:	d8003a15 	stw	zero,232(sp)
   40508:	d8002f15 	stw	zero,188(sp)
   4050c:	d9002815 	stw	r4,160(sp)
   40510:	a8800007 	ldb	r2,0(r21)
   40514:	10028b26 	beq	r2,zero,40f44 <___vfprintf_internal_r+0xb14>
   40518:	00c00944 	movi	r3,37
   4051c:	a823883a 	mov	r17,r21
   40520:	10c0021e 	bne	r2,r3,4052c <___vfprintf_internal_r+0xfc>
   40524:	00001406 	br	40578 <___vfprintf_internal_r+0x148>
   40528:	10c00326 	beq	r2,r3,40538 <___vfprintf_internal_r+0x108>
   4052c:	8c400044 	addi	r17,r17,1
   40530:	88800007 	ldb	r2,0(r17)
   40534:	103ffc1e 	bne	r2,zero,40528 <__alt_data_end+0xfffe4168>
   40538:	8d61c83a 	sub	r16,r17,r21
   4053c:	80000e26 	beq	r16,zero,40578 <___vfprintf_internal_r+0x148>
   40540:	d8c02017 	ldw	r3,128(sp)
   40544:	d8801f17 	ldw	r2,124(sp)
   40548:	45400015 	stw	r21,0(r8)
   4054c:	1c07883a 	add	r3,r3,r16
   40550:	10800044 	addi	r2,r2,1
   40554:	d8c02015 	stw	r3,128(sp)
   40558:	44000115 	stw	r16,4(r8)
   4055c:	d8801f15 	stw	r2,124(sp)
   40560:	00c001c4 	movi	r3,7
   40564:	1880a916 	blt	r3,r2,4080c <___vfprintf_internal_r+0x3dc>
   40568:	42000204 	addi	r8,r8,8
   4056c:	d9402f17 	ldw	r5,188(sp)
   40570:	2c0b883a 	add	r5,r5,r16
   40574:	d9402f15 	stw	r5,188(sp)
   40578:	88800007 	ldb	r2,0(r17)
   4057c:	1000aa26 	beq	r2,zero,40828 <___vfprintf_internal_r+0x3f8>
   40580:	8d400044 	addi	r21,r17,1
   40584:	8c400047 	ldb	r17,1(r17)
   40588:	0021883a 	mov	r16,zero
   4058c:	00bfffc4 	movi	r2,-1
   40590:	0025883a 	mov	r18,zero
   40594:	dc002905 	stb	r16,164(sp)
   40598:	d8002785 	stb	zero,158(sp)
   4059c:	d8002b05 	stb	zero,172(sp)
   405a0:	d8802a15 	stw	r2,168(sp)
   405a4:	d8003115 	stw	zero,196(sp)
   405a8:	04c01604 	movi	r19,88
   405ac:	05800244 	movi	r22,9
   405b0:	9021883a 	mov	r16,r18
   405b4:	4039883a 	mov	fp,r8
   405b8:	ad400044 	addi	r21,r21,1
   405bc:	88bff804 	addi	r2,r17,-32
   405c0:	98833236 	bltu	r19,r2,4128c <___vfprintf_internal_r+0xe5c>
   405c4:	100490ba 	slli	r2,r2,2
   405c8:	00c00134 	movhi	r3,4
   405cc:	18c17704 	addi	r3,r3,1500
   405d0:	10c5883a 	add	r2,r2,r3
   405d4:	10800017 	ldw	r2,0(r2)
   405d8:	1000683a 	jmp	r2
   405dc:	00041184 	movi	zero,4166
   405e0:	0004128c 	andi	zero,zero,4170
   405e4:	0004128c 	andi	zero,zero,4170
   405e8:	000411a4 	muli	zero,zero,4166
   405ec:	0004128c 	andi	zero,zero,4170
   405f0:	0004128c 	andi	zero,zero,4170
   405f4:	0004128c 	andi	zero,zero,4170
   405f8:	0004128c 	andi	zero,zero,4170
   405fc:	0004128c 	andi	zero,zero,4170
   40600:	0004128c 	andi	zero,zero,4170
   40604:	0004088c 	andi	zero,zero,4130
   40608:	00041094 	movui	zero,4162
   4060c:	0004128c 	andi	zero,zero,4170
   40610:	00040750 	cmplti	zero,zero,4125
   40614:	000408b0 	cmpltui	zero,zero,4130
   40618:	0004128c 	andi	zero,zero,4170
   4061c:	00040900 	call	4090 <__alt_mem_MemoriaDados+0x4090>
   40620:	0004090c 	andi	zero,zero,4132
   40624:	0004090c 	andi	zero,zero,4132
   40628:	0004090c 	andi	zero,zero,4132
   4062c:	0004090c 	andi	zero,zero,4132
   40630:	0004090c 	andi	zero,zero,4132
   40634:	0004090c 	andi	zero,zero,4132
   40638:	0004090c 	andi	zero,zero,4132
   4063c:	0004090c 	andi	zero,zero,4132
   40640:	0004090c 	andi	zero,zero,4132
   40644:	0004128c 	andi	zero,zero,4170
   40648:	0004128c 	andi	zero,zero,4170
   4064c:	0004128c 	andi	zero,zero,4170
   40650:	0004128c 	andi	zero,zero,4170
   40654:	0004128c 	andi	zero,zero,4170
   40658:	0004128c 	andi	zero,zero,4170
   4065c:	0004128c 	andi	zero,zero,4170
   40660:	0004128c 	andi	zero,zero,4170
   40664:	0004128c 	andi	zero,zero,4170
   40668:	0004128c 	andi	zero,zero,4170
   4066c:	00040948 	cmpgei	zero,zero,4133
   40670:	00040a10 	cmplti	zero,zero,4136
   40674:	0004128c 	andi	zero,zero,4170
   40678:	00040a10 	cmplti	zero,zero,4136
   4067c:	0004128c 	andi	zero,zero,4170
   40680:	0004128c 	andi	zero,zero,4170
   40684:	0004128c 	andi	zero,zero,4170
   40688:	0004128c 	andi	zero,zero,4170
   4068c:	00040abc 	xorhi	zero,zero,4138
   40690:	0004128c 	andi	zero,zero,4170
   40694:	0004128c 	andi	zero,zero,4170
   40698:	00040ac8 	cmpgei	zero,zero,4139
   4069c:	0004128c 	andi	zero,zero,4170
   406a0:	0004128c 	andi	zero,zero,4170
   406a4:	0004128c 	andi	zero,zero,4170
   406a8:	0004128c 	andi	zero,zero,4170
   406ac:	0004128c 	andi	zero,zero,4170
   406b0:	00040f4c 	andi	zero,zero,4157
   406b4:	0004128c 	andi	zero,zero,4170
   406b8:	0004128c 	andi	zero,zero,4170
   406bc:	00040fb8 	rdprs	zero,zero,4158
   406c0:	0004128c 	andi	zero,zero,4170
   406c4:	0004128c 	andi	zero,zero,4170
   406c8:	0004128c 	andi	zero,zero,4170
   406cc:	0004128c 	andi	zero,zero,4170
   406d0:	0004128c 	andi	zero,zero,4170
   406d4:	0004128c 	andi	zero,zero,4170
   406d8:	0004128c 	andi	zero,zero,4170
   406dc:	0004128c 	andi	zero,zero,4170
   406e0:	0004128c 	andi	zero,zero,4170
   406e4:	0004128c 	andi	zero,zero,4170
   406e8:	00041230 	cmpltui	zero,zero,4168
   406ec:	000411b0 	cmpltui	zero,zero,4166
   406f0:	00040a10 	cmplti	zero,zero,4136
   406f4:	00040a10 	cmplti	zero,zero,4136
   406f8:	00040a10 	cmplti	zero,zero,4136
   406fc:	000411d0 	cmplti	zero,zero,4167
   40700:	000411b0 	cmpltui	zero,zero,4166
   40704:	0004128c 	andi	zero,zero,4170
   40708:	0004128c 	andi	zero,zero,4170
   4070c:	000411dc 	xori	zero,zero,4167
   40710:	0004128c 	andi	zero,zero,4170
   40714:	000411f0 	cmpltui	zero,zero,4167
   40718:	00041074 	movhi	zero,4161
   4071c:	0004075c 	xori	zero,zero,4125
   40720:	000410ac 	andhi	zero,zero,4162
   40724:	0004128c 	andi	zero,zero,4170
   40728:	000410b8 	rdprs	zero,zero,4162
   4072c:	0004128c 	andi	zero,zero,4170
   40730:	0004111c 	xori	zero,zero,4164
   40734:	0004128c 	andi	zero,zero,4170
   40738:	0004128c 	andi	zero,zero,4170
   4073c:	0004113c 	xorhi	zero,zero,4164
   40740:	d8c03117 	ldw	r3,196(sp)
   40744:	d8802e15 	stw	r2,184(sp)
   40748:	00c7c83a 	sub	r3,zero,r3
   4074c:	d8c03115 	stw	r3,196(sp)
   40750:	84000114 	ori	r16,r16,4
   40754:	ac400007 	ldb	r17,0(r21)
   40758:	003f9706 	br	405b8 <__alt_data_end+0xfffe41f8>
   4075c:	00800c04 	movi	r2,48
   40760:	d8802705 	stb	r2,156(sp)
   40764:	00801e04 	movi	r2,120
   40768:	d8802745 	stb	r2,157(sp)
   4076c:	d9002a17 	ldw	r4,168(sp)
   40770:	d8802e17 	ldw	r2,184(sp)
   40774:	d8002785 	stb	zero,158(sp)
   40778:	e011883a 	mov	r8,fp
   4077c:	10c00104 	addi	r3,r2,4
   40780:	14c00017 	ldw	r19,0(r2)
   40784:	002d883a 	mov	r22,zero
   40788:	80800094 	ori	r2,r16,2
   4078c:	2002ca16 	blt	r4,zero,412b8 <___vfprintf_internal_r+0xe88>
   40790:	00bfdfc4 	movi	r2,-129
   40794:	80a4703a 	and	r18,r16,r2
   40798:	d8c02e15 	stw	r3,184(sp)
   4079c:	94800094 	ori	r18,r18,2
   407a0:	9802b41e 	bne	r19,zero,41274 <___vfprintf_internal_r+0xe44>
   407a4:	01400174 	movhi	r5,5
   407a8:	297e3c04 	addi	r5,r5,-1808
   407ac:	d9403915 	stw	r5,228(sp)
   407b0:	04401e04 	movi	r17,120
   407b4:	d8802a17 	ldw	r2,168(sp)
   407b8:	0039883a 	mov	fp,zero
   407bc:	1001fa26 	beq	r2,zero,40fa8 <___vfprintf_internal_r+0xb78>
   407c0:	0027883a 	mov	r19,zero
   407c4:	002d883a 	mov	r22,zero
   407c8:	00021906 	br	41030 <___vfprintf_internal_r+0xc00>
   407cc:	d9002d17 	ldw	r4,180(sp)
   407d0:	b80b883a 	mov	r5,r23
   407d4:	00427e40 	call	427e4 <__swsetup_r>
   407d8:	1005dc1e 	bne	r2,zero,41f4c <___vfprintf_internal_r+0x1b1c>
   407dc:	b880030b 	ldhu	r2,12(r23)
   407e0:	00c00284 	movi	r3,10
   407e4:	1080068c 	andi	r2,r2,26
   407e8:	10ff3a1e 	bne	r2,r3,404d4 <__alt_data_end+0xfffe4114>
   407ec:	b880038f 	ldh	r2,14(r23)
   407f0:	103f3816 	blt	r2,zero,404d4 <__alt_data_end+0xfffe4114>
   407f4:	d9c02e17 	ldw	r7,184(sp)
   407f8:	d9002d17 	ldw	r4,180(sp)
   407fc:	a80d883a 	mov	r6,r21
   40800:	b80b883a 	mov	r5,r23
   40804:	00427280 	call	42728 <__sbprintf>
   40808:	00001106 	br	40850 <___vfprintf_internal_r+0x420>
   4080c:	d9002d17 	ldw	r4,180(sp)
   40810:	d9801e04 	addi	r6,sp,120
   40814:	b80b883a 	mov	r5,r23
   40818:	00471200 	call	47120 <__sprint_r>
   4081c:	1000081e 	bne	r2,zero,40840 <___vfprintf_internal_r+0x410>
   40820:	da000404 	addi	r8,sp,16
   40824:	003f5106 	br	4056c <__alt_data_end+0xfffe41ac>
   40828:	d8802017 	ldw	r2,128(sp)
   4082c:	10000426 	beq	r2,zero,40840 <___vfprintf_internal_r+0x410>
   40830:	d9002d17 	ldw	r4,180(sp)
   40834:	d9801e04 	addi	r6,sp,120
   40838:	b80b883a 	mov	r5,r23
   4083c:	00471200 	call	47120 <__sprint_r>
   40840:	b880030b 	ldhu	r2,12(r23)
   40844:	1080100c 	andi	r2,r2,64
   40848:	1005c01e 	bne	r2,zero,41f4c <___vfprintf_internal_r+0x1b1c>
   4084c:	d8802f17 	ldw	r2,188(sp)
   40850:	dfc04717 	ldw	ra,284(sp)
   40854:	df004617 	ldw	fp,280(sp)
   40858:	ddc04517 	ldw	r23,276(sp)
   4085c:	dd804417 	ldw	r22,272(sp)
   40860:	dd404317 	ldw	r21,268(sp)
   40864:	dd004217 	ldw	r20,264(sp)
   40868:	dcc04117 	ldw	r19,260(sp)
   4086c:	dc804017 	ldw	r18,256(sp)
   40870:	dc403f17 	ldw	r17,252(sp)
   40874:	dc003e17 	ldw	r16,248(sp)
   40878:	dec04804 	addi	sp,sp,288
   4087c:	f800283a 	ret
   40880:	d9002d17 	ldw	r4,180(sp)
   40884:	00447f00 	call	447f0 <__sinit>
   40888:	003f0206 	br	40494 <__alt_data_end+0xfffe40d4>
   4088c:	d9002e17 	ldw	r4,184(sp)
   40890:	d9402e17 	ldw	r5,184(sp)
   40894:	21000017 	ldw	r4,0(r4)
   40898:	28800104 	addi	r2,r5,4
   4089c:	d9003115 	stw	r4,196(sp)
   408a0:	203fa716 	blt	r4,zero,40740 <__alt_data_end+0xfffe4380>
   408a4:	d8802e15 	stw	r2,184(sp)
   408a8:	ac400007 	ldb	r17,0(r21)
   408ac:	003f4206 	br	405b8 <__alt_data_end+0xfffe41f8>
   408b0:	ac400007 	ldb	r17,0(r21)
   408b4:	01000a84 	movi	r4,42
   408b8:	a8c00044 	addi	r3,r21,1
   408bc:	89075826 	beq	r17,r4,42620 <___vfprintf_internal_r+0x21f0>
   408c0:	8cbff404 	addi	r18,r17,-48
   408c4:	b486ae36 	bltu	r22,r18,42380 <___vfprintf_internal_r+0x1f50>
   408c8:	0009883a 	mov	r4,zero
   408cc:	1823883a 	mov	r17,r3
   408d0:	01400284 	movi	r5,10
   408d4:	004a9640 	call	4a964 <__mulsi3>
   408d8:	88c00007 	ldb	r3,0(r17)
   408dc:	1489883a 	add	r4,r2,r18
   408e0:	8d400044 	addi	r21,r17,1
   408e4:	1cbff404 	addi	r18,r3,-48
   408e8:	a823883a 	mov	r17,r21
   408ec:	b4bff82e 	bgeu	r22,r18,408d0 <__alt_data_end+0xfffe4510>
   408f0:	1823883a 	mov	r17,r3
   408f4:	2005f616 	blt	r4,zero,420d0 <___vfprintf_internal_r+0x1ca0>
   408f8:	d9002a15 	stw	r4,168(sp)
   408fc:	003f2f06 	br	405bc <__alt_data_end+0xfffe41fc>
   40900:	84002014 	ori	r16,r16,128
   40904:	ac400007 	ldb	r17,0(r21)
   40908:	003f2b06 	br	405b8 <__alt_data_end+0xfffe41f8>
   4090c:	8cbff404 	addi	r18,r17,-48
   40910:	d8003115 	stw	zero,196(sp)
   40914:	0009883a 	mov	r4,zero
   40918:	a823883a 	mov	r17,r21
   4091c:	01400284 	movi	r5,10
   40920:	004a9640 	call	4a964 <__mulsi3>
   40924:	88c00007 	ldb	r3,0(r17)
   40928:	9089883a 	add	r4,r18,r2
   4092c:	ad400044 	addi	r21,r21,1
   40930:	1cbff404 	addi	r18,r3,-48
   40934:	a823883a 	mov	r17,r21
   40938:	b4bff82e 	bgeu	r22,r18,4091c <__alt_data_end+0xfffe455c>
   4093c:	1823883a 	mov	r17,r3
   40940:	d9003115 	stw	r4,196(sp)
   40944:	003f1d06 	br	405bc <__alt_data_end+0xfffe41fc>
   40948:	8025883a 	mov	r18,r16
   4094c:	dc002903 	ldbu	r16,164(sp)
   40950:	e011883a 	mov	r8,fp
   40954:	84003fcc 	andi	r16,r16,255
   40958:	8007531e 	bne	r16,zero,426a8 <___vfprintf_internal_r+0x2278>
   4095c:	94800414 	ori	r18,r18,16
   40960:	9080080c 	andi	r2,r18,32
   40964:	1003a326 	beq	r2,zero,417f4 <___vfprintf_internal_r+0x13c4>
   40968:	d9002e17 	ldw	r4,184(sp)
   4096c:	20800117 	ldw	r2,4(r4)
   40970:	24c00017 	ldw	r19,0(r4)
   40974:	21000204 	addi	r4,r4,8
   40978:	d9002e15 	stw	r4,184(sp)
   4097c:	102d883a 	mov	r22,r2
   40980:	10047316 	blt	r2,zero,41b50 <___vfprintf_internal_r+0x1720>
   40984:	d9002a17 	ldw	r4,168(sp)
   40988:	df002783 	ldbu	fp,158(sp)
   4098c:	2003e416 	blt	r4,zero,41920 <___vfprintf_internal_r+0x14f0>
   40990:	00ffdfc4 	movi	r3,-129
   40994:	9d84b03a 	or	r2,r19,r22
   40998:	90e4703a 	and	r18,r18,r3
   4099c:	10018026 	beq	r2,zero,40fa0 <___vfprintf_internal_r+0xb70>
   409a0:	b003ab26 	beq	r22,zero,41850 <___vfprintf_internal_r+0x1420>
   409a4:	dc402915 	stw	r17,164(sp)
   409a8:	dc001e04 	addi	r16,sp,120
   409ac:	b023883a 	mov	r17,r22
   409b0:	402d883a 	mov	r22,r8
   409b4:	9809883a 	mov	r4,r19
   409b8:	880b883a 	mov	r5,r17
   409bc:	01800284 	movi	r6,10
   409c0:	000f883a 	mov	r7,zero
   409c4:	004a1ec0 	call	4a1ec <__umoddi3>
   409c8:	10800c04 	addi	r2,r2,48
   409cc:	843fffc4 	addi	r16,r16,-1
   409d0:	9809883a 	mov	r4,r19
   409d4:	880b883a 	mov	r5,r17
   409d8:	80800005 	stb	r2,0(r16)
   409dc:	01800284 	movi	r6,10
   409e0:	000f883a 	mov	r7,zero
   409e4:	0049bf00 	call	49bf0 <__udivdi3>
   409e8:	1027883a 	mov	r19,r2
   409ec:	10c4b03a 	or	r2,r2,r3
   409f0:	1823883a 	mov	r17,r3
   409f4:	103fef1e 	bne	r2,zero,409b4 <__alt_data_end+0xfffe45f4>
   409f8:	d8c02817 	ldw	r3,160(sp)
   409fc:	dc402917 	ldw	r17,164(sp)
   40a00:	b011883a 	mov	r8,r22
   40a04:	1c07c83a 	sub	r3,r3,r16
   40a08:	d8c02b15 	stw	r3,172(sp)
   40a0c:	00005f06 	br	40b8c <___vfprintf_internal_r+0x75c>
   40a10:	8025883a 	mov	r18,r16
   40a14:	dc002903 	ldbu	r16,164(sp)
   40a18:	e011883a 	mov	r8,fp
   40a1c:	84003fcc 	andi	r16,r16,255
   40a20:	80071e1e 	bne	r16,zero,4269c <___vfprintf_internal_r+0x226c>
   40a24:	9080020c 	andi	r2,r18,8
   40a28:	1004af26 	beq	r2,zero,41ce8 <___vfprintf_internal_r+0x18b8>
   40a2c:	d9002e17 	ldw	r4,184(sp)
   40a30:	d9402e17 	ldw	r5,184(sp)
   40a34:	d8802e17 	ldw	r2,184(sp)
   40a38:	21000017 	ldw	r4,0(r4)
   40a3c:	29400117 	ldw	r5,4(r5)
   40a40:	10800204 	addi	r2,r2,8
   40a44:	d9003615 	stw	r4,216(sp)
   40a48:	d9403815 	stw	r5,224(sp)
   40a4c:	d8802e15 	stw	r2,184(sp)
   40a50:	d9003617 	ldw	r4,216(sp)
   40a54:	d9403817 	ldw	r5,224(sp)
   40a58:	da003d15 	stw	r8,244(sp)
   40a5c:	04000044 	movi	r16,1
   40a60:	0046cac0 	call	46cac <__fpclassifyd>
   40a64:	da003d17 	ldw	r8,244(sp)
   40a68:	1404441e 	bne	r2,r16,41b7c <___vfprintf_internal_r+0x174c>
   40a6c:	d9003617 	ldw	r4,216(sp)
   40a70:	d9403817 	ldw	r5,224(sp)
   40a74:	000d883a 	mov	r6,zero
   40a78:	000f883a 	mov	r7,zero
   40a7c:	004bd6c0 	call	4bd6c <__ledf2>
   40a80:	da003d17 	ldw	r8,244(sp)
   40a84:	1005e316 	blt	r2,zero,42214 <___vfprintf_internal_r+0x1de4>
   40a88:	df002783 	ldbu	fp,158(sp)
   40a8c:	008011c4 	movi	r2,71
   40a90:	1445580e 	bge	r2,r17,41ff4 <___vfprintf_internal_r+0x1bc4>
   40a94:	04000174 	movhi	r16,5
   40a98:	843e3404 	addi	r16,r16,-1840
   40a9c:	00c000c4 	movi	r3,3
   40aa0:	00bfdfc4 	movi	r2,-129
   40aa4:	d8c02915 	stw	r3,164(sp)
   40aa8:	90a4703a 	and	r18,r18,r2
   40aac:	d8c02b15 	stw	r3,172(sp)
   40ab0:	d8002a15 	stw	zero,168(sp)
   40ab4:	d8003215 	stw	zero,200(sp)
   40ab8:	00003a06 	br	40ba4 <___vfprintf_internal_r+0x774>
   40abc:	84000214 	ori	r16,r16,8
   40ac0:	ac400007 	ldb	r17,0(r21)
   40ac4:	003ebc06 	br	405b8 <__alt_data_end+0xfffe41f8>
   40ac8:	8025883a 	mov	r18,r16
   40acc:	dc002903 	ldbu	r16,164(sp)
   40ad0:	e011883a 	mov	r8,fp
   40ad4:	84003fcc 	andi	r16,r16,255
   40ad8:	8007001e 	bne	r16,zero,426dc <___vfprintf_internal_r+0x22ac>
   40adc:	94800414 	ori	r18,r18,16
   40ae0:	9080080c 	andi	r2,r18,32
   40ae4:	1002fa26 	beq	r2,zero,416d0 <___vfprintf_internal_r+0x12a0>
   40ae8:	d9002e17 	ldw	r4,184(sp)
   40aec:	d9402a17 	ldw	r5,168(sp)
   40af0:	d8002785 	stb	zero,158(sp)
   40af4:	20800204 	addi	r2,r4,8
   40af8:	24c00017 	ldw	r19,0(r4)
   40afc:	25800117 	ldw	r22,4(r4)
   40b00:	2804b116 	blt	r5,zero,41dc8 <___vfprintf_internal_r+0x1998>
   40b04:	013fdfc4 	movi	r4,-129
   40b08:	9d86b03a 	or	r3,r19,r22
   40b0c:	d8802e15 	stw	r2,184(sp)
   40b10:	9124703a 	and	r18,r18,r4
   40b14:	1802fb1e 	bne	r3,zero,41704 <___vfprintf_internal_r+0x12d4>
   40b18:	d8c02a17 	ldw	r3,168(sp)
   40b1c:	0039883a 	mov	fp,zero
   40b20:	1805e526 	beq	r3,zero,422b8 <___vfprintf_internal_r+0x1e88>
   40b24:	0027883a 	mov	r19,zero
   40b28:	002d883a 	mov	r22,zero
   40b2c:	dc001e04 	addi	r16,sp,120
   40b30:	9806d0fa 	srli	r3,r19,3
   40b34:	b008977a 	slli	r4,r22,29
   40b38:	b02cd0fa 	srli	r22,r22,3
   40b3c:	9cc001cc 	andi	r19,r19,7
   40b40:	98800c04 	addi	r2,r19,48
   40b44:	843fffc4 	addi	r16,r16,-1
   40b48:	20e6b03a 	or	r19,r4,r3
   40b4c:	80800005 	stb	r2,0(r16)
   40b50:	9d86b03a 	or	r3,r19,r22
   40b54:	183ff61e 	bne	r3,zero,40b30 <__alt_data_end+0xfffe4770>
   40b58:	90c0004c 	andi	r3,r18,1
   40b5c:	18014126 	beq	r3,zero,41064 <___vfprintf_internal_r+0xc34>
   40b60:	10803fcc 	andi	r2,r2,255
   40b64:	1080201c 	xori	r2,r2,128
   40b68:	10bfe004 	addi	r2,r2,-128
   40b6c:	00c00c04 	movi	r3,48
   40b70:	10c13c26 	beq	r2,r3,41064 <___vfprintf_internal_r+0xc34>
   40b74:	80ffffc5 	stb	r3,-1(r16)
   40b78:	d8c02817 	ldw	r3,160(sp)
   40b7c:	80bfffc4 	addi	r2,r16,-1
   40b80:	1021883a 	mov	r16,r2
   40b84:	1887c83a 	sub	r3,r3,r2
   40b88:	d8c02b15 	stw	r3,172(sp)
   40b8c:	d8802b17 	ldw	r2,172(sp)
   40b90:	d9002a17 	ldw	r4,168(sp)
   40b94:	1100010e 	bge	r2,r4,40b9c <___vfprintf_internal_r+0x76c>
   40b98:	2005883a 	mov	r2,r4
   40b9c:	d8802915 	stw	r2,164(sp)
   40ba0:	d8003215 	stw	zero,200(sp)
   40ba4:	e7003fcc 	andi	fp,fp,255
   40ba8:	e700201c 	xori	fp,fp,128
   40bac:	e73fe004 	addi	fp,fp,-128
   40bb0:	e0000326 	beq	fp,zero,40bc0 <___vfprintf_internal_r+0x790>
   40bb4:	d8c02917 	ldw	r3,164(sp)
   40bb8:	18c00044 	addi	r3,r3,1
   40bbc:	d8c02915 	stw	r3,164(sp)
   40bc0:	90c0008c 	andi	r3,r18,2
   40bc4:	d8c02c15 	stw	r3,176(sp)
   40bc8:	18000326 	beq	r3,zero,40bd8 <___vfprintf_internal_r+0x7a8>
   40bcc:	d8c02917 	ldw	r3,164(sp)
   40bd0:	18c00084 	addi	r3,r3,2
   40bd4:	d8c02915 	stw	r3,164(sp)
   40bd8:	90c0210c 	andi	r3,r18,132
   40bdc:	d8c03015 	stw	r3,192(sp)
   40be0:	1801c51e 	bne	r3,zero,412f8 <___vfprintf_internal_r+0xec8>
   40be4:	d9003117 	ldw	r4,196(sp)
   40be8:	d8c02917 	ldw	r3,164(sp)
   40bec:	20e7c83a 	sub	r19,r4,r3
   40bf0:	04c1c10e 	bge	zero,r19,412f8 <___vfprintf_internal_r+0xec8>
   40bf4:	02400404 	movi	r9,16
   40bf8:	d8c02017 	ldw	r3,128(sp)
   40bfc:	d8801f17 	ldw	r2,124(sp)
   40c00:	4cc52f0e 	bge	r9,r19,420c0 <___vfprintf_internal_r+0x1c90>
   40c04:	01400174 	movhi	r5,5
   40c08:	297e4784 	addi	r5,r5,-1762
   40c0c:	dc403b15 	stw	r17,236(sp)
   40c10:	d9403515 	stw	r5,212(sp)
   40c14:	9823883a 	mov	r17,r19
   40c18:	482d883a 	mov	r22,r9
   40c1c:	9027883a 	mov	r19,r18
   40c20:	070001c4 	movi	fp,7
   40c24:	8025883a 	mov	r18,r16
   40c28:	dc002d17 	ldw	r16,180(sp)
   40c2c:	00000306 	br	40c3c <___vfprintf_internal_r+0x80c>
   40c30:	8c7ffc04 	addi	r17,r17,-16
   40c34:	42000204 	addi	r8,r8,8
   40c38:	b440130e 	bge	r22,r17,40c88 <___vfprintf_internal_r+0x858>
   40c3c:	01000174 	movhi	r4,5
   40c40:	18c00404 	addi	r3,r3,16
   40c44:	10800044 	addi	r2,r2,1
   40c48:	213e4784 	addi	r4,r4,-1762
   40c4c:	41000015 	stw	r4,0(r8)
   40c50:	45800115 	stw	r22,4(r8)
   40c54:	d8c02015 	stw	r3,128(sp)
   40c58:	d8801f15 	stw	r2,124(sp)
   40c5c:	e0bff40e 	bge	fp,r2,40c30 <__alt_data_end+0xfffe4870>
   40c60:	d9801e04 	addi	r6,sp,120
   40c64:	b80b883a 	mov	r5,r23
   40c68:	8009883a 	mov	r4,r16
   40c6c:	00471200 	call	47120 <__sprint_r>
   40c70:	103ef31e 	bne	r2,zero,40840 <__alt_data_end+0xfffe4480>
   40c74:	8c7ffc04 	addi	r17,r17,-16
   40c78:	d8c02017 	ldw	r3,128(sp)
   40c7c:	d8801f17 	ldw	r2,124(sp)
   40c80:	da000404 	addi	r8,sp,16
   40c84:	b47fed16 	blt	r22,r17,40c3c <__alt_data_end+0xfffe487c>
   40c88:	9021883a 	mov	r16,r18
   40c8c:	9825883a 	mov	r18,r19
   40c90:	8827883a 	mov	r19,r17
   40c94:	dc403b17 	ldw	r17,236(sp)
   40c98:	d9403517 	ldw	r5,212(sp)
   40c9c:	98c7883a 	add	r3,r19,r3
   40ca0:	10800044 	addi	r2,r2,1
   40ca4:	41400015 	stw	r5,0(r8)
   40ca8:	44c00115 	stw	r19,4(r8)
   40cac:	d8c02015 	stw	r3,128(sp)
   40cb0:	d8801f15 	stw	r2,124(sp)
   40cb4:	010001c4 	movi	r4,7
   40cb8:	2082c516 	blt	r4,r2,417d0 <___vfprintf_internal_r+0x13a0>
   40cbc:	df002787 	ldb	fp,158(sp)
   40cc0:	42000204 	addi	r8,r8,8
   40cc4:	e0000c26 	beq	fp,zero,40cf8 <___vfprintf_internal_r+0x8c8>
   40cc8:	d8801f17 	ldw	r2,124(sp)
   40ccc:	d9002784 	addi	r4,sp,158
   40cd0:	18c00044 	addi	r3,r3,1
   40cd4:	10800044 	addi	r2,r2,1
   40cd8:	41000015 	stw	r4,0(r8)
   40cdc:	01000044 	movi	r4,1
   40ce0:	41000115 	stw	r4,4(r8)
   40ce4:	d8c02015 	stw	r3,128(sp)
   40ce8:	d8801f15 	stw	r2,124(sp)
   40cec:	010001c4 	movi	r4,7
   40cf0:	20825e16 	blt	r4,r2,4166c <___vfprintf_internal_r+0x123c>
   40cf4:	42000204 	addi	r8,r8,8
   40cf8:	d8802c17 	ldw	r2,176(sp)
   40cfc:	10000c26 	beq	r2,zero,40d30 <___vfprintf_internal_r+0x900>
   40d00:	d8801f17 	ldw	r2,124(sp)
   40d04:	d9002704 	addi	r4,sp,156
   40d08:	18c00084 	addi	r3,r3,2
   40d0c:	10800044 	addi	r2,r2,1
   40d10:	41000015 	stw	r4,0(r8)
   40d14:	01000084 	movi	r4,2
   40d18:	41000115 	stw	r4,4(r8)
   40d1c:	d8c02015 	stw	r3,128(sp)
   40d20:	d8801f15 	stw	r2,124(sp)
   40d24:	010001c4 	movi	r4,7
   40d28:	20825816 	blt	r4,r2,4168c <___vfprintf_internal_r+0x125c>
   40d2c:	42000204 	addi	r8,r8,8
   40d30:	d9003017 	ldw	r4,192(sp)
   40d34:	00802004 	movi	r2,128
   40d38:	2081bb26 	beq	r4,r2,41428 <___vfprintf_internal_r+0xff8>
   40d3c:	d9402a17 	ldw	r5,168(sp)
   40d40:	d8802b17 	ldw	r2,172(sp)
   40d44:	28adc83a 	sub	r22,r5,r2
   40d48:	0580310e 	bge	zero,r22,40e10 <___vfprintf_internal_r+0x9e0>
   40d4c:	07000404 	movi	fp,16
   40d50:	d8801f17 	ldw	r2,124(sp)
   40d54:	e584360e 	bge	fp,r22,41e30 <___vfprintf_internal_r+0x1a00>
   40d58:	01400174 	movhi	r5,5
   40d5c:	297e4384 	addi	r5,r5,-1778
   40d60:	dc402a15 	stw	r17,168(sp)
   40d64:	d9402c15 	stw	r5,176(sp)
   40d68:	b023883a 	mov	r17,r22
   40d6c:	04c001c4 	movi	r19,7
   40d70:	a82d883a 	mov	r22,r21
   40d74:	902b883a 	mov	r21,r18
   40d78:	8025883a 	mov	r18,r16
   40d7c:	dc002d17 	ldw	r16,180(sp)
   40d80:	00000306 	br	40d90 <___vfprintf_internal_r+0x960>
   40d84:	8c7ffc04 	addi	r17,r17,-16
   40d88:	42000204 	addi	r8,r8,8
   40d8c:	e440110e 	bge	fp,r17,40dd4 <___vfprintf_internal_r+0x9a4>
   40d90:	18c00404 	addi	r3,r3,16
   40d94:	10800044 	addi	r2,r2,1
   40d98:	45000015 	stw	r20,0(r8)
   40d9c:	47000115 	stw	fp,4(r8)
   40da0:	d8c02015 	stw	r3,128(sp)
   40da4:	d8801f15 	stw	r2,124(sp)
   40da8:	98bff60e 	bge	r19,r2,40d84 <__alt_data_end+0xfffe49c4>
   40dac:	d9801e04 	addi	r6,sp,120
   40db0:	b80b883a 	mov	r5,r23
   40db4:	8009883a 	mov	r4,r16
   40db8:	00471200 	call	47120 <__sprint_r>
   40dbc:	103ea01e 	bne	r2,zero,40840 <__alt_data_end+0xfffe4480>
   40dc0:	8c7ffc04 	addi	r17,r17,-16
   40dc4:	d8c02017 	ldw	r3,128(sp)
   40dc8:	d8801f17 	ldw	r2,124(sp)
   40dcc:	da000404 	addi	r8,sp,16
   40dd0:	e47fef16 	blt	fp,r17,40d90 <__alt_data_end+0xfffe49d0>
   40dd4:	9021883a 	mov	r16,r18
   40dd8:	a825883a 	mov	r18,r21
   40ddc:	b02b883a 	mov	r21,r22
   40de0:	882d883a 	mov	r22,r17
   40de4:	dc402a17 	ldw	r17,168(sp)
   40de8:	d9002c17 	ldw	r4,176(sp)
   40dec:	1d87883a 	add	r3,r3,r22
   40df0:	10800044 	addi	r2,r2,1
   40df4:	41000015 	stw	r4,0(r8)
   40df8:	45800115 	stw	r22,4(r8)
   40dfc:	d8c02015 	stw	r3,128(sp)
   40e00:	d8801f15 	stw	r2,124(sp)
   40e04:	010001c4 	movi	r4,7
   40e08:	20821016 	blt	r4,r2,4164c <___vfprintf_internal_r+0x121c>
   40e0c:	42000204 	addi	r8,r8,8
   40e10:	9080400c 	andi	r2,r18,256
   40e14:	10013a1e 	bne	r2,zero,41300 <___vfprintf_internal_r+0xed0>
   40e18:	d9402b17 	ldw	r5,172(sp)
   40e1c:	d8801f17 	ldw	r2,124(sp)
   40e20:	44000015 	stw	r16,0(r8)
   40e24:	1947883a 	add	r3,r3,r5
   40e28:	10800044 	addi	r2,r2,1
   40e2c:	41400115 	stw	r5,4(r8)
   40e30:	d8c02015 	stw	r3,128(sp)
   40e34:	d8801f15 	stw	r2,124(sp)
   40e38:	010001c4 	movi	r4,7
   40e3c:	2081f516 	blt	r4,r2,41614 <___vfprintf_internal_r+0x11e4>
   40e40:	42000204 	addi	r8,r8,8
   40e44:	9480010c 	andi	r18,r18,4
   40e48:	90003226 	beq	r18,zero,40f14 <___vfprintf_internal_r+0xae4>
   40e4c:	d9403117 	ldw	r5,196(sp)
   40e50:	d8802917 	ldw	r2,164(sp)
   40e54:	28a1c83a 	sub	r16,r5,r2
   40e58:	04002e0e 	bge	zero,r16,40f14 <___vfprintf_internal_r+0xae4>
   40e5c:	04400404 	movi	r17,16
   40e60:	d8801f17 	ldw	r2,124(sp)
   40e64:	8c04c40e 	bge	r17,r16,42178 <___vfprintf_internal_r+0x1d48>
   40e68:	01400174 	movhi	r5,5
   40e6c:	297e4784 	addi	r5,r5,-1762
   40e70:	d9403515 	stw	r5,212(sp)
   40e74:	048001c4 	movi	r18,7
   40e78:	dcc02d17 	ldw	r19,180(sp)
   40e7c:	00000306 	br	40e8c <___vfprintf_internal_r+0xa5c>
   40e80:	843ffc04 	addi	r16,r16,-16
   40e84:	42000204 	addi	r8,r8,8
   40e88:	8c00130e 	bge	r17,r16,40ed8 <___vfprintf_internal_r+0xaa8>
   40e8c:	01000174 	movhi	r4,5
   40e90:	18c00404 	addi	r3,r3,16
   40e94:	10800044 	addi	r2,r2,1
   40e98:	213e4784 	addi	r4,r4,-1762
   40e9c:	41000015 	stw	r4,0(r8)
   40ea0:	44400115 	stw	r17,4(r8)
   40ea4:	d8c02015 	stw	r3,128(sp)
   40ea8:	d8801f15 	stw	r2,124(sp)
   40eac:	90bff40e 	bge	r18,r2,40e80 <__alt_data_end+0xfffe4ac0>
   40eb0:	d9801e04 	addi	r6,sp,120
   40eb4:	b80b883a 	mov	r5,r23
   40eb8:	9809883a 	mov	r4,r19
   40ebc:	00471200 	call	47120 <__sprint_r>
   40ec0:	103e5f1e 	bne	r2,zero,40840 <__alt_data_end+0xfffe4480>
   40ec4:	843ffc04 	addi	r16,r16,-16
   40ec8:	d8c02017 	ldw	r3,128(sp)
   40ecc:	d8801f17 	ldw	r2,124(sp)
   40ed0:	da000404 	addi	r8,sp,16
   40ed4:	8c3fed16 	blt	r17,r16,40e8c <__alt_data_end+0xfffe4acc>
   40ed8:	d9403517 	ldw	r5,212(sp)
   40edc:	1c07883a 	add	r3,r3,r16
   40ee0:	10800044 	addi	r2,r2,1
   40ee4:	41400015 	stw	r5,0(r8)
   40ee8:	44000115 	stw	r16,4(r8)
   40eec:	d8c02015 	stw	r3,128(sp)
   40ef0:	d8801f15 	stw	r2,124(sp)
   40ef4:	010001c4 	movi	r4,7
   40ef8:	2080060e 	bge	r4,r2,40f14 <___vfprintf_internal_r+0xae4>
   40efc:	d9002d17 	ldw	r4,180(sp)
   40f00:	d9801e04 	addi	r6,sp,120
   40f04:	b80b883a 	mov	r5,r23
   40f08:	00471200 	call	47120 <__sprint_r>
   40f0c:	103e4c1e 	bne	r2,zero,40840 <__alt_data_end+0xfffe4480>
   40f10:	d8c02017 	ldw	r3,128(sp)
   40f14:	d8803117 	ldw	r2,196(sp)
   40f18:	d9002917 	ldw	r4,164(sp)
   40f1c:	1100010e 	bge	r2,r4,40f24 <___vfprintf_internal_r+0xaf4>
   40f20:	2005883a 	mov	r2,r4
   40f24:	d9402f17 	ldw	r5,188(sp)
   40f28:	288b883a 	add	r5,r5,r2
   40f2c:	d9402f15 	stw	r5,188(sp)
   40f30:	1801c01e 	bne	r3,zero,41634 <___vfprintf_internal_r+0x1204>
   40f34:	a8800007 	ldb	r2,0(r21)
   40f38:	d8001f15 	stw	zero,124(sp)
   40f3c:	da000404 	addi	r8,sp,16
   40f40:	103d751e 	bne	r2,zero,40518 <__alt_data_end+0xfffe4158>
   40f44:	a823883a 	mov	r17,r21
   40f48:	003d8b06 	br	40578 <__alt_data_end+0xfffe41b8>
   40f4c:	8025883a 	mov	r18,r16
   40f50:	dc002903 	ldbu	r16,164(sp)
   40f54:	e011883a 	mov	r8,fp
   40f58:	84003fcc 	andi	r16,r16,255
   40f5c:	8005e51e 	bne	r16,zero,426f4 <___vfprintf_internal_r+0x22c4>
   40f60:	94800414 	ori	r18,r18,16
   40f64:	9080080c 	andi	r2,r18,32
   40f68:	10022b26 	beq	r2,zero,41818 <___vfprintf_internal_r+0x13e8>
   40f6c:	d9002e17 	ldw	r4,184(sp)
   40f70:	d9402a17 	ldw	r5,168(sp)
   40f74:	d8002785 	stb	zero,158(sp)
   40f78:	20c00204 	addi	r3,r4,8
   40f7c:	24c00017 	ldw	r19,0(r4)
   40f80:	25800117 	ldw	r22,4(r4)
   40f84:	28042e16 	blt	r5,zero,42040 <___vfprintf_internal_r+0x1c10>
   40f88:	013fdfc4 	movi	r4,-129
   40f8c:	9d84b03a 	or	r2,r19,r22
   40f90:	d8c02e15 	stw	r3,184(sp)
   40f94:	9124703a 	and	r18,r18,r4
   40f98:	0039883a 	mov	fp,zero
   40f9c:	103e801e 	bne	r2,zero,409a0 <__alt_data_end+0xfffe45e0>
   40fa0:	d9002a17 	ldw	r4,168(sp)
   40fa4:	2002e01e 	bne	r4,zero,41b28 <___vfprintf_internal_r+0x16f8>
   40fa8:	d8002a15 	stw	zero,168(sp)
   40fac:	d8002b15 	stw	zero,172(sp)
   40fb0:	dc001e04 	addi	r16,sp,120
   40fb4:	003ef506 	br	40b8c <__alt_data_end+0xfffe47cc>
   40fb8:	8025883a 	mov	r18,r16
   40fbc:	dc002903 	ldbu	r16,164(sp)
   40fc0:	e011883a 	mov	r8,fp
   40fc4:	84003fcc 	andi	r16,r16,255
   40fc8:	8005ba1e 	bne	r16,zero,426b4 <___vfprintf_internal_r+0x2284>
   40fcc:	01000174 	movhi	r4,5
   40fd0:	213e3704 	addi	r4,r4,-1828
   40fd4:	d9003915 	stw	r4,228(sp)
   40fd8:	9080080c 	andi	r2,r18,32
   40fdc:	10006126 	beq	r2,zero,41164 <___vfprintf_internal_r+0xd34>
   40fe0:	d9402e17 	ldw	r5,184(sp)
   40fe4:	2cc00017 	ldw	r19,0(r5)
   40fe8:	2d800117 	ldw	r22,4(r5)
   40fec:	29400204 	addi	r5,r5,8
   40ff0:	d9402e15 	stw	r5,184(sp)
   40ff4:	9080004c 	andi	r2,r18,1
   40ff8:	1001ac26 	beq	r2,zero,416ac <___vfprintf_internal_r+0x127c>
   40ffc:	9d84b03a 	or	r2,r19,r22
   41000:	10038526 	beq	r2,zero,41e18 <___vfprintf_internal_r+0x19e8>
   41004:	d8c02a17 	ldw	r3,168(sp)
   41008:	00800c04 	movi	r2,48
   4100c:	d8802705 	stb	r2,156(sp)
   41010:	dc402745 	stb	r17,157(sp)
   41014:	d8002785 	stb	zero,158(sp)
   41018:	90800094 	ori	r2,r18,2
   4101c:	18047916 	blt	r3,zero,42204 <___vfprintf_internal_r+0x1dd4>
   41020:	00bfdfc4 	movi	r2,-129
   41024:	90a4703a 	and	r18,r18,r2
   41028:	94800094 	ori	r18,r18,2
   4102c:	0039883a 	mov	fp,zero
   41030:	d9003917 	ldw	r4,228(sp)
   41034:	dc001e04 	addi	r16,sp,120
   41038:	988003cc 	andi	r2,r19,15
   4103c:	b006973a 	slli	r3,r22,28
   41040:	2085883a 	add	r2,r4,r2
   41044:	9826d13a 	srli	r19,r19,4
   41048:	10800003 	ldbu	r2,0(r2)
   4104c:	b02cd13a 	srli	r22,r22,4
   41050:	843fffc4 	addi	r16,r16,-1
   41054:	1ce6b03a 	or	r19,r3,r19
   41058:	80800005 	stb	r2,0(r16)
   4105c:	9d84b03a 	or	r2,r19,r22
   41060:	103ff51e 	bne	r2,zero,41038 <__alt_data_end+0xfffe4c78>
   41064:	d8c02817 	ldw	r3,160(sp)
   41068:	1c07c83a 	sub	r3,r3,r16
   4106c:	d8c02b15 	stw	r3,172(sp)
   41070:	003ec606 	br	40b8c <__alt_data_end+0xfffe47cc>
   41074:	8025883a 	mov	r18,r16
   41078:	dc002903 	ldbu	r16,164(sp)
   4107c:	e011883a 	mov	r8,fp
   41080:	84003fcc 	andi	r16,r16,255
   41084:	803e9626 	beq	r16,zero,40ae0 <__alt_data_end+0xfffe4720>
   41088:	d8c02b03 	ldbu	r3,172(sp)
   4108c:	d8c02785 	stb	r3,158(sp)
   41090:	003e9306 	br	40ae0 <__alt_data_end+0xfffe4720>
   41094:	00c00044 	movi	r3,1
   41098:	d8c02905 	stb	r3,164(sp)
   4109c:	00c00ac4 	movi	r3,43
   410a0:	d8c02b05 	stb	r3,172(sp)
   410a4:	ac400007 	ldb	r17,0(r21)
   410a8:	003d4306 	br	405b8 <__alt_data_end+0xfffe41f8>
   410ac:	84000814 	ori	r16,r16,32
   410b0:	ac400007 	ldb	r17,0(r21)
   410b4:	003d4006 	br	405b8 <__alt_data_end+0xfffe41f8>
   410b8:	d8802e17 	ldw	r2,184(sp)
   410bc:	8025883a 	mov	r18,r16
   410c0:	d8002785 	stb	zero,158(sp)
   410c4:	14000017 	ldw	r16,0(r2)
   410c8:	e011883a 	mov	r8,fp
   410cc:	14c00104 	addi	r19,r2,4
   410d0:	80042d26 	beq	r16,zero,42188 <___vfprintf_internal_r+0x1d58>
   410d4:	d8c02a17 	ldw	r3,168(sp)
   410d8:	1803e416 	blt	r3,zero,4206c <___vfprintf_internal_r+0x1c3c>
   410dc:	180d883a 	mov	r6,r3
   410e0:	000b883a 	mov	r5,zero
   410e4:	8009883a 	mov	r4,r16
   410e8:	df003d15 	stw	fp,244(sp)
   410ec:	00458a00 	call	458a0 <memchr>
   410f0:	da003d17 	ldw	r8,244(sp)
   410f4:	10046826 	beq	r2,zero,42298 <___vfprintf_internal_r+0x1e68>
   410f8:	1405c83a 	sub	r2,r2,r16
   410fc:	d8802b15 	stw	r2,172(sp)
   41100:	1003e016 	blt	r2,zero,42084 <___vfprintf_internal_r+0x1c54>
   41104:	df002783 	ldbu	fp,158(sp)
   41108:	d8802915 	stw	r2,164(sp)
   4110c:	dcc02e15 	stw	r19,184(sp)
   41110:	d8002a15 	stw	zero,168(sp)
   41114:	d8003215 	stw	zero,200(sp)
   41118:	003ea206 	br	40ba4 <__alt_data_end+0xfffe47e4>
   4111c:	8025883a 	mov	r18,r16
   41120:	dc002903 	ldbu	r16,164(sp)
   41124:	e011883a 	mov	r8,fp
   41128:	84003fcc 	andi	r16,r16,255
   4112c:	803f8d26 	beq	r16,zero,40f64 <__alt_data_end+0xfffe4ba4>
   41130:	d8c02b03 	ldbu	r3,172(sp)
   41134:	d8c02785 	stb	r3,158(sp)
   41138:	003f8a06 	br	40f64 <__alt_data_end+0xfffe4ba4>
   4113c:	8025883a 	mov	r18,r16
   41140:	dc002903 	ldbu	r16,164(sp)
   41144:	e011883a 	mov	r8,fp
   41148:	84003fcc 	andi	r16,r16,255
   4114c:	8005661e 	bne	r16,zero,426e8 <___vfprintf_internal_r+0x22b8>
   41150:	01000174 	movhi	r4,5
   41154:	213e3c04 	addi	r4,r4,-1808
   41158:	d9003915 	stw	r4,228(sp)
   4115c:	9080080c 	andi	r2,r18,32
   41160:	103f9f1e 	bne	r2,zero,40fe0 <__alt_data_end+0xfffe4c20>
   41164:	9080040c 	andi	r2,r18,16
   41168:	1002eb26 	beq	r2,zero,41d18 <___vfprintf_internal_r+0x18e8>
   4116c:	d8802e17 	ldw	r2,184(sp)
   41170:	002d883a 	mov	r22,zero
   41174:	14c00017 	ldw	r19,0(r2)
   41178:	10800104 	addi	r2,r2,4
   4117c:	d8802e15 	stw	r2,184(sp)
   41180:	003f9c06 	br	40ff4 <__alt_data_end+0xfffe4c34>
   41184:	d8802b07 	ldb	r2,172(sp)
   41188:	1002e11e 	bne	r2,zero,41d10 <___vfprintf_internal_r+0x18e0>
   4118c:	00c00044 	movi	r3,1
   41190:	d8c02905 	stb	r3,164(sp)
   41194:	00c00804 	movi	r3,32
   41198:	d8c02b05 	stb	r3,172(sp)
   4119c:	ac400007 	ldb	r17,0(r21)
   411a0:	003d0506 	br	405b8 <__alt_data_end+0xfffe41f8>
   411a4:	84000054 	ori	r16,r16,1
   411a8:	ac400007 	ldb	r17,0(r21)
   411ac:	003d0206 	br	405b8 <__alt_data_end+0xfffe41f8>
   411b0:	8025883a 	mov	r18,r16
   411b4:	dc002903 	ldbu	r16,164(sp)
   411b8:	e011883a 	mov	r8,fp
   411bc:	84003fcc 	andi	r16,r16,255
   411c0:	803de726 	beq	r16,zero,40960 <__alt_data_end+0xfffe45a0>
   411c4:	d8c02b03 	ldbu	r3,172(sp)
   411c8:	d8c02785 	stb	r3,158(sp)
   411cc:	003de406 	br	40960 <__alt_data_end+0xfffe45a0>
   411d0:	84001014 	ori	r16,r16,64
   411d4:	ac400007 	ldb	r17,0(r21)
   411d8:	003cf706 	br	405b8 <__alt_data_end+0xfffe41f8>
   411dc:	ac400007 	ldb	r17,0(r21)
   411e0:	00801b04 	movi	r2,108
   411e4:	88838f26 	beq	r17,r2,42024 <___vfprintf_internal_r+0x1bf4>
   411e8:	84000414 	ori	r16,r16,16
   411ec:	003cf206 	br	405b8 <__alt_data_end+0xfffe41f8>
   411f0:	8025883a 	mov	r18,r16
   411f4:	dc002903 	ldbu	r16,164(sp)
   411f8:	e011883a 	mov	r8,fp
   411fc:	84003fcc 	andi	r16,r16,255
   41200:	80053f1e 	bne	r16,zero,42700 <___vfprintf_internal_r+0x22d0>
   41204:	9080080c 	andi	r2,r18,32
   41208:	1002d226 	beq	r2,zero,41d54 <___vfprintf_internal_r+0x1924>
   4120c:	d9002e17 	ldw	r4,184(sp)
   41210:	d9402f17 	ldw	r5,188(sp)
   41214:	20800017 	ldw	r2,0(r4)
   41218:	2807d7fa 	srai	r3,r5,31
   4121c:	21000104 	addi	r4,r4,4
   41220:	d9002e15 	stw	r4,184(sp)
   41224:	11400015 	stw	r5,0(r2)
   41228:	10c00115 	stw	r3,4(r2)
   4122c:	003cb806 	br	40510 <__alt_data_end+0xfffe4150>
   41230:	d8c02e17 	ldw	r3,184(sp)
   41234:	d9002e17 	ldw	r4,184(sp)
   41238:	8025883a 	mov	r18,r16
   4123c:	18800017 	ldw	r2,0(r3)
   41240:	21000104 	addi	r4,r4,4
   41244:	00c00044 	movi	r3,1
   41248:	e011883a 	mov	r8,fp
   4124c:	d8c02915 	stw	r3,164(sp)
   41250:	d8002785 	stb	zero,158(sp)
   41254:	d8801405 	stb	r2,80(sp)
   41258:	d9002e15 	stw	r4,184(sp)
   4125c:	d8c02b15 	stw	r3,172(sp)
   41260:	d8002a15 	stw	zero,168(sp)
   41264:	d8003215 	stw	zero,200(sp)
   41268:	dc001404 	addi	r16,sp,80
   4126c:	0039883a 	mov	fp,zero
   41270:	003e5306 	br	40bc0 <__alt_data_end+0xfffe4800>
   41274:	01000174 	movhi	r4,5
   41278:	213e3c04 	addi	r4,r4,-1808
   4127c:	0039883a 	mov	fp,zero
   41280:	d9003915 	stw	r4,228(sp)
   41284:	04401e04 	movi	r17,120
   41288:	003f6906 	br	41030 <__alt_data_end+0xfffe4c70>
   4128c:	8025883a 	mov	r18,r16
   41290:	dc002903 	ldbu	r16,164(sp)
   41294:	e011883a 	mov	r8,fp
   41298:	84003fcc 	andi	r16,r16,255
   4129c:	8005081e 	bne	r16,zero,426c0 <___vfprintf_internal_r+0x2290>
   412a0:	883d6126 	beq	r17,zero,40828 <__alt_data_end+0xfffe4468>
   412a4:	00c00044 	movi	r3,1
   412a8:	d8c02915 	stw	r3,164(sp)
   412ac:	dc401405 	stb	r17,80(sp)
   412b0:	d8002785 	stb	zero,158(sp)
   412b4:	003fe906 	br	4125c <__alt_data_end+0xfffe4e9c>
   412b8:	01400174 	movhi	r5,5
   412bc:	297e3c04 	addi	r5,r5,-1808
   412c0:	d9403915 	stw	r5,228(sp)
   412c4:	d8c02e15 	stw	r3,184(sp)
   412c8:	1025883a 	mov	r18,r2
   412cc:	04401e04 	movi	r17,120
   412d0:	9d84b03a 	or	r2,r19,r22
   412d4:	1000fc1e 	bne	r2,zero,416c8 <___vfprintf_internal_r+0x1298>
   412d8:	0039883a 	mov	fp,zero
   412dc:	00800084 	movi	r2,2
   412e0:	10803fcc 	andi	r2,r2,255
   412e4:	00c00044 	movi	r3,1
   412e8:	10c20f26 	beq	r2,r3,41b28 <___vfprintf_internal_r+0x16f8>
   412ec:	00c00084 	movi	r3,2
   412f0:	10fd3326 	beq	r2,r3,407c0 <__alt_data_end+0xfffe4400>
   412f4:	003e0b06 	br	40b24 <__alt_data_end+0xfffe4764>
   412f8:	d8c02017 	ldw	r3,128(sp)
   412fc:	003e7106 	br	40cc4 <__alt_data_end+0xfffe4904>
   41300:	00801944 	movi	r2,101
   41304:	14407e0e 	bge	r2,r17,41500 <___vfprintf_internal_r+0x10d0>
   41308:	d9003617 	ldw	r4,216(sp)
   4130c:	d9403817 	ldw	r5,224(sp)
   41310:	000d883a 	mov	r6,zero
   41314:	000f883a 	mov	r7,zero
   41318:	d8c03c15 	stw	r3,240(sp)
   4131c:	da003d15 	stw	r8,244(sp)
   41320:	004bc080 	call	4bc08 <__eqdf2>
   41324:	d8c03c17 	ldw	r3,240(sp)
   41328:	da003d17 	ldw	r8,244(sp)
   4132c:	1000f71e 	bne	r2,zero,4170c <___vfprintf_internal_r+0x12dc>
   41330:	d8801f17 	ldw	r2,124(sp)
   41334:	01000174 	movhi	r4,5
   41338:	213e4304 	addi	r4,r4,-1780
   4133c:	18c00044 	addi	r3,r3,1
   41340:	10800044 	addi	r2,r2,1
   41344:	41000015 	stw	r4,0(r8)
   41348:	01000044 	movi	r4,1
   4134c:	41000115 	stw	r4,4(r8)
   41350:	d8c02015 	stw	r3,128(sp)
   41354:	d8801f15 	stw	r2,124(sp)
   41358:	010001c4 	movi	r4,7
   4135c:	2082b816 	blt	r4,r2,41e40 <___vfprintf_internal_r+0x1a10>
   41360:	42000204 	addi	r8,r8,8
   41364:	d8802617 	ldw	r2,152(sp)
   41368:	d9403317 	ldw	r5,204(sp)
   4136c:	11400216 	blt	r2,r5,41378 <___vfprintf_internal_r+0xf48>
   41370:	9080004c 	andi	r2,r18,1
   41374:	103eb326 	beq	r2,zero,40e44 <__alt_data_end+0xfffe4a84>
   41378:	d8803717 	ldw	r2,220(sp)
   4137c:	d9003417 	ldw	r4,208(sp)
   41380:	d9403717 	ldw	r5,220(sp)
   41384:	1887883a 	add	r3,r3,r2
   41388:	d8801f17 	ldw	r2,124(sp)
   4138c:	41000015 	stw	r4,0(r8)
   41390:	41400115 	stw	r5,4(r8)
   41394:	10800044 	addi	r2,r2,1
   41398:	d8c02015 	stw	r3,128(sp)
   4139c:	d8801f15 	stw	r2,124(sp)
   413a0:	010001c4 	movi	r4,7
   413a4:	20832916 	blt	r4,r2,4204c <___vfprintf_internal_r+0x1c1c>
   413a8:	42000204 	addi	r8,r8,8
   413ac:	d8803317 	ldw	r2,204(sp)
   413b0:	143fffc4 	addi	r16,r2,-1
   413b4:	043ea30e 	bge	zero,r16,40e44 <__alt_data_end+0xfffe4a84>
   413b8:	04400404 	movi	r17,16
   413bc:	d8801f17 	ldw	r2,124(sp)
   413c0:	8c00880e 	bge	r17,r16,415e4 <___vfprintf_internal_r+0x11b4>
   413c4:	01400174 	movhi	r5,5
   413c8:	297e4384 	addi	r5,r5,-1778
   413cc:	d9402c15 	stw	r5,176(sp)
   413d0:	058001c4 	movi	r22,7
   413d4:	dcc02d17 	ldw	r19,180(sp)
   413d8:	00000306 	br	413e8 <___vfprintf_internal_r+0xfb8>
   413dc:	42000204 	addi	r8,r8,8
   413e0:	843ffc04 	addi	r16,r16,-16
   413e4:	8c00820e 	bge	r17,r16,415f0 <___vfprintf_internal_r+0x11c0>
   413e8:	18c00404 	addi	r3,r3,16
   413ec:	10800044 	addi	r2,r2,1
   413f0:	45000015 	stw	r20,0(r8)
   413f4:	44400115 	stw	r17,4(r8)
   413f8:	d8c02015 	stw	r3,128(sp)
   413fc:	d8801f15 	stw	r2,124(sp)
   41400:	b0bff60e 	bge	r22,r2,413dc <__alt_data_end+0xfffe501c>
   41404:	d9801e04 	addi	r6,sp,120
   41408:	b80b883a 	mov	r5,r23
   4140c:	9809883a 	mov	r4,r19
   41410:	00471200 	call	47120 <__sprint_r>
   41414:	103d0a1e 	bne	r2,zero,40840 <__alt_data_end+0xfffe4480>
   41418:	d8c02017 	ldw	r3,128(sp)
   4141c:	d8801f17 	ldw	r2,124(sp)
   41420:	da000404 	addi	r8,sp,16
   41424:	003fee06 	br	413e0 <__alt_data_end+0xfffe5020>
   41428:	d9403117 	ldw	r5,196(sp)
   4142c:	d8802917 	ldw	r2,164(sp)
   41430:	28adc83a 	sub	r22,r5,r2
   41434:	05be410e 	bge	zero,r22,40d3c <__alt_data_end+0xfffe497c>
   41438:	07000404 	movi	fp,16
   4143c:	d8801f17 	ldw	r2,124(sp)
   41440:	e5838f0e 	bge	fp,r22,42280 <___vfprintf_internal_r+0x1e50>
   41444:	01400174 	movhi	r5,5
   41448:	297e4384 	addi	r5,r5,-1778
   4144c:	dc403015 	stw	r17,192(sp)
   41450:	d9402c15 	stw	r5,176(sp)
   41454:	b023883a 	mov	r17,r22
   41458:	04c001c4 	movi	r19,7
   4145c:	a82d883a 	mov	r22,r21
   41460:	902b883a 	mov	r21,r18
   41464:	8025883a 	mov	r18,r16
   41468:	dc002d17 	ldw	r16,180(sp)
   4146c:	00000306 	br	4147c <___vfprintf_internal_r+0x104c>
   41470:	8c7ffc04 	addi	r17,r17,-16
   41474:	42000204 	addi	r8,r8,8
   41478:	e440110e 	bge	fp,r17,414c0 <___vfprintf_internal_r+0x1090>
   4147c:	18c00404 	addi	r3,r3,16
   41480:	10800044 	addi	r2,r2,1
   41484:	45000015 	stw	r20,0(r8)
   41488:	47000115 	stw	fp,4(r8)
   4148c:	d8c02015 	stw	r3,128(sp)
   41490:	d8801f15 	stw	r2,124(sp)
   41494:	98bff60e 	bge	r19,r2,41470 <__alt_data_end+0xfffe50b0>
   41498:	d9801e04 	addi	r6,sp,120
   4149c:	b80b883a 	mov	r5,r23
   414a0:	8009883a 	mov	r4,r16
   414a4:	00471200 	call	47120 <__sprint_r>
   414a8:	103ce51e 	bne	r2,zero,40840 <__alt_data_end+0xfffe4480>
   414ac:	8c7ffc04 	addi	r17,r17,-16
   414b0:	d8c02017 	ldw	r3,128(sp)
   414b4:	d8801f17 	ldw	r2,124(sp)
   414b8:	da000404 	addi	r8,sp,16
   414bc:	e47fef16 	blt	fp,r17,4147c <__alt_data_end+0xfffe50bc>
   414c0:	9021883a 	mov	r16,r18
   414c4:	a825883a 	mov	r18,r21
   414c8:	b02b883a 	mov	r21,r22
   414cc:	882d883a 	mov	r22,r17
   414d0:	dc403017 	ldw	r17,192(sp)
   414d4:	d9002c17 	ldw	r4,176(sp)
   414d8:	1d87883a 	add	r3,r3,r22
   414dc:	10800044 	addi	r2,r2,1
   414e0:	41000015 	stw	r4,0(r8)
   414e4:	45800115 	stw	r22,4(r8)
   414e8:	d8c02015 	stw	r3,128(sp)
   414ec:	d8801f15 	stw	r2,124(sp)
   414f0:	010001c4 	movi	r4,7
   414f4:	20818e16 	blt	r4,r2,41b30 <___vfprintf_internal_r+0x1700>
   414f8:	42000204 	addi	r8,r8,8
   414fc:	003e0f06 	br	40d3c <__alt_data_end+0xfffe497c>
   41500:	d9403317 	ldw	r5,204(sp)
   41504:	00800044 	movi	r2,1
   41508:	18c00044 	addi	r3,r3,1
   4150c:	1141530e 	bge	r2,r5,41a5c <___vfprintf_internal_r+0x162c>
   41510:	dc401f17 	ldw	r17,124(sp)
   41514:	00800044 	movi	r2,1
   41518:	40800115 	stw	r2,4(r8)
   4151c:	8c400044 	addi	r17,r17,1
   41520:	44000015 	stw	r16,0(r8)
   41524:	d8c02015 	stw	r3,128(sp)
   41528:	dc401f15 	stw	r17,124(sp)
   4152c:	008001c4 	movi	r2,7
   41530:	14416b16 	blt	r2,r17,41ae0 <___vfprintf_internal_r+0x16b0>
   41534:	42000204 	addi	r8,r8,8
   41538:	d8803717 	ldw	r2,220(sp)
   4153c:	d9003417 	ldw	r4,208(sp)
   41540:	8c400044 	addi	r17,r17,1
   41544:	10c7883a 	add	r3,r2,r3
   41548:	40800115 	stw	r2,4(r8)
   4154c:	41000015 	stw	r4,0(r8)
   41550:	d8c02015 	stw	r3,128(sp)
   41554:	dc401f15 	stw	r17,124(sp)
   41558:	008001c4 	movi	r2,7
   4155c:	14416916 	blt	r2,r17,41b04 <___vfprintf_internal_r+0x16d4>
   41560:	45800204 	addi	r22,r8,8
   41564:	d9003617 	ldw	r4,216(sp)
   41568:	d9403817 	ldw	r5,224(sp)
   4156c:	000d883a 	mov	r6,zero
   41570:	000f883a 	mov	r7,zero
   41574:	d8c03c15 	stw	r3,240(sp)
   41578:	004bc080 	call	4bc08 <__eqdf2>
   4157c:	d8c03c17 	ldw	r3,240(sp)
   41580:	1000bc26 	beq	r2,zero,41874 <___vfprintf_internal_r+0x1444>
   41584:	d9403317 	ldw	r5,204(sp)
   41588:	84000044 	addi	r16,r16,1
   4158c:	8c400044 	addi	r17,r17,1
   41590:	28bfffc4 	addi	r2,r5,-1
   41594:	1887883a 	add	r3,r3,r2
   41598:	b0800115 	stw	r2,4(r22)
   4159c:	b4000015 	stw	r16,0(r22)
   415a0:	d8c02015 	stw	r3,128(sp)
   415a4:	dc401f15 	stw	r17,124(sp)
   415a8:	008001c4 	movi	r2,7
   415ac:	14414316 	blt	r2,r17,41abc <___vfprintf_internal_r+0x168c>
   415b0:	b5800204 	addi	r22,r22,8
   415b4:	d9003a17 	ldw	r4,232(sp)
   415b8:	df0022c4 	addi	fp,sp,139
   415bc:	8c400044 	addi	r17,r17,1
   415c0:	20c7883a 	add	r3,r4,r3
   415c4:	b7000015 	stw	fp,0(r22)
   415c8:	b1000115 	stw	r4,4(r22)
   415cc:	d8c02015 	stw	r3,128(sp)
   415d0:	dc401f15 	stw	r17,124(sp)
   415d4:	008001c4 	movi	r2,7
   415d8:	14400e16 	blt	r2,r17,41614 <___vfprintf_internal_r+0x11e4>
   415dc:	b2000204 	addi	r8,r22,8
   415e0:	003e1806 	br	40e44 <__alt_data_end+0xfffe4a84>
   415e4:	01000174 	movhi	r4,5
   415e8:	213e4384 	addi	r4,r4,-1778
   415ec:	d9002c15 	stw	r4,176(sp)
   415f0:	d9002c17 	ldw	r4,176(sp)
   415f4:	1c07883a 	add	r3,r3,r16
   415f8:	44000115 	stw	r16,4(r8)
   415fc:	41000015 	stw	r4,0(r8)
   41600:	10800044 	addi	r2,r2,1
   41604:	d8c02015 	stw	r3,128(sp)
   41608:	d8801f15 	stw	r2,124(sp)
   4160c:	010001c4 	movi	r4,7
   41610:	20be0b0e 	bge	r4,r2,40e40 <__alt_data_end+0xfffe4a80>
   41614:	d9002d17 	ldw	r4,180(sp)
   41618:	d9801e04 	addi	r6,sp,120
   4161c:	b80b883a 	mov	r5,r23
   41620:	00471200 	call	47120 <__sprint_r>
   41624:	103c861e 	bne	r2,zero,40840 <__alt_data_end+0xfffe4480>
   41628:	d8c02017 	ldw	r3,128(sp)
   4162c:	da000404 	addi	r8,sp,16
   41630:	003e0406 	br	40e44 <__alt_data_end+0xfffe4a84>
   41634:	d9002d17 	ldw	r4,180(sp)
   41638:	d9801e04 	addi	r6,sp,120
   4163c:	b80b883a 	mov	r5,r23
   41640:	00471200 	call	47120 <__sprint_r>
   41644:	103e3b26 	beq	r2,zero,40f34 <__alt_data_end+0xfffe4b74>
   41648:	003c7d06 	br	40840 <__alt_data_end+0xfffe4480>
   4164c:	d9002d17 	ldw	r4,180(sp)
   41650:	d9801e04 	addi	r6,sp,120
   41654:	b80b883a 	mov	r5,r23
   41658:	00471200 	call	47120 <__sprint_r>
   4165c:	103c781e 	bne	r2,zero,40840 <__alt_data_end+0xfffe4480>
   41660:	d8c02017 	ldw	r3,128(sp)
   41664:	da000404 	addi	r8,sp,16
   41668:	003de906 	br	40e10 <__alt_data_end+0xfffe4a50>
   4166c:	d9002d17 	ldw	r4,180(sp)
   41670:	d9801e04 	addi	r6,sp,120
   41674:	b80b883a 	mov	r5,r23
   41678:	00471200 	call	47120 <__sprint_r>
   4167c:	103c701e 	bne	r2,zero,40840 <__alt_data_end+0xfffe4480>
   41680:	d8c02017 	ldw	r3,128(sp)
   41684:	da000404 	addi	r8,sp,16
   41688:	003d9b06 	br	40cf8 <__alt_data_end+0xfffe4938>
   4168c:	d9002d17 	ldw	r4,180(sp)
   41690:	d9801e04 	addi	r6,sp,120
   41694:	b80b883a 	mov	r5,r23
   41698:	00471200 	call	47120 <__sprint_r>
   4169c:	103c681e 	bne	r2,zero,40840 <__alt_data_end+0xfffe4480>
   416a0:	d8c02017 	ldw	r3,128(sp)
   416a4:	da000404 	addi	r8,sp,16
   416a8:	003da106 	br	40d30 <__alt_data_end+0xfffe4970>
   416ac:	d9402a17 	ldw	r5,168(sp)
   416b0:	d8002785 	stb	zero,158(sp)
   416b4:	283f0616 	blt	r5,zero,412d0 <__alt_data_end+0xfffe4f10>
   416b8:	00ffdfc4 	movi	r3,-129
   416bc:	9d84b03a 	or	r2,r19,r22
   416c0:	90e4703a 	and	r18,r18,r3
   416c4:	103c3b26 	beq	r2,zero,407b4 <__alt_data_end+0xfffe43f4>
   416c8:	0039883a 	mov	fp,zero
   416cc:	003e5806 	br	41030 <__alt_data_end+0xfffe4c70>
   416d0:	9080040c 	andi	r2,r18,16
   416d4:	1001b326 	beq	r2,zero,41da4 <___vfprintf_internal_r+0x1974>
   416d8:	d8c02e17 	ldw	r3,184(sp)
   416dc:	d9002a17 	ldw	r4,168(sp)
   416e0:	d8002785 	stb	zero,158(sp)
   416e4:	18800104 	addi	r2,r3,4
   416e8:	1cc00017 	ldw	r19,0(r3)
   416ec:	002d883a 	mov	r22,zero
   416f0:	2001b516 	blt	r4,zero,41dc8 <___vfprintf_internal_r+0x1998>
   416f4:	00ffdfc4 	movi	r3,-129
   416f8:	d8802e15 	stw	r2,184(sp)
   416fc:	90e4703a 	and	r18,r18,r3
   41700:	983d0526 	beq	r19,zero,40b18 <__alt_data_end+0xfffe4758>
   41704:	0039883a 	mov	fp,zero
   41708:	003d0806 	br	40b2c <__alt_data_end+0xfffe476c>
   4170c:	dc402617 	ldw	r17,152(sp)
   41710:	0441d30e 	bge	zero,r17,41e60 <___vfprintf_internal_r+0x1a30>
   41714:	dc403217 	ldw	r17,200(sp)
   41718:	d8803317 	ldw	r2,204(sp)
   4171c:	1440010e 	bge	r2,r17,41724 <___vfprintf_internal_r+0x12f4>
   41720:	1023883a 	mov	r17,r2
   41724:	04400a0e 	bge	zero,r17,41750 <___vfprintf_internal_r+0x1320>
   41728:	d8801f17 	ldw	r2,124(sp)
   4172c:	1c47883a 	add	r3,r3,r17
   41730:	44000015 	stw	r16,0(r8)
   41734:	10800044 	addi	r2,r2,1
   41738:	44400115 	stw	r17,4(r8)
   4173c:	d8c02015 	stw	r3,128(sp)
   41740:	d8801f15 	stw	r2,124(sp)
   41744:	010001c4 	movi	r4,7
   41748:	20826516 	blt	r4,r2,420e0 <___vfprintf_internal_r+0x1cb0>
   4174c:	42000204 	addi	r8,r8,8
   41750:	88026116 	blt	r17,zero,420d8 <___vfprintf_internal_r+0x1ca8>
   41754:	d9003217 	ldw	r4,200(sp)
   41758:	2463c83a 	sub	r17,r4,r17
   4175c:	04407b0e 	bge	zero,r17,4194c <___vfprintf_internal_r+0x151c>
   41760:	05800404 	movi	r22,16
   41764:	d8801f17 	ldw	r2,124(sp)
   41768:	b4419d0e 	bge	r22,r17,41de0 <___vfprintf_internal_r+0x19b0>
   4176c:	01000174 	movhi	r4,5
   41770:	213e4384 	addi	r4,r4,-1778
   41774:	d9002c15 	stw	r4,176(sp)
   41778:	070001c4 	movi	fp,7
   4177c:	dcc02d17 	ldw	r19,180(sp)
   41780:	00000306 	br	41790 <___vfprintf_internal_r+0x1360>
   41784:	42000204 	addi	r8,r8,8
   41788:	8c7ffc04 	addi	r17,r17,-16
   4178c:	b441970e 	bge	r22,r17,41dec <___vfprintf_internal_r+0x19bc>
   41790:	18c00404 	addi	r3,r3,16
   41794:	10800044 	addi	r2,r2,1
   41798:	45000015 	stw	r20,0(r8)
   4179c:	45800115 	stw	r22,4(r8)
   417a0:	d8c02015 	stw	r3,128(sp)
   417a4:	d8801f15 	stw	r2,124(sp)
   417a8:	e0bff60e 	bge	fp,r2,41784 <__alt_data_end+0xfffe53c4>
   417ac:	d9801e04 	addi	r6,sp,120
   417b0:	b80b883a 	mov	r5,r23
   417b4:	9809883a 	mov	r4,r19
   417b8:	00471200 	call	47120 <__sprint_r>
   417bc:	103c201e 	bne	r2,zero,40840 <__alt_data_end+0xfffe4480>
   417c0:	d8c02017 	ldw	r3,128(sp)
   417c4:	d8801f17 	ldw	r2,124(sp)
   417c8:	da000404 	addi	r8,sp,16
   417cc:	003fee06 	br	41788 <__alt_data_end+0xfffe53c8>
   417d0:	d9002d17 	ldw	r4,180(sp)
   417d4:	d9801e04 	addi	r6,sp,120
   417d8:	b80b883a 	mov	r5,r23
   417dc:	00471200 	call	47120 <__sprint_r>
   417e0:	103c171e 	bne	r2,zero,40840 <__alt_data_end+0xfffe4480>
   417e4:	d8c02017 	ldw	r3,128(sp)
   417e8:	df002787 	ldb	fp,158(sp)
   417ec:	da000404 	addi	r8,sp,16
   417f0:	003d3406 	br	40cc4 <__alt_data_end+0xfffe4904>
   417f4:	9080040c 	andi	r2,r18,16
   417f8:	10016126 	beq	r2,zero,41d80 <___vfprintf_internal_r+0x1950>
   417fc:	d9402e17 	ldw	r5,184(sp)
   41800:	2cc00017 	ldw	r19,0(r5)
   41804:	29400104 	addi	r5,r5,4
   41808:	d9402e15 	stw	r5,184(sp)
   4180c:	982dd7fa 	srai	r22,r19,31
   41810:	b005883a 	mov	r2,r22
   41814:	003c5a06 	br	40980 <__alt_data_end+0xfffe45c0>
   41818:	9080040c 	andi	r2,r18,16
   4181c:	10003526 	beq	r2,zero,418f4 <___vfprintf_internal_r+0x14c4>
   41820:	d8c02e17 	ldw	r3,184(sp)
   41824:	d9002a17 	ldw	r4,168(sp)
   41828:	d8002785 	stb	zero,158(sp)
   4182c:	18800104 	addi	r2,r3,4
   41830:	1cc00017 	ldw	r19,0(r3)
   41834:	002d883a 	mov	r22,zero
   41838:	20003716 	blt	r4,zero,41918 <___vfprintf_internal_r+0x14e8>
   4183c:	00ffdfc4 	movi	r3,-129
   41840:	d8802e15 	stw	r2,184(sp)
   41844:	90e4703a 	and	r18,r18,r3
   41848:	0039883a 	mov	fp,zero
   4184c:	983dd426 	beq	r19,zero,40fa0 <__alt_data_end+0xfffe4be0>
   41850:	00800244 	movi	r2,9
   41854:	14fc5336 	bltu	r2,r19,409a4 <__alt_data_end+0xfffe45e4>
   41858:	d8c02817 	ldw	r3,160(sp)
   4185c:	dc001dc4 	addi	r16,sp,119
   41860:	9cc00c04 	addi	r19,r19,48
   41864:	1c07c83a 	sub	r3,r3,r16
   41868:	dcc01dc5 	stb	r19,119(sp)
   4186c:	d8c02b15 	stw	r3,172(sp)
   41870:	003cc606 	br	40b8c <__alt_data_end+0xfffe47cc>
   41874:	d8803317 	ldw	r2,204(sp)
   41878:	143fffc4 	addi	r16,r2,-1
   4187c:	043f4d0e 	bge	zero,r16,415b4 <__alt_data_end+0xfffe51f4>
   41880:	07000404 	movi	fp,16
   41884:	e400810e 	bge	fp,r16,41a8c <___vfprintf_internal_r+0x165c>
   41888:	01400174 	movhi	r5,5
   4188c:	297e4384 	addi	r5,r5,-1778
   41890:	d9402c15 	stw	r5,176(sp)
   41894:	01c001c4 	movi	r7,7
   41898:	dcc02d17 	ldw	r19,180(sp)
   4189c:	00000306 	br	418ac <___vfprintf_internal_r+0x147c>
   418a0:	b5800204 	addi	r22,r22,8
   418a4:	843ffc04 	addi	r16,r16,-16
   418a8:	e4007b0e 	bge	fp,r16,41a98 <___vfprintf_internal_r+0x1668>
   418ac:	18c00404 	addi	r3,r3,16
   418b0:	8c400044 	addi	r17,r17,1
   418b4:	b5000015 	stw	r20,0(r22)
   418b8:	b7000115 	stw	fp,4(r22)
   418bc:	d8c02015 	stw	r3,128(sp)
   418c0:	dc401f15 	stw	r17,124(sp)
   418c4:	3c7ff60e 	bge	r7,r17,418a0 <__alt_data_end+0xfffe54e0>
   418c8:	d9801e04 	addi	r6,sp,120
   418cc:	b80b883a 	mov	r5,r23
   418d0:	9809883a 	mov	r4,r19
   418d4:	d9c03c15 	stw	r7,240(sp)
   418d8:	00471200 	call	47120 <__sprint_r>
   418dc:	d9c03c17 	ldw	r7,240(sp)
   418e0:	103bd71e 	bne	r2,zero,40840 <__alt_data_end+0xfffe4480>
   418e4:	d8c02017 	ldw	r3,128(sp)
   418e8:	dc401f17 	ldw	r17,124(sp)
   418ec:	dd800404 	addi	r22,sp,16
   418f0:	003fec06 	br	418a4 <__alt_data_end+0xfffe54e4>
   418f4:	9080100c 	andi	r2,r18,64
   418f8:	d8002785 	stb	zero,158(sp)
   418fc:	10010e26 	beq	r2,zero,41d38 <___vfprintf_internal_r+0x1908>
   41900:	d9402e17 	ldw	r5,184(sp)
   41904:	d8c02a17 	ldw	r3,168(sp)
   41908:	002d883a 	mov	r22,zero
   4190c:	28800104 	addi	r2,r5,4
   41910:	2cc0000b 	ldhu	r19,0(r5)
   41914:	183fc90e 	bge	r3,zero,4183c <__alt_data_end+0xfffe547c>
   41918:	d8802e15 	stw	r2,184(sp)
   4191c:	0039883a 	mov	fp,zero
   41920:	9d84b03a 	or	r2,r19,r22
   41924:	103c1e1e 	bne	r2,zero,409a0 <__alt_data_end+0xfffe45e0>
   41928:	00800044 	movi	r2,1
   4192c:	003e6c06 	br	412e0 <__alt_data_end+0xfffe4f20>
   41930:	d9002d17 	ldw	r4,180(sp)
   41934:	d9801e04 	addi	r6,sp,120
   41938:	b80b883a 	mov	r5,r23
   4193c:	00471200 	call	47120 <__sprint_r>
   41940:	103bbf1e 	bne	r2,zero,40840 <__alt_data_end+0xfffe4480>
   41944:	d8c02017 	ldw	r3,128(sp)
   41948:	da000404 	addi	r8,sp,16
   4194c:	d9003217 	ldw	r4,200(sp)
   41950:	d8802617 	ldw	r2,152(sp)
   41954:	d9403317 	ldw	r5,204(sp)
   41958:	8123883a 	add	r17,r16,r4
   4195c:	11400216 	blt	r2,r5,41968 <___vfprintf_internal_r+0x1538>
   41960:	9100004c 	andi	r4,r18,1
   41964:	20000d26 	beq	r4,zero,4199c <___vfprintf_internal_r+0x156c>
   41968:	d9003717 	ldw	r4,220(sp)
   4196c:	d9403417 	ldw	r5,208(sp)
   41970:	1907883a 	add	r3,r3,r4
   41974:	d9001f17 	ldw	r4,124(sp)
   41978:	41400015 	stw	r5,0(r8)
   4197c:	d9403717 	ldw	r5,220(sp)
   41980:	21000044 	addi	r4,r4,1
   41984:	d8c02015 	stw	r3,128(sp)
   41988:	41400115 	stw	r5,4(r8)
   4198c:	d9001f15 	stw	r4,124(sp)
   41990:	014001c4 	movi	r5,7
   41994:	2901e816 	blt	r5,r4,42138 <___vfprintf_internal_r+0x1d08>
   41998:	42000204 	addi	r8,r8,8
   4199c:	d9003317 	ldw	r4,204(sp)
   419a0:	8121883a 	add	r16,r16,r4
   419a4:	2085c83a 	sub	r2,r4,r2
   419a8:	8461c83a 	sub	r16,r16,r17
   419ac:	1400010e 	bge	r2,r16,419b4 <___vfprintf_internal_r+0x1584>
   419b0:	1021883a 	mov	r16,r2
   419b4:	04000a0e 	bge	zero,r16,419e0 <___vfprintf_internal_r+0x15b0>
   419b8:	d9001f17 	ldw	r4,124(sp)
   419bc:	1c07883a 	add	r3,r3,r16
   419c0:	44400015 	stw	r17,0(r8)
   419c4:	21000044 	addi	r4,r4,1
   419c8:	44000115 	stw	r16,4(r8)
   419cc:	d8c02015 	stw	r3,128(sp)
   419d0:	d9001f15 	stw	r4,124(sp)
   419d4:	014001c4 	movi	r5,7
   419d8:	2901fb16 	blt	r5,r4,421c8 <___vfprintf_internal_r+0x1d98>
   419dc:	42000204 	addi	r8,r8,8
   419e0:	8001f716 	blt	r16,zero,421c0 <___vfprintf_internal_r+0x1d90>
   419e4:	1421c83a 	sub	r16,r2,r16
   419e8:	043d160e 	bge	zero,r16,40e44 <__alt_data_end+0xfffe4a84>
   419ec:	04400404 	movi	r17,16
   419f0:	d8801f17 	ldw	r2,124(sp)
   419f4:	8c3efb0e 	bge	r17,r16,415e4 <__alt_data_end+0xfffe5224>
   419f8:	01400174 	movhi	r5,5
   419fc:	297e4384 	addi	r5,r5,-1778
   41a00:	d9402c15 	stw	r5,176(sp)
   41a04:	058001c4 	movi	r22,7
   41a08:	dcc02d17 	ldw	r19,180(sp)
   41a0c:	00000306 	br	41a1c <___vfprintf_internal_r+0x15ec>
   41a10:	42000204 	addi	r8,r8,8
   41a14:	843ffc04 	addi	r16,r16,-16
   41a18:	8c3ef50e 	bge	r17,r16,415f0 <__alt_data_end+0xfffe5230>
   41a1c:	18c00404 	addi	r3,r3,16
   41a20:	10800044 	addi	r2,r2,1
   41a24:	45000015 	stw	r20,0(r8)
   41a28:	44400115 	stw	r17,4(r8)
   41a2c:	d8c02015 	stw	r3,128(sp)
   41a30:	d8801f15 	stw	r2,124(sp)
   41a34:	b0bff60e 	bge	r22,r2,41a10 <__alt_data_end+0xfffe5650>
   41a38:	d9801e04 	addi	r6,sp,120
   41a3c:	b80b883a 	mov	r5,r23
   41a40:	9809883a 	mov	r4,r19
   41a44:	00471200 	call	47120 <__sprint_r>
   41a48:	103b7d1e 	bne	r2,zero,40840 <__alt_data_end+0xfffe4480>
   41a4c:	d8c02017 	ldw	r3,128(sp)
   41a50:	d8801f17 	ldw	r2,124(sp)
   41a54:	da000404 	addi	r8,sp,16
   41a58:	003fee06 	br	41a14 <__alt_data_end+0xfffe5654>
   41a5c:	9088703a 	and	r4,r18,r2
   41a60:	203eab1e 	bne	r4,zero,41510 <__alt_data_end+0xfffe5150>
   41a64:	dc401f17 	ldw	r17,124(sp)
   41a68:	40800115 	stw	r2,4(r8)
   41a6c:	44000015 	stw	r16,0(r8)
   41a70:	8c400044 	addi	r17,r17,1
   41a74:	d8c02015 	stw	r3,128(sp)
   41a78:	dc401f15 	stw	r17,124(sp)
   41a7c:	008001c4 	movi	r2,7
   41a80:	14400e16 	blt	r2,r17,41abc <___vfprintf_internal_r+0x168c>
   41a84:	45800204 	addi	r22,r8,8
   41a88:	003eca06 	br	415b4 <__alt_data_end+0xfffe51f4>
   41a8c:	01000174 	movhi	r4,5
   41a90:	213e4384 	addi	r4,r4,-1778
   41a94:	d9002c15 	stw	r4,176(sp)
   41a98:	d8802c17 	ldw	r2,176(sp)
   41a9c:	1c07883a 	add	r3,r3,r16
   41aa0:	8c400044 	addi	r17,r17,1
   41aa4:	b0800015 	stw	r2,0(r22)
   41aa8:	b4000115 	stw	r16,4(r22)
   41aac:	d8c02015 	stw	r3,128(sp)
   41ab0:	dc401f15 	stw	r17,124(sp)
   41ab4:	008001c4 	movi	r2,7
   41ab8:	147ebd0e 	bge	r2,r17,415b0 <__alt_data_end+0xfffe51f0>
   41abc:	d9002d17 	ldw	r4,180(sp)
   41ac0:	d9801e04 	addi	r6,sp,120
   41ac4:	b80b883a 	mov	r5,r23
   41ac8:	00471200 	call	47120 <__sprint_r>
   41acc:	103b5c1e 	bne	r2,zero,40840 <__alt_data_end+0xfffe4480>
   41ad0:	d8c02017 	ldw	r3,128(sp)
   41ad4:	dc401f17 	ldw	r17,124(sp)
   41ad8:	dd800404 	addi	r22,sp,16
   41adc:	003eb506 	br	415b4 <__alt_data_end+0xfffe51f4>
   41ae0:	d9002d17 	ldw	r4,180(sp)
   41ae4:	d9801e04 	addi	r6,sp,120
   41ae8:	b80b883a 	mov	r5,r23
   41aec:	00471200 	call	47120 <__sprint_r>
   41af0:	103b531e 	bne	r2,zero,40840 <__alt_data_end+0xfffe4480>
   41af4:	d8c02017 	ldw	r3,128(sp)
   41af8:	dc401f17 	ldw	r17,124(sp)
   41afc:	da000404 	addi	r8,sp,16
   41b00:	003e8d06 	br	41538 <__alt_data_end+0xfffe5178>
   41b04:	d9002d17 	ldw	r4,180(sp)
   41b08:	d9801e04 	addi	r6,sp,120
   41b0c:	b80b883a 	mov	r5,r23
   41b10:	00471200 	call	47120 <__sprint_r>
   41b14:	103b4a1e 	bne	r2,zero,40840 <__alt_data_end+0xfffe4480>
   41b18:	d8c02017 	ldw	r3,128(sp)
   41b1c:	dc401f17 	ldw	r17,124(sp)
   41b20:	dd800404 	addi	r22,sp,16
   41b24:	003e8f06 	br	41564 <__alt_data_end+0xfffe51a4>
   41b28:	0027883a 	mov	r19,zero
   41b2c:	003f4a06 	br	41858 <__alt_data_end+0xfffe5498>
   41b30:	d9002d17 	ldw	r4,180(sp)
   41b34:	d9801e04 	addi	r6,sp,120
   41b38:	b80b883a 	mov	r5,r23
   41b3c:	00471200 	call	47120 <__sprint_r>
   41b40:	103b3f1e 	bne	r2,zero,40840 <__alt_data_end+0xfffe4480>
   41b44:	d8c02017 	ldw	r3,128(sp)
   41b48:	da000404 	addi	r8,sp,16
   41b4c:	003c7b06 	br	40d3c <__alt_data_end+0xfffe497c>
   41b50:	d9402a17 	ldw	r5,168(sp)
   41b54:	04e7c83a 	sub	r19,zero,r19
   41b58:	07000b44 	movi	fp,45
   41b5c:	9804c03a 	cmpne	r2,r19,zero
   41b60:	05adc83a 	sub	r22,zero,r22
   41b64:	df002785 	stb	fp,158(sp)
   41b68:	b0adc83a 	sub	r22,r22,r2
   41b6c:	28017b16 	blt	r5,zero,4215c <___vfprintf_internal_r+0x1d2c>
   41b70:	00bfdfc4 	movi	r2,-129
   41b74:	90a4703a 	and	r18,r18,r2
   41b78:	003b8906 	br	409a0 <__alt_data_end+0xfffe45e0>
   41b7c:	d9003617 	ldw	r4,216(sp)
   41b80:	d9403817 	ldw	r5,224(sp)
   41b84:	da003d15 	stw	r8,244(sp)
   41b88:	0046cac0 	call	46cac <__fpclassifyd>
   41b8c:	da003d17 	ldw	r8,244(sp)
   41b90:	1000f026 	beq	r2,zero,41f54 <___vfprintf_internal_r+0x1b24>
   41b94:	d9002a17 	ldw	r4,168(sp)
   41b98:	05bff7c4 	movi	r22,-33
   41b9c:	00bfffc4 	movi	r2,-1
   41ba0:	8dac703a 	and	r22,r17,r22
   41ba4:	20820026 	beq	r4,r2,423a8 <___vfprintf_internal_r+0x1f78>
   41ba8:	008011c4 	movi	r2,71
   41bac:	b081f726 	beq	r22,r2,4238c <___vfprintf_internal_r+0x1f5c>
   41bb0:	d9003817 	ldw	r4,224(sp)
   41bb4:	90c04014 	ori	r3,r18,256
   41bb8:	d8c02c15 	stw	r3,176(sp)
   41bbc:	20021516 	blt	r4,zero,42414 <___vfprintf_internal_r+0x1fe4>
   41bc0:	dcc03817 	ldw	r19,224(sp)
   41bc4:	d8002905 	stb	zero,164(sp)
   41bc8:	00801984 	movi	r2,102
   41bcc:	8881f926 	beq	r17,r2,423b4 <___vfprintf_internal_r+0x1f84>
   41bd0:	00801184 	movi	r2,70
   41bd4:	88821c26 	beq	r17,r2,42448 <___vfprintf_internal_r+0x2018>
   41bd8:	00801144 	movi	r2,69
   41bdc:	b081ef26 	beq	r22,r2,4239c <___vfprintf_internal_r+0x1f6c>
   41be0:	d8c02a17 	ldw	r3,168(sp)
   41be4:	d8802104 	addi	r2,sp,132
   41be8:	d8800315 	stw	r2,12(sp)
   41bec:	d9403617 	ldw	r5,216(sp)
   41bf0:	d8802504 	addi	r2,sp,148
   41bf4:	d9002d17 	ldw	r4,180(sp)
   41bf8:	d8800215 	stw	r2,8(sp)
   41bfc:	d8802604 	addi	r2,sp,152
   41c00:	d8c00015 	stw	r3,0(sp)
   41c04:	d8800115 	stw	r2,4(sp)
   41c08:	01c00084 	movi	r7,2
   41c0c:	980d883a 	mov	r6,r19
   41c10:	d8c03c15 	stw	r3,240(sp)
   41c14:	da003d15 	stw	r8,244(sp)
   41c18:	0042b600 	call	42b60 <_dtoa_r>
   41c1c:	1021883a 	mov	r16,r2
   41c20:	008019c4 	movi	r2,103
   41c24:	d8c03c17 	ldw	r3,240(sp)
   41c28:	da003d17 	ldw	r8,244(sp)
   41c2c:	88817126 	beq	r17,r2,421f4 <___vfprintf_internal_r+0x1dc4>
   41c30:	008011c4 	movi	r2,71
   41c34:	88829126 	beq	r17,r2,4267c <___vfprintf_internal_r+0x224c>
   41c38:	80f9883a 	add	fp,r16,r3
   41c3c:	d9003617 	ldw	r4,216(sp)
   41c40:	000d883a 	mov	r6,zero
   41c44:	000f883a 	mov	r7,zero
   41c48:	980b883a 	mov	r5,r19
   41c4c:	da003d15 	stw	r8,244(sp)
   41c50:	004bc080 	call	4bc08 <__eqdf2>
   41c54:	da003d17 	ldw	r8,244(sp)
   41c58:	10018d26 	beq	r2,zero,42290 <___vfprintf_internal_r+0x1e60>
   41c5c:	d8802117 	ldw	r2,132(sp)
   41c60:	1700062e 	bgeu	r2,fp,41c7c <___vfprintf_internal_r+0x184c>
   41c64:	01000c04 	movi	r4,48
   41c68:	10c00044 	addi	r3,r2,1
   41c6c:	d8c02115 	stw	r3,132(sp)
   41c70:	11000005 	stb	r4,0(r2)
   41c74:	d8802117 	ldw	r2,132(sp)
   41c78:	173ffb36 	bltu	r2,fp,41c68 <__alt_data_end+0xfffe58a8>
   41c7c:	1405c83a 	sub	r2,r2,r16
   41c80:	d8803315 	stw	r2,204(sp)
   41c84:	008011c4 	movi	r2,71
   41c88:	b0817626 	beq	r22,r2,42264 <___vfprintf_internal_r+0x1e34>
   41c8c:	00801944 	movi	r2,101
   41c90:	1442800e 	bge	r2,r17,42694 <___vfprintf_internal_r+0x2264>
   41c94:	d8c02617 	ldw	r3,152(sp)
   41c98:	00801984 	movi	r2,102
   41c9c:	d8c03215 	stw	r3,200(sp)
   41ca0:	8881fe26 	beq	r17,r2,4249c <___vfprintf_internal_r+0x206c>
   41ca4:	d8c03217 	ldw	r3,200(sp)
   41ca8:	d9003317 	ldw	r4,204(sp)
   41cac:	1901dd16 	blt	r3,r4,42424 <___vfprintf_internal_r+0x1ff4>
   41cb0:	9480004c 	andi	r18,r18,1
   41cb4:	90022b1e 	bne	r18,zero,42564 <___vfprintf_internal_r+0x2134>
   41cb8:	1805883a 	mov	r2,r3
   41cbc:	18028316 	blt	r3,zero,426cc <___vfprintf_internal_r+0x229c>
   41cc0:	d8c03217 	ldw	r3,200(sp)
   41cc4:	044019c4 	movi	r17,103
   41cc8:	d8c02b15 	stw	r3,172(sp)
   41ccc:	df002907 	ldb	fp,164(sp)
   41cd0:	e001531e 	bne	fp,zero,42220 <___vfprintf_internal_r+0x1df0>
   41cd4:	df002783 	ldbu	fp,158(sp)
   41cd8:	d8802915 	stw	r2,164(sp)
   41cdc:	dc802c17 	ldw	r18,176(sp)
   41ce0:	d8002a15 	stw	zero,168(sp)
   41ce4:	003baf06 	br	40ba4 <__alt_data_end+0xfffe47e4>
   41ce8:	d8c02e17 	ldw	r3,184(sp)
   41cec:	d9002e17 	ldw	r4,184(sp)
   41cf0:	d9402e17 	ldw	r5,184(sp)
   41cf4:	18c00017 	ldw	r3,0(r3)
   41cf8:	21000117 	ldw	r4,4(r4)
   41cfc:	29400204 	addi	r5,r5,8
   41d00:	d8c03615 	stw	r3,216(sp)
   41d04:	d9003815 	stw	r4,224(sp)
   41d08:	d9402e15 	stw	r5,184(sp)
   41d0c:	003b5006 	br	40a50 <__alt_data_end+0xfffe4690>
   41d10:	ac400007 	ldb	r17,0(r21)
   41d14:	003a2806 	br	405b8 <__alt_data_end+0xfffe41f8>
   41d18:	9080100c 	andi	r2,r18,64
   41d1c:	1000a826 	beq	r2,zero,41fc0 <___vfprintf_internal_r+0x1b90>
   41d20:	d8c02e17 	ldw	r3,184(sp)
   41d24:	002d883a 	mov	r22,zero
   41d28:	1cc0000b 	ldhu	r19,0(r3)
   41d2c:	18c00104 	addi	r3,r3,4
   41d30:	d8c02e15 	stw	r3,184(sp)
   41d34:	003caf06 	br	40ff4 <__alt_data_end+0xfffe4c34>
   41d38:	d9002e17 	ldw	r4,184(sp)
   41d3c:	d9402a17 	ldw	r5,168(sp)
   41d40:	002d883a 	mov	r22,zero
   41d44:	20800104 	addi	r2,r4,4
   41d48:	24c00017 	ldw	r19,0(r4)
   41d4c:	283ebb0e 	bge	r5,zero,4183c <__alt_data_end+0xfffe547c>
   41d50:	003ef106 	br	41918 <__alt_data_end+0xfffe5558>
   41d54:	9080040c 	andi	r2,r18,16
   41d58:	1000921e 	bne	r2,zero,41fa4 <___vfprintf_internal_r+0x1b74>
   41d5c:	9480100c 	andi	r18,r18,64
   41d60:	90013926 	beq	r18,zero,42248 <___vfprintf_internal_r+0x1e18>
   41d64:	d9402e17 	ldw	r5,184(sp)
   41d68:	d8c02f17 	ldw	r3,188(sp)
   41d6c:	28800017 	ldw	r2,0(r5)
   41d70:	29400104 	addi	r5,r5,4
   41d74:	d9402e15 	stw	r5,184(sp)
   41d78:	10c0000d 	sth	r3,0(r2)
   41d7c:	0039e406 	br	40510 <__alt_data_end+0xfffe4150>
   41d80:	9080100c 	andi	r2,r18,64
   41d84:	10008026 	beq	r2,zero,41f88 <___vfprintf_internal_r+0x1b58>
   41d88:	d8802e17 	ldw	r2,184(sp)
   41d8c:	14c0000f 	ldh	r19,0(r2)
   41d90:	10800104 	addi	r2,r2,4
   41d94:	d8802e15 	stw	r2,184(sp)
   41d98:	982dd7fa 	srai	r22,r19,31
   41d9c:	b005883a 	mov	r2,r22
   41da0:	003af706 	br	40980 <__alt_data_end+0xfffe45c0>
   41da4:	9080100c 	andi	r2,r18,64
   41da8:	d8002785 	stb	zero,158(sp)
   41dac:	10008a1e 	bne	r2,zero,41fd8 <___vfprintf_internal_r+0x1ba8>
   41db0:	d9002e17 	ldw	r4,184(sp)
   41db4:	d9402a17 	ldw	r5,168(sp)
   41db8:	002d883a 	mov	r22,zero
   41dbc:	20800104 	addi	r2,r4,4
   41dc0:	24c00017 	ldw	r19,0(r4)
   41dc4:	283e4b0e 	bge	r5,zero,416f4 <__alt_data_end+0xfffe5334>
   41dc8:	9d86b03a 	or	r3,r19,r22
   41dcc:	d8802e15 	stw	r2,184(sp)
   41dd0:	183e4c1e 	bne	r3,zero,41704 <__alt_data_end+0xfffe5344>
   41dd4:	0039883a 	mov	fp,zero
   41dd8:	0005883a 	mov	r2,zero
   41ddc:	003d4006 	br	412e0 <__alt_data_end+0xfffe4f20>
   41de0:	01400174 	movhi	r5,5
   41de4:	297e4384 	addi	r5,r5,-1778
   41de8:	d9402c15 	stw	r5,176(sp)
   41dec:	d9402c17 	ldw	r5,176(sp)
   41df0:	1c47883a 	add	r3,r3,r17
   41df4:	10800044 	addi	r2,r2,1
   41df8:	41400015 	stw	r5,0(r8)
   41dfc:	44400115 	stw	r17,4(r8)
   41e00:	d8c02015 	stw	r3,128(sp)
   41e04:	d8801f15 	stw	r2,124(sp)
   41e08:	010001c4 	movi	r4,7
   41e0c:	20bec816 	blt	r4,r2,41930 <__alt_data_end+0xfffe5570>
   41e10:	42000204 	addi	r8,r8,8
   41e14:	003ecd06 	br	4194c <__alt_data_end+0xfffe558c>
   41e18:	d9002a17 	ldw	r4,168(sp)
   41e1c:	d8002785 	stb	zero,158(sp)
   41e20:	203d2d16 	blt	r4,zero,412d8 <__alt_data_end+0xfffe4f18>
   41e24:	00bfdfc4 	movi	r2,-129
   41e28:	90a4703a 	and	r18,r18,r2
   41e2c:	003a6106 	br	407b4 <__alt_data_end+0xfffe43f4>
   41e30:	01000174 	movhi	r4,5
   41e34:	213e4384 	addi	r4,r4,-1778
   41e38:	d9002c15 	stw	r4,176(sp)
   41e3c:	003bea06 	br	40de8 <__alt_data_end+0xfffe4a28>
   41e40:	d9002d17 	ldw	r4,180(sp)
   41e44:	d9801e04 	addi	r6,sp,120
   41e48:	b80b883a 	mov	r5,r23
   41e4c:	00471200 	call	47120 <__sprint_r>
   41e50:	103a7b1e 	bne	r2,zero,40840 <__alt_data_end+0xfffe4480>
   41e54:	d8c02017 	ldw	r3,128(sp)
   41e58:	da000404 	addi	r8,sp,16
   41e5c:	003d4106 	br	41364 <__alt_data_end+0xfffe4fa4>
   41e60:	d8801f17 	ldw	r2,124(sp)
   41e64:	01400174 	movhi	r5,5
   41e68:	01000044 	movi	r4,1
   41e6c:	18c00044 	addi	r3,r3,1
   41e70:	10800044 	addi	r2,r2,1
   41e74:	297e4304 	addi	r5,r5,-1780
   41e78:	41000115 	stw	r4,4(r8)
   41e7c:	41400015 	stw	r5,0(r8)
   41e80:	d8c02015 	stw	r3,128(sp)
   41e84:	d8801f15 	stw	r2,124(sp)
   41e88:	010001c4 	movi	r4,7
   41e8c:	20805c16 	blt	r4,r2,42000 <___vfprintf_internal_r+0x1bd0>
   41e90:	42000204 	addi	r8,r8,8
   41e94:	8800041e 	bne	r17,zero,41ea8 <___vfprintf_internal_r+0x1a78>
   41e98:	d8803317 	ldw	r2,204(sp)
   41e9c:	1000021e 	bne	r2,zero,41ea8 <___vfprintf_internal_r+0x1a78>
   41ea0:	9080004c 	andi	r2,r18,1
   41ea4:	103be726 	beq	r2,zero,40e44 <__alt_data_end+0xfffe4a84>
   41ea8:	d9003717 	ldw	r4,220(sp)
   41eac:	d8801f17 	ldw	r2,124(sp)
   41eb0:	d9403417 	ldw	r5,208(sp)
   41eb4:	20c7883a 	add	r3,r4,r3
   41eb8:	10800044 	addi	r2,r2,1
   41ebc:	41000115 	stw	r4,4(r8)
   41ec0:	41400015 	stw	r5,0(r8)
   41ec4:	d8c02015 	stw	r3,128(sp)
   41ec8:	d8801f15 	stw	r2,124(sp)
   41ecc:	010001c4 	movi	r4,7
   41ed0:	20812116 	blt	r4,r2,42358 <___vfprintf_internal_r+0x1f28>
   41ed4:	42000204 	addi	r8,r8,8
   41ed8:	0463c83a 	sub	r17,zero,r17
   41edc:	0440730e 	bge	zero,r17,420ac <___vfprintf_internal_r+0x1c7c>
   41ee0:	05800404 	movi	r22,16
   41ee4:	b440860e 	bge	r22,r17,42100 <___vfprintf_internal_r+0x1cd0>
   41ee8:	01400174 	movhi	r5,5
   41eec:	297e4384 	addi	r5,r5,-1778
   41ef0:	d9402c15 	stw	r5,176(sp)
   41ef4:	070001c4 	movi	fp,7
   41ef8:	dcc02d17 	ldw	r19,180(sp)
   41efc:	00000306 	br	41f0c <___vfprintf_internal_r+0x1adc>
   41f00:	42000204 	addi	r8,r8,8
   41f04:	8c7ffc04 	addi	r17,r17,-16
   41f08:	b440800e 	bge	r22,r17,4210c <___vfprintf_internal_r+0x1cdc>
   41f0c:	18c00404 	addi	r3,r3,16
   41f10:	10800044 	addi	r2,r2,1
   41f14:	45000015 	stw	r20,0(r8)
   41f18:	45800115 	stw	r22,4(r8)
   41f1c:	d8c02015 	stw	r3,128(sp)
   41f20:	d8801f15 	stw	r2,124(sp)
   41f24:	e0bff60e 	bge	fp,r2,41f00 <__alt_data_end+0xfffe5b40>
   41f28:	d9801e04 	addi	r6,sp,120
   41f2c:	b80b883a 	mov	r5,r23
   41f30:	9809883a 	mov	r4,r19
   41f34:	00471200 	call	47120 <__sprint_r>
   41f38:	103a411e 	bne	r2,zero,40840 <__alt_data_end+0xfffe4480>
   41f3c:	d8c02017 	ldw	r3,128(sp)
   41f40:	d8801f17 	ldw	r2,124(sp)
   41f44:	da000404 	addi	r8,sp,16
   41f48:	003fee06 	br	41f04 <__alt_data_end+0xfffe5b44>
   41f4c:	00bfffc4 	movi	r2,-1
   41f50:	003a3f06 	br	40850 <__alt_data_end+0xfffe4490>
   41f54:	008011c4 	movi	r2,71
   41f58:	1440b816 	blt	r2,r17,4223c <___vfprintf_internal_r+0x1e0c>
   41f5c:	04000174 	movhi	r16,5
   41f60:	843e3504 	addi	r16,r16,-1836
   41f64:	00c000c4 	movi	r3,3
   41f68:	00bfdfc4 	movi	r2,-129
   41f6c:	d8c02915 	stw	r3,164(sp)
   41f70:	90a4703a 	and	r18,r18,r2
   41f74:	df002783 	ldbu	fp,158(sp)
   41f78:	d8c02b15 	stw	r3,172(sp)
   41f7c:	d8002a15 	stw	zero,168(sp)
   41f80:	d8003215 	stw	zero,200(sp)
   41f84:	003b0706 	br	40ba4 <__alt_data_end+0xfffe47e4>
   41f88:	d8c02e17 	ldw	r3,184(sp)
   41f8c:	1cc00017 	ldw	r19,0(r3)
   41f90:	18c00104 	addi	r3,r3,4
   41f94:	d8c02e15 	stw	r3,184(sp)
   41f98:	982dd7fa 	srai	r22,r19,31
   41f9c:	b005883a 	mov	r2,r22
   41fa0:	003a7706 	br	40980 <__alt_data_end+0xfffe45c0>
   41fa4:	d8c02e17 	ldw	r3,184(sp)
   41fa8:	d9002f17 	ldw	r4,188(sp)
   41fac:	18800017 	ldw	r2,0(r3)
   41fb0:	18c00104 	addi	r3,r3,4
   41fb4:	d8c02e15 	stw	r3,184(sp)
   41fb8:	11000015 	stw	r4,0(r2)
   41fbc:	00395406 	br	40510 <__alt_data_end+0xfffe4150>
   41fc0:	d9002e17 	ldw	r4,184(sp)
   41fc4:	002d883a 	mov	r22,zero
   41fc8:	24c00017 	ldw	r19,0(r4)
   41fcc:	21000104 	addi	r4,r4,4
   41fd0:	d9002e15 	stw	r4,184(sp)
   41fd4:	003c0706 	br	40ff4 <__alt_data_end+0xfffe4c34>
   41fd8:	d9402e17 	ldw	r5,184(sp)
   41fdc:	d8c02a17 	ldw	r3,168(sp)
   41fe0:	002d883a 	mov	r22,zero
   41fe4:	28800104 	addi	r2,r5,4
   41fe8:	2cc0000b 	ldhu	r19,0(r5)
   41fec:	183dc10e 	bge	r3,zero,416f4 <__alt_data_end+0xfffe5334>
   41ff0:	003f7506 	br	41dc8 <__alt_data_end+0xfffe5a08>
   41ff4:	04000174 	movhi	r16,5
   41ff8:	843e3304 	addi	r16,r16,-1844
   41ffc:	003aa706 	br	40a9c <__alt_data_end+0xfffe46dc>
   42000:	d9002d17 	ldw	r4,180(sp)
   42004:	d9801e04 	addi	r6,sp,120
   42008:	b80b883a 	mov	r5,r23
   4200c:	00471200 	call	47120 <__sprint_r>
   42010:	103a0b1e 	bne	r2,zero,40840 <__alt_data_end+0xfffe4480>
   42014:	dc402617 	ldw	r17,152(sp)
   42018:	d8c02017 	ldw	r3,128(sp)
   4201c:	da000404 	addi	r8,sp,16
   42020:	003f9c06 	br	41e94 <__alt_data_end+0xfffe5ad4>
   42024:	ac400043 	ldbu	r17,1(r21)
   42028:	84000814 	ori	r16,r16,32
   4202c:	ad400044 	addi	r21,r21,1
   42030:	8c403fcc 	andi	r17,r17,255
   42034:	8c40201c 	xori	r17,r17,128
   42038:	8c7fe004 	addi	r17,r17,-128
   4203c:	00395e06 	br	405b8 <__alt_data_end+0xfffe41f8>
   42040:	d8c02e15 	stw	r3,184(sp)
   42044:	0039883a 	mov	fp,zero
   42048:	003e3506 	br	41920 <__alt_data_end+0xfffe5560>
   4204c:	d9002d17 	ldw	r4,180(sp)
   42050:	d9801e04 	addi	r6,sp,120
   42054:	b80b883a 	mov	r5,r23
   42058:	00471200 	call	47120 <__sprint_r>
   4205c:	1039f81e 	bne	r2,zero,40840 <__alt_data_end+0xfffe4480>
   42060:	d8c02017 	ldw	r3,128(sp)
   42064:	da000404 	addi	r8,sp,16
   42068:	003cd006 	br	413ac <__alt_data_end+0xfffe4fec>
   4206c:	8009883a 	mov	r4,r16
   42070:	df003d15 	stw	fp,244(sp)
   42074:	0046f8c0 	call	46f8c <strlen>
   42078:	d8802b15 	stw	r2,172(sp)
   4207c:	da003d17 	ldw	r8,244(sp)
   42080:	103c200e 	bge	r2,zero,41104 <__alt_data_end+0xfffe4d44>
   42084:	0005883a 	mov	r2,zero
   42088:	003c1e06 	br	41104 <__alt_data_end+0xfffe4d44>
   4208c:	d9002d17 	ldw	r4,180(sp)
   42090:	d9801e04 	addi	r6,sp,120
   42094:	b80b883a 	mov	r5,r23
   42098:	00471200 	call	47120 <__sprint_r>
   4209c:	1039e81e 	bne	r2,zero,40840 <__alt_data_end+0xfffe4480>
   420a0:	d8c02017 	ldw	r3,128(sp)
   420a4:	d8801f17 	ldw	r2,124(sp)
   420a8:	da000404 	addi	r8,sp,16
   420ac:	d9403317 	ldw	r5,204(sp)
   420b0:	10800044 	addi	r2,r2,1
   420b4:	44000015 	stw	r16,0(r8)
   420b8:	28c7883a 	add	r3,r5,r3
   420bc:	003b5b06 	br	40e2c <__alt_data_end+0xfffe4a6c>
   420c0:	01000174 	movhi	r4,5
   420c4:	213e4784 	addi	r4,r4,-1762
   420c8:	d9003515 	stw	r4,212(sp)
   420cc:	003af206 	br	40c98 <__alt_data_end+0xfffe48d8>
   420d0:	013fffc4 	movi	r4,-1
   420d4:	003a0806 	br	408f8 <__alt_data_end+0xfffe4538>
   420d8:	0023883a 	mov	r17,zero
   420dc:	003d9d06 	br	41754 <__alt_data_end+0xfffe5394>
   420e0:	d9002d17 	ldw	r4,180(sp)
   420e4:	d9801e04 	addi	r6,sp,120
   420e8:	b80b883a 	mov	r5,r23
   420ec:	00471200 	call	47120 <__sprint_r>
   420f0:	1039d31e 	bne	r2,zero,40840 <__alt_data_end+0xfffe4480>
   420f4:	d8c02017 	ldw	r3,128(sp)
   420f8:	da000404 	addi	r8,sp,16
   420fc:	003d9406 	br	41750 <__alt_data_end+0xfffe5390>
   42100:	01000174 	movhi	r4,5
   42104:	213e4384 	addi	r4,r4,-1778
   42108:	d9002c15 	stw	r4,176(sp)
   4210c:	d9002c17 	ldw	r4,176(sp)
   42110:	1c47883a 	add	r3,r3,r17
   42114:	10800044 	addi	r2,r2,1
   42118:	41000015 	stw	r4,0(r8)
   4211c:	44400115 	stw	r17,4(r8)
   42120:	d8c02015 	stw	r3,128(sp)
   42124:	d8801f15 	stw	r2,124(sp)
   42128:	010001c4 	movi	r4,7
   4212c:	20bfd716 	blt	r4,r2,4208c <__alt_data_end+0xfffe5ccc>
   42130:	42000204 	addi	r8,r8,8
   42134:	003fdd06 	br	420ac <__alt_data_end+0xfffe5cec>
   42138:	d9002d17 	ldw	r4,180(sp)
   4213c:	d9801e04 	addi	r6,sp,120
   42140:	b80b883a 	mov	r5,r23
   42144:	00471200 	call	47120 <__sprint_r>
   42148:	1039bd1e 	bne	r2,zero,40840 <__alt_data_end+0xfffe4480>
   4214c:	d8802617 	ldw	r2,152(sp)
   42150:	d8c02017 	ldw	r3,128(sp)
   42154:	da000404 	addi	r8,sp,16
   42158:	003e1006 	br	4199c <__alt_data_end+0xfffe55dc>
   4215c:	00800044 	movi	r2,1
   42160:	10803fcc 	andi	r2,r2,255
   42164:	00c00044 	movi	r3,1
   42168:	10fa0d26 	beq	r2,r3,409a0 <__alt_data_end+0xfffe45e0>
   4216c:	00c00084 	movi	r3,2
   42170:	10fbaf26 	beq	r2,r3,41030 <__alt_data_end+0xfffe4c70>
   42174:	003a6d06 	br	40b2c <__alt_data_end+0xfffe476c>
   42178:	01000174 	movhi	r4,5
   4217c:	213e4784 	addi	r4,r4,-1762
   42180:	d9003515 	stw	r4,212(sp)
   42184:	003b5406 	br	40ed8 <__alt_data_end+0xfffe4b18>
   42188:	d8802a17 	ldw	r2,168(sp)
   4218c:	00c00184 	movi	r3,6
   42190:	1880012e 	bgeu	r3,r2,42198 <___vfprintf_internal_r+0x1d68>
   42194:	1805883a 	mov	r2,r3
   42198:	d8802b15 	stw	r2,172(sp)
   4219c:	1000ef16 	blt	r2,zero,4255c <___vfprintf_internal_r+0x212c>
   421a0:	04000174 	movhi	r16,5
   421a4:	d8802915 	stw	r2,164(sp)
   421a8:	dcc02e15 	stw	r19,184(sp)
   421ac:	d8002a15 	stw	zero,168(sp)
   421b0:	d8003215 	stw	zero,200(sp)
   421b4:	843e4104 	addi	r16,r16,-1788
   421b8:	0039883a 	mov	fp,zero
   421bc:	003a8006 	br	40bc0 <__alt_data_end+0xfffe4800>
   421c0:	0021883a 	mov	r16,zero
   421c4:	003e0706 	br	419e4 <__alt_data_end+0xfffe5624>
   421c8:	d9002d17 	ldw	r4,180(sp)
   421cc:	d9801e04 	addi	r6,sp,120
   421d0:	b80b883a 	mov	r5,r23
   421d4:	00471200 	call	47120 <__sprint_r>
   421d8:	1039991e 	bne	r2,zero,40840 <__alt_data_end+0xfffe4480>
   421dc:	d8802617 	ldw	r2,152(sp)
   421e0:	d9403317 	ldw	r5,204(sp)
   421e4:	d8c02017 	ldw	r3,128(sp)
   421e8:	da000404 	addi	r8,sp,16
   421ec:	2885c83a 	sub	r2,r5,r2
   421f0:	003dfb06 	br	419e0 <__alt_data_end+0xfffe5620>
   421f4:	9080004c 	andi	r2,r18,1
   421f8:	103e8f1e 	bne	r2,zero,41c38 <__alt_data_end+0xfffe5878>
   421fc:	d8802117 	ldw	r2,132(sp)
   42200:	003e9e06 	br	41c7c <__alt_data_end+0xfffe58bc>
   42204:	1025883a 	mov	r18,r2
   42208:	0039883a 	mov	fp,zero
   4220c:	00800084 	movi	r2,2
   42210:	003fd306 	br	42160 <__alt_data_end+0xfffe5da0>
   42214:	07000b44 	movi	fp,45
   42218:	df002785 	stb	fp,158(sp)
   4221c:	003a1b06 	br	40a8c <__alt_data_end+0xfffe46cc>
   42220:	00c00b44 	movi	r3,45
   42224:	d8c02785 	stb	r3,158(sp)
   42228:	d8802915 	stw	r2,164(sp)
   4222c:	dc802c17 	ldw	r18,176(sp)
   42230:	d8002a15 	stw	zero,168(sp)
   42234:	07000b44 	movi	fp,45
   42238:	003a5e06 	br	40bb4 <__alt_data_end+0xfffe47f4>
   4223c:	04000174 	movhi	r16,5
   42240:	843e3604 	addi	r16,r16,-1832
   42244:	003f4706 	br	41f64 <__alt_data_end+0xfffe5ba4>
   42248:	d9002e17 	ldw	r4,184(sp)
   4224c:	d9402f17 	ldw	r5,188(sp)
   42250:	20800017 	ldw	r2,0(r4)
   42254:	21000104 	addi	r4,r4,4
   42258:	d9002e15 	stw	r4,184(sp)
   4225c:	11400015 	stw	r5,0(r2)
   42260:	0038ab06 	br	40510 <__alt_data_end+0xfffe4150>
   42264:	dd802617 	ldw	r22,152(sp)
   42268:	00bfff44 	movi	r2,-3
   4226c:	b0801c16 	blt	r22,r2,422e0 <___vfprintf_internal_r+0x1eb0>
   42270:	d9402a17 	ldw	r5,168(sp)
   42274:	2d801a16 	blt	r5,r22,422e0 <___vfprintf_internal_r+0x1eb0>
   42278:	dd803215 	stw	r22,200(sp)
   4227c:	003e8906 	br	41ca4 <__alt_data_end+0xfffe58e4>
   42280:	01000174 	movhi	r4,5
   42284:	213e4384 	addi	r4,r4,-1778
   42288:	d9002c15 	stw	r4,176(sp)
   4228c:	003c9106 	br	414d4 <__alt_data_end+0xfffe5114>
   42290:	e005883a 	mov	r2,fp
   42294:	003e7906 	br	41c7c <__alt_data_end+0xfffe58bc>
   42298:	d9002a17 	ldw	r4,168(sp)
   4229c:	df002783 	ldbu	fp,158(sp)
   422a0:	dcc02e15 	stw	r19,184(sp)
   422a4:	d9002915 	stw	r4,164(sp)
   422a8:	d9002b15 	stw	r4,172(sp)
   422ac:	d8002a15 	stw	zero,168(sp)
   422b0:	d8003215 	stw	zero,200(sp)
   422b4:	003a3b06 	br	40ba4 <__alt_data_end+0xfffe47e4>
   422b8:	9080004c 	andi	r2,r18,1
   422bc:	0039883a 	mov	fp,zero
   422c0:	10000426 	beq	r2,zero,422d4 <___vfprintf_internal_r+0x1ea4>
   422c4:	00800c04 	movi	r2,48
   422c8:	dc001dc4 	addi	r16,sp,119
   422cc:	d8801dc5 	stb	r2,119(sp)
   422d0:	003b6406 	br	41064 <__alt_data_end+0xfffe4ca4>
   422d4:	d8002b15 	stw	zero,172(sp)
   422d8:	dc001e04 	addi	r16,sp,120
   422dc:	003a2b06 	br	40b8c <__alt_data_end+0xfffe47cc>
   422e0:	8c7fff84 	addi	r17,r17,-2
   422e4:	b5bfffc4 	addi	r22,r22,-1
   422e8:	dd802615 	stw	r22,152(sp)
   422ec:	dc4022c5 	stb	r17,139(sp)
   422f0:	b000bf16 	blt	r22,zero,425f0 <___vfprintf_internal_r+0x21c0>
   422f4:	00800ac4 	movi	r2,43
   422f8:	d8802305 	stb	r2,140(sp)
   422fc:	00800244 	movi	r2,9
   42300:	15807016 	blt	r2,r22,424c4 <___vfprintf_internal_r+0x2094>
   42304:	00800c04 	movi	r2,48
   42308:	b5800c04 	addi	r22,r22,48
   4230c:	d8802345 	stb	r2,141(sp)
   42310:	dd802385 	stb	r22,142(sp)
   42314:	d88023c4 	addi	r2,sp,143
   42318:	df0022c4 	addi	fp,sp,139
   4231c:	d8c03317 	ldw	r3,204(sp)
   42320:	1739c83a 	sub	fp,r2,fp
   42324:	d9003317 	ldw	r4,204(sp)
   42328:	e0c7883a 	add	r3,fp,r3
   4232c:	df003a15 	stw	fp,232(sp)
   42330:	d8c02b15 	stw	r3,172(sp)
   42334:	00800044 	movi	r2,1
   42338:	1100b30e 	bge	r2,r4,42608 <___vfprintf_internal_r+0x21d8>
   4233c:	d8c02b17 	ldw	r3,172(sp)
   42340:	18c00044 	addi	r3,r3,1
   42344:	d8c02b15 	stw	r3,172(sp)
   42348:	1805883a 	mov	r2,r3
   4234c:	1800ac16 	blt	r3,zero,42600 <___vfprintf_internal_r+0x21d0>
   42350:	d8003215 	stw	zero,200(sp)
   42354:	003e5d06 	br	41ccc <__alt_data_end+0xfffe590c>
   42358:	d9002d17 	ldw	r4,180(sp)
   4235c:	d9801e04 	addi	r6,sp,120
   42360:	b80b883a 	mov	r5,r23
   42364:	00471200 	call	47120 <__sprint_r>
   42368:	1039351e 	bne	r2,zero,40840 <__alt_data_end+0xfffe4480>
   4236c:	dc402617 	ldw	r17,152(sp)
   42370:	d8c02017 	ldw	r3,128(sp)
   42374:	d8801f17 	ldw	r2,124(sp)
   42378:	da000404 	addi	r8,sp,16
   4237c:	003ed606 	br	41ed8 <__alt_data_end+0xfffe5b18>
   42380:	182b883a 	mov	r21,r3
   42384:	d8002a15 	stw	zero,168(sp)
   42388:	00388c06 	br	405bc <__alt_data_end+0xfffe41fc>
   4238c:	d8802a17 	ldw	r2,168(sp)
   42390:	103e071e 	bne	r2,zero,41bb0 <__alt_data_end+0xfffe57f0>
   42394:	dc002a15 	stw	r16,168(sp)
   42398:	003e0506 	br	41bb0 <__alt_data_end+0xfffe57f0>
   4239c:	d9002a17 	ldw	r4,168(sp)
   423a0:	20c00044 	addi	r3,r4,1
   423a4:	003e0f06 	br	41be4 <__alt_data_end+0xfffe5824>
   423a8:	01400184 	movi	r5,6
   423ac:	d9402a15 	stw	r5,168(sp)
   423b0:	003dff06 	br	41bb0 <__alt_data_end+0xfffe57f0>
   423b4:	d8802104 	addi	r2,sp,132
   423b8:	d8800315 	stw	r2,12(sp)
   423bc:	d8802504 	addi	r2,sp,148
   423c0:	d8800215 	stw	r2,8(sp)
   423c4:	d8802604 	addi	r2,sp,152
   423c8:	d8800115 	stw	r2,4(sp)
   423cc:	d8802a17 	ldw	r2,168(sp)
   423d0:	d9403617 	ldw	r5,216(sp)
   423d4:	d9002d17 	ldw	r4,180(sp)
   423d8:	d8800015 	stw	r2,0(sp)
   423dc:	01c000c4 	movi	r7,3
   423e0:	980d883a 	mov	r6,r19
   423e4:	da003d15 	stw	r8,244(sp)
   423e8:	0042b600 	call	42b60 <_dtoa_r>
   423ec:	d8c02a17 	ldw	r3,168(sp)
   423f0:	da003d17 	ldw	r8,244(sp)
   423f4:	1021883a 	mov	r16,r2
   423f8:	10f9883a 	add	fp,r2,r3
   423fc:	81000007 	ldb	r4,0(r16)
   42400:	00800c04 	movi	r2,48
   42404:	20805e26 	beq	r4,r2,42580 <___vfprintf_internal_r+0x2150>
   42408:	d8c02617 	ldw	r3,152(sp)
   4240c:	e0f9883a 	add	fp,fp,r3
   42410:	003e0a06 	br	41c3c <__alt_data_end+0xfffe587c>
   42414:	00c00b44 	movi	r3,45
   42418:	24e0003c 	xorhi	r19,r4,32768
   4241c:	d8c02905 	stb	r3,164(sp)
   42420:	003de906 	br	41bc8 <__alt_data_end+0xfffe5808>
   42424:	d8c03217 	ldw	r3,200(sp)
   42428:	00c07a0e 	bge	zero,r3,42614 <___vfprintf_internal_r+0x21e4>
   4242c:	00800044 	movi	r2,1
   42430:	d9003317 	ldw	r4,204(sp)
   42434:	1105883a 	add	r2,r2,r4
   42438:	d8802b15 	stw	r2,172(sp)
   4243c:	10004e16 	blt	r2,zero,42578 <___vfprintf_internal_r+0x2148>
   42440:	044019c4 	movi	r17,103
   42444:	003e2106 	br	41ccc <__alt_data_end+0xfffe590c>
   42448:	d9002a17 	ldw	r4,168(sp)
   4244c:	d8802104 	addi	r2,sp,132
   42450:	d8800315 	stw	r2,12(sp)
   42454:	d9000015 	stw	r4,0(sp)
   42458:	d8802504 	addi	r2,sp,148
   4245c:	d9403617 	ldw	r5,216(sp)
   42460:	d9002d17 	ldw	r4,180(sp)
   42464:	d8800215 	stw	r2,8(sp)
   42468:	d8802604 	addi	r2,sp,152
   4246c:	d8800115 	stw	r2,4(sp)
   42470:	01c000c4 	movi	r7,3
   42474:	980d883a 	mov	r6,r19
   42478:	da003d15 	stw	r8,244(sp)
   4247c:	0042b600 	call	42b60 <_dtoa_r>
   42480:	d8c02a17 	ldw	r3,168(sp)
   42484:	da003d17 	ldw	r8,244(sp)
   42488:	1021883a 	mov	r16,r2
   4248c:	00801184 	movi	r2,70
   42490:	80f9883a 	add	fp,r16,r3
   42494:	88bfd926 	beq	r17,r2,423fc <__alt_data_end+0xfffe603c>
   42498:	003de806 	br	41c3c <__alt_data_end+0xfffe587c>
   4249c:	d9002a17 	ldw	r4,168(sp)
   424a0:	00c04d0e 	bge	zero,r3,425d8 <___vfprintf_internal_r+0x21a8>
   424a4:	2000441e 	bne	r4,zero,425b8 <___vfprintf_internal_r+0x2188>
   424a8:	9480004c 	andi	r18,r18,1
   424ac:	9000421e 	bne	r18,zero,425b8 <___vfprintf_internal_r+0x2188>
   424b0:	1805883a 	mov	r2,r3
   424b4:	18006f16 	blt	r3,zero,42674 <___vfprintf_internal_r+0x2244>
   424b8:	d8c03217 	ldw	r3,200(sp)
   424bc:	d8c02b15 	stw	r3,172(sp)
   424c0:	003e0206 	br	41ccc <__alt_data_end+0xfffe590c>
   424c4:	df0022c4 	addi	fp,sp,139
   424c8:	dc002a15 	stw	r16,168(sp)
   424cc:	4027883a 	mov	r19,r8
   424d0:	e021883a 	mov	r16,fp
   424d4:	b009883a 	mov	r4,r22
   424d8:	01400284 	movi	r5,10
   424dc:	004a8340 	call	4a834 <__modsi3>
   424e0:	10800c04 	addi	r2,r2,48
   424e4:	843fffc4 	addi	r16,r16,-1
   424e8:	b009883a 	mov	r4,r22
   424ec:	01400284 	movi	r5,10
   424f0:	80800005 	stb	r2,0(r16)
   424f4:	004a7b00 	call	4a7b0 <__divsi3>
   424f8:	102d883a 	mov	r22,r2
   424fc:	00800244 	movi	r2,9
   42500:	15bff416 	blt	r2,r22,424d4 <__alt_data_end+0xfffe6114>
   42504:	9811883a 	mov	r8,r19
   42508:	b0800c04 	addi	r2,r22,48
   4250c:	8027883a 	mov	r19,r16
   42510:	997fffc4 	addi	r5,r19,-1
   42514:	98bfffc5 	stb	r2,-1(r19)
   42518:	dc002a17 	ldw	r16,168(sp)
   4251c:	2f006d2e 	bgeu	r5,fp,426d4 <___vfprintf_internal_r+0x22a4>
   42520:	d9c02384 	addi	r7,sp,142
   42524:	3ccfc83a 	sub	r7,r7,r19
   42528:	d9002344 	addi	r4,sp,141
   4252c:	e1cf883a 	add	r7,fp,r7
   42530:	00000106 	br	42538 <___vfprintf_internal_r+0x2108>
   42534:	28800003 	ldbu	r2,0(r5)
   42538:	20800005 	stb	r2,0(r4)
   4253c:	21000044 	addi	r4,r4,1
   42540:	29400044 	addi	r5,r5,1
   42544:	393ffb1e 	bne	r7,r4,42534 <__alt_data_end+0xfffe6174>
   42548:	d8802304 	addi	r2,sp,140
   4254c:	14c5c83a 	sub	r2,r2,r19
   42550:	d8c02344 	addi	r3,sp,141
   42554:	1885883a 	add	r2,r3,r2
   42558:	003f7006 	br	4231c <__alt_data_end+0xfffe5f5c>
   4255c:	0005883a 	mov	r2,zero
   42560:	003f0f06 	br	421a0 <__alt_data_end+0xfffe5de0>
   42564:	d8c03217 	ldw	r3,200(sp)
   42568:	18c00044 	addi	r3,r3,1
   4256c:	d8c02b15 	stw	r3,172(sp)
   42570:	1805883a 	mov	r2,r3
   42574:	183fb20e 	bge	r3,zero,42440 <__alt_data_end+0xfffe6080>
   42578:	0005883a 	mov	r2,zero
   4257c:	003fb006 	br	42440 <__alt_data_end+0xfffe6080>
   42580:	d9003617 	ldw	r4,216(sp)
   42584:	000d883a 	mov	r6,zero
   42588:	000f883a 	mov	r7,zero
   4258c:	980b883a 	mov	r5,r19
   42590:	d8c03c15 	stw	r3,240(sp)
   42594:	da003d15 	stw	r8,244(sp)
   42598:	004bc080 	call	4bc08 <__eqdf2>
   4259c:	d8c03c17 	ldw	r3,240(sp)
   425a0:	da003d17 	ldw	r8,244(sp)
   425a4:	103f9826 	beq	r2,zero,42408 <__alt_data_end+0xfffe6048>
   425a8:	00800044 	movi	r2,1
   425ac:	10c7c83a 	sub	r3,r2,r3
   425b0:	d8c02615 	stw	r3,152(sp)
   425b4:	003f9506 	br	4240c <__alt_data_end+0xfffe604c>
   425b8:	d9002a17 	ldw	r4,168(sp)
   425bc:	d8c03217 	ldw	r3,200(sp)
   425c0:	20800044 	addi	r2,r4,1
   425c4:	1885883a 	add	r2,r3,r2
   425c8:	d8802b15 	stw	r2,172(sp)
   425cc:	103dbf0e 	bge	r2,zero,41ccc <__alt_data_end+0xfffe590c>
   425d0:	0005883a 	mov	r2,zero
   425d4:	003dbd06 	br	41ccc <__alt_data_end+0xfffe590c>
   425d8:	2000201e 	bne	r4,zero,4265c <___vfprintf_internal_r+0x222c>
   425dc:	9480004c 	andi	r18,r18,1
   425e0:	90001e1e 	bne	r18,zero,4265c <___vfprintf_internal_r+0x222c>
   425e4:	00800044 	movi	r2,1
   425e8:	d8802b15 	stw	r2,172(sp)
   425ec:	003db706 	br	41ccc <__alt_data_end+0xfffe590c>
   425f0:	00800b44 	movi	r2,45
   425f4:	05adc83a 	sub	r22,zero,r22
   425f8:	d8802305 	stb	r2,140(sp)
   425fc:	003f3f06 	br	422fc <__alt_data_end+0xfffe5f3c>
   42600:	0005883a 	mov	r2,zero
   42604:	003f5206 	br	42350 <__alt_data_end+0xfffe5f90>
   42608:	90a4703a 	and	r18,r18,r2
   4260c:	903f4e26 	beq	r18,zero,42348 <__alt_data_end+0xfffe5f88>
   42610:	003f4a06 	br	4233c <__alt_data_end+0xfffe5f7c>
   42614:	00800084 	movi	r2,2
   42618:	10c5c83a 	sub	r2,r2,r3
   4261c:	003f8406 	br	42430 <__alt_data_end+0xfffe6070>
   42620:	d9402e17 	ldw	r5,184(sp)
   42624:	d9002e17 	ldw	r4,184(sp)
   42628:	ac400043 	ldbu	r17,1(r21)
   4262c:	29400017 	ldw	r5,0(r5)
   42630:	20800104 	addi	r2,r4,4
   42634:	d8802e15 	stw	r2,184(sp)
   42638:	d9402a15 	stw	r5,168(sp)
   4263c:	182b883a 	mov	r21,r3
   42640:	283e7b0e 	bge	r5,zero,42030 <__alt_data_end+0xfffe5c70>
   42644:	8c403fcc 	andi	r17,r17,255
   42648:	017fffc4 	movi	r5,-1
   4264c:	8c40201c 	xori	r17,r17,128
   42650:	d9402a15 	stw	r5,168(sp)
   42654:	8c7fe004 	addi	r17,r17,-128
   42658:	0037d706 	br	405b8 <__alt_data_end+0xfffe41f8>
   4265c:	d8c02a17 	ldw	r3,168(sp)
   42660:	18c00084 	addi	r3,r3,2
   42664:	d8c02b15 	stw	r3,172(sp)
   42668:	1805883a 	mov	r2,r3
   4266c:	183d970e 	bge	r3,zero,41ccc <__alt_data_end+0xfffe590c>
   42670:	003fd706 	br	425d0 <__alt_data_end+0xfffe6210>
   42674:	0005883a 	mov	r2,zero
   42678:	003f8f06 	br	424b8 <__alt_data_end+0xfffe60f8>
   4267c:	9080004c 	andi	r2,r18,1
   42680:	103f821e 	bne	r2,zero,4248c <__alt_data_end+0xfffe60cc>
   42684:	d8802117 	ldw	r2,132(sp)
   42688:	1405c83a 	sub	r2,r2,r16
   4268c:	d8803315 	stw	r2,204(sp)
   42690:	b47ef426 	beq	r22,r17,42264 <__alt_data_end+0xfffe5ea4>
   42694:	dd802617 	ldw	r22,152(sp)
   42698:	003f1206 	br	422e4 <__alt_data_end+0xfffe5f24>
   4269c:	d8c02b03 	ldbu	r3,172(sp)
   426a0:	d8c02785 	stb	r3,158(sp)
   426a4:	0038df06 	br	40a24 <__alt_data_end+0xfffe4664>
   426a8:	d8c02b03 	ldbu	r3,172(sp)
   426ac:	d8c02785 	stb	r3,158(sp)
   426b0:	0038aa06 	br	4095c <__alt_data_end+0xfffe459c>
   426b4:	d8c02b03 	ldbu	r3,172(sp)
   426b8:	d8c02785 	stb	r3,158(sp)
   426bc:	003a4306 	br	40fcc <__alt_data_end+0xfffe4c0c>
   426c0:	d8c02b03 	ldbu	r3,172(sp)
   426c4:	d8c02785 	stb	r3,158(sp)
   426c8:	003af506 	br	412a0 <__alt_data_end+0xfffe4ee0>
   426cc:	0005883a 	mov	r2,zero
   426d0:	003d7b06 	br	41cc0 <__alt_data_end+0xfffe5900>
   426d4:	d8802344 	addi	r2,sp,141
   426d8:	003f1006 	br	4231c <__alt_data_end+0xfffe5f5c>
   426dc:	d8c02b03 	ldbu	r3,172(sp)
   426e0:	d8c02785 	stb	r3,158(sp)
   426e4:	0038fd06 	br	40adc <__alt_data_end+0xfffe471c>
   426e8:	d8c02b03 	ldbu	r3,172(sp)
   426ec:	d8c02785 	stb	r3,158(sp)
   426f0:	003a9706 	br	41150 <__alt_data_end+0xfffe4d90>
   426f4:	d8c02b03 	ldbu	r3,172(sp)
   426f8:	d8c02785 	stb	r3,158(sp)
   426fc:	003a1806 	br	40f60 <__alt_data_end+0xfffe4ba0>
   42700:	d8c02b03 	ldbu	r3,172(sp)
   42704:	d8c02785 	stb	r3,158(sp)
   42708:	003abe06 	br	41204 <__alt_data_end+0xfffe4e44>

0004270c <__vfprintf_internal>:
   4270c:	00800174 	movhi	r2,5
   42710:	1085ef04 	addi	r2,r2,6076
   42714:	300f883a 	mov	r7,r6
   42718:	280d883a 	mov	r6,r5
   4271c:	200b883a 	mov	r5,r4
   42720:	11000017 	ldw	r4,0(r2)
   42724:	00404301 	jmpi	40430 <___vfprintf_internal_r>

00042728 <__sbprintf>:
   42728:	2880030b 	ldhu	r2,12(r5)
   4272c:	2ac01917 	ldw	r11,100(r5)
   42730:	2a80038b 	ldhu	r10,14(r5)
   42734:	2a400717 	ldw	r9,28(r5)
   42738:	2a000917 	ldw	r8,36(r5)
   4273c:	defee204 	addi	sp,sp,-1144
   42740:	00c10004 	movi	r3,1024
   42744:	dc011a15 	stw	r16,1128(sp)
   42748:	10bfff4c 	andi	r2,r2,65533
   4274c:	2821883a 	mov	r16,r5
   42750:	d8cb883a 	add	r5,sp,r3
   42754:	dc811c15 	stw	r18,1136(sp)
   42758:	dc411b15 	stw	r17,1132(sp)
   4275c:	dfc11d15 	stw	ra,1140(sp)
   42760:	2025883a 	mov	r18,r4
   42764:	d881030d 	sth	r2,1036(sp)
   42768:	dac11915 	stw	r11,1124(sp)
   4276c:	da81038d 	sth	r10,1038(sp)
   42770:	da410715 	stw	r9,1052(sp)
   42774:	da010915 	stw	r8,1060(sp)
   42778:	dec10015 	stw	sp,1024(sp)
   4277c:	dec10415 	stw	sp,1040(sp)
   42780:	d8c10215 	stw	r3,1032(sp)
   42784:	d8c10515 	stw	r3,1044(sp)
   42788:	d8010615 	stw	zero,1048(sp)
   4278c:	00404300 	call	40430 <___vfprintf_internal_r>
   42790:	1023883a 	mov	r17,r2
   42794:	10000416 	blt	r2,zero,427a8 <__sbprintf+0x80>
   42798:	d9410004 	addi	r5,sp,1024
   4279c:	9009883a 	mov	r4,r18
   427a0:	00444040 	call	44404 <_fflush_r>
   427a4:	10000d1e 	bne	r2,zero,427dc <__sbprintf+0xb4>
   427a8:	d881030b 	ldhu	r2,1036(sp)
   427ac:	1080100c 	andi	r2,r2,64
   427b0:	10000326 	beq	r2,zero,427c0 <__sbprintf+0x98>
   427b4:	8080030b 	ldhu	r2,12(r16)
   427b8:	10801014 	ori	r2,r2,64
   427bc:	8080030d 	sth	r2,12(r16)
   427c0:	8805883a 	mov	r2,r17
   427c4:	dfc11d17 	ldw	ra,1140(sp)
   427c8:	dc811c17 	ldw	r18,1136(sp)
   427cc:	dc411b17 	ldw	r17,1132(sp)
   427d0:	dc011a17 	ldw	r16,1128(sp)
   427d4:	dec11e04 	addi	sp,sp,1144
   427d8:	f800283a 	ret
   427dc:	047fffc4 	movi	r17,-1
   427e0:	003ff106 	br	427a8 <__alt_data_end+0xfffe63e8>

000427e4 <__swsetup_r>:
   427e4:	00800174 	movhi	r2,5
   427e8:	defffd04 	addi	sp,sp,-12
   427ec:	1085ef04 	addi	r2,r2,6076
   427f0:	dc400115 	stw	r17,4(sp)
   427f4:	2023883a 	mov	r17,r4
   427f8:	11000017 	ldw	r4,0(r2)
   427fc:	dc000015 	stw	r16,0(sp)
   42800:	dfc00215 	stw	ra,8(sp)
   42804:	2821883a 	mov	r16,r5
   42808:	20000226 	beq	r4,zero,42814 <__swsetup_r+0x30>
   4280c:	20800e17 	ldw	r2,56(r4)
   42810:	10003126 	beq	r2,zero,428d8 <__swsetup_r+0xf4>
   42814:	8080030b 	ldhu	r2,12(r16)
   42818:	10c0020c 	andi	r3,r2,8
   4281c:	1009883a 	mov	r4,r2
   42820:	18000f26 	beq	r3,zero,42860 <__swsetup_r+0x7c>
   42824:	80c00417 	ldw	r3,16(r16)
   42828:	18001526 	beq	r3,zero,42880 <__swsetup_r+0x9c>
   4282c:	1100004c 	andi	r4,r2,1
   42830:	20001c1e 	bne	r4,zero,428a4 <__swsetup_r+0xc0>
   42834:	1080008c 	andi	r2,r2,2
   42838:	1000291e 	bne	r2,zero,428e0 <__swsetup_r+0xfc>
   4283c:	80800517 	ldw	r2,20(r16)
   42840:	80800215 	stw	r2,8(r16)
   42844:	18001c26 	beq	r3,zero,428b8 <__swsetup_r+0xd4>
   42848:	0005883a 	mov	r2,zero
   4284c:	dfc00217 	ldw	ra,8(sp)
   42850:	dc400117 	ldw	r17,4(sp)
   42854:	dc000017 	ldw	r16,0(sp)
   42858:	dec00304 	addi	sp,sp,12
   4285c:	f800283a 	ret
   42860:	2080040c 	andi	r2,r4,16
   42864:	10002e26 	beq	r2,zero,42920 <__swsetup_r+0x13c>
   42868:	2080010c 	andi	r2,r4,4
   4286c:	10001e1e 	bne	r2,zero,428e8 <__swsetup_r+0x104>
   42870:	80c00417 	ldw	r3,16(r16)
   42874:	20800214 	ori	r2,r4,8
   42878:	8080030d 	sth	r2,12(r16)
   4287c:	183feb1e 	bne	r3,zero,4282c <__alt_data_end+0xfffe646c>
   42880:	1100a00c 	andi	r4,r2,640
   42884:	01408004 	movi	r5,512
   42888:	217fe826 	beq	r4,r5,4282c <__alt_data_end+0xfffe646c>
   4288c:	800b883a 	mov	r5,r16
   42890:	8809883a 	mov	r4,r17
   42894:	0044ed80 	call	44ed8 <__smakebuf_r>
   42898:	8080030b 	ldhu	r2,12(r16)
   4289c:	80c00417 	ldw	r3,16(r16)
   428a0:	003fe206 	br	4282c <__alt_data_end+0xfffe646c>
   428a4:	80800517 	ldw	r2,20(r16)
   428a8:	80000215 	stw	zero,8(r16)
   428ac:	0085c83a 	sub	r2,zero,r2
   428b0:	80800615 	stw	r2,24(r16)
   428b4:	183fe41e 	bne	r3,zero,42848 <__alt_data_end+0xfffe6488>
   428b8:	80c0030b 	ldhu	r3,12(r16)
   428bc:	0005883a 	mov	r2,zero
   428c0:	1900200c 	andi	r4,r3,128
   428c4:	203fe126 	beq	r4,zero,4284c <__alt_data_end+0xfffe648c>
   428c8:	18c01014 	ori	r3,r3,64
   428cc:	80c0030d 	sth	r3,12(r16)
   428d0:	00bfffc4 	movi	r2,-1
   428d4:	003fdd06 	br	4284c <__alt_data_end+0xfffe648c>
   428d8:	00447f00 	call	447f0 <__sinit>
   428dc:	003fcd06 	br	42814 <__alt_data_end+0xfffe6454>
   428e0:	0005883a 	mov	r2,zero
   428e4:	003fd606 	br	42840 <__alt_data_end+0xfffe6480>
   428e8:	81400c17 	ldw	r5,48(r16)
   428ec:	28000626 	beq	r5,zero,42908 <__swsetup_r+0x124>
   428f0:	80801004 	addi	r2,r16,64
   428f4:	28800326 	beq	r5,r2,42904 <__swsetup_r+0x120>
   428f8:	8809883a 	mov	r4,r17
   428fc:	00449640 	call	44964 <_free_r>
   42900:	8100030b 	ldhu	r4,12(r16)
   42904:	80000c15 	stw	zero,48(r16)
   42908:	80c00417 	ldw	r3,16(r16)
   4290c:	00bff6c4 	movi	r2,-37
   42910:	1108703a 	and	r4,r2,r4
   42914:	80000115 	stw	zero,4(r16)
   42918:	80c00015 	stw	r3,0(r16)
   4291c:	003fd506 	br	42874 <__alt_data_end+0xfffe64b4>
   42920:	00800244 	movi	r2,9
   42924:	88800015 	stw	r2,0(r17)
   42928:	20801014 	ori	r2,r4,64
   4292c:	8080030d 	sth	r2,12(r16)
   42930:	00bfffc4 	movi	r2,-1
   42934:	003fc506 	br	4284c <__alt_data_end+0xfffe648c>

00042938 <quorem>:
   42938:	defff204 	addi	sp,sp,-56
   4293c:	ddc00b15 	stw	r23,44(sp)
   42940:	20800417 	ldw	r2,16(r4)
   42944:	2dc00417 	ldw	r23,16(r5)
   42948:	dfc00d15 	stw	ra,52(sp)
   4294c:	df000c15 	stw	fp,48(sp)
   42950:	dd800a15 	stw	r22,40(sp)
   42954:	dd400915 	stw	r21,36(sp)
   42958:	dd000815 	stw	r20,32(sp)
   4295c:	dcc00715 	stw	r19,28(sp)
   42960:	dc800615 	stw	r18,24(sp)
   42964:	dc400515 	stw	r17,20(sp)
   42968:	dc000415 	stw	r16,16(sp)
   4296c:	15c07a16 	blt	r2,r23,42b58 <quorem+0x220>
   42970:	bdffffc4 	addi	r23,r23,-1
   42974:	bde9883a 	add	r20,r23,r23
   42978:	28c00504 	addi	r3,r5,20
   4297c:	a529883a 	add	r20,r20,r20
   42980:	1d39883a 	add	fp,r3,r20
   42984:	24c00504 	addi	r19,r4,20
   42988:	d9400215 	stw	r5,8(sp)
   4298c:	9d29883a 	add	r20,r19,r20
   42990:	e1400017 	ldw	r5,0(fp)
   42994:	d9000015 	stw	r4,0(sp)
   42998:	a1000017 	ldw	r4,0(r20)
   4299c:	29400044 	addi	r5,r5,1
   429a0:	d8c00115 	stw	r3,4(sp)
   429a4:	dd000315 	stw	r20,12(sp)
   429a8:	004a8a80 	call	4a8a8 <__udivsi3>
   429ac:	1025883a 	mov	r18,r2
   429b0:	10003026 	beq	r2,zero,42a74 <quorem+0x13c>
   429b4:	dc400117 	ldw	r17,4(sp)
   429b8:	9829883a 	mov	r20,r19
   429bc:	002d883a 	mov	r22,zero
   429c0:	0021883a 	mov	r16,zero
   429c4:	8d400017 	ldw	r21,0(r17)
   429c8:	900b883a 	mov	r5,r18
   429cc:	8c400104 	addi	r17,r17,4
   429d0:	a93fffcc 	andi	r4,r21,65535
   429d4:	004a9640 	call	4a964 <__mulsi3>
   429d8:	a808d43a 	srli	r4,r21,16
   429dc:	900b883a 	mov	r5,r18
   429e0:	15ad883a 	add	r22,r2,r22
   429e4:	004a9640 	call	4a964 <__mulsi3>
   429e8:	a1000017 	ldw	r4,0(r20)
   429ec:	b00cd43a 	srli	r6,r22,16
   429f0:	b0ffffcc 	andi	r3,r22,65535
   429f4:	217fffcc 	andi	r5,r4,65535
   429f8:	2c21883a 	add	r16,r5,r16
   429fc:	80c7c83a 	sub	r3,r16,r3
   42a00:	2008d43a 	srli	r4,r4,16
   42a04:	1185883a 	add	r2,r2,r6
   42a08:	1821d43a 	srai	r16,r3,16
   42a0c:	117fffcc 	andi	r5,r2,65535
   42a10:	2149c83a 	sub	r4,r4,r5
   42a14:	2421883a 	add	r16,r4,r16
   42a18:	8008943a 	slli	r4,r16,16
   42a1c:	18ffffcc 	andi	r3,r3,65535
   42a20:	102cd43a 	srli	r22,r2,16
   42a24:	20c8b03a 	or	r4,r4,r3
   42a28:	a1000015 	stw	r4,0(r20)
   42a2c:	8021d43a 	srai	r16,r16,16
   42a30:	a5000104 	addi	r20,r20,4
   42a34:	e47fe32e 	bgeu	fp,r17,429c4 <__alt_data_end+0xfffe6604>
   42a38:	d8c00317 	ldw	r3,12(sp)
   42a3c:	18800017 	ldw	r2,0(r3)
   42a40:	10000c1e 	bne	r2,zero,42a74 <quorem+0x13c>
   42a44:	18bfff04 	addi	r2,r3,-4
   42a48:	9880082e 	bgeu	r19,r2,42a6c <quorem+0x134>
   42a4c:	18ffff17 	ldw	r3,-4(r3)
   42a50:	18000326 	beq	r3,zero,42a60 <quorem+0x128>
   42a54:	00000506 	br	42a6c <quorem+0x134>
   42a58:	10c00017 	ldw	r3,0(r2)
   42a5c:	1800031e 	bne	r3,zero,42a6c <quorem+0x134>
   42a60:	10bfff04 	addi	r2,r2,-4
   42a64:	bdffffc4 	addi	r23,r23,-1
   42a68:	98bffb36 	bltu	r19,r2,42a58 <__alt_data_end+0xfffe6698>
   42a6c:	d8c00017 	ldw	r3,0(sp)
   42a70:	1dc00415 	stw	r23,16(r3)
   42a74:	d9400217 	ldw	r5,8(sp)
   42a78:	d9000017 	ldw	r4,0(sp)
   42a7c:	00465780 	call	46578 <__mcmp>
   42a80:	10002816 	blt	r2,zero,42b24 <quorem+0x1ec>
   42a84:	dc400117 	ldw	r17,4(sp)
   42a88:	94800044 	addi	r18,r18,1
   42a8c:	980d883a 	mov	r6,r19
   42a90:	0007883a 	mov	r3,zero
   42a94:	31000017 	ldw	r4,0(r6)
   42a98:	89400017 	ldw	r5,0(r17)
   42a9c:	31800104 	addi	r6,r6,4
   42aa0:	20bfffcc 	andi	r2,r4,65535
   42aa4:	10c7883a 	add	r3,r2,r3
   42aa8:	28bfffcc 	andi	r2,r5,65535
   42aac:	1885c83a 	sub	r2,r3,r2
   42ab0:	280ad43a 	srli	r5,r5,16
   42ab4:	2008d43a 	srli	r4,r4,16
   42ab8:	1007d43a 	srai	r3,r2,16
   42abc:	10bfffcc 	andi	r2,r2,65535
   42ac0:	2149c83a 	sub	r4,r4,r5
   42ac4:	20c9883a 	add	r4,r4,r3
   42ac8:	200a943a 	slli	r5,r4,16
   42acc:	8c400104 	addi	r17,r17,4
   42ad0:	2007d43a 	srai	r3,r4,16
   42ad4:	2884b03a 	or	r2,r5,r2
   42ad8:	30bfff15 	stw	r2,-4(r6)
   42adc:	e47fed2e 	bgeu	fp,r17,42a94 <__alt_data_end+0xfffe66d4>
   42ae0:	bdc5883a 	add	r2,r23,r23
   42ae4:	1085883a 	add	r2,r2,r2
   42ae8:	9887883a 	add	r3,r19,r2
   42aec:	18800017 	ldw	r2,0(r3)
   42af0:	10000c1e 	bne	r2,zero,42b24 <quorem+0x1ec>
   42af4:	18bfff04 	addi	r2,r3,-4
   42af8:	9880082e 	bgeu	r19,r2,42b1c <quorem+0x1e4>
   42afc:	18ffff17 	ldw	r3,-4(r3)
   42b00:	18000326 	beq	r3,zero,42b10 <quorem+0x1d8>
   42b04:	00000506 	br	42b1c <quorem+0x1e4>
   42b08:	10c00017 	ldw	r3,0(r2)
   42b0c:	1800031e 	bne	r3,zero,42b1c <quorem+0x1e4>
   42b10:	10bfff04 	addi	r2,r2,-4
   42b14:	bdffffc4 	addi	r23,r23,-1
   42b18:	98bffb36 	bltu	r19,r2,42b08 <__alt_data_end+0xfffe6748>
   42b1c:	d8c00017 	ldw	r3,0(sp)
   42b20:	1dc00415 	stw	r23,16(r3)
   42b24:	9005883a 	mov	r2,r18
   42b28:	dfc00d17 	ldw	ra,52(sp)
   42b2c:	df000c17 	ldw	fp,48(sp)
   42b30:	ddc00b17 	ldw	r23,44(sp)
   42b34:	dd800a17 	ldw	r22,40(sp)
   42b38:	dd400917 	ldw	r21,36(sp)
   42b3c:	dd000817 	ldw	r20,32(sp)
   42b40:	dcc00717 	ldw	r19,28(sp)
   42b44:	dc800617 	ldw	r18,24(sp)
   42b48:	dc400517 	ldw	r17,20(sp)
   42b4c:	dc000417 	ldw	r16,16(sp)
   42b50:	dec00e04 	addi	sp,sp,56
   42b54:	f800283a 	ret
   42b58:	0005883a 	mov	r2,zero
   42b5c:	003ff206 	br	42b28 <__alt_data_end+0xfffe6768>

00042b60 <_dtoa_r>:
   42b60:	20801017 	ldw	r2,64(r4)
   42b64:	deffde04 	addi	sp,sp,-136
   42b68:	df002015 	stw	fp,128(sp)
   42b6c:	dcc01b15 	stw	r19,108(sp)
   42b70:	dc801a15 	stw	r18,104(sp)
   42b74:	dc401915 	stw	r17,100(sp)
   42b78:	dc001815 	stw	r16,96(sp)
   42b7c:	dfc02115 	stw	ra,132(sp)
   42b80:	ddc01f15 	stw	r23,124(sp)
   42b84:	dd801e15 	stw	r22,120(sp)
   42b88:	dd401d15 	stw	r21,116(sp)
   42b8c:	dd001c15 	stw	r20,112(sp)
   42b90:	d9c00315 	stw	r7,12(sp)
   42b94:	2039883a 	mov	fp,r4
   42b98:	3023883a 	mov	r17,r6
   42b9c:	2825883a 	mov	r18,r5
   42ba0:	dc002417 	ldw	r16,144(sp)
   42ba4:	3027883a 	mov	r19,r6
   42ba8:	10000826 	beq	r2,zero,42bcc <_dtoa_r+0x6c>
   42bac:	21801117 	ldw	r6,68(r4)
   42bb0:	00c00044 	movi	r3,1
   42bb4:	100b883a 	mov	r5,r2
   42bb8:	1986983a 	sll	r3,r3,r6
   42bbc:	11800115 	stw	r6,4(r2)
   42bc0:	10c00215 	stw	r3,8(r2)
   42bc4:	0045c9c0 	call	45c9c <_Bfree>
   42bc8:	e0001015 	stw	zero,64(fp)
   42bcc:	88002e16 	blt	r17,zero,42c88 <_dtoa_r+0x128>
   42bd0:	80000015 	stw	zero,0(r16)
   42bd4:	889ffc2c 	andhi	r2,r17,32752
   42bd8:	00dffc34 	movhi	r3,32752
   42bdc:	10c01c26 	beq	r2,r3,42c50 <_dtoa_r+0xf0>
   42be0:	000d883a 	mov	r6,zero
   42be4:	000f883a 	mov	r7,zero
   42be8:	9009883a 	mov	r4,r18
   42bec:	980b883a 	mov	r5,r19
   42bf0:	004bc080 	call	4bc08 <__eqdf2>
   42bf4:	10002b1e 	bne	r2,zero,42ca4 <_dtoa_r+0x144>
   42bf8:	d9c02317 	ldw	r7,140(sp)
   42bfc:	00800044 	movi	r2,1
   42c00:	38800015 	stw	r2,0(r7)
   42c04:	d8802517 	ldw	r2,148(sp)
   42c08:	10019e26 	beq	r2,zero,43284 <_dtoa_r+0x724>
   42c0c:	d8c02517 	ldw	r3,148(sp)
   42c10:	00800174 	movhi	r2,5
   42c14:	10be4344 	addi	r2,r2,-1779
   42c18:	18800015 	stw	r2,0(r3)
   42c1c:	10bfffc4 	addi	r2,r2,-1
   42c20:	dfc02117 	ldw	ra,132(sp)
   42c24:	df002017 	ldw	fp,128(sp)
   42c28:	ddc01f17 	ldw	r23,124(sp)
   42c2c:	dd801e17 	ldw	r22,120(sp)
   42c30:	dd401d17 	ldw	r21,116(sp)
   42c34:	dd001c17 	ldw	r20,112(sp)
   42c38:	dcc01b17 	ldw	r19,108(sp)
   42c3c:	dc801a17 	ldw	r18,104(sp)
   42c40:	dc401917 	ldw	r17,100(sp)
   42c44:	dc001817 	ldw	r16,96(sp)
   42c48:	dec02204 	addi	sp,sp,136
   42c4c:	f800283a 	ret
   42c50:	d8c02317 	ldw	r3,140(sp)
   42c54:	0089c3c4 	movi	r2,9999
   42c58:	18800015 	stw	r2,0(r3)
   42c5c:	90017726 	beq	r18,zero,4323c <_dtoa_r+0x6dc>
   42c60:	00800174 	movhi	r2,5
   42c64:	10be4f04 	addi	r2,r2,-1732
   42c68:	d9002517 	ldw	r4,148(sp)
   42c6c:	203fec26 	beq	r4,zero,42c20 <__alt_data_end+0xfffe6860>
   42c70:	10c000c7 	ldb	r3,3(r2)
   42c74:	1801781e 	bne	r3,zero,43258 <_dtoa_r+0x6f8>
   42c78:	10c000c4 	addi	r3,r2,3
   42c7c:	d9802517 	ldw	r6,148(sp)
   42c80:	30c00015 	stw	r3,0(r6)
   42c84:	003fe606 	br	42c20 <__alt_data_end+0xfffe6860>
   42c88:	04e00034 	movhi	r19,32768
   42c8c:	9cffffc4 	addi	r19,r19,-1
   42c90:	00800044 	movi	r2,1
   42c94:	8ce6703a 	and	r19,r17,r19
   42c98:	80800015 	stw	r2,0(r16)
   42c9c:	9823883a 	mov	r17,r19
   42ca0:	003fcc06 	br	42bd4 <__alt_data_end+0xfffe6814>
   42ca4:	d8800204 	addi	r2,sp,8
   42ca8:	d8800015 	stw	r2,0(sp)
   42cac:	d9c00104 	addi	r7,sp,4
   42cb0:	900b883a 	mov	r5,r18
   42cb4:	980d883a 	mov	r6,r19
   42cb8:	e009883a 	mov	r4,fp
   42cbc:	8820d53a 	srli	r16,r17,20
   42cc0:	00469440 	call	46944 <__d2b>
   42cc4:	d8800915 	stw	r2,36(sp)
   42cc8:	8001651e 	bne	r16,zero,43260 <_dtoa_r+0x700>
   42ccc:	dd800217 	ldw	r22,8(sp)
   42cd0:	dc000117 	ldw	r16,4(sp)
   42cd4:	00800804 	movi	r2,32
   42cd8:	b421883a 	add	r16,r22,r16
   42cdc:	80c10c84 	addi	r3,r16,1074
   42ce0:	10c2d10e 	bge	r2,r3,43828 <_dtoa_r+0xcc8>
   42ce4:	00801004 	movi	r2,64
   42ce8:	81010484 	addi	r4,r16,1042
   42cec:	10c7c83a 	sub	r3,r2,r3
   42cf0:	9108d83a 	srl	r4,r18,r4
   42cf4:	88e2983a 	sll	r17,r17,r3
   42cf8:	2448b03a 	or	r4,r4,r17
   42cfc:	004d1240 	call	4d124 <__floatunsidf>
   42d00:	017f8434 	movhi	r5,65040
   42d04:	01800044 	movi	r6,1
   42d08:	1009883a 	mov	r4,r2
   42d0c:	194b883a 	add	r5,r3,r5
   42d10:	843fffc4 	addi	r16,r16,-1
   42d14:	d9801115 	stw	r6,68(sp)
   42d18:	000d883a 	mov	r6,zero
   42d1c:	01cffe34 	movhi	r7,16376
   42d20:	004c6cc0 	call	4c6cc <__subdf3>
   42d24:	0198dbf4 	movhi	r6,25455
   42d28:	01cff4f4 	movhi	r7,16339
   42d2c:	3190d844 	addi	r6,r6,17249
   42d30:	39e1e9c4 	addi	r7,r7,-30809
   42d34:	1009883a 	mov	r4,r2
   42d38:	180b883a 	mov	r5,r3
   42d3c:	004be600 	call	4be60 <__muldf3>
   42d40:	01a2d874 	movhi	r6,35681
   42d44:	01cff1f4 	movhi	r7,16327
   42d48:	31b22cc4 	addi	r6,r6,-14157
   42d4c:	39e28a04 	addi	r7,r7,-30168
   42d50:	180b883a 	mov	r5,r3
   42d54:	1009883a 	mov	r4,r2
   42d58:	004a98c0 	call	4a98c <__adddf3>
   42d5c:	8009883a 	mov	r4,r16
   42d60:	1029883a 	mov	r20,r2
   42d64:	1823883a 	mov	r17,r3
   42d68:	004d0480 	call	4d048 <__floatsidf>
   42d6c:	019427f4 	movhi	r6,20639
   42d70:	01cff4f4 	movhi	r7,16339
   42d74:	319e7ec4 	addi	r6,r6,31227
   42d78:	39d104c4 	addi	r7,r7,17427
   42d7c:	1009883a 	mov	r4,r2
   42d80:	180b883a 	mov	r5,r3
   42d84:	004be600 	call	4be60 <__muldf3>
   42d88:	100d883a 	mov	r6,r2
   42d8c:	180f883a 	mov	r7,r3
   42d90:	a009883a 	mov	r4,r20
   42d94:	880b883a 	mov	r5,r17
   42d98:	004a98c0 	call	4a98c <__adddf3>
   42d9c:	1009883a 	mov	r4,r2
   42da0:	180b883a 	mov	r5,r3
   42da4:	1029883a 	mov	r20,r2
   42da8:	1823883a 	mov	r17,r3
   42dac:	004cfc80 	call	4cfc8 <__fixdfsi>
   42db0:	000d883a 	mov	r6,zero
   42db4:	000f883a 	mov	r7,zero
   42db8:	a009883a 	mov	r4,r20
   42dbc:	880b883a 	mov	r5,r17
   42dc0:	d8800515 	stw	r2,20(sp)
   42dc4:	004bd6c0 	call	4bd6c <__ledf2>
   42dc8:	10028716 	blt	r2,zero,437e8 <_dtoa_r+0xc88>
   42dcc:	d8c00517 	ldw	r3,20(sp)
   42dd0:	00800584 	movi	r2,22
   42dd4:	10c27536 	bltu	r2,r3,437ac <_dtoa_r+0xc4c>
   42dd8:	180490fa 	slli	r2,r3,3
   42ddc:	00c00174 	movhi	r3,5
   42de0:	18fe6b04 	addi	r3,r3,-1620
   42de4:	1885883a 	add	r2,r3,r2
   42de8:	11000017 	ldw	r4,0(r2)
   42dec:	11400117 	ldw	r5,4(r2)
   42df0:	900d883a 	mov	r6,r18
   42df4:	980f883a 	mov	r7,r19
   42df8:	004bc900 	call	4bc90 <__gedf2>
   42dfc:	00828d0e 	bge	zero,r2,43834 <_dtoa_r+0xcd4>
   42e00:	d9000517 	ldw	r4,20(sp)
   42e04:	d8000e15 	stw	zero,56(sp)
   42e08:	213fffc4 	addi	r4,r4,-1
   42e0c:	d9000515 	stw	r4,20(sp)
   42e10:	b42dc83a 	sub	r22,r22,r16
   42e14:	b5bfffc4 	addi	r22,r22,-1
   42e18:	b0026f16 	blt	r22,zero,437d8 <_dtoa_r+0xc78>
   42e1c:	d8000815 	stw	zero,32(sp)
   42e20:	d9c00517 	ldw	r7,20(sp)
   42e24:	38026416 	blt	r7,zero,437b8 <_dtoa_r+0xc58>
   42e28:	b1ed883a 	add	r22,r22,r7
   42e2c:	d9c00d15 	stw	r7,52(sp)
   42e30:	d8000a15 	stw	zero,40(sp)
   42e34:	d9800317 	ldw	r6,12(sp)
   42e38:	00800244 	movi	r2,9
   42e3c:	11811436 	bltu	r2,r6,43290 <_dtoa_r+0x730>
   42e40:	00800144 	movi	r2,5
   42e44:	1184e10e 	bge	r2,r6,441cc <_dtoa_r+0x166c>
   42e48:	31bfff04 	addi	r6,r6,-4
   42e4c:	d9800315 	stw	r6,12(sp)
   42e50:	0023883a 	mov	r17,zero
   42e54:	d9800317 	ldw	r6,12(sp)
   42e58:	008000c4 	movi	r2,3
   42e5c:	30836726 	beq	r6,r2,43bfc <_dtoa_r+0x109c>
   42e60:	1183410e 	bge	r2,r6,43b68 <_dtoa_r+0x1008>
   42e64:	d9c00317 	ldw	r7,12(sp)
   42e68:	00800104 	movi	r2,4
   42e6c:	38827c26 	beq	r7,r2,43860 <_dtoa_r+0xd00>
   42e70:	00800144 	movi	r2,5
   42e74:	3884c41e 	bne	r7,r2,44188 <_dtoa_r+0x1628>
   42e78:	00800044 	movi	r2,1
   42e7c:	d8800b15 	stw	r2,44(sp)
   42e80:	d8c00517 	ldw	r3,20(sp)
   42e84:	d9002217 	ldw	r4,136(sp)
   42e88:	1907883a 	add	r3,r3,r4
   42e8c:	19800044 	addi	r6,r3,1
   42e90:	d8c00c15 	stw	r3,48(sp)
   42e94:	d9800615 	stw	r6,24(sp)
   42e98:	0183a40e 	bge	zero,r6,43d2c <_dtoa_r+0x11cc>
   42e9c:	d9800617 	ldw	r6,24(sp)
   42ea0:	3021883a 	mov	r16,r6
   42ea4:	e0001115 	stw	zero,68(fp)
   42ea8:	008005c4 	movi	r2,23
   42eac:	1184c92e 	bgeu	r2,r6,441d4 <_dtoa_r+0x1674>
   42eb0:	00c00044 	movi	r3,1
   42eb4:	00800104 	movi	r2,4
   42eb8:	1085883a 	add	r2,r2,r2
   42ebc:	11000504 	addi	r4,r2,20
   42ec0:	180b883a 	mov	r5,r3
   42ec4:	18c00044 	addi	r3,r3,1
   42ec8:	313ffb2e 	bgeu	r6,r4,42eb8 <__alt_data_end+0xfffe6af8>
   42ecc:	e1401115 	stw	r5,68(fp)
   42ed0:	e009883a 	mov	r4,fp
   42ed4:	0045bf40 	call	45bf4 <_Balloc>
   42ed8:	d8800715 	stw	r2,28(sp)
   42edc:	e0801015 	stw	r2,64(fp)
   42ee0:	00800384 	movi	r2,14
   42ee4:	1400f736 	bltu	r2,r16,432c4 <_dtoa_r+0x764>
   42ee8:	8800f626 	beq	r17,zero,432c4 <_dtoa_r+0x764>
   42eec:	d9c00517 	ldw	r7,20(sp)
   42ef0:	01c39a0e 	bge	zero,r7,43d5c <_dtoa_r+0x11fc>
   42ef4:	388003cc 	andi	r2,r7,15
   42ef8:	100490fa 	slli	r2,r2,3
   42efc:	382bd13a 	srai	r21,r7,4
   42f00:	00c00174 	movhi	r3,5
   42f04:	18fe6b04 	addi	r3,r3,-1620
   42f08:	1885883a 	add	r2,r3,r2
   42f0c:	a8c0040c 	andi	r3,r21,16
   42f10:	12400017 	ldw	r9,0(r2)
   42f14:	12000117 	ldw	r8,4(r2)
   42f18:	18037926 	beq	r3,zero,43d00 <_dtoa_r+0x11a0>
   42f1c:	00800174 	movhi	r2,5
   42f20:	10be6104 	addi	r2,r2,-1660
   42f24:	11800817 	ldw	r6,32(r2)
   42f28:	11c00917 	ldw	r7,36(r2)
   42f2c:	9009883a 	mov	r4,r18
   42f30:	980b883a 	mov	r5,r19
   42f34:	da001715 	stw	r8,92(sp)
   42f38:	da401615 	stw	r9,88(sp)
   42f3c:	004b2380 	call	4b238 <__divdf3>
   42f40:	da001717 	ldw	r8,92(sp)
   42f44:	da401617 	ldw	r9,88(sp)
   42f48:	ad4003cc 	andi	r21,r21,15
   42f4c:	040000c4 	movi	r16,3
   42f50:	1023883a 	mov	r17,r2
   42f54:	1829883a 	mov	r20,r3
   42f58:	a8001126 	beq	r21,zero,42fa0 <_dtoa_r+0x440>
   42f5c:	05c00174 	movhi	r23,5
   42f60:	bdfe6104 	addi	r23,r23,-1660
   42f64:	4805883a 	mov	r2,r9
   42f68:	4007883a 	mov	r3,r8
   42f6c:	a980004c 	andi	r6,r21,1
   42f70:	1009883a 	mov	r4,r2
   42f74:	a82bd07a 	srai	r21,r21,1
   42f78:	180b883a 	mov	r5,r3
   42f7c:	30000426 	beq	r6,zero,42f90 <_dtoa_r+0x430>
   42f80:	b9800017 	ldw	r6,0(r23)
   42f84:	b9c00117 	ldw	r7,4(r23)
   42f88:	84000044 	addi	r16,r16,1
   42f8c:	004be600 	call	4be60 <__muldf3>
   42f90:	bdc00204 	addi	r23,r23,8
   42f94:	a83ff51e 	bne	r21,zero,42f6c <__alt_data_end+0xfffe6bac>
   42f98:	1013883a 	mov	r9,r2
   42f9c:	1811883a 	mov	r8,r3
   42fa0:	480d883a 	mov	r6,r9
   42fa4:	400f883a 	mov	r7,r8
   42fa8:	8809883a 	mov	r4,r17
   42fac:	a00b883a 	mov	r5,r20
   42fb0:	004b2380 	call	4b238 <__divdf3>
   42fb4:	d8800f15 	stw	r2,60(sp)
   42fb8:	d8c01015 	stw	r3,64(sp)
   42fbc:	d8c00e17 	ldw	r3,56(sp)
   42fc0:	18000626 	beq	r3,zero,42fdc <_dtoa_r+0x47c>
   42fc4:	d9000f17 	ldw	r4,60(sp)
   42fc8:	d9401017 	ldw	r5,64(sp)
   42fcc:	000d883a 	mov	r6,zero
   42fd0:	01cffc34 	movhi	r7,16368
   42fd4:	004bd6c0 	call	4bd6c <__ledf2>
   42fd8:	10040b16 	blt	r2,zero,44008 <_dtoa_r+0x14a8>
   42fdc:	8009883a 	mov	r4,r16
   42fe0:	004d0480 	call	4d048 <__floatsidf>
   42fe4:	d9800f17 	ldw	r6,60(sp)
   42fe8:	d9c01017 	ldw	r7,64(sp)
   42fec:	1009883a 	mov	r4,r2
   42ff0:	180b883a 	mov	r5,r3
   42ff4:	004be600 	call	4be60 <__muldf3>
   42ff8:	000d883a 	mov	r6,zero
   42ffc:	01d00734 	movhi	r7,16412
   43000:	1009883a 	mov	r4,r2
   43004:	180b883a 	mov	r5,r3
   43008:	004a98c0 	call	4a98c <__adddf3>
   4300c:	1021883a 	mov	r16,r2
   43010:	d8800617 	ldw	r2,24(sp)
   43014:	047f3034 	movhi	r17,64704
   43018:	1c63883a 	add	r17,r3,r17
   4301c:	10031826 	beq	r2,zero,43c80 <_dtoa_r+0x1120>
   43020:	d8c00517 	ldw	r3,20(sp)
   43024:	db000617 	ldw	r12,24(sp)
   43028:	d8c01315 	stw	r3,76(sp)
   4302c:	d9000b17 	ldw	r4,44(sp)
   43030:	20038f26 	beq	r4,zero,43e70 <_dtoa_r+0x1310>
   43034:	60bfffc4 	addi	r2,r12,-1
   43038:	100490fa 	slli	r2,r2,3
   4303c:	00c00174 	movhi	r3,5
   43040:	18fe6b04 	addi	r3,r3,-1620
   43044:	1885883a 	add	r2,r3,r2
   43048:	11800017 	ldw	r6,0(r2)
   4304c:	11c00117 	ldw	r7,4(r2)
   43050:	d8800717 	ldw	r2,28(sp)
   43054:	0009883a 	mov	r4,zero
   43058:	014ff834 	movhi	r5,16352
   4305c:	db001615 	stw	r12,88(sp)
   43060:	15c00044 	addi	r23,r2,1
   43064:	004b2380 	call	4b238 <__divdf3>
   43068:	800d883a 	mov	r6,r16
   4306c:	880f883a 	mov	r7,r17
   43070:	1009883a 	mov	r4,r2
   43074:	180b883a 	mov	r5,r3
   43078:	004c6cc0 	call	4c6cc <__subdf3>
   4307c:	d9401017 	ldw	r5,64(sp)
   43080:	d9000f17 	ldw	r4,60(sp)
   43084:	102b883a 	mov	r21,r2
   43088:	d8c01215 	stw	r3,72(sp)
   4308c:	004cfc80 	call	4cfc8 <__fixdfsi>
   43090:	1009883a 	mov	r4,r2
   43094:	1029883a 	mov	r20,r2
   43098:	004d0480 	call	4d048 <__floatsidf>
   4309c:	d9000f17 	ldw	r4,60(sp)
   430a0:	d9401017 	ldw	r5,64(sp)
   430a4:	100d883a 	mov	r6,r2
   430a8:	180f883a 	mov	r7,r3
   430ac:	004c6cc0 	call	4c6cc <__subdf3>
   430b0:	1823883a 	mov	r17,r3
   430b4:	d8c00717 	ldw	r3,28(sp)
   430b8:	d9401217 	ldw	r5,72(sp)
   430bc:	a2000c04 	addi	r8,r20,48
   430c0:	1021883a 	mov	r16,r2
   430c4:	1a000005 	stb	r8,0(r3)
   430c8:	800d883a 	mov	r6,r16
   430cc:	880f883a 	mov	r7,r17
   430d0:	a809883a 	mov	r4,r21
   430d4:	4029883a 	mov	r20,r8
   430d8:	004bc900 	call	4bc90 <__gedf2>
   430dc:	00841d16 	blt	zero,r2,44154 <_dtoa_r+0x15f4>
   430e0:	800d883a 	mov	r6,r16
   430e4:	880f883a 	mov	r7,r17
   430e8:	0009883a 	mov	r4,zero
   430ec:	014ffc34 	movhi	r5,16368
   430f0:	004c6cc0 	call	4c6cc <__subdf3>
   430f4:	d9401217 	ldw	r5,72(sp)
   430f8:	100d883a 	mov	r6,r2
   430fc:	180f883a 	mov	r7,r3
   43100:	a809883a 	mov	r4,r21
   43104:	004bc900 	call	4bc90 <__gedf2>
   43108:	db001617 	ldw	r12,88(sp)
   4310c:	00840e16 	blt	zero,r2,44148 <_dtoa_r+0x15e8>
   43110:	00800044 	movi	r2,1
   43114:	13006b0e 	bge	r2,r12,432c4 <_dtoa_r+0x764>
   43118:	d9000717 	ldw	r4,28(sp)
   4311c:	dd800f15 	stw	r22,60(sp)
   43120:	dcc01015 	stw	r19,64(sp)
   43124:	2319883a 	add	r12,r4,r12
   43128:	dcc01217 	ldw	r19,72(sp)
   4312c:	602d883a 	mov	r22,r12
   43130:	dc801215 	stw	r18,72(sp)
   43134:	b825883a 	mov	r18,r23
   43138:	00000906 	br	43160 <_dtoa_r+0x600>
   4313c:	004c6cc0 	call	4c6cc <__subdf3>
   43140:	a80d883a 	mov	r6,r21
   43144:	980f883a 	mov	r7,r19
   43148:	1009883a 	mov	r4,r2
   4314c:	180b883a 	mov	r5,r3
   43150:	004bd6c0 	call	4bd6c <__ledf2>
   43154:	1003e816 	blt	r2,zero,440f8 <_dtoa_r+0x1598>
   43158:	b825883a 	mov	r18,r23
   4315c:	bd83e926 	beq	r23,r22,44104 <_dtoa_r+0x15a4>
   43160:	a809883a 	mov	r4,r21
   43164:	980b883a 	mov	r5,r19
   43168:	000d883a 	mov	r6,zero
   4316c:	01d00934 	movhi	r7,16420
   43170:	004be600 	call	4be60 <__muldf3>
   43174:	000d883a 	mov	r6,zero
   43178:	01d00934 	movhi	r7,16420
   4317c:	8009883a 	mov	r4,r16
   43180:	880b883a 	mov	r5,r17
   43184:	102b883a 	mov	r21,r2
   43188:	1827883a 	mov	r19,r3
   4318c:	004be600 	call	4be60 <__muldf3>
   43190:	180b883a 	mov	r5,r3
   43194:	1009883a 	mov	r4,r2
   43198:	1821883a 	mov	r16,r3
   4319c:	1023883a 	mov	r17,r2
   431a0:	004cfc80 	call	4cfc8 <__fixdfsi>
   431a4:	1009883a 	mov	r4,r2
   431a8:	1029883a 	mov	r20,r2
   431ac:	004d0480 	call	4d048 <__floatsidf>
   431b0:	8809883a 	mov	r4,r17
   431b4:	800b883a 	mov	r5,r16
   431b8:	100d883a 	mov	r6,r2
   431bc:	180f883a 	mov	r7,r3
   431c0:	004c6cc0 	call	4c6cc <__subdf3>
   431c4:	a5000c04 	addi	r20,r20,48
   431c8:	a80d883a 	mov	r6,r21
   431cc:	980f883a 	mov	r7,r19
   431d0:	1009883a 	mov	r4,r2
   431d4:	180b883a 	mov	r5,r3
   431d8:	95000005 	stb	r20,0(r18)
   431dc:	1021883a 	mov	r16,r2
   431e0:	1823883a 	mov	r17,r3
   431e4:	004bd6c0 	call	4bd6c <__ledf2>
   431e8:	bdc00044 	addi	r23,r23,1
   431ec:	800d883a 	mov	r6,r16
   431f0:	880f883a 	mov	r7,r17
   431f4:	0009883a 	mov	r4,zero
   431f8:	014ffc34 	movhi	r5,16368
   431fc:	103fcf0e 	bge	r2,zero,4313c <__alt_data_end+0xfffe6d7c>
   43200:	d8c01317 	ldw	r3,76(sp)
   43204:	d8c00515 	stw	r3,20(sp)
   43208:	d9400917 	ldw	r5,36(sp)
   4320c:	e009883a 	mov	r4,fp
   43210:	0045c9c0 	call	45c9c <_Bfree>
   43214:	d9000517 	ldw	r4,20(sp)
   43218:	d9802317 	ldw	r6,140(sp)
   4321c:	d9c02517 	ldw	r7,148(sp)
   43220:	b8000005 	stb	zero,0(r23)
   43224:	20800044 	addi	r2,r4,1
   43228:	30800015 	stw	r2,0(r6)
   4322c:	3802aa26 	beq	r7,zero,43cd8 <_dtoa_r+0x1178>
   43230:	3dc00015 	stw	r23,0(r7)
   43234:	d8800717 	ldw	r2,28(sp)
   43238:	003e7906 	br	42c20 <__alt_data_end+0xfffe6860>
   4323c:	00800434 	movhi	r2,16
   43240:	10bfffc4 	addi	r2,r2,-1
   43244:	88a2703a 	and	r17,r17,r2
   43248:	883e851e 	bne	r17,zero,42c60 <__alt_data_end+0xfffe68a0>
   4324c:	00800174 	movhi	r2,5
   43250:	10be4c04 	addi	r2,r2,-1744
   43254:	003e8406 	br	42c68 <__alt_data_end+0xfffe68a8>
   43258:	10c00204 	addi	r3,r2,8
   4325c:	003e8706 	br	42c7c <__alt_data_end+0xfffe68bc>
   43260:	01400434 	movhi	r5,16
   43264:	297fffc4 	addi	r5,r5,-1
   43268:	994a703a 	and	r5,r19,r5
   4326c:	9009883a 	mov	r4,r18
   43270:	843f0044 	addi	r16,r16,-1023
   43274:	294ffc34 	orhi	r5,r5,16368
   43278:	dd800217 	ldw	r22,8(sp)
   4327c:	d8001115 	stw	zero,68(sp)
   43280:	003ea506 	br	42d18 <__alt_data_end+0xfffe6958>
   43284:	00800174 	movhi	r2,5
   43288:	10be4304 	addi	r2,r2,-1780
   4328c:	003e6406 	br	42c20 <__alt_data_end+0xfffe6860>
   43290:	e0001115 	stw	zero,68(fp)
   43294:	000b883a 	mov	r5,zero
   43298:	e009883a 	mov	r4,fp
   4329c:	0045bf40 	call	45bf4 <_Balloc>
   432a0:	01bfffc4 	movi	r6,-1
   432a4:	01c00044 	movi	r7,1
   432a8:	d8800715 	stw	r2,28(sp)
   432ac:	d9800c15 	stw	r6,48(sp)
   432b0:	e0801015 	stw	r2,64(fp)
   432b4:	d8000315 	stw	zero,12(sp)
   432b8:	d9c00b15 	stw	r7,44(sp)
   432bc:	d9800615 	stw	r6,24(sp)
   432c0:	d8002215 	stw	zero,136(sp)
   432c4:	d8800117 	ldw	r2,4(sp)
   432c8:	10008916 	blt	r2,zero,434f0 <_dtoa_r+0x990>
   432cc:	d9000517 	ldw	r4,20(sp)
   432d0:	00c00384 	movi	r3,14
   432d4:	19008616 	blt	r3,r4,434f0 <_dtoa_r+0x990>
   432d8:	200490fa 	slli	r2,r4,3
   432dc:	00c00174 	movhi	r3,5
   432e0:	d9802217 	ldw	r6,136(sp)
   432e4:	18fe6b04 	addi	r3,r3,-1620
   432e8:	1885883a 	add	r2,r3,r2
   432ec:	14000017 	ldw	r16,0(r2)
   432f0:	14400117 	ldw	r17,4(r2)
   432f4:	30016316 	blt	r6,zero,43884 <_dtoa_r+0xd24>
   432f8:	800d883a 	mov	r6,r16
   432fc:	880f883a 	mov	r7,r17
   43300:	9009883a 	mov	r4,r18
   43304:	980b883a 	mov	r5,r19
   43308:	004b2380 	call	4b238 <__divdf3>
   4330c:	180b883a 	mov	r5,r3
   43310:	1009883a 	mov	r4,r2
   43314:	004cfc80 	call	4cfc8 <__fixdfsi>
   43318:	1009883a 	mov	r4,r2
   4331c:	102b883a 	mov	r21,r2
   43320:	004d0480 	call	4d048 <__floatsidf>
   43324:	800d883a 	mov	r6,r16
   43328:	880f883a 	mov	r7,r17
   4332c:	1009883a 	mov	r4,r2
   43330:	180b883a 	mov	r5,r3
   43334:	004be600 	call	4be60 <__muldf3>
   43338:	100d883a 	mov	r6,r2
   4333c:	180f883a 	mov	r7,r3
   43340:	9009883a 	mov	r4,r18
   43344:	980b883a 	mov	r5,r19
   43348:	004c6cc0 	call	4c6cc <__subdf3>
   4334c:	d9c00717 	ldw	r7,28(sp)
   43350:	1009883a 	mov	r4,r2
   43354:	a8800c04 	addi	r2,r21,48
   43358:	38800005 	stb	r2,0(r7)
   4335c:	3dc00044 	addi	r23,r7,1
   43360:	d9c00617 	ldw	r7,24(sp)
   43364:	01800044 	movi	r6,1
   43368:	180b883a 	mov	r5,r3
   4336c:	2005883a 	mov	r2,r4
   43370:	39803826 	beq	r7,r6,43454 <_dtoa_r+0x8f4>
   43374:	000d883a 	mov	r6,zero
   43378:	01d00934 	movhi	r7,16420
   4337c:	004be600 	call	4be60 <__muldf3>
   43380:	000d883a 	mov	r6,zero
   43384:	000f883a 	mov	r7,zero
   43388:	1009883a 	mov	r4,r2
   4338c:	180b883a 	mov	r5,r3
   43390:	1025883a 	mov	r18,r2
   43394:	1827883a 	mov	r19,r3
   43398:	004bc080 	call	4bc08 <__eqdf2>
   4339c:	103f9a26 	beq	r2,zero,43208 <__alt_data_end+0xfffe6e48>
   433a0:	d9c00617 	ldw	r7,24(sp)
   433a4:	d8c00717 	ldw	r3,28(sp)
   433a8:	b829883a 	mov	r20,r23
   433ac:	38bfffc4 	addi	r2,r7,-1
   433b0:	18ad883a 	add	r22,r3,r2
   433b4:	00000a06 	br	433e0 <_dtoa_r+0x880>
   433b8:	004be600 	call	4be60 <__muldf3>
   433bc:	000d883a 	mov	r6,zero
   433c0:	000f883a 	mov	r7,zero
   433c4:	1009883a 	mov	r4,r2
   433c8:	180b883a 	mov	r5,r3
   433cc:	1025883a 	mov	r18,r2
   433d0:	1827883a 	mov	r19,r3
   433d4:	b829883a 	mov	r20,r23
   433d8:	004bc080 	call	4bc08 <__eqdf2>
   433dc:	103f8a26 	beq	r2,zero,43208 <__alt_data_end+0xfffe6e48>
   433e0:	800d883a 	mov	r6,r16
   433e4:	880f883a 	mov	r7,r17
   433e8:	9009883a 	mov	r4,r18
   433ec:	980b883a 	mov	r5,r19
   433f0:	004b2380 	call	4b238 <__divdf3>
   433f4:	180b883a 	mov	r5,r3
   433f8:	1009883a 	mov	r4,r2
   433fc:	004cfc80 	call	4cfc8 <__fixdfsi>
   43400:	1009883a 	mov	r4,r2
   43404:	102b883a 	mov	r21,r2
   43408:	004d0480 	call	4d048 <__floatsidf>
   4340c:	800d883a 	mov	r6,r16
   43410:	880f883a 	mov	r7,r17
   43414:	1009883a 	mov	r4,r2
   43418:	180b883a 	mov	r5,r3
   4341c:	004be600 	call	4be60 <__muldf3>
   43420:	100d883a 	mov	r6,r2
   43424:	180f883a 	mov	r7,r3
   43428:	9009883a 	mov	r4,r18
   4342c:	980b883a 	mov	r5,r19
   43430:	004c6cc0 	call	4c6cc <__subdf3>
   43434:	aa000c04 	addi	r8,r21,48
   43438:	a2000005 	stb	r8,0(r20)
   4343c:	000d883a 	mov	r6,zero
   43440:	01d00934 	movhi	r7,16420
   43444:	1009883a 	mov	r4,r2
   43448:	180b883a 	mov	r5,r3
   4344c:	a5c00044 	addi	r23,r20,1
   43450:	b53fd91e 	bne	r22,r20,433b8 <__alt_data_end+0xfffe6ff8>
   43454:	100d883a 	mov	r6,r2
   43458:	180f883a 	mov	r7,r3
   4345c:	1009883a 	mov	r4,r2
   43460:	180b883a 	mov	r5,r3
   43464:	004a98c0 	call	4a98c <__adddf3>
   43468:	100d883a 	mov	r6,r2
   4346c:	180f883a 	mov	r7,r3
   43470:	8009883a 	mov	r4,r16
   43474:	880b883a 	mov	r5,r17
   43478:	1027883a 	mov	r19,r2
   4347c:	1825883a 	mov	r18,r3
   43480:	004bd6c0 	call	4bd6c <__ledf2>
   43484:	10000816 	blt	r2,zero,434a8 <_dtoa_r+0x948>
   43488:	980d883a 	mov	r6,r19
   4348c:	900f883a 	mov	r7,r18
   43490:	8009883a 	mov	r4,r16
   43494:	880b883a 	mov	r5,r17
   43498:	004bc080 	call	4bc08 <__eqdf2>
   4349c:	103f5a1e 	bne	r2,zero,43208 <__alt_data_end+0xfffe6e48>
   434a0:	ad40004c 	andi	r21,r21,1
   434a4:	a83f5826 	beq	r21,zero,43208 <__alt_data_end+0xfffe6e48>
   434a8:	bd3fffc3 	ldbu	r20,-1(r23)
   434ac:	b8bfffc4 	addi	r2,r23,-1
   434b0:	1007883a 	mov	r3,r2
   434b4:	01400e44 	movi	r5,57
   434b8:	d9800717 	ldw	r6,28(sp)
   434bc:	00000506 	br	434d4 <_dtoa_r+0x974>
   434c0:	18ffffc4 	addi	r3,r3,-1
   434c4:	11824726 	beq	r2,r6,43de4 <_dtoa_r+0x1284>
   434c8:	1d000003 	ldbu	r20,0(r3)
   434cc:	102f883a 	mov	r23,r2
   434d0:	10bfffc4 	addi	r2,r2,-1
   434d4:	a1003fcc 	andi	r4,r20,255
   434d8:	2100201c 	xori	r4,r4,128
   434dc:	213fe004 	addi	r4,r4,-128
   434e0:	217ff726 	beq	r4,r5,434c0 <__alt_data_end+0xfffe7100>
   434e4:	a2000044 	addi	r8,r20,1
   434e8:	12000005 	stb	r8,0(r2)
   434ec:	003f4606 	br	43208 <__alt_data_end+0xfffe6e48>
   434f0:	d9000b17 	ldw	r4,44(sp)
   434f4:	2000c826 	beq	r4,zero,43818 <_dtoa_r+0xcb8>
   434f8:	d9800317 	ldw	r6,12(sp)
   434fc:	00c00044 	movi	r3,1
   43500:	1980f90e 	bge	r3,r6,438e8 <_dtoa_r+0xd88>
   43504:	d8800617 	ldw	r2,24(sp)
   43508:	d8c00a17 	ldw	r3,40(sp)
   4350c:	157fffc4 	addi	r21,r2,-1
   43510:	1d41f316 	blt	r3,r21,43ce0 <_dtoa_r+0x1180>
   43514:	1d6bc83a 	sub	r21,r3,r21
   43518:	d9c00617 	ldw	r7,24(sp)
   4351c:	3802aa16 	blt	r7,zero,43fc8 <_dtoa_r+0x1468>
   43520:	dd000817 	ldw	r20,32(sp)
   43524:	d8800617 	ldw	r2,24(sp)
   43528:	d8c00817 	ldw	r3,32(sp)
   4352c:	01400044 	movi	r5,1
   43530:	e009883a 	mov	r4,fp
   43534:	1887883a 	add	r3,r3,r2
   43538:	d8c00815 	stw	r3,32(sp)
   4353c:	b0ad883a 	add	r22,r22,r2
   43540:	00460280 	call	46028 <__i2b>
   43544:	1023883a 	mov	r17,r2
   43548:	a0000826 	beq	r20,zero,4356c <_dtoa_r+0xa0c>
   4354c:	0580070e 	bge	zero,r22,4356c <_dtoa_r+0xa0c>
   43550:	a005883a 	mov	r2,r20
   43554:	b500b916 	blt	r22,r20,4383c <_dtoa_r+0xcdc>
   43558:	d9000817 	ldw	r4,32(sp)
   4355c:	a0a9c83a 	sub	r20,r20,r2
   43560:	b0adc83a 	sub	r22,r22,r2
   43564:	2089c83a 	sub	r4,r4,r2
   43568:	d9000815 	stw	r4,32(sp)
   4356c:	d9800a17 	ldw	r6,40(sp)
   43570:	0181810e 	bge	zero,r6,43b78 <_dtoa_r+0x1018>
   43574:	d9c00b17 	ldw	r7,44(sp)
   43578:	3800b326 	beq	r7,zero,43848 <_dtoa_r+0xce8>
   4357c:	a800b226 	beq	r21,zero,43848 <_dtoa_r+0xce8>
   43580:	880b883a 	mov	r5,r17
   43584:	a80d883a 	mov	r6,r21
   43588:	e009883a 	mov	r4,fp
   4358c:	00462f00 	call	462f0 <__pow5mult>
   43590:	d9800917 	ldw	r6,36(sp)
   43594:	100b883a 	mov	r5,r2
   43598:	e009883a 	mov	r4,fp
   4359c:	1023883a 	mov	r17,r2
   435a0:	00460640 	call	46064 <__multiply>
   435a4:	1021883a 	mov	r16,r2
   435a8:	d8800a17 	ldw	r2,40(sp)
   435ac:	d9400917 	ldw	r5,36(sp)
   435b0:	e009883a 	mov	r4,fp
   435b4:	1545c83a 	sub	r2,r2,r21
   435b8:	d8800a15 	stw	r2,40(sp)
   435bc:	0045c9c0 	call	45c9c <_Bfree>
   435c0:	d8c00a17 	ldw	r3,40(sp)
   435c4:	18009f1e 	bne	r3,zero,43844 <_dtoa_r+0xce4>
   435c8:	05c00044 	movi	r23,1
   435cc:	e009883a 	mov	r4,fp
   435d0:	b80b883a 	mov	r5,r23
   435d4:	00460280 	call	46028 <__i2b>
   435d8:	d9000d17 	ldw	r4,52(sp)
   435dc:	102b883a 	mov	r21,r2
   435e0:	2000ce26 	beq	r4,zero,4391c <_dtoa_r+0xdbc>
   435e4:	200d883a 	mov	r6,r4
   435e8:	100b883a 	mov	r5,r2
   435ec:	e009883a 	mov	r4,fp
   435f0:	00462f00 	call	462f0 <__pow5mult>
   435f4:	d9800317 	ldw	r6,12(sp)
   435f8:	102b883a 	mov	r21,r2
   435fc:	b981810e 	bge	r23,r6,43c04 <_dtoa_r+0x10a4>
   43600:	0027883a 	mov	r19,zero
   43604:	a8800417 	ldw	r2,16(r21)
   43608:	05c00804 	movi	r23,32
   4360c:	10800104 	addi	r2,r2,4
   43610:	1085883a 	add	r2,r2,r2
   43614:	1085883a 	add	r2,r2,r2
   43618:	a885883a 	add	r2,r21,r2
   4361c:	11000017 	ldw	r4,0(r2)
   43620:	0045f100 	call	45f10 <__hi0bits>
   43624:	b885c83a 	sub	r2,r23,r2
   43628:	1585883a 	add	r2,r2,r22
   4362c:	108007cc 	andi	r2,r2,31
   43630:	1000b326 	beq	r2,zero,43900 <_dtoa_r+0xda0>
   43634:	00c00804 	movi	r3,32
   43638:	1887c83a 	sub	r3,r3,r2
   4363c:	01000104 	movi	r4,4
   43640:	20c2cd0e 	bge	r4,r3,44178 <_dtoa_r+0x1618>
   43644:	00c00704 	movi	r3,28
   43648:	1885c83a 	sub	r2,r3,r2
   4364c:	d8c00817 	ldw	r3,32(sp)
   43650:	a0a9883a 	add	r20,r20,r2
   43654:	b0ad883a 	add	r22,r22,r2
   43658:	1887883a 	add	r3,r3,r2
   4365c:	d8c00815 	stw	r3,32(sp)
   43660:	d9800817 	ldw	r6,32(sp)
   43664:	0180040e 	bge	zero,r6,43678 <_dtoa_r+0xb18>
   43668:	800b883a 	mov	r5,r16
   4366c:	e009883a 	mov	r4,fp
   43670:	00464300 	call	46430 <__lshift>
   43674:	1021883a 	mov	r16,r2
   43678:	0580050e 	bge	zero,r22,43690 <_dtoa_r+0xb30>
   4367c:	a80b883a 	mov	r5,r21
   43680:	b00d883a 	mov	r6,r22
   43684:	e009883a 	mov	r4,fp
   43688:	00464300 	call	46430 <__lshift>
   4368c:	102b883a 	mov	r21,r2
   43690:	d9c00e17 	ldw	r7,56(sp)
   43694:	3801211e 	bne	r7,zero,43b1c <_dtoa_r+0xfbc>
   43698:	d9800617 	ldw	r6,24(sp)
   4369c:	0181380e 	bge	zero,r6,43b80 <_dtoa_r+0x1020>
   436a0:	d8c00b17 	ldw	r3,44(sp)
   436a4:	1800ab1e 	bne	r3,zero,43954 <_dtoa_r+0xdf4>
   436a8:	dc800717 	ldw	r18,28(sp)
   436ac:	dcc00617 	ldw	r19,24(sp)
   436b0:	9029883a 	mov	r20,r18
   436b4:	00000206 	br	436c0 <_dtoa_r+0xb60>
   436b8:	0045cc40 	call	45cc4 <__multadd>
   436bc:	1021883a 	mov	r16,r2
   436c0:	a80b883a 	mov	r5,r21
   436c4:	8009883a 	mov	r4,r16
   436c8:	00429380 	call	42938 <quorem>
   436cc:	10800c04 	addi	r2,r2,48
   436d0:	90800005 	stb	r2,0(r18)
   436d4:	94800044 	addi	r18,r18,1
   436d8:	9507c83a 	sub	r3,r18,r20
   436dc:	000f883a 	mov	r7,zero
   436e0:	01800284 	movi	r6,10
   436e4:	800b883a 	mov	r5,r16
   436e8:	e009883a 	mov	r4,fp
   436ec:	1cfff216 	blt	r3,r19,436b8 <__alt_data_end+0xfffe72f8>
   436f0:	1011883a 	mov	r8,r2
   436f4:	d8800617 	ldw	r2,24(sp)
   436f8:	0082370e 	bge	zero,r2,43fd8 <_dtoa_r+0x1478>
   436fc:	d9000717 	ldw	r4,28(sp)
   43700:	0025883a 	mov	r18,zero
   43704:	20af883a 	add	r23,r4,r2
   43708:	01800044 	movi	r6,1
   4370c:	800b883a 	mov	r5,r16
   43710:	e009883a 	mov	r4,fp
   43714:	da001715 	stw	r8,92(sp)
   43718:	00464300 	call	46430 <__lshift>
   4371c:	a80b883a 	mov	r5,r21
   43720:	1009883a 	mov	r4,r2
   43724:	d8800915 	stw	r2,36(sp)
   43728:	00465780 	call	46578 <__mcmp>
   4372c:	da001717 	ldw	r8,92(sp)
   43730:	0081800e 	bge	zero,r2,43d34 <_dtoa_r+0x11d4>
   43734:	b93fffc3 	ldbu	r4,-1(r23)
   43738:	b8bfffc4 	addi	r2,r23,-1
   4373c:	1007883a 	mov	r3,r2
   43740:	01800e44 	movi	r6,57
   43744:	d9c00717 	ldw	r7,28(sp)
   43748:	00000506 	br	43760 <_dtoa_r+0xc00>
   4374c:	18ffffc4 	addi	r3,r3,-1
   43750:	11c12326 	beq	r2,r7,43be0 <_dtoa_r+0x1080>
   43754:	19000003 	ldbu	r4,0(r3)
   43758:	102f883a 	mov	r23,r2
   4375c:	10bfffc4 	addi	r2,r2,-1
   43760:	21403fcc 	andi	r5,r4,255
   43764:	2940201c 	xori	r5,r5,128
   43768:	297fe004 	addi	r5,r5,-128
   4376c:	29bff726 	beq	r5,r6,4374c <__alt_data_end+0xfffe738c>
   43770:	21000044 	addi	r4,r4,1
   43774:	11000005 	stb	r4,0(r2)
   43778:	a80b883a 	mov	r5,r21
   4377c:	e009883a 	mov	r4,fp
   43780:	0045c9c0 	call	45c9c <_Bfree>
   43784:	883ea026 	beq	r17,zero,43208 <__alt_data_end+0xfffe6e48>
   43788:	90000426 	beq	r18,zero,4379c <_dtoa_r+0xc3c>
   4378c:	94400326 	beq	r18,r17,4379c <_dtoa_r+0xc3c>
   43790:	900b883a 	mov	r5,r18
   43794:	e009883a 	mov	r4,fp
   43798:	0045c9c0 	call	45c9c <_Bfree>
   4379c:	880b883a 	mov	r5,r17
   437a0:	e009883a 	mov	r4,fp
   437a4:	0045c9c0 	call	45c9c <_Bfree>
   437a8:	003e9706 	br	43208 <__alt_data_end+0xfffe6e48>
   437ac:	01800044 	movi	r6,1
   437b0:	d9800e15 	stw	r6,56(sp)
   437b4:	003d9606 	br	42e10 <__alt_data_end+0xfffe6a50>
   437b8:	d8800817 	ldw	r2,32(sp)
   437bc:	d8c00517 	ldw	r3,20(sp)
   437c0:	d8000d15 	stw	zero,52(sp)
   437c4:	10c5c83a 	sub	r2,r2,r3
   437c8:	00c9c83a 	sub	r4,zero,r3
   437cc:	d8800815 	stw	r2,32(sp)
   437d0:	d9000a15 	stw	r4,40(sp)
   437d4:	003d9706 	br	42e34 <__alt_data_end+0xfffe6a74>
   437d8:	05adc83a 	sub	r22,zero,r22
   437dc:	dd800815 	stw	r22,32(sp)
   437e0:	002d883a 	mov	r22,zero
   437e4:	003d8e06 	br	42e20 <__alt_data_end+0xfffe6a60>
   437e8:	d9000517 	ldw	r4,20(sp)
   437ec:	004d0480 	call	4d048 <__floatsidf>
   437f0:	100d883a 	mov	r6,r2
   437f4:	180f883a 	mov	r7,r3
   437f8:	a009883a 	mov	r4,r20
   437fc:	880b883a 	mov	r5,r17
   43800:	004bc080 	call	4bc08 <__eqdf2>
   43804:	103d7126 	beq	r2,zero,42dcc <__alt_data_end+0xfffe6a0c>
   43808:	d9c00517 	ldw	r7,20(sp)
   4380c:	39ffffc4 	addi	r7,r7,-1
   43810:	d9c00515 	stw	r7,20(sp)
   43814:	003d6d06 	br	42dcc <__alt_data_end+0xfffe6a0c>
   43818:	dd400a17 	ldw	r21,40(sp)
   4381c:	dd000817 	ldw	r20,32(sp)
   43820:	0023883a 	mov	r17,zero
   43824:	003f4806 	br	43548 <__alt_data_end+0xfffe7188>
   43828:	10e3c83a 	sub	r17,r2,r3
   4382c:	9448983a 	sll	r4,r18,r17
   43830:	003d3206 	br	42cfc <__alt_data_end+0xfffe693c>
   43834:	d8000e15 	stw	zero,56(sp)
   43838:	003d7506 	br	42e10 <__alt_data_end+0xfffe6a50>
   4383c:	b005883a 	mov	r2,r22
   43840:	003f4506 	br	43558 <__alt_data_end+0xfffe7198>
   43844:	dc000915 	stw	r16,36(sp)
   43848:	d9800a17 	ldw	r6,40(sp)
   4384c:	d9400917 	ldw	r5,36(sp)
   43850:	e009883a 	mov	r4,fp
   43854:	00462f00 	call	462f0 <__pow5mult>
   43858:	1021883a 	mov	r16,r2
   4385c:	003f5a06 	br	435c8 <__alt_data_end+0xfffe7208>
   43860:	01c00044 	movi	r7,1
   43864:	d9c00b15 	stw	r7,44(sp)
   43868:	d8802217 	ldw	r2,136(sp)
   4386c:	0081280e 	bge	zero,r2,43d10 <_dtoa_r+0x11b0>
   43870:	100d883a 	mov	r6,r2
   43874:	1021883a 	mov	r16,r2
   43878:	d8800c15 	stw	r2,48(sp)
   4387c:	d8800615 	stw	r2,24(sp)
   43880:	003d8806 	br	42ea4 <__alt_data_end+0xfffe6ae4>
   43884:	d8800617 	ldw	r2,24(sp)
   43888:	00be9b16 	blt	zero,r2,432f8 <__alt_data_end+0xfffe6f38>
   4388c:	10010f1e 	bne	r2,zero,43ccc <_dtoa_r+0x116c>
   43890:	880b883a 	mov	r5,r17
   43894:	000d883a 	mov	r6,zero
   43898:	01d00534 	movhi	r7,16404
   4389c:	8009883a 	mov	r4,r16
   438a0:	004be600 	call	4be60 <__muldf3>
   438a4:	900d883a 	mov	r6,r18
   438a8:	980f883a 	mov	r7,r19
   438ac:	1009883a 	mov	r4,r2
   438b0:	180b883a 	mov	r5,r3
   438b4:	004bc900 	call	4bc90 <__gedf2>
   438b8:	002b883a 	mov	r21,zero
   438bc:	0023883a 	mov	r17,zero
   438c0:	1000bf16 	blt	r2,zero,43bc0 <_dtoa_r+0x1060>
   438c4:	d9802217 	ldw	r6,136(sp)
   438c8:	ddc00717 	ldw	r23,28(sp)
   438cc:	018c303a 	nor	r6,zero,r6
   438d0:	d9800515 	stw	r6,20(sp)
   438d4:	a80b883a 	mov	r5,r21
   438d8:	e009883a 	mov	r4,fp
   438dc:	0045c9c0 	call	45c9c <_Bfree>
   438e0:	883e4926 	beq	r17,zero,43208 <__alt_data_end+0xfffe6e48>
   438e4:	003fad06 	br	4379c <__alt_data_end+0xfffe73dc>
   438e8:	d9c01117 	ldw	r7,68(sp)
   438ec:	3801bc26 	beq	r7,zero,43fe0 <_dtoa_r+0x1480>
   438f0:	10810cc4 	addi	r2,r2,1075
   438f4:	dd400a17 	ldw	r21,40(sp)
   438f8:	dd000817 	ldw	r20,32(sp)
   438fc:	003f0a06 	br	43528 <__alt_data_end+0xfffe7168>
   43900:	00800704 	movi	r2,28
   43904:	d9000817 	ldw	r4,32(sp)
   43908:	a0a9883a 	add	r20,r20,r2
   4390c:	b0ad883a 	add	r22,r22,r2
   43910:	2089883a 	add	r4,r4,r2
   43914:	d9000815 	stw	r4,32(sp)
   43918:	003f5106 	br	43660 <__alt_data_end+0xfffe72a0>
   4391c:	d8c00317 	ldw	r3,12(sp)
   43920:	b8c1fc0e 	bge	r23,r3,44114 <_dtoa_r+0x15b4>
   43924:	0027883a 	mov	r19,zero
   43928:	b805883a 	mov	r2,r23
   4392c:	003f3e06 	br	43628 <__alt_data_end+0xfffe7268>
   43930:	880b883a 	mov	r5,r17
   43934:	e009883a 	mov	r4,fp
   43938:	000f883a 	mov	r7,zero
   4393c:	01800284 	movi	r6,10
   43940:	0045cc40 	call	45cc4 <__multadd>
   43944:	d9000c17 	ldw	r4,48(sp)
   43948:	1023883a 	mov	r17,r2
   4394c:	0102040e 	bge	zero,r4,44160 <_dtoa_r+0x1600>
   43950:	d9000615 	stw	r4,24(sp)
   43954:	0500050e 	bge	zero,r20,4396c <_dtoa_r+0xe0c>
   43958:	880b883a 	mov	r5,r17
   4395c:	a00d883a 	mov	r6,r20
   43960:	e009883a 	mov	r4,fp
   43964:	00464300 	call	46430 <__lshift>
   43968:	1023883a 	mov	r17,r2
   4396c:	9801241e 	bne	r19,zero,43e00 <_dtoa_r+0x12a0>
   43970:	8829883a 	mov	r20,r17
   43974:	d9000617 	ldw	r4,24(sp)
   43978:	dcc00717 	ldw	r19,28(sp)
   4397c:	9480004c 	andi	r18,r18,1
   43980:	20bfffc4 	addi	r2,r4,-1
   43984:	9885883a 	add	r2,r19,r2
   43988:	d8800415 	stw	r2,16(sp)
   4398c:	dc800615 	stw	r18,24(sp)
   43990:	a80b883a 	mov	r5,r21
   43994:	8009883a 	mov	r4,r16
   43998:	00429380 	call	42938 <quorem>
   4399c:	880b883a 	mov	r5,r17
   439a0:	8009883a 	mov	r4,r16
   439a4:	102f883a 	mov	r23,r2
   439a8:	00465780 	call	46578 <__mcmp>
   439ac:	a80b883a 	mov	r5,r21
   439b0:	a00d883a 	mov	r6,r20
   439b4:	e009883a 	mov	r4,fp
   439b8:	102d883a 	mov	r22,r2
   439bc:	00465d80 	call	465d8 <__mdiff>
   439c0:	1007883a 	mov	r3,r2
   439c4:	10800317 	ldw	r2,12(r2)
   439c8:	bc800c04 	addi	r18,r23,48
   439cc:	180b883a 	mov	r5,r3
   439d0:	10004e1e 	bne	r2,zero,43b0c <_dtoa_r+0xfac>
   439d4:	8009883a 	mov	r4,r16
   439d8:	d8c01615 	stw	r3,88(sp)
   439dc:	00465780 	call	46578 <__mcmp>
   439e0:	d8c01617 	ldw	r3,88(sp)
   439e4:	e009883a 	mov	r4,fp
   439e8:	d8801615 	stw	r2,88(sp)
   439ec:	180b883a 	mov	r5,r3
   439f0:	0045c9c0 	call	45c9c <_Bfree>
   439f4:	d8801617 	ldw	r2,88(sp)
   439f8:	1000041e 	bne	r2,zero,43a0c <_dtoa_r+0xeac>
   439fc:	d9800317 	ldw	r6,12(sp)
   43a00:	3000021e 	bne	r6,zero,43a0c <_dtoa_r+0xeac>
   43a04:	d8c00617 	ldw	r3,24(sp)
   43a08:	18003726 	beq	r3,zero,43ae8 <_dtoa_r+0xf88>
   43a0c:	b0002016 	blt	r22,zero,43a90 <_dtoa_r+0xf30>
   43a10:	b000041e 	bne	r22,zero,43a24 <_dtoa_r+0xec4>
   43a14:	d9000317 	ldw	r4,12(sp)
   43a18:	2000021e 	bne	r4,zero,43a24 <_dtoa_r+0xec4>
   43a1c:	d8c00617 	ldw	r3,24(sp)
   43a20:	18001b26 	beq	r3,zero,43a90 <_dtoa_r+0xf30>
   43a24:	00810716 	blt	zero,r2,43e44 <_dtoa_r+0x12e4>
   43a28:	d8c00417 	ldw	r3,16(sp)
   43a2c:	9d800044 	addi	r22,r19,1
   43a30:	9c800005 	stb	r18,0(r19)
   43a34:	b02f883a 	mov	r23,r22
   43a38:	98c10626 	beq	r19,r3,43e54 <_dtoa_r+0x12f4>
   43a3c:	800b883a 	mov	r5,r16
   43a40:	000f883a 	mov	r7,zero
   43a44:	01800284 	movi	r6,10
   43a48:	e009883a 	mov	r4,fp
   43a4c:	0045cc40 	call	45cc4 <__multadd>
   43a50:	1021883a 	mov	r16,r2
   43a54:	000f883a 	mov	r7,zero
   43a58:	01800284 	movi	r6,10
   43a5c:	880b883a 	mov	r5,r17
   43a60:	e009883a 	mov	r4,fp
   43a64:	8d002526 	beq	r17,r20,43afc <_dtoa_r+0xf9c>
   43a68:	0045cc40 	call	45cc4 <__multadd>
   43a6c:	a00b883a 	mov	r5,r20
   43a70:	000f883a 	mov	r7,zero
   43a74:	01800284 	movi	r6,10
   43a78:	e009883a 	mov	r4,fp
   43a7c:	1023883a 	mov	r17,r2
   43a80:	0045cc40 	call	45cc4 <__multadd>
   43a84:	1029883a 	mov	r20,r2
   43a88:	b027883a 	mov	r19,r22
   43a8c:	003fc006 	br	43990 <__alt_data_end+0xfffe75d0>
   43a90:	9011883a 	mov	r8,r18
   43a94:	00800e0e 	bge	zero,r2,43ad0 <_dtoa_r+0xf70>
   43a98:	800b883a 	mov	r5,r16
   43a9c:	01800044 	movi	r6,1
   43aa0:	e009883a 	mov	r4,fp
   43aa4:	da001715 	stw	r8,92(sp)
   43aa8:	00464300 	call	46430 <__lshift>
   43aac:	a80b883a 	mov	r5,r21
   43ab0:	1009883a 	mov	r4,r2
   43ab4:	1021883a 	mov	r16,r2
   43ab8:	00465780 	call	46578 <__mcmp>
   43abc:	da001717 	ldw	r8,92(sp)
   43ac0:	0081960e 	bge	zero,r2,4411c <_dtoa_r+0x15bc>
   43ac4:	00800e44 	movi	r2,57
   43ac8:	40817026 	beq	r8,r2,4408c <_dtoa_r+0x152c>
   43acc:	ba000c44 	addi	r8,r23,49
   43ad0:	8825883a 	mov	r18,r17
   43ad4:	9dc00044 	addi	r23,r19,1
   43ad8:	9a000005 	stb	r8,0(r19)
   43adc:	a023883a 	mov	r17,r20
   43ae0:	dc000915 	stw	r16,36(sp)
   43ae4:	003f2406 	br	43778 <__alt_data_end+0xfffe73b8>
   43ae8:	00800e44 	movi	r2,57
   43aec:	9011883a 	mov	r8,r18
   43af0:	90816626 	beq	r18,r2,4408c <_dtoa_r+0x152c>
   43af4:	05bff516 	blt	zero,r22,43acc <__alt_data_end+0xfffe770c>
   43af8:	003ff506 	br	43ad0 <__alt_data_end+0xfffe7710>
   43afc:	0045cc40 	call	45cc4 <__multadd>
   43b00:	1023883a 	mov	r17,r2
   43b04:	1029883a 	mov	r20,r2
   43b08:	003fdf06 	br	43a88 <__alt_data_end+0xfffe76c8>
   43b0c:	e009883a 	mov	r4,fp
   43b10:	0045c9c0 	call	45c9c <_Bfree>
   43b14:	00800044 	movi	r2,1
   43b18:	003fbc06 	br	43a0c <__alt_data_end+0xfffe764c>
   43b1c:	a80b883a 	mov	r5,r21
   43b20:	8009883a 	mov	r4,r16
   43b24:	00465780 	call	46578 <__mcmp>
   43b28:	103edb0e 	bge	r2,zero,43698 <__alt_data_end+0xfffe72d8>
   43b2c:	800b883a 	mov	r5,r16
   43b30:	000f883a 	mov	r7,zero
   43b34:	01800284 	movi	r6,10
   43b38:	e009883a 	mov	r4,fp
   43b3c:	0045cc40 	call	45cc4 <__multadd>
   43b40:	1021883a 	mov	r16,r2
   43b44:	d8800517 	ldw	r2,20(sp)
   43b48:	d8c00b17 	ldw	r3,44(sp)
   43b4c:	10bfffc4 	addi	r2,r2,-1
   43b50:	d8800515 	stw	r2,20(sp)
   43b54:	183f761e 	bne	r3,zero,43930 <__alt_data_end+0xfffe7570>
   43b58:	d9000c17 	ldw	r4,48(sp)
   43b5c:	0101730e 	bge	zero,r4,4412c <_dtoa_r+0x15cc>
   43b60:	d9000615 	stw	r4,24(sp)
   43b64:	003ed006 	br	436a8 <__alt_data_end+0xfffe72e8>
   43b68:	00800084 	movi	r2,2
   43b6c:	3081861e 	bne	r6,r2,44188 <_dtoa_r+0x1628>
   43b70:	d8000b15 	stw	zero,44(sp)
   43b74:	003f3c06 	br	43868 <__alt_data_end+0xfffe74a8>
   43b78:	dc000917 	ldw	r16,36(sp)
   43b7c:	003e9206 	br	435c8 <__alt_data_end+0xfffe7208>
   43b80:	d9c00317 	ldw	r7,12(sp)
   43b84:	00800084 	movi	r2,2
   43b88:	11fec50e 	bge	r2,r7,436a0 <__alt_data_end+0xfffe72e0>
   43b8c:	d9000617 	ldw	r4,24(sp)
   43b90:	20013c1e 	bne	r4,zero,44084 <_dtoa_r+0x1524>
   43b94:	a80b883a 	mov	r5,r21
   43b98:	000f883a 	mov	r7,zero
   43b9c:	01800144 	movi	r6,5
   43ba0:	e009883a 	mov	r4,fp
   43ba4:	0045cc40 	call	45cc4 <__multadd>
   43ba8:	100b883a 	mov	r5,r2
   43bac:	8009883a 	mov	r4,r16
   43bb0:	102b883a 	mov	r21,r2
   43bb4:	00465780 	call	46578 <__mcmp>
   43bb8:	dc000915 	stw	r16,36(sp)
   43bbc:	00bf410e 	bge	zero,r2,438c4 <__alt_data_end+0xfffe7504>
   43bc0:	d9c00717 	ldw	r7,28(sp)
   43bc4:	00800c44 	movi	r2,49
   43bc8:	38800005 	stb	r2,0(r7)
   43bcc:	d8800517 	ldw	r2,20(sp)
   43bd0:	3dc00044 	addi	r23,r7,1
   43bd4:	10800044 	addi	r2,r2,1
   43bd8:	d8800515 	stw	r2,20(sp)
   43bdc:	003f3d06 	br	438d4 <__alt_data_end+0xfffe7514>
   43be0:	d9800517 	ldw	r6,20(sp)
   43be4:	d9c00717 	ldw	r7,28(sp)
   43be8:	00800c44 	movi	r2,49
   43bec:	31800044 	addi	r6,r6,1
   43bf0:	d9800515 	stw	r6,20(sp)
   43bf4:	38800005 	stb	r2,0(r7)
   43bf8:	003edf06 	br	43778 <__alt_data_end+0xfffe73b8>
   43bfc:	d8000b15 	stw	zero,44(sp)
   43c00:	003c9f06 	br	42e80 <__alt_data_end+0xfffe6ac0>
   43c04:	903e7e1e 	bne	r18,zero,43600 <__alt_data_end+0xfffe7240>
   43c08:	00800434 	movhi	r2,16
   43c0c:	10bfffc4 	addi	r2,r2,-1
   43c10:	9884703a 	and	r2,r19,r2
   43c14:	1000ea1e 	bne	r2,zero,43fc0 <_dtoa_r+0x1460>
   43c18:	9cdffc2c 	andhi	r19,r19,32752
   43c1c:	9800e826 	beq	r19,zero,43fc0 <_dtoa_r+0x1460>
   43c20:	d9c00817 	ldw	r7,32(sp)
   43c24:	b5800044 	addi	r22,r22,1
   43c28:	04c00044 	movi	r19,1
   43c2c:	39c00044 	addi	r7,r7,1
   43c30:	d9c00815 	stw	r7,32(sp)
   43c34:	d8800d17 	ldw	r2,52(sp)
   43c38:	103e721e 	bne	r2,zero,43604 <__alt_data_end+0xfffe7244>
   43c3c:	00800044 	movi	r2,1
   43c40:	003e7906 	br	43628 <__alt_data_end+0xfffe7268>
   43c44:	8009883a 	mov	r4,r16
   43c48:	004d0480 	call	4d048 <__floatsidf>
   43c4c:	d9800f17 	ldw	r6,60(sp)
   43c50:	d9c01017 	ldw	r7,64(sp)
   43c54:	1009883a 	mov	r4,r2
   43c58:	180b883a 	mov	r5,r3
   43c5c:	004be600 	call	4be60 <__muldf3>
   43c60:	000d883a 	mov	r6,zero
   43c64:	01d00734 	movhi	r7,16412
   43c68:	1009883a 	mov	r4,r2
   43c6c:	180b883a 	mov	r5,r3
   43c70:	004a98c0 	call	4a98c <__adddf3>
   43c74:	047f3034 	movhi	r17,64704
   43c78:	1021883a 	mov	r16,r2
   43c7c:	1c63883a 	add	r17,r3,r17
   43c80:	d9000f17 	ldw	r4,60(sp)
   43c84:	d9401017 	ldw	r5,64(sp)
   43c88:	000d883a 	mov	r6,zero
   43c8c:	01d00534 	movhi	r7,16404
   43c90:	004c6cc0 	call	4c6cc <__subdf3>
   43c94:	800d883a 	mov	r6,r16
   43c98:	880f883a 	mov	r7,r17
   43c9c:	1009883a 	mov	r4,r2
   43ca0:	180b883a 	mov	r5,r3
   43ca4:	102b883a 	mov	r21,r2
   43ca8:	1829883a 	mov	r20,r3
   43cac:	004bc900 	call	4bc90 <__gedf2>
   43cb0:	00806c16 	blt	zero,r2,43e64 <_dtoa_r+0x1304>
   43cb4:	89e0003c 	xorhi	r7,r17,32768
   43cb8:	800d883a 	mov	r6,r16
   43cbc:	a809883a 	mov	r4,r21
   43cc0:	a00b883a 	mov	r5,r20
   43cc4:	004bd6c0 	call	4bd6c <__ledf2>
   43cc8:	103d7e0e 	bge	r2,zero,432c4 <__alt_data_end+0xfffe6f04>
   43ccc:	002b883a 	mov	r21,zero
   43cd0:	0023883a 	mov	r17,zero
   43cd4:	003efb06 	br	438c4 <__alt_data_end+0xfffe7504>
   43cd8:	d8800717 	ldw	r2,28(sp)
   43cdc:	003bd006 	br	42c20 <__alt_data_end+0xfffe6860>
   43ce0:	d9000a17 	ldw	r4,40(sp)
   43ce4:	d9800d17 	ldw	r6,52(sp)
   43ce8:	dd400a15 	stw	r21,40(sp)
   43cec:	a905c83a 	sub	r2,r21,r4
   43cf0:	308d883a 	add	r6,r6,r2
   43cf4:	d9800d15 	stw	r6,52(sp)
   43cf8:	002b883a 	mov	r21,zero
   43cfc:	003e0606 	br	43518 <__alt_data_end+0xfffe7158>
   43d00:	9023883a 	mov	r17,r18
   43d04:	9829883a 	mov	r20,r19
   43d08:	04000084 	movi	r16,2
   43d0c:	003c9206 	br	42f58 <__alt_data_end+0xfffe6b98>
   43d10:	04000044 	movi	r16,1
   43d14:	dc000c15 	stw	r16,48(sp)
   43d18:	dc000615 	stw	r16,24(sp)
   43d1c:	dc002215 	stw	r16,136(sp)
   43d20:	e0001115 	stw	zero,68(fp)
   43d24:	000b883a 	mov	r5,zero
   43d28:	003c6906 	br	42ed0 <__alt_data_end+0xfffe6b10>
   43d2c:	3021883a 	mov	r16,r6
   43d30:	003ffb06 	br	43d20 <__alt_data_end+0xfffe7960>
   43d34:	1000021e 	bne	r2,zero,43d40 <_dtoa_r+0x11e0>
   43d38:	4200004c 	andi	r8,r8,1
   43d3c:	403e7d1e 	bne	r8,zero,43734 <__alt_data_end+0xfffe7374>
   43d40:	01000c04 	movi	r4,48
   43d44:	00000106 	br	43d4c <_dtoa_r+0x11ec>
   43d48:	102f883a 	mov	r23,r2
   43d4c:	b8bfffc4 	addi	r2,r23,-1
   43d50:	10c00007 	ldb	r3,0(r2)
   43d54:	193ffc26 	beq	r3,r4,43d48 <__alt_data_end+0xfffe7988>
   43d58:	003e8706 	br	43778 <__alt_data_end+0xfffe73b8>
   43d5c:	d8800517 	ldw	r2,20(sp)
   43d60:	00a3c83a 	sub	r17,zero,r2
   43d64:	8800a426 	beq	r17,zero,43ff8 <_dtoa_r+0x1498>
   43d68:	888003cc 	andi	r2,r17,15
   43d6c:	100490fa 	slli	r2,r2,3
   43d70:	00c00174 	movhi	r3,5
   43d74:	18fe6b04 	addi	r3,r3,-1620
   43d78:	1885883a 	add	r2,r3,r2
   43d7c:	11800017 	ldw	r6,0(r2)
   43d80:	11c00117 	ldw	r7,4(r2)
   43d84:	9009883a 	mov	r4,r18
   43d88:	980b883a 	mov	r5,r19
   43d8c:	8823d13a 	srai	r17,r17,4
   43d90:	004be600 	call	4be60 <__muldf3>
   43d94:	d8800f15 	stw	r2,60(sp)
   43d98:	d8c01015 	stw	r3,64(sp)
   43d9c:	8800e826 	beq	r17,zero,44140 <_dtoa_r+0x15e0>
   43da0:	05000174 	movhi	r20,5
   43da4:	a53e6104 	addi	r20,r20,-1660
   43da8:	04000084 	movi	r16,2
   43dac:	8980004c 	andi	r6,r17,1
   43db0:	1009883a 	mov	r4,r2
   43db4:	8823d07a 	srai	r17,r17,1
   43db8:	180b883a 	mov	r5,r3
   43dbc:	30000426 	beq	r6,zero,43dd0 <_dtoa_r+0x1270>
   43dc0:	a1800017 	ldw	r6,0(r20)
   43dc4:	a1c00117 	ldw	r7,4(r20)
   43dc8:	84000044 	addi	r16,r16,1
   43dcc:	004be600 	call	4be60 <__muldf3>
   43dd0:	a5000204 	addi	r20,r20,8
   43dd4:	883ff51e 	bne	r17,zero,43dac <__alt_data_end+0xfffe79ec>
   43dd8:	d8800f15 	stw	r2,60(sp)
   43ddc:	d8c01015 	stw	r3,64(sp)
   43de0:	003c7606 	br	42fbc <__alt_data_end+0xfffe6bfc>
   43de4:	00c00c04 	movi	r3,48
   43de8:	10c00005 	stb	r3,0(r2)
   43dec:	d8c00517 	ldw	r3,20(sp)
   43df0:	bd3fffc3 	ldbu	r20,-1(r23)
   43df4:	18c00044 	addi	r3,r3,1
   43df8:	d8c00515 	stw	r3,20(sp)
   43dfc:	003db906 	br	434e4 <__alt_data_end+0xfffe7124>
   43e00:	89400117 	ldw	r5,4(r17)
   43e04:	e009883a 	mov	r4,fp
   43e08:	0045bf40 	call	45bf4 <_Balloc>
   43e0c:	89800417 	ldw	r6,16(r17)
   43e10:	89400304 	addi	r5,r17,12
   43e14:	11000304 	addi	r4,r2,12
   43e18:	31800084 	addi	r6,r6,2
   43e1c:	318d883a 	add	r6,r6,r6
   43e20:	318d883a 	add	r6,r6,r6
   43e24:	1027883a 	mov	r19,r2
   43e28:	00459840 	call	45984 <memcpy>
   43e2c:	01800044 	movi	r6,1
   43e30:	980b883a 	mov	r5,r19
   43e34:	e009883a 	mov	r4,fp
   43e38:	00464300 	call	46430 <__lshift>
   43e3c:	1029883a 	mov	r20,r2
   43e40:	003ecc06 	br	43974 <__alt_data_end+0xfffe75b4>
   43e44:	00800e44 	movi	r2,57
   43e48:	90809026 	beq	r18,r2,4408c <_dtoa_r+0x152c>
   43e4c:	92000044 	addi	r8,r18,1
   43e50:	003f1f06 	br	43ad0 <__alt_data_end+0xfffe7710>
   43e54:	9011883a 	mov	r8,r18
   43e58:	8825883a 	mov	r18,r17
   43e5c:	a023883a 	mov	r17,r20
   43e60:	003e2906 	br	43708 <__alt_data_end+0xfffe7348>
   43e64:	002b883a 	mov	r21,zero
   43e68:	0023883a 	mov	r17,zero
   43e6c:	003f5406 	br	43bc0 <__alt_data_end+0xfffe7800>
   43e70:	61bfffc4 	addi	r6,r12,-1
   43e74:	300490fa 	slli	r2,r6,3
   43e78:	00c00174 	movhi	r3,5
   43e7c:	18fe6b04 	addi	r3,r3,-1620
   43e80:	1885883a 	add	r2,r3,r2
   43e84:	11000017 	ldw	r4,0(r2)
   43e88:	11400117 	ldw	r5,4(r2)
   43e8c:	d8800717 	ldw	r2,28(sp)
   43e90:	880f883a 	mov	r7,r17
   43e94:	d9801215 	stw	r6,72(sp)
   43e98:	800d883a 	mov	r6,r16
   43e9c:	db001615 	stw	r12,88(sp)
   43ea0:	15c00044 	addi	r23,r2,1
   43ea4:	004be600 	call	4be60 <__muldf3>
   43ea8:	d9401017 	ldw	r5,64(sp)
   43eac:	d9000f17 	ldw	r4,60(sp)
   43eb0:	d8c01515 	stw	r3,84(sp)
   43eb4:	d8801415 	stw	r2,80(sp)
   43eb8:	004cfc80 	call	4cfc8 <__fixdfsi>
   43ebc:	1009883a 	mov	r4,r2
   43ec0:	1021883a 	mov	r16,r2
   43ec4:	004d0480 	call	4d048 <__floatsidf>
   43ec8:	d9000f17 	ldw	r4,60(sp)
   43ecc:	d9401017 	ldw	r5,64(sp)
   43ed0:	100d883a 	mov	r6,r2
   43ed4:	180f883a 	mov	r7,r3
   43ed8:	004c6cc0 	call	4c6cc <__subdf3>
   43edc:	1829883a 	mov	r20,r3
   43ee0:	d8c00717 	ldw	r3,28(sp)
   43ee4:	84000c04 	addi	r16,r16,48
   43ee8:	1023883a 	mov	r17,r2
   43eec:	1c000005 	stb	r16,0(r3)
   43ef0:	db001617 	ldw	r12,88(sp)
   43ef4:	00800044 	movi	r2,1
   43ef8:	60802226 	beq	r12,r2,43f84 <_dtoa_r+0x1424>
   43efc:	d9c00717 	ldw	r7,28(sp)
   43f00:	8805883a 	mov	r2,r17
   43f04:	b82b883a 	mov	r21,r23
   43f08:	3b19883a 	add	r12,r7,r12
   43f0c:	6023883a 	mov	r17,r12
   43f10:	a007883a 	mov	r3,r20
   43f14:	dc800f15 	stw	r18,60(sp)
   43f18:	000d883a 	mov	r6,zero
   43f1c:	01d00934 	movhi	r7,16420
   43f20:	1009883a 	mov	r4,r2
   43f24:	180b883a 	mov	r5,r3
   43f28:	004be600 	call	4be60 <__muldf3>
   43f2c:	180b883a 	mov	r5,r3
   43f30:	1009883a 	mov	r4,r2
   43f34:	1829883a 	mov	r20,r3
   43f38:	1025883a 	mov	r18,r2
   43f3c:	004cfc80 	call	4cfc8 <__fixdfsi>
   43f40:	1009883a 	mov	r4,r2
   43f44:	1021883a 	mov	r16,r2
   43f48:	004d0480 	call	4d048 <__floatsidf>
   43f4c:	100d883a 	mov	r6,r2
   43f50:	180f883a 	mov	r7,r3
   43f54:	9009883a 	mov	r4,r18
   43f58:	a00b883a 	mov	r5,r20
   43f5c:	84000c04 	addi	r16,r16,48
   43f60:	004c6cc0 	call	4c6cc <__subdf3>
   43f64:	ad400044 	addi	r21,r21,1
   43f68:	ac3fffc5 	stb	r16,-1(r21)
   43f6c:	ac7fea1e 	bne	r21,r17,43f18 <__alt_data_end+0xfffe7b58>
   43f70:	1023883a 	mov	r17,r2
   43f74:	d8801217 	ldw	r2,72(sp)
   43f78:	dc800f17 	ldw	r18,60(sp)
   43f7c:	1829883a 	mov	r20,r3
   43f80:	b8af883a 	add	r23,r23,r2
   43f84:	d9001417 	ldw	r4,80(sp)
   43f88:	d9401517 	ldw	r5,84(sp)
   43f8c:	000d883a 	mov	r6,zero
   43f90:	01cff834 	movhi	r7,16352
   43f94:	004a98c0 	call	4a98c <__adddf3>
   43f98:	880d883a 	mov	r6,r17
   43f9c:	a00f883a 	mov	r7,r20
   43fa0:	1009883a 	mov	r4,r2
   43fa4:	180b883a 	mov	r5,r3
   43fa8:	004bd6c0 	call	4bd6c <__ledf2>
   43fac:	10003e0e 	bge	r2,zero,440a8 <_dtoa_r+0x1548>
   43fb0:	d9001317 	ldw	r4,76(sp)
   43fb4:	bd3fffc3 	ldbu	r20,-1(r23)
   43fb8:	d9000515 	stw	r4,20(sp)
   43fbc:	003d3b06 	br	434ac <__alt_data_end+0xfffe70ec>
   43fc0:	0027883a 	mov	r19,zero
   43fc4:	003f1b06 	br	43c34 <__alt_data_end+0xfffe7874>
   43fc8:	d8800817 	ldw	r2,32(sp)
   43fcc:	11e9c83a 	sub	r20,r2,r7
   43fd0:	0005883a 	mov	r2,zero
   43fd4:	003d5406 	br	43528 <__alt_data_end+0xfffe7168>
   43fd8:	00800044 	movi	r2,1
   43fdc:	003dc706 	br	436fc <__alt_data_end+0xfffe733c>
   43fe0:	d8c00217 	ldw	r3,8(sp)
   43fe4:	00800d84 	movi	r2,54
   43fe8:	dd400a17 	ldw	r21,40(sp)
   43fec:	10c5c83a 	sub	r2,r2,r3
   43ff0:	dd000817 	ldw	r20,32(sp)
   43ff4:	003d4c06 	br	43528 <__alt_data_end+0xfffe7168>
   43ff8:	dc800f15 	stw	r18,60(sp)
   43ffc:	dcc01015 	stw	r19,64(sp)
   44000:	04000084 	movi	r16,2
   44004:	003bed06 	br	42fbc <__alt_data_end+0xfffe6bfc>
   44008:	d9000617 	ldw	r4,24(sp)
   4400c:	203f0d26 	beq	r4,zero,43c44 <__alt_data_end+0xfffe7884>
   44010:	d9800c17 	ldw	r6,48(sp)
   44014:	01bcab0e 	bge	zero,r6,432c4 <__alt_data_end+0xfffe6f04>
   44018:	d9401017 	ldw	r5,64(sp)
   4401c:	d9000f17 	ldw	r4,60(sp)
   44020:	000d883a 	mov	r6,zero
   44024:	01d00934 	movhi	r7,16420
   44028:	004be600 	call	4be60 <__muldf3>
   4402c:	81000044 	addi	r4,r16,1
   44030:	d8800f15 	stw	r2,60(sp)
   44034:	d8c01015 	stw	r3,64(sp)
   44038:	004d0480 	call	4d048 <__floatsidf>
   4403c:	d9800f17 	ldw	r6,60(sp)
   44040:	d9c01017 	ldw	r7,64(sp)
   44044:	1009883a 	mov	r4,r2
   44048:	180b883a 	mov	r5,r3
   4404c:	004be600 	call	4be60 <__muldf3>
   44050:	01d00734 	movhi	r7,16412
   44054:	000d883a 	mov	r6,zero
   44058:	1009883a 	mov	r4,r2
   4405c:	180b883a 	mov	r5,r3
   44060:	004a98c0 	call	4a98c <__adddf3>
   44064:	d9c00517 	ldw	r7,20(sp)
   44068:	047f3034 	movhi	r17,64704
   4406c:	1021883a 	mov	r16,r2
   44070:	39ffffc4 	addi	r7,r7,-1
   44074:	d9c01315 	stw	r7,76(sp)
   44078:	1c63883a 	add	r17,r3,r17
   4407c:	db000c17 	ldw	r12,48(sp)
   44080:	003bea06 	br	4302c <__alt_data_end+0xfffe6c6c>
   44084:	dc000915 	stw	r16,36(sp)
   44088:	003e0e06 	br	438c4 <__alt_data_end+0xfffe7504>
   4408c:	01000e44 	movi	r4,57
   44090:	8825883a 	mov	r18,r17
   44094:	9dc00044 	addi	r23,r19,1
   44098:	99000005 	stb	r4,0(r19)
   4409c:	a023883a 	mov	r17,r20
   440a0:	dc000915 	stw	r16,36(sp)
   440a4:	003da406 	br	43738 <__alt_data_end+0xfffe7378>
   440a8:	d9801417 	ldw	r6,80(sp)
   440ac:	d9c01517 	ldw	r7,84(sp)
   440b0:	0009883a 	mov	r4,zero
   440b4:	014ff834 	movhi	r5,16352
   440b8:	004c6cc0 	call	4c6cc <__subdf3>
   440bc:	880d883a 	mov	r6,r17
   440c0:	a00f883a 	mov	r7,r20
   440c4:	1009883a 	mov	r4,r2
   440c8:	180b883a 	mov	r5,r3
   440cc:	004bc900 	call	4bc90 <__gedf2>
   440d0:	00bc7c0e 	bge	zero,r2,432c4 <__alt_data_end+0xfffe6f04>
   440d4:	01000c04 	movi	r4,48
   440d8:	00000106 	br	440e0 <_dtoa_r+0x1580>
   440dc:	102f883a 	mov	r23,r2
   440e0:	b8bfffc4 	addi	r2,r23,-1
   440e4:	10c00007 	ldb	r3,0(r2)
   440e8:	193ffc26 	beq	r3,r4,440dc <__alt_data_end+0xfffe7d1c>
   440ec:	d9801317 	ldw	r6,76(sp)
   440f0:	d9800515 	stw	r6,20(sp)
   440f4:	003c4406 	br	43208 <__alt_data_end+0xfffe6e48>
   440f8:	d9801317 	ldw	r6,76(sp)
   440fc:	d9800515 	stw	r6,20(sp)
   44100:	003cea06 	br	434ac <__alt_data_end+0xfffe70ec>
   44104:	dd800f17 	ldw	r22,60(sp)
   44108:	dcc01017 	ldw	r19,64(sp)
   4410c:	dc801217 	ldw	r18,72(sp)
   44110:	003c6c06 	br	432c4 <__alt_data_end+0xfffe6f04>
   44114:	903e031e 	bne	r18,zero,43924 <__alt_data_end+0xfffe7564>
   44118:	003ebb06 	br	43c08 <__alt_data_end+0xfffe7848>
   4411c:	103e6c1e 	bne	r2,zero,43ad0 <__alt_data_end+0xfffe7710>
   44120:	4080004c 	andi	r2,r8,1
   44124:	103e6a26 	beq	r2,zero,43ad0 <__alt_data_end+0xfffe7710>
   44128:	003e6606 	br	43ac4 <__alt_data_end+0xfffe7704>
   4412c:	d8c00317 	ldw	r3,12(sp)
   44130:	00800084 	movi	r2,2
   44134:	10c02916 	blt	r2,r3,441dc <_dtoa_r+0x167c>
   44138:	d9000c17 	ldw	r4,48(sp)
   4413c:	003e8806 	br	43b60 <__alt_data_end+0xfffe77a0>
   44140:	04000084 	movi	r16,2
   44144:	003b9d06 	br	42fbc <__alt_data_end+0xfffe6bfc>
   44148:	d9001317 	ldw	r4,76(sp)
   4414c:	d9000515 	stw	r4,20(sp)
   44150:	003cd606 	br	434ac <__alt_data_end+0xfffe70ec>
   44154:	d8801317 	ldw	r2,76(sp)
   44158:	d8800515 	stw	r2,20(sp)
   4415c:	003c2a06 	br	43208 <__alt_data_end+0xfffe6e48>
   44160:	d9800317 	ldw	r6,12(sp)
   44164:	00800084 	movi	r2,2
   44168:	11801516 	blt	r2,r6,441c0 <_dtoa_r+0x1660>
   4416c:	d9c00c17 	ldw	r7,48(sp)
   44170:	d9c00615 	stw	r7,24(sp)
   44174:	003df706 	br	43954 <__alt_data_end+0xfffe7594>
   44178:	193d3926 	beq	r3,r4,43660 <__alt_data_end+0xfffe72a0>
   4417c:	00c00f04 	movi	r3,60
   44180:	1885c83a 	sub	r2,r3,r2
   44184:	003ddf06 	br	43904 <__alt_data_end+0xfffe7544>
   44188:	e009883a 	mov	r4,fp
   4418c:	e0001115 	stw	zero,68(fp)
   44190:	000b883a 	mov	r5,zero
   44194:	0045bf40 	call	45bf4 <_Balloc>
   44198:	d8800715 	stw	r2,28(sp)
   4419c:	d8c00717 	ldw	r3,28(sp)
   441a0:	00bfffc4 	movi	r2,-1
   441a4:	01000044 	movi	r4,1
   441a8:	d8800c15 	stw	r2,48(sp)
   441ac:	e0c01015 	stw	r3,64(fp)
   441b0:	d9000b15 	stw	r4,44(sp)
   441b4:	d8800615 	stw	r2,24(sp)
   441b8:	d8002215 	stw	zero,136(sp)
   441bc:	003c4106 	br	432c4 <__alt_data_end+0xfffe6f04>
   441c0:	d8c00c17 	ldw	r3,48(sp)
   441c4:	d8c00615 	stw	r3,24(sp)
   441c8:	003e7006 	br	43b8c <__alt_data_end+0xfffe77cc>
   441cc:	04400044 	movi	r17,1
   441d0:	003b2006 	br	42e54 <__alt_data_end+0xfffe6a94>
   441d4:	000b883a 	mov	r5,zero
   441d8:	003b3d06 	br	42ed0 <__alt_data_end+0xfffe6b10>
   441dc:	d8800c17 	ldw	r2,48(sp)
   441e0:	d8800615 	stw	r2,24(sp)
   441e4:	003e6906 	br	43b8c <__alt_data_end+0xfffe77cc>

000441e8 <__sflush_r>:
   441e8:	2880030b 	ldhu	r2,12(r5)
   441ec:	defffb04 	addi	sp,sp,-20
   441f0:	dcc00315 	stw	r19,12(sp)
   441f4:	dc400115 	stw	r17,4(sp)
   441f8:	dfc00415 	stw	ra,16(sp)
   441fc:	dc800215 	stw	r18,8(sp)
   44200:	dc000015 	stw	r16,0(sp)
   44204:	10c0020c 	andi	r3,r2,8
   44208:	2823883a 	mov	r17,r5
   4420c:	2027883a 	mov	r19,r4
   44210:	1800311e 	bne	r3,zero,442d8 <__sflush_r+0xf0>
   44214:	28c00117 	ldw	r3,4(r5)
   44218:	10820014 	ori	r2,r2,2048
   4421c:	2880030d 	sth	r2,12(r5)
   44220:	00c04b0e 	bge	zero,r3,44350 <__sflush_r+0x168>
   44224:	8a000a17 	ldw	r8,40(r17)
   44228:	40002326 	beq	r8,zero,442b8 <__sflush_r+0xd0>
   4422c:	9c000017 	ldw	r16,0(r19)
   44230:	10c4000c 	andi	r3,r2,4096
   44234:	98000015 	stw	zero,0(r19)
   44238:	18004826 	beq	r3,zero,4435c <__sflush_r+0x174>
   4423c:	89801417 	ldw	r6,80(r17)
   44240:	10c0010c 	andi	r3,r2,4
   44244:	18000626 	beq	r3,zero,44260 <__sflush_r+0x78>
   44248:	88c00117 	ldw	r3,4(r17)
   4424c:	88800c17 	ldw	r2,48(r17)
   44250:	30cdc83a 	sub	r6,r6,r3
   44254:	10000226 	beq	r2,zero,44260 <__sflush_r+0x78>
   44258:	88800f17 	ldw	r2,60(r17)
   4425c:	308dc83a 	sub	r6,r6,r2
   44260:	89400717 	ldw	r5,28(r17)
   44264:	000f883a 	mov	r7,zero
   44268:	9809883a 	mov	r4,r19
   4426c:	403ee83a 	callr	r8
   44270:	00ffffc4 	movi	r3,-1
   44274:	10c04426 	beq	r2,r3,44388 <__sflush_r+0x1a0>
   44278:	88c0030b 	ldhu	r3,12(r17)
   4427c:	89000417 	ldw	r4,16(r17)
   44280:	88000115 	stw	zero,4(r17)
   44284:	197dffcc 	andi	r5,r3,63487
   44288:	8940030d 	sth	r5,12(r17)
   4428c:	89000015 	stw	r4,0(r17)
   44290:	18c4000c 	andi	r3,r3,4096
   44294:	18002c1e 	bne	r3,zero,44348 <__sflush_r+0x160>
   44298:	89400c17 	ldw	r5,48(r17)
   4429c:	9c000015 	stw	r16,0(r19)
   442a0:	28000526 	beq	r5,zero,442b8 <__sflush_r+0xd0>
   442a4:	88801004 	addi	r2,r17,64
   442a8:	28800226 	beq	r5,r2,442b4 <__sflush_r+0xcc>
   442ac:	9809883a 	mov	r4,r19
   442b0:	00449640 	call	44964 <_free_r>
   442b4:	88000c15 	stw	zero,48(r17)
   442b8:	0005883a 	mov	r2,zero
   442bc:	dfc00417 	ldw	ra,16(sp)
   442c0:	dcc00317 	ldw	r19,12(sp)
   442c4:	dc800217 	ldw	r18,8(sp)
   442c8:	dc400117 	ldw	r17,4(sp)
   442cc:	dc000017 	ldw	r16,0(sp)
   442d0:	dec00504 	addi	sp,sp,20
   442d4:	f800283a 	ret
   442d8:	2c800417 	ldw	r18,16(r5)
   442dc:	903ff626 	beq	r18,zero,442b8 <__alt_data_end+0xfffe7ef8>
   442e0:	2c000017 	ldw	r16,0(r5)
   442e4:	108000cc 	andi	r2,r2,3
   442e8:	2c800015 	stw	r18,0(r5)
   442ec:	84a1c83a 	sub	r16,r16,r18
   442f0:	1000131e 	bne	r2,zero,44340 <__sflush_r+0x158>
   442f4:	28800517 	ldw	r2,20(r5)
   442f8:	88800215 	stw	r2,8(r17)
   442fc:	04000316 	blt	zero,r16,4430c <__sflush_r+0x124>
   44300:	003fed06 	br	442b8 <__alt_data_end+0xfffe7ef8>
   44304:	90a5883a 	add	r18,r18,r2
   44308:	043feb0e 	bge	zero,r16,442b8 <__alt_data_end+0xfffe7ef8>
   4430c:	88800917 	ldw	r2,36(r17)
   44310:	89400717 	ldw	r5,28(r17)
   44314:	800f883a 	mov	r7,r16
   44318:	900d883a 	mov	r6,r18
   4431c:	9809883a 	mov	r4,r19
   44320:	103ee83a 	callr	r2
   44324:	80a1c83a 	sub	r16,r16,r2
   44328:	00bff616 	blt	zero,r2,44304 <__alt_data_end+0xfffe7f44>
   4432c:	88c0030b 	ldhu	r3,12(r17)
   44330:	00bfffc4 	movi	r2,-1
   44334:	18c01014 	ori	r3,r3,64
   44338:	88c0030d 	sth	r3,12(r17)
   4433c:	003fdf06 	br	442bc <__alt_data_end+0xfffe7efc>
   44340:	0005883a 	mov	r2,zero
   44344:	003fec06 	br	442f8 <__alt_data_end+0xfffe7f38>
   44348:	88801415 	stw	r2,80(r17)
   4434c:	003fd206 	br	44298 <__alt_data_end+0xfffe7ed8>
   44350:	28c00f17 	ldw	r3,60(r5)
   44354:	00ffb316 	blt	zero,r3,44224 <__alt_data_end+0xfffe7e64>
   44358:	003fd706 	br	442b8 <__alt_data_end+0xfffe7ef8>
   4435c:	89400717 	ldw	r5,28(r17)
   44360:	000d883a 	mov	r6,zero
   44364:	01c00044 	movi	r7,1
   44368:	9809883a 	mov	r4,r19
   4436c:	403ee83a 	callr	r8
   44370:	100d883a 	mov	r6,r2
   44374:	00bfffc4 	movi	r2,-1
   44378:	30801426 	beq	r6,r2,443cc <__sflush_r+0x1e4>
   4437c:	8880030b 	ldhu	r2,12(r17)
   44380:	8a000a17 	ldw	r8,40(r17)
   44384:	003fae06 	br	44240 <__alt_data_end+0xfffe7e80>
   44388:	98c00017 	ldw	r3,0(r19)
   4438c:	183fba26 	beq	r3,zero,44278 <__alt_data_end+0xfffe7eb8>
   44390:	01000744 	movi	r4,29
   44394:	19000626 	beq	r3,r4,443b0 <__sflush_r+0x1c8>
   44398:	01000584 	movi	r4,22
   4439c:	19000426 	beq	r3,r4,443b0 <__sflush_r+0x1c8>
   443a0:	88c0030b 	ldhu	r3,12(r17)
   443a4:	18c01014 	ori	r3,r3,64
   443a8:	88c0030d 	sth	r3,12(r17)
   443ac:	003fc306 	br	442bc <__alt_data_end+0xfffe7efc>
   443b0:	8880030b 	ldhu	r2,12(r17)
   443b4:	88c00417 	ldw	r3,16(r17)
   443b8:	88000115 	stw	zero,4(r17)
   443bc:	10bdffcc 	andi	r2,r2,63487
   443c0:	8880030d 	sth	r2,12(r17)
   443c4:	88c00015 	stw	r3,0(r17)
   443c8:	003fb306 	br	44298 <__alt_data_end+0xfffe7ed8>
   443cc:	98800017 	ldw	r2,0(r19)
   443d0:	103fea26 	beq	r2,zero,4437c <__alt_data_end+0xfffe7fbc>
   443d4:	00c00744 	movi	r3,29
   443d8:	10c00226 	beq	r2,r3,443e4 <__sflush_r+0x1fc>
   443dc:	00c00584 	movi	r3,22
   443e0:	10c0031e 	bne	r2,r3,443f0 <__sflush_r+0x208>
   443e4:	9c000015 	stw	r16,0(r19)
   443e8:	0005883a 	mov	r2,zero
   443ec:	003fb306 	br	442bc <__alt_data_end+0xfffe7efc>
   443f0:	88c0030b 	ldhu	r3,12(r17)
   443f4:	3005883a 	mov	r2,r6
   443f8:	18c01014 	ori	r3,r3,64
   443fc:	88c0030d 	sth	r3,12(r17)
   44400:	003fae06 	br	442bc <__alt_data_end+0xfffe7efc>

00044404 <_fflush_r>:
   44404:	defffd04 	addi	sp,sp,-12
   44408:	dc000115 	stw	r16,4(sp)
   4440c:	dfc00215 	stw	ra,8(sp)
   44410:	2021883a 	mov	r16,r4
   44414:	20000226 	beq	r4,zero,44420 <_fflush_r+0x1c>
   44418:	20800e17 	ldw	r2,56(r4)
   4441c:	10000c26 	beq	r2,zero,44450 <_fflush_r+0x4c>
   44420:	2880030f 	ldh	r2,12(r5)
   44424:	1000051e 	bne	r2,zero,4443c <_fflush_r+0x38>
   44428:	0005883a 	mov	r2,zero
   4442c:	dfc00217 	ldw	ra,8(sp)
   44430:	dc000117 	ldw	r16,4(sp)
   44434:	dec00304 	addi	sp,sp,12
   44438:	f800283a 	ret
   4443c:	8009883a 	mov	r4,r16
   44440:	dfc00217 	ldw	ra,8(sp)
   44444:	dc000117 	ldw	r16,4(sp)
   44448:	dec00304 	addi	sp,sp,12
   4444c:	00441e81 	jmpi	441e8 <__sflush_r>
   44450:	d9400015 	stw	r5,0(sp)
   44454:	00447f00 	call	447f0 <__sinit>
   44458:	d9400017 	ldw	r5,0(sp)
   4445c:	003ff006 	br	44420 <__alt_data_end+0xfffe8060>

00044460 <fflush>:
   44460:	20000526 	beq	r4,zero,44478 <fflush+0x18>
   44464:	00800174 	movhi	r2,5
   44468:	1085ef04 	addi	r2,r2,6076
   4446c:	200b883a 	mov	r5,r4
   44470:	11000017 	ldw	r4,0(r2)
   44474:	00444041 	jmpi	44404 <_fflush_r>
   44478:	00800174 	movhi	r2,5
   4447c:	1085ee04 	addi	r2,r2,6072
   44480:	11000017 	ldw	r4,0(r2)
   44484:	01400134 	movhi	r5,4
   44488:	29510104 	addi	r5,r5,17412
   4448c:	0044d381 	jmpi	44d38 <_fwalk_reent>

00044490 <__fp_unlock>:
   44490:	0005883a 	mov	r2,zero
   44494:	f800283a 	ret

00044498 <_cleanup_r>:
   44498:	01400174 	movhi	r5,5
   4449c:	29622b04 	addi	r5,r5,-30548
   444a0:	0044d381 	jmpi	44d38 <_fwalk_reent>

000444a4 <__sinit.part.1>:
   444a4:	defff704 	addi	sp,sp,-36
   444a8:	00c00134 	movhi	r3,4
   444ac:	dfc00815 	stw	ra,32(sp)
   444b0:	ddc00715 	stw	r23,28(sp)
   444b4:	dd800615 	stw	r22,24(sp)
   444b8:	dd400515 	stw	r21,20(sp)
   444bc:	dd000415 	stw	r20,16(sp)
   444c0:	dcc00315 	stw	r19,12(sp)
   444c4:	dc800215 	stw	r18,8(sp)
   444c8:	dc400115 	stw	r17,4(sp)
   444cc:	dc000015 	stw	r16,0(sp)
   444d0:	18d12604 	addi	r3,r3,17560
   444d4:	24000117 	ldw	r16,4(r4)
   444d8:	20c00f15 	stw	r3,60(r4)
   444dc:	2080bb04 	addi	r2,r4,748
   444e0:	00c000c4 	movi	r3,3
   444e4:	20c0b915 	stw	r3,740(r4)
   444e8:	2080ba15 	stw	r2,744(r4)
   444ec:	2000b815 	stw	zero,736(r4)
   444f0:	05c00204 	movi	r23,8
   444f4:	00800104 	movi	r2,4
   444f8:	2025883a 	mov	r18,r4
   444fc:	b80d883a 	mov	r6,r23
   44500:	81001704 	addi	r4,r16,92
   44504:	000b883a 	mov	r5,zero
   44508:	80000015 	stw	zero,0(r16)
   4450c:	80000115 	stw	zero,4(r16)
   44510:	80000215 	stw	zero,8(r16)
   44514:	8080030d 	sth	r2,12(r16)
   44518:	80001915 	stw	zero,100(r16)
   4451c:	8000038d 	sth	zero,14(r16)
   44520:	80000415 	stw	zero,16(r16)
   44524:	80000515 	stw	zero,20(r16)
   44528:	80000615 	stw	zero,24(r16)
   4452c:	0045acc0 	call	45acc <memset>
   44530:	05800134 	movhi	r22,4
   44534:	94400217 	ldw	r17,8(r18)
   44538:	05400134 	movhi	r21,4
   4453c:	05000134 	movhi	r20,4
   44540:	04c00134 	movhi	r19,4
   44544:	b59b5d04 	addi	r22,r22,28020
   44548:	ad5b7404 	addi	r21,r21,28112
   4454c:	a51b9304 	addi	r20,r20,28236
   44550:	9cdbaa04 	addi	r19,r19,28328
   44554:	85800815 	stw	r22,32(r16)
   44558:	85400915 	stw	r21,36(r16)
   4455c:	85000a15 	stw	r20,40(r16)
   44560:	84c00b15 	stw	r19,44(r16)
   44564:	84000715 	stw	r16,28(r16)
   44568:	00800284 	movi	r2,10
   4456c:	8880030d 	sth	r2,12(r17)
   44570:	00800044 	movi	r2,1
   44574:	b80d883a 	mov	r6,r23
   44578:	89001704 	addi	r4,r17,92
   4457c:	000b883a 	mov	r5,zero
   44580:	88000015 	stw	zero,0(r17)
   44584:	88000115 	stw	zero,4(r17)
   44588:	88000215 	stw	zero,8(r17)
   4458c:	88001915 	stw	zero,100(r17)
   44590:	8880038d 	sth	r2,14(r17)
   44594:	88000415 	stw	zero,16(r17)
   44598:	88000515 	stw	zero,20(r17)
   4459c:	88000615 	stw	zero,24(r17)
   445a0:	0045acc0 	call	45acc <memset>
   445a4:	94000317 	ldw	r16,12(r18)
   445a8:	00800484 	movi	r2,18
   445ac:	8c400715 	stw	r17,28(r17)
   445b0:	8d800815 	stw	r22,32(r17)
   445b4:	8d400915 	stw	r21,36(r17)
   445b8:	8d000a15 	stw	r20,40(r17)
   445bc:	8cc00b15 	stw	r19,44(r17)
   445c0:	8080030d 	sth	r2,12(r16)
   445c4:	00800084 	movi	r2,2
   445c8:	80000015 	stw	zero,0(r16)
   445cc:	80000115 	stw	zero,4(r16)
   445d0:	80000215 	stw	zero,8(r16)
   445d4:	80001915 	stw	zero,100(r16)
   445d8:	8080038d 	sth	r2,14(r16)
   445dc:	80000415 	stw	zero,16(r16)
   445e0:	80000515 	stw	zero,20(r16)
   445e4:	80000615 	stw	zero,24(r16)
   445e8:	b80d883a 	mov	r6,r23
   445ec:	000b883a 	mov	r5,zero
   445f0:	81001704 	addi	r4,r16,92
   445f4:	0045acc0 	call	45acc <memset>
   445f8:	00800044 	movi	r2,1
   445fc:	84000715 	stw	r16,28(r16)
   44600:	85800815 	stw	r22,32(r16)
   44604:	85400915 	stw	r21,36(r16)
   44608:	85000a15 	stw	r20,40(r16)
   4460c:	84c00b15 	stw	r19,44(r16)
   44610:	90800e15 	stw	r2,56(r18)
   44614:	dfc00817 	ldw	ra,32(sp)
   44618:	ddc00717 	ldw	r23,28(sp)
   4461c:	dd800617 	ldw	r22,24(sp)
   44620:	dd400517 	ldw	r21,20(sp)
   44624:	dd000417 	ldw	r20,16(sp)
   44628:	dcc00317 	ldw	r19,12(sp)
   4462c:	dc800217 	ldw	r18,8(sp)
   44630:	dc400117 	ldw	r17,4(sp)
   44634:	dc000017 	ldw	r16,0(sp)
   44638:	dec00904 	addi	sp,sp,36
   4463c:	f800283a 	ret

00044640 <__fp_lock>:
   44640:	0005883a 	mov	r2,zero
   44644:	f800283a 	ret

00044648 <__sfmoreglue>:
   44648:	defffc04 	addi	sp,sp,-16
   4464c:	dc800215 	stw	r18,8(sp)
   44650:	2825883a 	mov	r18,r5
   44654:	dc000015 	stw	r16,0(sp)
   44658:	01401a04 	movi	r5,104
   4465c:	2021883a 	mov	r16,r4
   44660:	913fffc4 	addi	r4,r18,-1
   44664:	dfc00315 	stw	ra,12(sp)
   44668:	dc400115 	stw	r17,4(sp)
   4466c:	004a9640 	call	4a964 <__mulsi3>
   44670:	8009883a 	mov	r4,r16
   44674:	11401d04 	addi	r5,r2,116
   44678:	1023883a 	mov	r17,r2
   4467c:	00450940 	call	45094 <_malloc_r>
   44680:	1021883a 	mov	r16,r2
   44684:	10000726 	beq	r2,zero,446a4 <__sfmoreglue+0x5c>
   44688:	11000304 	addi	r4,r2,12
   4468c:	10000015 	stw	zero,0(r2)
   44690:	14800115 	stw	r18,4(r2)
   44694:	11000215 	stw	r4,8(r2)
   44698:	89801a04 	addi	r6,r17,104
   4469c:	000b883a 	mov	r5,zero
   446a0:	0045acc0 	call	45acc <memset>
   446a4:	8005883a 	mov	r2,r16
   446a8:	dfc00317 	ldw	ra,12(sp)
   446ac:	dc800217 	ldw	r18,8(sp)
   446b0:	dc400117 	ldw	r17,4(sp)
   446b4:	dc000017 	ldw	r16,0(sp)
   446b8:	dec00404 	addi	sp,sp,16
   446bc:	f800283a 	ret

000446c0 <__sfp>:
   446c0:	defffb04 	addi	sp,sp,-20
   446c4:	dc000015 	stw	r16,0(sp)
   446c8:	04000174 	movhi	r16,5
   446cc:	8405ee04 	addi	r16,r16,6072
   446d0:	dcc00315 	stw	r19,12(sp)
   446d4:	2027883a 	mov	r19,r4
   446d8:	81000017 	ldw	r4,0(r16)
   446dc:	dfc00415 	stw	ra,16(sp)
   446e0:	dc800215 	stw	r18,8(sp)
   446e4:	20800e17 	ldw	r2,56(r4)
   446e8:	dc400115 	stw	r17,4(sp)
   446ec:	1000021e 	bne	r2,zero,446f8 <__sfp+0x38>
   446f0:	00444a40 	call	444a4 <__sinit.part.1>
   446f4:	81000017 	ldw	r4,0(r16)
   446f8:	2480b804 	addi	r18,r4,736
   446fc:	047fffc4 	movi	r17,-1
   44700:	91000117 	ldw	r4,4(r18)
   44704:	94000217 	ldw	r16,8(r18)
   44708:	213fffc4 	addi	r4,r4,-1
   4470c:	20000a16 	blt	r4,zero,44738 <__sfp+0x78>
   44710:	8080030f 	ldh	r2,12(r16)
   44714:	10000c26 	beq	r2,zero,44748 <__sfp+0x88>
   44718:	80c01d04 	addi	r3,r16,116
   4471c:	00000206 	br	44728 <__sfp+0x68>
   44720:	18bfe60f 	ldh	r2,-104(r3)
   44724:	10000826 	beq	r2,zero,44748 <__sfp+0x88>
   44728:	213fffc4 	addi	r4,r4,-1
   4472c:	1c3ffd04 	addi	r16,r3,-12
   44730:	18c01a04 	addi	r3,r3,104
   44734:	247ffa1e 	bne	r4,r17,44720 <__alt_data_end+0xfffe8360>
   44738:	90800017 	ldw	r2,0(r18)
   4473c:	10001d26 	beq	r2,zero,447b4 <__sfp+0xf4>
   44740:	1025883a 	mov	r18,r2
   44744:	003fee06 	br	44700 <__alt_data_end+0xfffe8340>
   44748:	00bfffc4 	movi	r2,-1
   4474c:	8080038d 	sth	r2,14(r16)
   44750:	00800044 	movi	r2,1
   44754:	8080030d 	sth	r2,12(r16)
   44758:	80001915 	stw	zero,100(r16)
   4475c:	80000015 	stw	zero,0(r16)
   44760:	80000215 	stw	zero,8(r16)
   44764:	80000115 	stw	zero,4(r16)
   44768:	80000415 	stw	zero,16(r16)
   4476c:	80000515 	stw	zero,20(r16)
   44770:	80000615 	stw	zero,24(r16)
   44774:	01800204 	movi	r6,8
   44778:	000b883a 	mov	r5,zero
   4477c:	81001704 	addi	r4,r16,92
   44780:	0045acc0 	call	45acc <memset>
   44784:	8005883a 	mov	r2,r16
   44788:	80000c15 	stw	zero,48(r16)
   4478c:	80000d15 	stw	zero,52(r16)
   44790:	80001115 	stw	zero,68(r16)
   44794:	80001215 	stw	zero,72(r16)
   44798:	dfc00417 	ldw	ra,16(sp)
   4479c:	dcc00317 	ldw	r19,12(sp)
   447a0:	dc800217 	ldw	r18,8(sp)
   447a4:	dc400117 	ldw	r17,4(sp)
   447a8:	dc000017 	ldw	r16,0(sp)
   447ac:	dec00504 	addi	sp,sp,20
   447b0:	f800283a 	ret
   447b4:	01400104 	movi	r5,4
   447b8:	9809883a 	mov	r4,r19
   447bc:	00446480 	call	44648 <__sfmoreglue>
   447c0:	90800015 	stw	r2,0(r18)
   447c4:	103fde1e 	bne	r2,zero,44740 <__alt_data_end+0xfffe8380>
   447c8:	00800304 	movi	r2,12
   447cc:	98800015 	stw	r2,0(r19)
   447d0:	0005883a 	mov	r2,zero
   447d4:	003ff006 	br	44798 <__alt_data_end+0xfffe83d8>

000447d8 <_cleanup>:
   447d8:	00800174 	movhi	r2,5
   447dc:	1085ee04 	addi	r2,r2,6072
   447e0:	11000017 	ldw	r4,0(r2)
   447e4:	01400174 	movhi	r5,5
   447e8:	29622b04 	addi	r5,r5,-30548
   447ec:	0044d381 	jmpi	44d38 <_fwalk_reent>

000447f0 <__sinit>:
   447f0:	20800e17 	ldw	r2,56(r4)
   447f4:	10000126 	beq	r2,zero,447fc <__sinit+0xc>
   447f8:	f800283a 	ret
   447fc:	00444a41 	jmpi	444a4 <__sinit.part.1>

00044800 <__sfp_lock_acquire>:
   44800:	f800283a 	ret

00044804 <__sfp_lock_release>:
   44804:	f800283a 	ret

00044808 <__sinit_lock_acquire>:
   44808:	f800283a 	ret

0004480c <__sinit_lock_release>:
   4480c:	f800283a 	ret

00044810 <__fp_lock_all>:
   44810:	00800174 	movhi	r2,5
   44814:	1085ef04 	addi	r2,r2,6076
   44818:	11000017 	ldw	r4,0(r2)
   4481c:	01400134 	movhi	r5,4
   44820:	29519004 	addi	r5,r5,17984
   44824:	0044c741 	jmpi	44c74 <_fwalk>

00044828 <__fp_unlock_all>:
   44828:	00800174 	movhi	r2,5
   4482c:	1085ef04 	addi	r2,r2,6076
   44830:	11000017 	ldw	r4,0(r2)
   44834:	01400134 	movhi	r5,4
   44838:	29512404 	addi	r5,r5,17552
   4483c:	0044c741 	jmpi	44c74 <_fwalk>

00044840 <_malloc_trim_r>:
   44840:	defffb04 	addi	sp,sp,-20
   44844:	dcc00315 	stw	r19,12(sp)
   44848:	04c00174 	movhi	r19,5
   4484c:	dc800215 	stw	r18,8(sp)
   44850:	dc400115 	stw	r17,4(sp)
   44854:	dc000015 	stw	r16,0(sp)
   44858:	dfc00415 	stw	ra,16(sp)
   4485c:	2821883a 	mov	r16,r5
   44860:	9cc06404 	addi	r19,r19,400
   44864:	2025883a 	mov	r18,r4
   44868:	004d7cc0 	call	4d7cc <__malloc_lock>
   4486c:	98800217 	ldw	r2,8(r19)
   44870:	14400117 	ldw	r17,4(r2)
   44874:	00bfff04 	movi	r2,-4
   44878:	88a2703a 	and	r17,r17,r2
   4487c:	8c21c83a 	sub	r16,r17,r16
   44880:	8403fbc4 	addi	r16,r16,4079
   44884:	8020d33a 	srli	r16,r16,12
   44888:	0083ffc4 	movi	r2,4095
   4488c:	843fffc4 	addi	r16,r16,-1
   44890:	8020933a 	slli	r16,r16,12
   44894:	1400060e 	bge	r2,r16,448b0 <_malloc_trim_r+0x70>
   44898:	000b883a 	mov	r5,zero
   4489c:	9009883a 	mov	r4,r18
   448a0:	0046d200 	call	46d20 <_sbrk_r>
   448a4:	98c00217 	ldw	r3,8(r19)
   448a8:	1c47883a 	add	r3,r3,r17
   448ac:	10c00a26 	beq	r2,r3,448d8 <_malloc_trim_r+0x98>
   448b0:	9009883a 	mov	r4,r18
   448b4:	004d7f00 	call	4d7f0 <__malloc_unlock>
   448b8:	0005883a 	mov	r2,zero
   448bc:	dfc00417 	ldw	ra,16(sp)
   448c0:	dcc00317 	ldw	r19,12(sp)
   448c4:	dc800217 	ldw	r18,8(sp)
   448c8:	dc400117 	ldw	r17,4(sp)
   448cc:	dc000017 	ldw	r16,0(sp)
   448d0:	dec00504 	addi	sp,sp,20
   448d4:	f800283a 	ret
   448d8:	040bc83a 	sub	r5,zero,r16
   448dc:	9009883a 	mov	r4,r18
   448e0:	0046d200 	call	46d20 <_sbrk_r>
   448e4:	00ffffc4 	movi	r3,-1
   448e8:	10c00d26 	beq	r2,r3,44920 <_malloc_trim_r+0xe0>
   448ec:	00c00174 	movhi	r3,5
   448f0:	18cd1b04 	addi	r3,r3,13420
   448f4:	18800017 	ldw	r2,0(r3)
   448f8:	99000217 	ldw	r4,8(r19)
   448fc:	8c23c83a 	sub	r17,r17,r16
   44900:	8c400054 	ori	r17,r17,1
   44904:	1421c83a 	sub	r16,r2,r16
   44908:	24400115 	stw	r17,4(r4)
   4490c:	9009883a 	mov	r4,r18
   44910:	1c000015 	stw	r16,0(r3)
   44914:	004d7f00 	call	4d7f0 <__malloc_unlock>
   44918:	00800044 	movi	r2,1
   4491c:	003fe706 	br	448bc <__alt_data_end+0xfffe84fc>
   44920:	000b883a 	mov	r5,zero
   44924:	9009883a 	mov	r4,r18
   44928:	0046d200 	call	46d20 <_sbrk_r>
   4492c:	99000217 	ldw	r4,8(r19)
   44930:	014003c4 	movi	r5,15
   44934:	1107c83a 	sub	r3,r2,r4
   44938:	28ffdd0e 	bge	r5,r3,448b0 <__alt_data_end+0xfffe84f0>
   4493c:	01400174 	movhi	r5,5
   44940:	2945f104 	addi	r5,r5,6084
   44944:	29400017 	ldw	r5,0(r5)
   44948:	18c00054 	ori	r3,r3,1
   4494c:	20c00115 	stw	r3,4(r4)
   44950:	00c00174 	movhi	r3,5
   44954:	1145c83a 	sub	r2,r2,r5
   44958:	18cd1b04 	addi	r3,r3,13420
   4495c:	18800015 	stw	r2,0(r3)
   44960:	003fd306 	br	448b0 <__alt_data_end+0xfffe84f0>

00044964 <_free_r>:
   44964:	28004126 	beq	r5,zero,44a6c <_free_r+0x108>
   44968:	defffd04 	addi	sp,sp,-12
   4496c:	dc400115 	stw	r17,4(sp)
   44970:	dc000015 	stw	r16,0(sp)
   44974:	2023883a 	mov	r17,r4
   44978:	2821883a 	mov	r16,r5
   4497c:	dfc00215 	stw	ra,8(sp)
   44980:	004d7cc0 	call	4d7cc <__malloc_lock>
   44984:	81ffff17 	ldw	r7,-4(r16)
   44988:	00bfff84 	movi	r2,-2
   4498c:	01000174 	movhi	r4,5
   44990:	81bffe04 	addi	r6,r16,-8
   44994:	3884703a 	and	r2,r7,r2
   44998:	21006404 	addi	r4,r4,400
   4499c:	308b883a 	add	r5,r6,r2
   449a0:	2a400117 	ldw	r9,4(r5)
   449a4:	22000217 	ldw	r8,8(r4)
   449a8:	00ffff04 	movi	r3,-4
   449ac:	48c6703a 	and	r3,r9,r3
   449b0:	2a005726 	beq	r5,r8,44b10 <_free_r+0x1ac>
   449b4:	28c00115 	stw	r3,4(r5)
   449b8:	39c0004c 	andi	r7,r7,1
   449bc:	3800091e 	bne	r7,zero,449e4 <_free_r+0x80>
   449c0:	823ffe17 	ldw	r8,-8(r16)
   449c4:	22400204 	addi	r9,r4,8
   449c8:	320dc83a 	sub	r6,r6,r8
   449cc:	31c00217 	ldw	r7,8(r6)
   449d0:	1205883a 	add	r2,r2,r8
   449d4:	3a406526 	beq	r7,r9,44b6c <_free_r+0x208>
   449d8:	32000317 	ldw	r8,12(r6)
   449dc:	3a000315 	stw	r8,12(r7)
   449e0:	41c00215 	stw	r7,8(r8)
   449e4:	28cf883a 	add	r7,r5,r3
   449e8:	39c00117 	ldw	r7,4(r7)
   449ec:	39c0004c 	andi	r7,r7,1
   449f0:	38003a26 	beq	r7,zero,44adc <_free_r+0x178>
   449f4:	10c00054 	ori	r3,r2,1
   449f8:	30c00115 	stw	r3,4(r6)
   449fc:	3087883a 	add	r3,r6,r2
   44a00:	18800015 	stw	r2,0(r3)
   44a04:	00c07fc4 	movi	r3,511
   44a08:	18801936 	bltu	r3,r2,44a70 <_free_r+0x10c>
   44a0c:	1004d0fa 	srli	r2,r2,3
   44a10:	01c00044 	movi	r7,1
   44a14:	21400117 	ldw	r5,4(r4)
   44a18:	10c00044 	addi	r3,r2,1
   44a1c:	18c7883a 	add	r3,r3,r3
   44a20:	1005d0ba 	srai	r2,r2,2
   44a24:	18c7883a 	add	r3,r3,r3
   44a28:	18c7883a 	add	r3,r3,r3
   44a2c:	1907883a 	add	r3,r3,r4
   44a30:	3884983a 	sll	r2,r7,r2
   44a34:	19c00017 	ldw	r7,0(r3)
   44a38:	1a3ffe04 	addi	r8,r3,-8
   44a3c:	1144b03a 	or	r2,r2,r5
   44a40:	32000315 	stw	r8,12(r6)
   44a44:	31c00215 	stw	r7,8(r6)
   44a48:	20800115 	stw	r2,4(r4)
   44a4c:	19800015 	stw	r6,0(r3)
   44a50:	39800315 	stw	r6,12(r7)
   44a54:	8809883a 	mov	r4,r17
   44a58:	dfc00217 	ldw	ra,8(sp)
   44a5c:	dc400117 	ldw	r17,4(sp)
   44a60:	dc000017 	ldw	r16,0(sp)
   44a64:	dec00304 	addi	sp,sp,12
   44a68:	004d7f01 	jmpi	4d7f0 <__malloc_unlock>
   44a6c:	f800283a 	ret
   44a70:	100ad27a 	srli	r5,r2,9
   44a74:	00c00104 	movi	r3,4
   44a78:	19404a36 	bltu	r3,r5,44ba4 <_free_r+0x240>
   44a7c:	100ad1ba 	srli	r5,r2,6
   44a80:	28c00e44 	addi	r3,r5,57
   44a84:	18c7883a 	add	r3,r3,r3
   44a88:	29400e04 	addi	r5,r5,56
   44a8c:	18c7883a 	add	r3,r3,r3
   44a90:	18c7883a 	add	r3,r3,r3
   44a94:	1909883a 	add	r4,r3,r4
   44a98:	20c00017 	ldw	r3,0(r4)
   44a9c:	01c00174 	movhi	r7,5
   44aa0:	213ffe04 	addi	r4,r4,-8
   44aa4:	39c06404 	addi	r7,r7,400
   44aa8:	20c04426 	beq	r4,r3,44bbc <_free_r+0x258>
   44aac:	01ffff04 	movi	r7,-4
   44ab0:	19400117 	ldw	r5,4(r3)
   44ab4:	29ca703a 	and	r5,r5,r7
   44ab8:	1140022e 	bgeu	r2,r5,44ac4 <_free_r+0x160>
   44abc:	18c00217 	ldw	r3,8(r3)
   44ac0:	20fffb1e 	bne	r4,r3,44ab0 <__alt_data_end+0xfffe86f0>
   44ac4:	19000317 	ldw	r4,12(r3)
   44ac8:	31000315 	stw	r4,12(r6)
   44acc:	30c00215 	stw	r3,8(r6)
   44ad0:	21800215 	stw	r6,8(r4)
   44ad4:	19800315 	stw	r6,12(r3)
   44ad8:	003fde06 	br	44a54 <__alt_data_end+0xfffe8694>
   44adc:	29c00217 	ldw	r7,8(r5)
   44ae0:	10c5883a 	add	r2,r2,r3
   44ae4:	00c00174 	movhi	r3,5
   44ae8:	18c06604 	addi	r3,r3,408
   44aec:	38c03b26 	beq	r7,r3,44bdc <_free_r+0x278>
   44af0:	2a000317 	ldw	r8,12(r5)
   44af4:	11400054 	ori	r5,r2,1
   44af8:	3087883a 	add	r3,r6,r2
   44afc:	3a000315 	stw	r8,12(r7)
   44b00:	41c00215 	stw	r7,8(r8)
   44b04:	31400115 	stw	r5,4(r6)
   44b08:	18800015 	stw	r2,0(r3)
   44b0c:	003fbd06 	br	44a04 <__alt_data_end+0xfffe8644>
   44b10:	39c0004c 	andi	r7,r7,1
   44b14:	10c5883a 	add	r2,r2,r3
   44b18:	3800071e 	bne	r7,zero,44b38 <_free_r+0x1d4>
   44b1c:	81fffe17 	ldw	r7,-8(r16)
   44b20:	31cdc83a 	sub	r6,r6,r7
   44b24:	30c00317 	ldw	r3,12(r6)
   44b28:	31400217 	ldw	r5,8(r6)
   44b2c:	11c5883a 	add	r2,r2,r7
   44b30:	28c00315 	stw	r3,12(r5)
   44b34:	19400215 	stw	r5,8(r3)
   44b38:	10c00054 	ori	r3,r2,1
   44b3c:	30c00115 	stw	r3,4(r6)
   44b40:	00c00174 	movhi	r3,5
   44b44:	18c5f204 	addi	r3,r3,6088
   44b48:	18c00017 	ldw	r3,0(r3)
   44b4c:	21800215 	stw	r6,8(r4)
   44b50:	10ffc036 	bltu	r2,r3,44a54 <__alt_data_end+0xfffe8694>
   44b54:	00800174 	movhi	r2,5
   44b58:	108d1204 	addi	r2,r2,13384
   44b5c:	11400017 	ldw	r5,0(r2)
   44b60:	8809883a 	mov	r4,r17
   44b64:	00448400 	call	44840 <_malloc_trim_r>
   44b68:	003fba06 	br	44a54 <__alt_data_end+0xfffe8694>
   44b6c:	28c9883a 	add	r4,r5,r3
   44b70:	21000117 	ldw	r4,4(r4)
   44b74:	2100004c 	andi	r4,r4,1
   44b78:	2000391e 	bne	r4,zero,44c60 <_free_r+0x2fc>
   44b7c:	29c00217 	ldw	r7,8(r5)
   44b80:	29000317 	ldw	r4,12(r5)
   44b84:	1885883a 	add	r2,r3,r2
   44b88:	10c00054 	ori	r3,r2,1
   44b8c:	39000315 	stw	r4,12(r7)
   44b90:	21c00215 	stw	r7,8(r4)
   44b94:	30c00115 	stw	r3,4(r6)
   44b98:	308d883a 	add	r6,r6,r2
   44b9c:	30800015 	stw	r2,0(r6)
   44ba0:	003fac06 	br	44a54 <__alt_data_end+0xfffe8694>
   44ba4:	00c00504 	movi	r3,20
   44ba8:	19401536 	bltu	r3,r5,44c00 <_free_r+0x29c>
   44bac:	28c01704 	addi	r3,r5,92
   44bb0:	18c7883a 	add	r3,r3,r3
   44bb4:	294016c4 	addi	r5,r5,91
   44bb8:	003fb406 	br	44a8c <__alt_data_end+0xfffe86cc>
   44bbc:	280bd0ba 	srai	r5,r5,2
   44bc0:	00c00044 	movi	r3,1
   44bc4:	38800117 	ldw	r2,4(r7)
   44bc8:	194a983a 	sll	r5,r3,r5
   44bcc:	2007883a 	mov	r3,r4
   44bd0:	2884b03a 	or	r2,r5,r2
   44bd4:	38800115 	stw	r2,4(r7)
   44bd8:	003fbb06 	br	44ac8 <__alt_data_end+0xfffe8708>
   44bdc:	21800515 	stw	r6,20(r4)
   44be0:	21800415 	stw	r6,16(r4)
   44be4:	10c00054 	ori	r3,r2,1
   44be8:	31c00315 	stw	r7,12(r6)
   44bec:	31c00215 	stw	r7,8(r6)
   44bf0:	30c00115 	stw	r3,4(r6)
   44bf4:	308d883a 	add	r6,r6,r2
   44bf8:	30800015 	stw	r2,0(r6)
   44bfc:	003f9506 	br	44a54 <__alt_data_end+0xfffe8694>
   44c00:	00c01504 	movi	r3,84
   44c04:	19400536 	bltu	r3,r5,44c1c <_free_r+0x2b8>
   44c08:	100ad33a 	srli	r5,r2,12
   44c0c:	28c01bc4 	addi	r3,r5,111
   44c10:	18c7883a 	add	r3,r3,r3
   44c14:	29401b84 	addi	r5,r5,110
   44c18:	003f9c06 	br	44a8c <__alt_data_end+0xfffe86cc>
   44c1c:	00c05504 	movi	r3,340
   44c20:	19400536 	bltu	r3,r5,44c38 <_free_r+0x2d4>
   44c24:	100ad3fa 	srli	r5,r2,15
   44c28:	28c01e04 	addi	r3,r5,120
   44c2c:	18c7883a 	add	r3,r3,r3
   44c30:	29401dc4 	addi	r5,r5,119
   44c34:	003f9506 	br	44a8c <__alt_data_end+0xfffe86cc>
   44c38:	00c15504 	movi	r3,1364
   44c3c:	19400536 	bltu	r3,r5,44c54 <_free_r+0x2f0>
   44c40:	100ad4ba 	srli	r5,r2,18
   44c44:	28c01f44 	addi	r3,r5,125
   44c48:	18c7883a 	add	r3,r3,r3
   44c4c:	29401f04 	addi	r5,r5,124
   44c50:	003f8e06 	br	44a8c <__alt_data_end+0xfffe86cc>
   44c54:	00c03f84 	movi	r3,254
   44c58:	01401f84 	movi	r5,126
   44c5c:	003f8b06 	br	44a8c <__alt_data_end+0xfffe86cc>
   44c60:	10c00054 	ori	r3,r2,1
   44c64:	30c00115 	stw	r3,4(r6)
   44c68:	308d883a 	add	r6,r6,r2
   44c6c:	30800015 	stw	r2,0(r6)
   44c70:	003f7806 	br	44a54 <__alt_data_end+0xfffe8694>

00044c74 <_fwalk>:
   44c74:	defff704 	addi	sp,sp,-36
   44c78:	dd000415 	stw	r20,16(sp)
   44c7c:	dfc00815 	stw	ra,32(sp)
   44c80:	ddc00715 	stw	r23,28(sp)
   44c84:	dd800615 	stw	r22,24(sp)
   44c88:	dd400515 	stw	r21,20(sp)
   44c8c:	dcc00315 	stw	r19,12(sp)
   44c90:	dc800215 	stw	r18,8(sp)
   44c94:	dc400115 	stw	r17,4(sp)
   44c98:	dc000015 	stw	r16,0(sp)
   44c9c:	2500b804 	addi	r20,r4,736
   44ca0:	a0002326 	beq	r20,zero,44d30 <_fwalk+0xbc>
   44ca4:	282b883a 	mov	r21,r5
   44ca8:	002f883a 	mov	r23,zero
   44cac:	05800044 	movi	r22,1
   44cb0:	04ffffc4 	movi	r19,-1
   44cb4:	a4400117 	ldw	r17,4(r20)
   44cb8:	a4800217 	ldw	r18,8(r20)
   44cbc:	8c7fffc4 	addi	r17,r17,-1
   44cc0:	88000d16 	blt	r17,zero,44cf8 <_fwalk+0x84>
   44cc4:	94000304 	addi	r16,r18,12
   44cc8:	94800384 	addi	r18,r18,14
   44ccc:	8080000b 	ldhu	r2,0(r16)
   44cd0:	8c7fffc4 	addi	r17,r17,-1
   44cd4:	813ffd04 	addi	r4,r16,-12
   44cd8:	b080042e 	bgeu	r22,r2,44cec <_fwalk+0x78>
   44cdc:	9080000f 	ldh	r2,0(r18)
   44ce0:	14c00226 	beq	r2,r19,44cec <_fwalk+0x78>
   44ce4:	a83ee83a 	callr	r21
   44ce8:	b8aeb03a 	or	r23,r23,r2
   44cec:	84001a04 	addi	r16,r16,104
   44cf0:	94801a04 	addi	r18,r18,104
   44cf4:	8cfff51e 	bne	r17,r19,44ccc <__alt_data_end+0xfffe890c>
   44cf8:	a5000017 	ldw	r20,0(r20)
   44cfc:	a03fed1e 	bne	r20,zero,44cb4 <__alt_data_end+0xfffe88f4>
   44d00:	b805883a 	mov	r2,r23
   44d04:	dfc00817 	ldw	ra,32(sp)
   44d08:	ddc00717 	ldw	r23,28(sp)
   44d0c:	dd800617 	ldw	r22,24(sp)
   44d10:	dd400517 	ldw	r21,20(sp)
   44d14:	dd000417 	ldw	r20,16(sp)
   44d18:	dcc00317 	ldw	r19,12(sp)
   44d1c:	dc800217 	ldw	r18,8(sp)
   44d20:	dc400117 	ldw	r17,4(sp)
   44d24:	dc000017 	ldw	r16,0(sp)
   44d28:	dec00904 	addi	sp,sp,36
   44d2c:	f800283a 	ret
   44d30:	002f883a 	mov	r23,zero
   44d34:	003ff206 	br	44d00 <__alt_data_end+0xfffe8940>

00044d38 <_fwalk_reent>:
   44d38:	defff704 	addi	sp,sp,-36
   44d3c:	dd000415 	stw	r20,16(sp)
   44d40:	dfc00815 	stw	ra,32(sp)
   44d44:	ddc00715 	stw	r23,28(sp)
   44d48:	dd800615 	stw	r22,24(sp)
   44d4c:	dd400515 	stw	r21,20(sp)
   44d50:	dcc00315 	stw	r19,12(sp)
   44d54:	dc800215 	stw	r18,8(sp)
   44d58:	dc400115 	stw	r17,4(sp)
   44d5c:	dc000015 	stw	r16,0(sp)
   44d60:	2500b804 	addi	r20,r4,736
   44d64:	a0002326 	beq	r20,zero,44df4 <_fwalk_reent+0xbc>
   44d68:	282b883a 	mov	r21,r5
   44d6c:	2027883a 	mov	r19,r4
   44d70:	002f883a 	mov	r23,zero
   44d74:	05800044 	movi	r22,1
   44d78:	04bfffc4 	movi	r18,-1
   44d7c:	a4400117 	ldw	r17,4(r20)
   44d80:	a4000217 	ldw	r16,8(r20)
   44d84:	8c7fffc4 	addi	r17,r17,-1
   44d88:	88000c16 	blt	r17,zero,44dbc <_fwalk_reent+0x84>
   44d8c:	84000304 	addi	r16,r16,12
   44d90:	8080000b 	ldhu	r2,0(r16)
   44d94:	8c7fffc4 	addi	r17,r17,-1
   44d98:	817ffd04 	addi	r5,r16,-12
   44d9c:	b080052e 	bgeu	r22,r2,44db4 <_fwalk_reent+0x7c>
   44da0:	8080008f 	ldh	r2,2(r16)
   44da4:	9809883a 	mov	r4,r19
   44da8:	14800226 	beq	r2,r18,44db4 <_fwalk_reent+0x7c>
   44dac:	a83ee83a 	callr	r21
   44db0:	b8aeb03a 	or	r23,r23,r2
   44db4:	84001a04 	addi	r16,r16,104
   44db8:	8cbff51e 	bne	r17,r18,44d90 <__alt_data_end+0xfffe89d0>
   44dbc:	a5000017 	ldw	r20,0(r20)
   44dc0:	a03fee1e 	bne	r20,zero,44d7c <__alt_data_end+0xfffe89bc>
   44dc4:	b805883a 	mov	r2,r23
   44dc8:	dfc00817 	ldw	ra,32(sp)
   44dcc:	ddc00717 	ldw	r23,28(sp)
   44dd0:	dd800617 	ldw	r22,24(sp)
   44dd4:	dd400517 	ldw	r21,20(sp)
   44dd8:	dd000417 	ldw	r20,16(sp)
   44ddc:	dcc00317 	ldw	r19,12(sp)
   44de0:	dc800217 	ldw	r18,8(sp)
   44de4:	dc400117 	ldw	r17,4(sp)
   44de8:	dc000017 	ldw	r16,0(sp)
   44dec:	dec00904 	addi	sp,sp,36
   44df0:	f800283a 	ret
   44df4:	002f883a 	mov	r23,zero
   44df8:	003ff206 	br	44dc4 <__alt_data_end+0xfffe8a04>

00044dfc <_setlocale_r>:
   44dfc:	30001b26 	beq	r6,zero,44e6c <_setlocale_r+0x70>
   44e00:	01400174 	movhi	r5,5
   44e04:	defffe04 	addi	sp,sp,-8
   44e08:	297e5104 	addi	r5,r5,-1724
   44e0c:	3009883a 	mov	r4,r6
   44e10:	dc000015 	stw	r16,0(sp)
   44e14:	dfc00115 	stw	ra,4(sp)
   44e18:	3021883a 	mov	r16,r6
   44e1c:	0046eb00 	call	46eb0 <strcmp>
   44e20:	1000061e 	bne	r2,zero,44e3c <_setlocale_r+0x40>
   44e24:	00800174 	movhi	r2,5
   44e28:	10be5004 	addi	r2,r2,-1728
   44e2c:	dfc00117 	ldw	ra,4(sp)
   44e30:	dc000017 	ldw	r16,0(sp)
   44e34:	dec00204 	addi	sp,sp,8
   44e38:	f800283a 	ret
   44e3c:	01400174 	movhi	r5,5
   44e40:	297e5004 	addi	r5,r5,-1728
   44e44:	8009883a 	mov	r4,r16
   44e48:	0046eb00 	call	46eb0 <strcmp>
   44e4c:	103ff526 	beq	r2,zero,44e24 <__alt_data_end+0xfffe8a64>
   44e50:	01400174 	movhi	r5,5
   44e54:	297e3b04 	addi	r5,r5,-1812
   44e58:	8009883a 	mov	r4,r16
   44e5c:	0046eb00 	call	46eb0 <strcmp>
   44e60:	103ff026 	beq	r2,zero,44e24 <__alt_data_end+0xfffe8a64>
   44e64:	0005883a 	mov	r2,zero
   44e68:	003ff006 	br	44e2c <__alt_data_end+0xfffe8a6c>
   44e6c:	00800174 	movhi	r2,5
   44e70:	10be5004 	addi	r2,r2,-1728
   44e74:	f800283a 	ret

00044e78 <__locale_charset>:
   44e78:	00800174 	movhi	r2,5
   44e7c:	10804e04 	addi	r2,r2,312
   44e80:	f800283a 	ret

00044e84 <__locale_mb_cur_max>:
   44e84:	00800174 	movhi	r2,5
   44e88:	1085f004 	addi	r2,r2,6080
   44e8c:	10800017 	ldw	r2,0(r2)
   44e90:	f800283a 	ret

00044e94 <__locale_msgcharset>:
   44e94:	00800174 	movhi	r2,5
   44e98:	10804604 	addi	r2,r2,280
   44e9c:	f800283a 	ret

00044ea0 <__locale_cjk_lang>:
   44ea0:	0005883a 	mov	r2,zero
   44ea4:	f800283a 	ret

00044ea8 <_localeconv_r>:
   44ea8:	00800174 	movhi	r2,5
   44eac:	10805604 	addi	r2,r2,344
   44eb0:	f800283a 	ret

00044eb4 <setlocale>:
   44eb4:	00800174 	movhi	r2,5
   44eb8:	1085ef04 	addi	r2,r2,6076
   44ebc:	280d883a 	mov	r6,r5
   44ec0:	200b883a 	mov	r5,r4
   44ec4:	11000017 	ldw	r4,0(r2)
   44ec8:	0044dfc1 	jmpi	44dfc <_setlocale_r>

00044ecc <localeconv>:
   44ecc:	00800174 	movhi	r2,5
   44ed0:	10805604 	addi	r2,r2,344
   44ed4:	f800283a 	ret

00044ed8 <__smakebuf_r>:
   44ed8:	2880030b 	ldhu	r2,12(r5)
   44edc:	10c0008c 	andi	r3,r2,2
   44ee0:	1800411e 	bne	r3,zero,44fe8 <__smakebuf_r+0x110>
   44ee4:	deffec04 	addi	sp,sp,-80
   44ee8:	dc000f15 	stw	r16,60(sp)
   44eec:	2821883a 	mov	r16,r5
   44ef0:	2940038f 	ldh	r5,14(r5)
   44ef4:	dc401015 	stw	r17,64(sp)
   44ef8:	dfc01315 	stw	ra,76(sp)
   44efc:	dcc01215 	stw	r19,72(sp)
   44f00:	dc801115 	stw	r18,68(sp)
   44f04:	2023883a 	mov	r17,r4
   44f08:	28001c16 	blt	r5,zero,44f7c <__smakebuf_r+0xa4>
   44f0c:	d80d883a 	mov	r6,sp
   44f10:	0048bb80 	call	48bb8 <_fstat_r>
   44f14:	10001816 	blt	r2,zero,44f78 <__smakebuf_r+0xa0>
   44f18:	d8800117 	ldw	r2,4(sp)
   44f1c:	00e00014 	movui	r3,32768
   44f20:	10bc000c 	andi	r2,r2,61440
   44f24:	14c80020 	cmpeqi	r19,r2,8192
   44f28:	10c03726 	beq	r2,r3,45008 <__smakebuf_r+0x130>
   44f2c:	80c0030b 	ldhu	r3,12(r16)
   44f30:	18c20014 	ori	r3,r3,2048
   44f34:	80c0030d 	sth	r3,12(r16)
   44f38:	00c80004 	movi	r3,8192
   44f3c:	10c0521e 	bne	r2,r3,45088 <__smakebuf_r+0x1b0>
   44f40:	8140038f 	ldh	r5,14(r16)
   44f44:	8809883a 	mov	r4,r17
   44f48:	00490dc0 	call	490dc <_isatty_r>
   44f4c:	10004c26 	beq	r2,zero,45080 <__smakebuf_r+0x1a8>
   44f50:	8080030b 	ldhu	r2,12(r16)
   44f54:	80c010c4 	addi	r3,r16,67
   44f58:	80c00015 	stw	r3,0(r16)
   44f5c:	10800054 	ori	r2,r2,1
   44f60:	8080030d 	sth	r2,12(r16)
   44f64:	00800044 	movi	r2,1
   44f68:	80c00415 	stw	r3,16(r16)
   44f6c:	80800515 	stw	r2,20(r16)
   44f70:	04810004 	movi	r18,1024
   44f74:	00000706 	br	44f94 <__smakebuf_r+0xbc>
   44f78:	8080030b 	ldhu	r2,12(r16)
   44f7c:	10c0200c 	andi	r3,r2,128
   44f80:	18001f1e 	bne	r3,zero,45000 <__smakebuf_r+0x128>
   44f84:	04810004 	movi	r18,1024
   44f88:	10820014 	ori	r2,r2,2048
   44f8c:	8080030d 	sth	r2,12(r16)
   44f90:	0027883a 	mov	r19,zero
   44f94:	900b883a 	mov	r5,r18
   44f98:	8809883a 	mov	r4,r17
   44f9c:	00450940 	call	45094 <_malloc_r>
   44fa0:	10002c26 	beq	r2,zero,45054 <__smakebuf_r+0x17c>
   44fa4:	80c0030b 	ldhu	r3,12(r16)
   44fa8:	01000134 	movhi	r4,4
   44fac:	21112604 	addi	r4,r4,17560
   44fb0:	89000f15 	stw	r4,60(r17)
   44fb4:	18c02014 	ori	r3,r3,128
   44fb8:	80c0030d 	sth	r3,12(r16)
   44fbc:	80800015 	stw	r2,0(r16)
   44fc0:	80800415 	stw	r2,16(r16)
   44fc4:	84800515 	stw	r18,20(r16)
   44fc8:	98001a1e 	bne	r19,zero,45034 <__smakebuf_r+0x15c>
   44fcc:	dfc01317 	ldw	ra,76(sp)
   44fd0:	dcc01217 	ldw	r19,72(sp)
   44fd4:	dc801117 	ldw	r18,68(sp)
   44fd8:	dc401017 	ldw	r17,64(sp)
   44fdc:	dc000f17 	ldw	r16,60(sp)
   44fe0:	dec01404 	addi	sp,sp,80
   44fe4:	f800283a 	ret
   44fe8:	288010c4 	addi	r2,r5,67
   44fec:	28800015 	stw	r2,0(r5)
   44ff0:	28800415 	stw	r2,16(r5)
   44ff4:	00800044 	movi	r2,1
   44ff8:	28800515 	stw	r2,20(r5)
   44ffc:	f800283a 	ret
   45000:	04801004 	movi	r18,64
   45004:	003fe006 	br	44f88 <__alt_data_end+0xfffe8bc8>
   45008:	81000a17 	ldw	r4,40(r16)
   4500c:	00c00134 	movhi	r3,4
   45010:	18db9304 	addi	r3,r3,28236
   45014:	20ffc51e 	bne	r4,r3,44f2c <__alt_data_end+0xfffe8b6c>
   45018:	8080030b 	ldhu	r2,12(r16)
   4501c:	04810004 	movi	r18,1024
   45020:	84801315 	stw	r18,76(r16)
   45024:	1484b03a 	or	r2,r2,r18
   45028:	8080030d 	sth	r2,12(r16)
   4502c:	0027883a 	mov	r19,zero
   45030:	003fd806 	br	44f94 <__alt_data_end+0xfffe8bd4>
   45034:	8140038f 	ldh	r5,14(r16)
   45038:	8809883a 	mov	r4,r17
   4503c:	00490dc0 	call	490dc <_isatty_r>
   45040:	103fe226 	beq	r2,zero,44fcc <__alt_data_end+0xfffe8c0c>
   45044:	8080030b 	ldhu	r2,12(r16)
   45048:	10800054 	ori	r2,r2,1
   4504c:	8080030d 	sth	r2,12(r16)
   45050:	003fde06 	br	44fcc <__alt_data_end+0xfffe8c0c>
   45054:	8080030b 	ldhu	r2,12(r16)
   45058:	10c0800c 	andi	r3,r2,512
   4505c:	183fdb1e 	bne	r3,zero,44fcc <__alt_data_end+0xfffe8c0c>
   45060:	10800094 	ori	r2,r2,2
   45064:	80c010c4 	addi	r3,r16,67
   45068:	8080030d 	sth	r2,12(r16)
   4506c:	00800044 	movi	r2,1
   45070:	80c00015 	stw	r3,0(r16)
   45074:	80c00415 	stw	r3,16(r16)
   45078:	80800515 	stw	r2,20(r16)
   4507c:	003fd306 	br	44fcc <__alt_data_end+0xfffe8c0c>
   45080:	04810004 	movi	r18,1024
   45084:	003fc306 	br	44f94 <__alt_data_end+0xfffe8bd4>
   45088:	0027883a 	mov	r19,zero
   4508c:	04810004 	movi	r18,1024
   45090:	003fc006 	br	44f94 <__alt_data_end+0xfffe8bd4>

00045094 <_malloc_r>:
   45094:	defff504 	addi	sp,sp,-44
   45098:	dc800315 	stw	r18,12(sp)
   4509c:	dfc00a15 	stw	ra,40(sp)
   450a0:	df000915 	stw	fp,36(sp)
   450a4:	ddc00815 	stw	r23,32(sp)
   450a8:	dd800715 	stw	r22,28(sp)
   450ac:	dd400615 	stw	r21,24(sp)
   450b0:	dd000515 	stw	r20,20(sp)
   450b4:	dcc00415 	stw	r19,16(sp)
   450b8:	dc400215 	stw	r17,8(sp)
   450bc:	dc000115 	stw	r16,4(sp)
   450c0:	288002c4 	addi	r2,r5,11
   450c4:	00c00584 	movi	r3,22
   450c8:	2025883a 	mov	r18,r4
   450cc:	18807f2e 	bgeu	r3,r2,452cc <_malloc_r+0x238>
   450d0:	047ffe04 	movi	r17,-8
   450d4:	1462703a 	and	r17,r2,r17
   450d8:	8800a316 	blt	r17,zero,45368 <_malloc_r+0x2d4>
   450dc:	8940a236 	bltu	r17,r5,45368 <_malloc_r+0x2d4>
   450e0:	004d7cc0 	call	4d7cc <__malloc_lock>
   450e4:	00807dc4 	movi	r2,503
   450e8:	1441e92e 	bgeu	r2,r17,45890 <_malloc_r+0x7fc>
   450ec:	8804d27a 	srli	r2,r17,9
   450f0:	1000a126 	beq	r2,zero,45378 <_malloc_r+0x2e4>
   450f4:	00c00104 	movi	r3,4
   450f8:	18811e36 	bltu	r3,r2,45574 <_malloc_r+0x4e0>
   450fc:	8804d1ba 	srli	r2,r17,6
   45100:	12000e44 	addi	r8,r2,57
   45104:	11c00e04 	addi	r7,r2,56
   45108:	4209883a 	add	r4,r8,r8
   4510c:	04c00174 	movhi	r19,5
   45110:	2109883a 	add	r4,r4,r4
   45114:	9cc06404 	addi	r19,r19,400
   45118:	2109883a 	add	r4,r4,r4
   4511c:	9909883a 	add	r4,r19,r4
   45120:	24000117 	ldw	r16,4(r4)
   45124:	213ffe04 	addi	r4,r4,-8
   45128:	24009726 	beq	r4,r16,45388 <_malloc_r+0x2f4>
   4512c:	80800117 	ldw	r2,4(r16)
   45130:	01bfff04 	movi	r6,-4
   45134:	014003c4 	movi	r5,15
   45138:	1184703a 	and	r2,r2,r6
   4513c:	1447c83a 	sub	r3,r2,r17
   45140:	28c00716 	blt	r5,r3,45160 <_malloc_r+0xcc>
   45144:	1800920e 	bge	r3,zero,45390 <_malloc_r+0x2fc>
   45148:	84000317 	ldw	r16,12(r16)
   4514c:	24008e26 	beq	r4,r16,45388 <_malloc_r+0x2f4>
   45150:	80800117 	ldw	r2,4(r16)
   45154:	1184703a 	and	r2,r2,r6
   45158:	1447c83a 	sub	r3,r2,r17
   4515c:	28fff90e 	bge	r5,r3,45144 <__alt_data_end+0xfffe8d84>
   45160:	3809883a 	mov	r4,r7
   45164:	01800174 	movhi	r6,5
   45168:	9c000417 	ldw	r16,16(r19)
   4516c:	31806404 	addi	r6,r6,400
   45170:	32000204 	addi	r8,r6,8
   45174:	82013426 	beq	r16,r8,45648 <_malloc_r+0x5b4>
   45178:	80c00117 	ldw	r3,4(r16)
   4517c:	00bfff04 	movi	r2,-4
   45180:	188e703a 	and	r7,r3,r2
   45184:	3c45c83a 	sub	r2,r7,r17
   45188:	00c003c4 	movi	r3,15
   4518c:	18811f16 	blt	r3,r2,4560c <_malloc_r+0x578>
   45190:	32000515 	stw	r8,20(r6)
   45194:	32000415 	stw	r8,16(r6)
   45198:	10007f0e 	bge	r2,zero,45398 <_malloc_r+0x304>
   4519c:	00807fc4 	movi	r2,511
   451a0:	11c0fd36 	bltu	r2,r7,45598 <_malloc_r+0x504>
   451a4:	3806d0fa 	srli	r3,r7,3
   451a8:	01c00044 	movi	r7,1
   451ac:	30800117 	ldw	r2,4(r6)
   451b0:	19400044 	addi	r5,r3,1
   451b4:	294b883a 	add	r5,r5,r5
   451b8:	1807d0ba 	srai	r3,r3,2
   451bc:	294b883a 	add	r5,r5,r5
   451c0:	294b883a 	add	r5,r5,r5
   451c4:	298b883a 	add	r5,r5,r6
   451c8:	38c6983a 	sll	r3,r7,r3
   451cc:	29c00017 	ldw	r7,0(r5)
   451d0:	2a7ffe04 	addi	r9,r5,-8
   451d4:	1886b03a 	or	r3,r3,r2
   451d8:	82400315 	stw	r9,12(r16)
   451dc:	81c00215 	stw	r7,8(r16)
   451e0:	30c00115 	stw	r3,4(r6)
   451e4:	2c000015 	stw	r16,0(r5)
   451e8:	3c000315 	stw	r16,12(r7)
   451ec:	2005d0ba 	srai	r2,r4,2
   451f0:	01400044 	movi	r5,1
   451f4:	288a983a 	sll	r5,r5,r2
   451f8:	19406f36 	bltu	r3,r5,453b8 <_malloc_r+0x324>
   451fc:	28c4703a 	and	r2,r5,r3
   45200:	10000a1e 	bne	r2,zero,4522c <_malloc_r+0x198>
   45204:	00bfff04 	movi	r2,-4
   45208:	294b883a 	add	r5,r5,r5
   4520c:	2088703a 	and	r4,r4,r2
   45210:	28c4703a 	and	r2,r5,r3
   45214:	21000104 	addi	r4,r4,4
   45218:	1000041e 	bne	r2,zero,4522c <_malloc_r+0x198>
   4521c:	294b883a 	add	r5,r5,r5
   45220:	28c4703a 	and	r2,r5,r3
   45224:	21000104 	addi	r4,r4,4
   45228:	103ffc26 	beq	r2,zero,4521c <__alt_data_end+0xfffe8e5c>
   4522c:	02bfff04 	movi	r10,-4
   45230:	024003c4 	movi	r9,15
   45234:	21800044 	addi	r6,r4,1
   45238:	318d883a 	add	r6,r6,r6
   4523c:	318d883a 	add	r6,r6,r6
   45240:	318d883a 	add	r6,r6,r6
   45244:	998d883a 	add	r6,r19,r6
   45248:	333ffe04 	addi	r12,r6,-8
   4524c:	2017883a 	mov	r11,r4
   45250:	31800104 	addi	r6,r6,4
   45254:	34000017 	ldw	r16,0(r6)
   45258:	31fffd04 	addi	r7,r6,-12
   4525c:	81c0041e 	bne	r16,r7,45270 <_malloc_r+0x1dc>
   45260:	0000fb06 	br	45650 <_malloc_r+0x5bc>
   45264:	1801030e 	bge	r3,zero,45674 <_malloc_r+0x5e0>
   45268:	84000317 	ldw	r16,12(r16)
   4526c:	81c0f826 	beq	r16,r7,45650 <_malloc_r+0x5bc>
   45270:	80800117 	ldw	r2,4(r16)
   45274:	1284703a 	and	r2,r2,r10
   45278:	1447c83a 	sub	r3,r2,r17
   4527c:	48fff90e 	bge	r9,r3,45264 <__alt_data_end+0xfffe8ea4>
   45280:	80800317 	ldw	r2,12(r16)
   45284:	81000217 	ldw	r4,8(r16)
   45288:	89400054 	ori	r5,r17,1
   4528c:	81400115 	stw	r5,4(r16)
   45290:	20800315 	stw	r2,12(r4)
   45294:	11000215 	stw	r4,8(r2)
   45298:	8463883a 	add	r17,r16,r17
   4529c:	9c400515 	stw	r17,20(r19)
   452a0:	9c400415 	stw	r17,16(r19)
   452a4:	18800054 	ori	r2,r3,1
   452a8:	88800115 	stw	r2,4(r17)
   452ac:	8a000315 	stw	r8,12(r17)
   452b0:	8a000215 	stw	r8,8(r17)
   452b4:	88e3883a 	add	r17,r17,r3
   452b8:	88c00015 	stw	r3,0(r17)
   452bc:	9009883a 	mov	r4,r18
   452c0:	004d7f00 	call	4d7f0 <__malloc_unlock>
   452c4:	80800204 	addi	r2,r16,8
   452c8:	00001b06 	br	45338 <_malloc_r+0x2a4>
   452cc:	04400404 	movi	r17,16
   452d0:	89402536 	bltu	r17,r5,45368 <_malloc_r+0x2d4>
   452d4:	004d7cc0 	call	4d7cc <__malloc_lock>
   452d8:	00800184 	movi	r2,6
   452dc:	01000084 	movi	r4,2
   452e0:	04c00174 	movhi	r19,5
   452e4:	1085883a 	add	r2,r2,r2
   452e8:	9cc06404 	addi	r19,r19,400
   452ec:	1085883a 	add	r2,r2,r2
   452f0:	9885883a 	add	r2,r19,r2
   452f4:	14000117 	ldw	r16,4(r2)
   452f8:	10fffe04 	addi	r3,r2,-8
   452fc:	80c0d926 	beq	r16,r3,45664 <_malloc_r+0x5d0>
   45300:	80c00117 	ldw	r3,4(r16)
   45304:	81000317 	ldw	r4,12(r16)
   45308:	00bfff04 	movi	r2,-4
   4530c:	1884703a 	and	r2,r3,r2
   45310:	81400217 	ldw	r5,8(r16)
   45314:	8085883a 	add	r2,r16,r2
   45318:	10c00117 	ldw	r3,4(r2)
   4531c:	29000315 	stw	r4,12(r5)
   45320:	21400215 	stw	r5,8(r4)
   45324:	18c00054 	ori	r3,r3,1
   45328:	10c00115 	stw	r3,4(r2)
   4532c:	9009883a 	mov	r4,r18
   45330:	004d7f00 	call	4d7f0 <__malloc_unlock>
   45334:	80800204 	addi	r2,r16,8
   45338:	dfc00a17 	ldw	ra,40(sp)
   4533c:	df000917 	ldw	fp,36(sp)
   45340:	ddc00817 	ldw	r23,32(sp)
   45344:	dd800717 	ldw	r22,28(sp)
   45348:	dd400617 	ldw	r21,24(sp)
   4534c:	dd000517 	ldw	r20,20(sp)
   45350:	dcc00417 	ldw	r19,16(sp)
   45354:	dc800317 	ldw	r18,12(sp)
   45358:	dc400217 	ldw	r17,8(sp)
   4535c:	dc000117 	ldw	r16,4(sp)
   45360:	dec00b04 	addi	sp,sp,44
   45364:	f800283a 	ret
   45368:	00800304 	movi	r2,12
   4536c:	90800015 	stw	r2,0(r18)
   45370:	0005883a 	mov	r2,zero
   45374:	003ff006 	br	45338 <__alt_data_end+0xfffe8f78>
   45378:	01002004 	movi	r4,128
   4537c:	02001004 	movi	r8,64
   45380:	01c00fc4 	movi	r7,63
   45384:	003f6106 	br	4510c <__alt_data_end+0xfffe8d4c>
   45388:	4009883a 	mov	r4,r8
   4538c:	003f7506 	br	45164 <__alt_data_end+0xfffe8da4>
   45390:	81000317 	ldw	r4,12(r16)
   45394:	003fde06 	br	45310 <__alt_data_end+0xfffe8f50>
   45398:	81c5883a 	add	r2,r16,r7
   4539c:	11400117 	ldw	r5,4(r2)
   453a0:	9009883a 	mov	r4,r18
   453a4:	29400054 	ori	r5,r5,1
   453a8:	11400115 	stw	r5,4(r2)
   453ac:	004d7f00 	call	4d7f0 <__malloc_unlock>
   453b0:	80800204 	addi	r2,r16,8
   453b4:	003fe006 	br	45338 <__alt_data_end+0xfffe8f78>
   453b8:	9c000217 	ldw	r16,8(r19)
   453bc:	00bfff04 	movi	r2,-4
   453c0:	85800117 	ldw	r22,4(r16)
   453c4:	b0ac703a 	and	r22,r22,r2
   453c8:	b4400336 	bltu	r22,r17,453d8 <_malloc_r+0x344>
   453cc:	b445c83a 	sub	r2,r22,r17
   453d0:	00c003c4 	movi	r3,15
   453d4:	18805d16 	blt	r3,r2,4554c <_malloc_r+0x4b8>
   453d8:	05c00174 	movhi	r23,5
   453dc:	00800174 	movhi	r2,5
   453e0:	108d1204 	addi	r2,r2,13384
   453e4:	bdc5f104 	addi	r23,r23,6084
   453e8:	15400017 	ldw	r21,0(r2)
   453ec:	b8c00017 	ldw	r3,0(r23)
   453f0:	00bfffc4 	movi	r2,-1
   453f4:	858d883a 	add	r6,r16,r22
   453f8:	8d6b883a 	add	r21,r17,r21
   453fc:	1880ea26 	beq	r3,r2,457a8 <_malloc_r+0x714>
   45400:	ad4403c4 	addi	r21,r21,4111
   45404:	00bc0004 	movi	r2,-4096
   45408:	a8aa703a 	and	r21,r21,r2
   4540c:	a80b883a 	mov	r5,r21
   45410:	9009883a 	mov	r4,r18
   45414:	d9800015 	stw	r6,0(sp)
   45418:	0046d200 	call	46d20 <_sbrk_r>
   4541c:	1029883a 	mov	r20,r2
   45420:	00bfffc4 	movi	r2,-1
   45424:	d9800017 	ldw	r6,0(sp)
   45428:	a080e826 	beq	r20,r2,457cc <_malloc_r+0x738>
   4542c:	a180a636 	bltu	r20,r6,456c8 <_malloc_r+0x634>
   45430:	07000174 	movhi	fp,5
   45434:	e70d1b04 	addi	fp,fp,13420
   45438:	e0800017 	ldw	r2,0(fp)
   4543c:	a887883a 	add	r3,r21,r2
   45440:	e0c00015 	stw	r3,0(fp)
   45444:	3500e626 	beq	r6,r20,457e0 <_malloc_r+0x74c>
   45448:	b9000017 	ldw	r4,0(r23)
   4544c:	00bfffc4 	movi	r2,-1
   45450:	2080ee26 	beq	r4,r2,4580c <_malloc_r+0x778>
   45454:	a185c83a 	sub	r2,r20,r6
   45458:	10c5883a 	add	r2,r2,r3
   4545c:	e0800015 	stw	r2,0(fp)
   45460:	a0c001cc 	andi	r3,r20,7
   45464:	1800bc26 	beq	r3,zero,45758 <_malloc_r+0x6c4>
   45468:	a0e9c83a 	sub	r20,r20,r3
   4546c:	00840204 	movi	r2,4104
   45470:	a5000204 	addi	r20,r20,8
   45474:	10c7c83a 	sub	r3,r2,r3
   45478:	a545883a 	add	r2,r20,r21
   4547c:	1083ffcc 	andi	r2,r2,4095
   45480:	18abc83a 	sub	r21,r3,r2
   45484:	a80b883a 	mov	r5,r21
   45488:	9009883a 	mov	r4,r18
   4548c:	0046d200 	call	46d20 <_sbrk_r>
   45490:	00ffffc4 	movi	r3,-1
   45494:	10c0e126 	beq	r2,r3,4581c <_malloc_r+0x788>
   45498:	1505c83a 	sub	r2,r2,r20
   4549c:	1545883a 	add	r2,r2,r21
   454a0:	10800054 	ori	r2,r2,1
   454a4:	e0c00017 	ldw	r3,0(fp)
   454a8:	9d000215 	stw	r20,8(r19)
   454ac:	a0800115 	stw	r2,4(r20)
   454b0:	a8c7883a 	add	r3,r21,r3
   454b4:	e0c00015 	stw	r3,0(fp)
   454b8:	84c00e26 	beq	r16,r19,454f4 <_malloc_r+0x460>
   454bc:	018003c4 	movi	r6,15
   454c0:	3580a72e 	bgeu	r6,r22,45760 <_malloc_r+0x6cc>
   454c4:	81400117 	ldw	r5,4(r16)
   454c8:	013ffe04 	movi	r4,-8
   454cc:	b0bffd04 	addi	r2,r22,-12
   454d0:	1104703a 	and	r2,r2,r4
   454d4:	2900004c 	andi	r4,r5,1
   454d8:	2088b03a 	or	r4,r4,r2
   454dc:	81000115 	stw	r4,4(r16)
   454e0:	01400144 	movi	r5,5
   454e4:	8089883a 	add	r4,r16,r2
   454e8:	21400115 	stw	r5,4(r4)
   454ec:	21400215 	stw	r5,8(r4)
   454f0:	3080cd36 	bltu	r6,r2,45828 <_malloc_r+0x794>
   454f4:	00800174 	movhi	r2,5
   454f8:	108d1104 	addi	r2,r2,13380
   454fc:	11000017 	ldw	r4,0(r2)
   45500:	20c0012e 	bgeu	r4,r3,45508 <_malloc_r+0x474>
   45504:	10c00015 	stw	r3,0(r2)
   45508:	00800174 	movhi	r2,5
   4550c:	108d1004 	addi	r2,r2,13376
   45510:	11000017 	ldw	r4,0(r2)
   45514:	9c000217 	ldw	r16,8(r19)
   45518:	20c0012e 	bgeu	r4,r3,45520 <_malloc_r+0x48c>
   4551c:	10c00015 	stw	r3,0(r2)
   45520:	80c00117 	ldw	r3,4(r16)
   45524:	00bfff04 	movi	r2,-4
   45528:	1886703a 	and	r3,r3,r2
   4552c:	1c45c83a 	sub	r2,r3,r17
   45530:	1c400236 	bltu	r3,r17,4553c <_malloc_r+0x4a8>
   45534:	00c003c4 	movi	r3,15
   45538:	18800416 	blt	r3,r2,4554c <_malloc_r+0x4b8>
   4553c:	9009883a 	mov	r4,r18
   45540:	004d7f00 	call	4d7f0 <__malloc_unlock>
   45544:	0005883a 	mov	r2,zero
   45548:	003f7b06 	br	45338 <__alt_data_end+0xfffe8f78>
   4554c:	88c00054 	ori	r3,r17,1
   45550:	80c00115 	stw	r3,4(r16)
   45554:	8463883a 	add	r17,r16,r17
   45558:	10800054 	ori	r2,r2,1
   4555c:	9c400215 	stw	r17,8(r19)
   45560:	88800115 	stw	r2,4(r17)
   45564:	9009883a 	mov	r4,r18
   45568:	004d7f00 	call	4d7f0 <__malloc_unlock>
   4556c:	80800204 	addi	r2,r16,8
   45570:	003f7106 	br	45338 <__alt_data_end+0xfffe8f78>
   45574:	00c00504 	movi	r3,20
   45578:	18804a2e 	bgeu	r3,r2,456a4 <_malloc_r+0x610>
   4557c:	00c01504 	movi	r3,84
   45580:	18806e36 	bltu	r3,r2,4573c <_malloc_r+0x6a8>
   45584:	8804d33a 	srli	r2,r17,12
   45588:	12001bc4 	addi	r8,r2,111
   4558c:	11c01b84 	addi	r7,r2,110
   45590:	4209883a 	add	r4,r8,r8
   45594:	003edd06 	br	4510c <__alt_data_end+0xfffe8d4c>
   45598:	3804d27a 	srli	r2,r7,9
   4559c:	00c00104 	movi	r3,4
   455a0:	1880442e 	bgeu	r3,r2,456b4 <_malloc_r+0x620>
   455a4:	00c00504 	movi	r3,20
   455a8:	18808136 	bltu	r3,r2,457b0 <_malloc_r+0x71c>
   455ac:	11401704 	addi	r5,r2,92
   455b0:	10c016c4 	addi	r3,r2,91
   455b4:	294b883a 	add	r5,r5,r5
   455b8:	294b883a 	add	r5,r5,r5
   455bc:	294b883a 	add	r5,r5,r5
   455c0:	994b883a 	add	r5,r19,r5
   455c4:	28800017 	ldw	r2,0(r5)
   455c8:	01800174 	movhi	r6,5
   455cc:	297ffe04 	addi	r5,r5,-8
   455d0:	31806404 	addi	r6,r6,400
   455d4:	28806526 	beq	r5,r2,4576c <_malloc_r+0x6d8>
   455d8:	01bfff04 	movi	r6,-4
   455dc:	10c00117 	ldw	r3,4(r2)
   455e0:	1986703a 	and	r3,r3,r6
   455e4:	38c0022e 	bgeu	r7,r3,455f0 <_malloc_r+0x55c>
   455e8:	10800217 	ldw	r2,8(r2)
   455ec:	28bffb1e 	bne	r5,r2,455dc <__alt_data_end+0xfffe921c>
   455f0:	11400317 	ldw	r5,12(r2)
   455f4:	98c00117 	ldw	r3,4(r19)
   455f8:	81400315 	stw	r5,12(r16)
   455fc:	80800215 	stw	r2,8(r16)
   45600:	2c000215 	stw	r16,8(r5)
   45604:	14000315 	stw	r16,12(r2)
   45608:	003ef806 	br	451ec <__alt_data_end+0xfffe8e2c>
   4560c:	88c00054 	ori	r3,r17,1
   45610:	80c00115 	stw	r3,4(r16)
   45614:	8463883a 	add	r17,r16,r17
   45618:	34400515 	stw	r17,20(r6)
   4561c:	34400415 	stw	r17,16(r6)
   45620:	10c00054 	ori	r3,r2,1
   45624:	8a000315 	stw	r8,12(r17)
   45628:	8a000215 	stw	r8,8(r17)
   4562c:	88c00115 	stw	r3,4(r17)
   45630:	88a3883a 	add	r17,r17,r2
   45634:	88800015 	stw	r2,0(r17)
   45638:	9009883a 	mov	r4,r18
   4563c:	004d7f00 	call	4d7f0 <__malloc_unlock>
   45640:	80800204 	addi	r2,r16,8
   45644:	003f3c06 	br	45338 <__alt_data_end+0xfffe8f78>
   45648:	30c00117 	ldw	r3,4(r6)
   4564c:	003ee706 	br	451ec <__alt_data_end+0xfffe8e2c>
   45650:	5ac00044 	addi	r11,r11,1
   45654:	588000cc 	andi	r2,r11,3
   45658:	31800204 	addi	r6,r6,8
   4565c:	103efd1e 	bne	r2,zero,45254 <__alt_data_end+0xfffe8e94>
   45660:	00002406 	br	456f4 <_malloc_r+0x660>
   45664:	14000317 	ldw	r16,12(r2)
   45668:	143f251e 	bne	r2,r16,45300 <__alt_data_end+0xfffe8f40>
   4566c:	21000084 	addi	r4,r4,2
   45670:	003ebc06 	br	45164 <__alt_data_end+0xfffe8da4>
   45674:	8085883a 	add	r2,r16,r2
   45678:	10c00117 	ldw	r3,4(r2)
   4567c:	81000317 	ldw	r4,12(r16)
   45680:	81400217 	ldw	r5,8(r16)
   45684:	18c00054 	ori	r3,r3,1
   45688:	10c00115 	stw	r3,4(r2)
   4568c:	29000315 	stw	r4,12(r5)
   45690:	21400215 	stw	r5,8(r4)
   45694:	9009883a 	mov	r4,r18
   45698:	004d7f00 	call	4d7f0 <__malloc_unlock>
   4569c:	80800204 	addi	r2,r16,8
   456a0:	003f2506 	br	45338 <__alt_data_end+0xfffe8f78>
   456a4:	12001704 	addi	r8,r2,92
   456a8:	11c016c4 	addi	r7,r2,91
   456ac:	4209883a 	add	r4,r8,r8
   456b0:	003e9606 	br	4510c <__alt_data_end+0xfffe8d4c>
   456b4:	3804d1ba 	srli	r2,r7,6
   456b8:	11400e44 	addi	r5,r2,57
   456bc:	10c00e04 	addi	r3,r2,56
   456c0:	294b883a 	add	r5,r5,r5
   456c4:	003fbc06 	br	455b8 <__alt_data_end+0xfffe91f8>
   456c8:	84ff5926 	beq	r16,r19,45430 <__alt_data_end+0xfffe9070>
   456cc:	00800174 	movhi	r2,5
   456d0:	10806404 	addi	r2,r2,400
   456d4:	14000217 	ldw	r16,8(r2)
   456d8:	00bfff04 	movi	r2,-4
   456dc:	80c00117 	ldw	r3,4(r16)
   456e0:	1886703a 	and	r3,r3,r2
   456e4:	003f9106 	br	4552c <__alt_data_end+0xfffe916c>
   456e8:	60800217 	ldw	r2,8(r12)
   456ec:	213fffc4 	addi	r4,r4,-1
   456f0:	1300651e 	bne	r2,r12,45888 <_malloc_r+0x7f4>
   456f4:	208000cc 	andi	r2,r4,3
   456f8:	633ffe04 	addi	r12,r12,-8
   456fc:	103ffa1e 	bne	r2,zero,456e8 <__alt_data_end+0xfffe9328>
   45700:	98800117 	ldw	r2,4(r19)
   45704:	0146303a 	nor	r3,zero,r5
   45708:	1884703a 	and	r2,r3,r2
   4570c:	98800115 	stw	r2,4(r19)
   45710:	294b883a 	add	r5,r5,r5
   45714:	117f2836 	bltu	r2,r5,453b8 <__alt_data_end+0xfffe8ff8>
   45718:	283f2726 	beq	r5,zero,453b8 <__alt_data_end+0xfffe8ff8>
   4571c:	2886703a 	and	r3,r5,r2
   45720:	5809883a 	mov	r4,r11
   45724:	183ec31e 	bne	r3,zero,45234 <__alt_data_end+0xfffe8e74>
   45728:	294b883a 	add	r5,r5,r5
   4572c:	2886703a 	and	r3,r5,r2
   45730:	21000104 	addi	r4,r4,4
   45734:	183ffc26 	beq	r3,zero,45728 <__alt_data_end+0xfffe9368>
   45738:	003ebe06 	br	45234 <__alt_data_end+0xfffe8e74>
   4573c:	00c05504 	movi	r3,340
   45740:	18801236 	bltu	r3,r2,4578c <_malloc_r+0x6f8>
   45744:	8804d3fa 	srli	r2,r17,15
   45748:	12001e04 	addi	r8,r2,120
   4574c:	11c01dc4 	addi	r7,r2,119
   45750:	4209883a 	add	r4,r8,r8
   45754:	003e6d06 	br	4510c <__alt_data_end+0xfffe8d4c>
   45758:	00c40004 	movi	r3,4096
   4575c:	003f4606 	br	45478 <__alt_data_end+0xfffe90b8>
   45760:	00800044 	movi	r2,1
   45764:	a0800115 	stw	r2,4(r20)
   45768:	003f7406 	br	4553c <__alt_data_end+0xfffe917c>
   4576c:	1805d0ba 	srai	r2,r3,2
   45770:	01c00044 	movi	r7,1
   45774:	30c00117 	ldw	r3,4(r6)
   45778:	388e983a 	sll	r7,r7,r2
   4577c:	2805883a 	mov	r2,r5
   45780:	38c6b03a 	or	r3,r7,r3
   45784:	30c00115 	stw	r3,4(r6)
   45788:	003f9b06 	br	455f8 <__alt_data_end+0xfffe9238>
   4578c:	00c15504 	movi	r3,1364
   45790:	18801a36 	bltu	r3,r2,457fc <_malloc_r+0x768>
   45794:	8804d4ba 	srli	r2,r17,18
   45798:	12001f44 	addi	r8,r2,125
   4579c:	11c01f04 	addi	r7,r2,124
   457a0:	4209883a 	add	r4,r8,r8
   457a4:	003e5906 	br	4510c <__alt_data_end+0xfffe8d4c>
   457a8:	ad400404 	addi	r21,r21,16
   457ac:	003f1706 	br	4540c <__alt_data_end+0xfffe904c>
   457b0:	00c01504 	movi	r3,84
   457b4:	18802336 	bltu	r3,r2,45844 <_malloc_r+0x7b0>
   457b8:	3804d33a 	srli	r2,r7,12
   457bc:	11401bc4 	addi	r5,r2,111
   457c0:	10c01b84 	addi	r3,r2,110
   457c4:	294b883a 	add	r5,r5,r5
   457c8:	003f7b06 	br	455b8 <__alt_data_end+0xfffe91f8>
   457cc:	9c000217 	ldw	r16,8(r19)
   457d0:	00bfff04 	movi	r2,-4
   457d4:	80c00117 	ldw	r3,4(r16)
   457d8:	1886703a 	and	r3,r3,r2
   457dc:	003f5306 	br	4552c <__alt_data_end+0xfffe916c>
   457e0:	3083ffcc 	andi	r2,r6,4095
   457e4:	103f181e 	bne	r2,zero,45448 <__alt_data_end+0xfffe9088>
   457e8:	99000217 	ldw	r4,8(r19)
   457ec:	b545883a 	add	r2,r22,r21
   457f0:	10800054 	ori	r2,r2,1
   457f4:	20800115 	stw	r2,4(r4)
   457f8:	003f3e06 	br	454f4 <__alt_data_end+0xfffe9134>
   457fc:	01003f84 	movi	r4,254
   45800:	02001fc4 	movi	r8,127
   45804:	01c01f84 	movi	r7,126
   45808:	003e4006 	br	4510c <__alt_data_end+0xfffe8d4c>
   4580c:	00800174 	movhi	r2,5
   45810:	1085f104 	addi	r2,r2,6084
   45814:	15000015 	stw	r20,0(r2)
   45818:	003f1106 	br	45460 <__alt_data_end+0xfffe90a0>
   4581c:	00800044 	movi	r2,1
   45820:	002b883a 	mov	r21,zero
   45824:	003f1f06 	br	454a4 <__alt_data_end+0xfffe90e4>
   45828:	81400204 	addi	r5,r16,8
   4582c:	9009883a 	mov	r4,r18
   45830:	00449640 	call	44964 <_free_r>
   45834:	00800174 	movhi	r2,5
   45838:	108d1b04 	addi	r2,r2,13420
   4583c:	10c00017 	ldw	r3,0(r2)
   45840:	003f2c06 	br	454f4 <__alt_data_end+0xfffe9134>
   45844:	00c05504 	movi	r3,340
   45848:	18800536 	bltu	r3,r2,45860 <_malloc_r+0x7cc>
   4584c:	3804d3fa 	srli	r2,r7,15
   45850:	11401e04 	addi	r5,r2,120
   45854:	10c01dc4 	addi	r3,r2,119
   45858:	294b883a 	add	r5,r5,r5
   4585c:	003f5606 	br	455b8 <__alt_data_end+0xfffe91f8>
   45860:	00c15504 	movi	r3,1364
   45864:	18800536 	bltu	r3,r2,4587c <_malloc_r+0x7e8>
   45868:	3804d4ba 	srli	r2,r7,18
   4586c:	11401f44 	addi	r5,r2,125
   45870:	10c01f04 	addi	r3,r2,124
   45874:	294b883a 	add	r5,r5,r5
   45878:	003f4f06 	br	455b8 <__alt_data_end+0xfffe91f8>
   4587c:	01403f84 	movi	r5,254
   45880:	00c01f84 	movi	r3,126
   45884:	003f4c06 	br	455b8 <__alt_data_end+0xfffe91f8>
   45888:	98800117 	ldw	r2,4(r19)
   4588c:	003fa006 	br	45710 <__alt_data_end+0xfffe9350>
   45890:	8808d0fa 	srli	r4,r17,3
   45894:	20800044 	addi	r2,r4,1
