
SoftwareRansac.elf:     file format elf32-littlenios2
SoftwareRansac.elf
architecture: nios2:r1, flags 0x00000112:
EXEC_P, HAS_SYMS, D_PAGED
start address 0x00040230

Program Header:
    LOAD off    0x00001000 vaddr 0x00040000 paddr 0x00040000 align 2**12
         filesz 0x00000020 memsz 0x00000020 flags r-x
    LOAD off    0x00001020 vaddr 0x00040020 paddr 0x00040020 align 2**12
         filesz 0x00014fd4 memsz 0x00014fd4 flags r-x
    LOAD off    0x00015ff4 vaddr 0x00054ff4 paddr 0x000570d0 align 2**12
         filesz 0x000020dc memsz 0x000020dc flags rw-
    LOAD off    0x000181ac vaddr 0x000591ac paddr 0x000591ac align 2**12
         filesz 0x00000000 memsz 0x00000170 flags rw-

Sections:
Idx Name          Size      VMA       LMA       File off  Algn
  0 .entry        00000020  00040000  00040000  00001000  2**5
                  CONTENTS, ALLOC, LOAD, READONLY, CODE
  1 .exceptions   00000210  00040020  00040020  00001020  2**2
                  CONTENTS, ALLOC, LOAD, READONLY, CODE
  2 .text         00014940  00040230  00040230  00001230  2**2
                  CONTENTS, ALLOC, LOAD, READONLY, CODE
  3 .rodata       00000484  00054b70  00054b70  00015b70  2**2
                  CONTENTS, ALLOC, LOAD, READONLY, DATA
  4 .rwdata       000020dc  00054ff4  000570d0  00015ff4  2**2
                  CONTENTS, ALLOC, LOAD, DATA, SMALL_DATA
  5 .bss          00000170  000591ac  000591ac  000181ac  2**2
                  ALLOC, SMALL_DATA
  6 .MemoriaDados 00000000  00000000  00000000  000180d0  2**0
                  CONTENTS
  7 .MemoriaPrograma 00000000  0005931c  0005931c  000180d0  2**0
                  CONTENTS
  8 .comment      00000023  00000000  00000000  000180d0  2**0
                  CONTENTS, READONLY
  9 .debug_aranges 00000fb0  00000000  00000000  000180f8  2**3
                  CONTENTS, READONLY, DEBUGGING
 10 .debug_info   00022476  00000000  00000000  000190a8  2**0
                  CONTENTS, READONLY, DEBUGGING
 11 .debug_abbrev 000088be  00000000  00000000  0003b51e  2**0
                  CONTENTS, READONLY, DEBUGGING
 12 .debug_line   0000ab4d  00000000  00000000  00043ddc  2**0
                  CONTENTS, READONLY, DEBUGGING
 13 .debug_frame  0000264c  00000000  00000000  0004e92c  2**2
                  CONTENTS, READONLY, DEBUGGING
 14 .debug_str    000040ba  00000000  00000000  00050f78  2**0
                  CONTENTS, READONLY, DEBUGGING
 15 .debug_loc    00008f90  00000000  00000000  00055032  2**0
                  CONTENTS, READONLY, DEBUGGING
 16 .debug_alt_sim_info 00000010  00000000  00000000  0005dfc4  2**2
                  CONTENTS, READONLY, DEBUGGING
 17 .debug_ranges 000013f8  00000000  00000000  0005dfd8  2**3
                  CONTENTS, READONLY, DEBUGGING
 18 .thread_model 00000003  00000000  00000000  000627d6  2**0
                  CONTENTS, READONLY
 19 .cpu          0000000b  00000000  00000000  000627d9  2**0
                  CONTENTS, READONLY
 20 .qsys         00000001  00000000  00000000  000627e4  2**0
                  CONTENTS, READONLY
 21 .simulation_enabled 00000001  00000000  00000000  000627e5  2**0
                  CONTENTS, READONLY
 22 .stderr_dev   00000009  00000000  00000000  000627e6  2**0
                  CONTENTS, READONLY
 23 .stdin_dev    00000009  00000000  00000000  000627ef  2**0
                  CONTENTS, READONLY
 24 .stdout_dev   00000009  00000000  00000000  000627f8  2**0
                  CONTENTS, READONLY
 25 .sopc_system_name 00000010  00000000  00000000  00062801  2**0
                  CONTENTS, READONLY
 26 .quartus_project_dir 0000001f  00000000  00000000  00062811  2**0
                  CONTENTS, READONLY
 27 .jdi          0000561e  00000000  00000000  00062830  2**0
                  CONTENTS, READONLY
 28 .sopcinfo     0003a273  00000000  00000000  00067e4e  2**0
                  CONTENTS, READONLY
SYMBOL TABLE:
00040000 l    d  .entry	00000000 .entry
00040020 l    d  .exceptions	00000000 .exceptions
00040230 l    d  .text	00000000 .text
00054b70 l    d  .rodata	00000000 .rodata
00054ff4 l    d  .rwdata	00000000 .rwdata
000591ac l    d  .bss	00000000 .bss
00000000 l    d  .MemoriaDados	00000000 .MemoriaDados
0005931c l    d  .MemoriaPrograma	00000000 .MemoriaPrograma
00000000 l    d  .comment	00000000 .comment
00000000 l    d  .debug_aranges	00000000 .debug_aranges
00000000 l    d  .debug_info	00000000 .debug_info
00000000 l    d  .debug_abbrev	00000000 .debug_abbrev
00000000 l    d  .debug_line	00000000 .debug_line
00000000 l    d  .debug_frame	00000000 .debug_frame
00000000 l    d  .debug_str	00000000 .debug_str
00000000 l    d  .debug_loc	00000000 .debug_loc
00000000 l    d  .debug_alt_sim_info	00000000 .debug_alt_sim_info
00000000 l    d  .debug_ranges	00000000 .debug_ranges
00000000 l    df *ABS*	00000000 ../SoftwareRansac_bsp//obj/HAL/src/crt0.o
00040268 l       .text	00000000 alt_after_alt_main
00000000 l    df *ABS*	00000000 alt_irq_handler.c
00000000 l    df *ABS*	00000000 alt_instruction_exception_entry.c
00000000 l    df *ABS*	00000000 main.c
00000000 l    df *ABS*	00000000 ransac.c
00000000 l    df *ABS*	00000000 s_atan.c
00054bf0 l     O .rodata	00000020 atanhi
00054c10 l     O .rodata	00000020 atanlo
00054c30 l     O .rodata	00000058 aT
00057080 l     O .rwdata	00000008 one
00057088 l     O .rwdata	00000008 huge
00000000 l    df *ABS*	00000000 s_fabs.c
00000000 l    df *ABS*	00000000 lib2-divmod.c
00000000 l    df *ABS*	00000000 lib2-mul.c
00000000 l    df *ABS*	00000000 adddf3.c
00000000 l    df *ABS*	00000000 divdf3.c
00000000 l    df *ABS*	00000000 gedf2.c
00000000 l    df *ABS*	00000000 muldf3.c
00000000 l    df *ABS*	00000000 subdf3.c
00000000 l    df *ABS*	00000000 fixdfsi.c
00000000 l    df *ABS*	00000000 floatsidf.c
00000000 l    df *ABS*	00000000 extendsfdf2.c
00000000 l    df *ABS*	00000000 truncdfsf2.c
00000000 l    df *ABS*	00000000 libgcc2.c
00000000 l    df *ABS*	00000000 libgcc2.c
00000000 l    df *ABS*	00000000 printf.c
00000000 l    df *ABS*	00000000 puts.c
00000000 l    df *ABS*	00000000 rand.c
00000000 l    df *ABS*	00000000 strlen.c
00000000 l    df *ABS*	00000000 vfprintf.c
00044dec l     F .text	000000f0 __sbprintf
00047014 l     F .text	0000020c cvt
00047220 l     F .text	00000140 exponent
00054dea l     O .rodata	00000010 blanks.4403
00054dfa l     O .rodata	00000010 zeroes.4404
00000000 l    df *ABS*	00000000 wsetup.c
00000000 l    df *ABS*	00000000 dtoa.c
00047500 l     F .text	000003c4 quorem
00000000 l    df *ABS*	00000000 fflush.c
00000000 l    df *ABS*	00000000 findfp.c
0004981c l     F .text	000000f4 std
000591ac l     O .bss	00000004 __sfp_lock
000591b0 l     O .bss	00000004 __sinit_lock
00049d30 l     F .text	00000024 __fp_lock
00049d54 l     F .text	00000024 __fp_unlock
00000000 l    df *ABS*	00000000 mallocr.c
00000000 l    df *ABS*	00000000 fvwrite.c
00000000 l    df *ABS*	00000000 fwalk.c
00000000 l    df *ABS*	00000000 impure.c
000555d0 l     O .rwdata	00000424 impure_data
00000000 l    df *ABS*	00000000 locale.c
000559f4 l     O .rwdata	00000038 lconv
00055a2c l     O .rwdata	00000020 lc_ctype_charset
00055a4c l     O .rwdata	00000020 lc_message_charset
000591c0 l     O .bss	00000004 lc_ctype_cjk_lang
00000000 l    df *ABS*	00000000 makebuf.c
00000000 l    df *ABS*	00000000 mallocr.c
0004b094 l     F .text	000003b4 malloc_extend_top
00000000 l    df *ABS*	00000000 memchr.c
00000000 l    df *ABS*	00000000 memcpy.c
00000000 l    df *ABS*	00000000 memmove.c
00000000 l    df *ABS*	00000000 memset.c
00000000 l    df *ABS*	00000000 mprec.c
00054f50 l     O .rodata	0000000c p05.2768
00000000 l    df *ABS*	00000000 mallocr.c
00000000 l    df *ABS*	00000000 s_fpclassify.c
00000000 l    df *ABS*	00000000 sbrkr.c
00000000 l    df *ABS*	00000000 stdio.c
00000000 l    df *ABS*	00000000 strcmp.c
00000000 l    df *ABS*	00000000 vfprintf.c
0004f3c8 l     F .text	000000f0 __sbprintf
00054fa6 l     O .rodata	00000010 blanks.4348
00054fb6 l     O .rodata	00000010 zeroes.4349
00000000 l    df *ABS*	00000000 writer.c
00000000 l    df *ABS*	00000000 closer.c
00000000 l    df *ABS*	00000000 mallocr.c
00000000 l    df *ABS*	00000000 fclose.c
00000000 l    df *ABS*	00000000 fputwc.c
00000000 l    df *ABS*	00000000 fstatr.c
00000000 l    df *ABS*	00000000 int_errno.c
00000000 l    df *ABS*	00000000 isattyr.c
00000000 l    df *ABS*	00000000 lseekr.c
00000000 l    df *ABS*	00000000 readr.c
00000000 l    df *ABS*	00000000 wbuf.c
00000000 l    df *ABS*	00000000 wcrtomb.c
00000000 l    df *ABS*	00000000 wctomb_r.c
00000000 l    df *ABS*	00000000 libgcc2.c
00000000 l    df *ABS*	00000000 libgcc2.c
00000000 l    df *ABS*	00000000 libgcc2.c
00000000 l    df *ABS*	00000000 eqdf2.c
00000000 l    df *ABS*	00000000 ledf2.c
00000000 l    df *ABS*	00000000 floatunsidf.c
00000000 l    df *ABS*	00000000 alt_close.c
00052328 l     F .text	0000003c alt_get_errno
00000000 l    df *ABS*	00000000 alt_dev.c
0005243c l     F .text	0000002c alt_dev_null_write
00000000 l    df *ABS*	00000000 alt_errno.c
00000000 l    df *ABS*	00000000 alt_fstat.c
00052468 l     F .text	0000003c alt_get_errno
00000000 l    df *ABS*	00000000 alt_isatty.c
0005255c l     F .text	0000003c alt_get_errno
00000000 l    df *ABS*	00000000 alt_load.c
00052644 l     F .text	00000068 alt_load_section
00000000 l    df *ABS*	00000000 alt_lseek.c
00052730 l     F .text	0000003c alt_get_errno
00000000 l    df *ABS*	00000000 alt_main.c
00000000 l    df *ABS*	00000000 alt_malloc_lock.c
00000000 l    df *ABS*	00000000 alt_read.c
0005290c l     F .text	0000003c alt_get_errno
00000000 l    df *ABS*	00000000 alt_release_fd.c
00000000 l    df *ABS*	00000000 alt_sbrk.c
000570c0 l     O .rwdata	00000004 heap_end
00000000 l    df *ABS*	00000000 alt_write.c
00052b80 l     F .text	0000003c alt_get_errno
00000000 l    df *ABS*	00000000 alt_sys_init.c
00052cbc l     F .text	00000034 alt_dev_reg
0005601c l     O .rwdata	00001060 jtag_uart
00000000 l    df *ABS*	00000000 altera_avalon_jtag_uart_fd.c
00000000 l    df *ABS*	00000000 altera_avalon_jtag_uart_init.c
00052f94 l     F .text	0000020c altera_avalon_jtag_uart_irq
000531a0 l     F .text	000000a0 altera_avalon_jtag_uart_timeout
00000000 l    df *ABS*	00000000 altera_avalon_jtag_uart_ioctl.c
00000000 l    df *ABS*	00000000 altera_avalon_jtag_uart_read.c
00000000 l    df *ABS*	00000000 altera_avalon_jtag_uart_write.c
00000000 l    df *ABS*	00000000 alt_alarm_start.c
00000000 l    df *ABS*	00000000 alt_dcache_flush_all.c
00000000 l    df *ABS*	00000000 alt_dev_llist_insert.c
00053924 l     F .text	0000003c alt_get_errno
00000000 l    df *ABS*	00000000 alt_do_ctors.c
00000000 l    df *ABS*	00000000 alt_do_dtors.c
00000000 l    df *ABS*	00000000 alt_icache_flush_all.c
00000000 l    df *ABS*	00000000 alt_iic.c
00000000 l    df *ABS*	00000000 alt_iic_isr_register.c
00000000 l    df *ABS*	00000000 alt_io_redirect.c
00053d84 l     F .text	000000e4 alt_open_fd
00000000 l    df *ABS*	00000000 alt_irq_vars.c
00000000 l    df *ABS*	00000000 alt_open.c
00053ee4 l     F .text	0000003c alt_get_errno
00053f20 l     F .text	000000ec alt_file_locked
00000000 l    df *ABS*	00000000 alt_tick.c
00000000 l    df *ABS*	00000000 altera_nios2_gen2_irq.c
00000000 l    df *ABS*	00000000 alt_find_dev.c
00000000 l    df *ABS*	00000000 alt_find_file.c
00000000 l    df *ABS*	00000000 alt_get_fd.c
00000000 l    df *ABS*	00000000 atexit.c
00000000 l    df *ABS*	00000000 exit.c
00000000 l    df *ABS*	00000000 memcmp.c
00000000 l    df *ABS*	00000000 __atexit.c
00000000 l    df *ABS*	00000000 __call_atexit.c
000591f0 l     O .bss	00000004 __atexit_lock
00000000 l    df *ABS*	00000000 alt_exit.c
000591ec g     O .bss	00000004 alt_instruction_exception_handler
0004ded0 g     F .text	000000b0 _mprec_log10
0004e050 g     F .text	00000134 __any_on
00050ec8 g     F .text	00000060 _isatty_r
00054f28 g     O .rodata	00000028 __mprec_tinytens
00052848 g     F .text	0000007c alt_main
00044a9c g     F .text	00000118 _puts_r
0005921c g     O .bss	00000100 alt_irq
00041e34 g     F .text	00000088 fabs
00050f28 g     F .text	00000070 _lseek_r
000570d0 g       *ABS*	00000000 __flash_rwdata_start
00052104 g     F .text	00000088 .hidden __eqdf2
0005931c g       *ABS*	00000000 __alt_heap_start
00044a34 g     F .text	00000068 printf
000511b0 g     F .text	000000d4 _wcrtomb_r
0004f058 g     F .text	000000a0 __sseek
00049bd8 g     F .text	000000d8 __sinit
00051008 g     F .text	00000168 __swbuf_r
0004acc4 g     F .text	00000084 _setlocale_r
00049910 g     F .text	000000bc __sfmoreglue
000528e8 g     F .text	00000024 __malloc_unlock
000408a0 g     F .text	00000114 coefficientOfDetermination
0004c308 g     F .text	00000208 memmove
00049ba4 g     F .text	00000034 _cleanup
0004c6d4 g     F .text	00000130 _Balloc
00043314 g     F .text	000000dc .hidden __gtdf2
0005430c g     F .text	00000024 altera_nios2_gen2_irq_init
00040000 g     F .entry	0000000c __reset
00040020 g       *ABS*	00000000 __flash_exceptions_start
0005707d g     O .rwdata	00000001 size_2
00050e60 g     F .text	00000068 _fstat_r
000591d0 g     O .bss	00000004 errno
0004ef74 g     F .text	00000030 __seofread
000591d8 g     O .bss	00000004 alt_argv
0005f07c g       *ABS*	00000000 _gp
00055e9c g     O .rwdata	00000180 alt_fd_list
00054330 g     F .text	00000090 alt_find_dev
0004c180 g     F .text	00000188 memcpy
00049b60 g     F .text	00000044 _cleanup_r
000445d8 g     F .text	000000dc .hidden __floatsidf
00040570 g     F .text	00000098 calculateIntersection
00053e68 g     F .text	0000007c alt_io_redirect
0005218c g     F .text	000000f4 .hidden __ltdf2
00054b70 g       *ABS*	00000000 __DTOR_END__
00044bb4 g     F .text	00000038 puts
0005458c g     F .text	0000009c alt_exception_cause_generated_bad_addr
0004ed74 g     F .text	00000104 __fpclassifyd
0004ddb4 g     F .text	0000011c __ratio
0004f4b8 g     F .text	00000050 __vfiprintf_internal
00053398 g     F .text	0000021c altera_avalon_jtag_uart_read
000449d0 g     F .text	00000064 _printf_r
00041fb4 g     F .text	00000064 .hidden __udivsi3
00052598 g     F .text	000000ac isatty
00054e38 g     O .rodata	000000c8 __mprec_tens
0004ad48 g     F .text	00000024 __locale_charset
000591c4 g     O .bss	00000004 __malloc_top_pad
00057098 g     O .rwdata	00000004 __mb_cur_max
0004add0 g     F .text	00000028 _localeconv_r
0004cd34 g     F .text	00000058 __i2b
0004a528 g     F .text	000005e8 __sfvwrite_r
000409b4 g     F .text	00000270 inliersOutliersMemory
0004ee78 g     F .text	00000060 _sbrk_r
0004100c g     F .text	00000090 squareDistanceBetweenPoints
00050f98 g     F .text	00000070 _read_r
000570b8 g     O .rwdata	00000004 alt_max_fd
00050a18 g     F .text	0000012c _fclose_r
000497c8 g     F .text	00000054 fflush
000591c8 g     O .bss	00000004 __malloc_max_sbrked_mem
000446b4 g     F .text	00000110 .hidden __extendsfdf2
00042098 g     F .text	000008ac .hidden __adddf3
0004d970 g     F .text	00000204 __b2d
00051b40 g     F .text	000005c4 .hidden __umoddi3
0005276c g     F .text	000000dc lseek
00057094 g     O .rwdata	00000004 _global_impure_ptr
0004e184 g     F .text	00000bf0 _realloc_r
0005931c g       *ABS*	00000000 __bss_end
00053c94 g     F .text	000000f0 alt_iic_isr_register
0004109c g     F .text	00000384 RANSAC
00054204 g     F .text	00000108 alt_tick
00051544 g     F .text	000005fc .hidden __udivdi3
00050d70 g     F .text	00000088 _fputwc_r
00054f00 g     O .rodata	00000028 __mprec_bigtens
0004ca2c g     F .text	0000018c __s2b
00052280 g     F .text	000000a8 .hidden __floatunsidf
0004d4ec g     F .text	00000114 __mcmp
00049d78 g     F .text	00000040 __fp_lock_all
00053c48 g     F .text	0000004c alt_ic_irq_enabled
00054168 g     F .text	0000009c alt_alarm_stop
000591e0 g     O .bss	00000004 alt_irq_active
000400fc g     F .exceptions	000000d4 alt_irq_handler
00055e74 g     O .rwdata	00000028 alt_dev_null
00000000 g       *ABS*	00000000 __alt_mem_MemoriaDados
00053904 g     F .text	00000020 alt_dcache_flush_all
0004cbb8 g     F .text	00000090 __hi0bits
00044558 g     F .text	00000080 .hidden __fixdfsi
000570d0 g       *ABS*	00000000 __ram_rwdata_end
000570b0 g     O .rwdata	00000008 alt_dev_list
00052bbc g     F .text	00000100 write
00054ff4 g       *ABS*	00000000 __ram_rodata_end
000524a4 g     F .text	000000b8 fstat
0005218c g     F .text	000000f4 .hidden __ledf2
0004d17c g     F .text	00000178 __pow5mult
0004f508 g     F .text	000012dc ___vfiprintf_internal_r
000591b4 g     O .bss	00000004 __nlocale_changed
00042018 g     F .text	00000058 .hidden __umodsi3
0005931c g       *ABS*	00000000 end
00040000 g       *ABS*	00000000 __alt_mem_MemoriaPrograma
00052ed4 g     F .text	000000c0 altera_avalon_jtag_uart_init
000401d0 g     F .exceptions	00000060 alt_instruction_exception_entry
00054b70 g       *ABS*	00000000 __CTOR_LIST__
0005c3c0 g       *ABS*	00000000 __alt_stack_pointer
0004496c g     F .text	00000064 .hidden __clzsi2
000535b4 g     F .text	00000224 altera_avalon_jtag_uart_write
00049cb0 g     F .text	00000020 __sfp_lock_acquire
0004bfc4 g     F .text	000001bc memchr
00044f2c g     F .text	000020e8 ___vfprintf_internal_r
00049df8 g     F .text	00000560 _free_r
0004ad6c g     F .text	00000020 __locale_mb_cur_max
00054950 g     F .text	000001ec __call_exitprocs
000591b8 g     O .bss	00000004 __mlocale_changed
000570a0 g     O .rwdata	00000004 __malloc_sbrk_base
00040230 g     F .text	0000003c _start
000591e4 g     O .bss	00000004 _alt_tick_rate
00044c30 g     F .text	000000c8 rand
0004d2f4 g     F .text	000001f8 __lshift
000591e8 g     O .bss	00000004 _alt_nticks
00052948 g     F .text	00000104 read
0005707c g     O .rwdata	00000001 size_1
00052d28 g     F .text	00000048 alt_sys_init
000547e0 g     F .text	00000170 __register_exitproc
0004cd8c g     F .text	000003f0 __multiply
00053240 g     F .text	00000068 altera_avalon_jtag_uart_close
00042070 g     F .text	00000028 .hidden __mulsi3
00054ff4 g       *ABS*	00000000 __ram_rwdata_start
00054b70 g       *ABS*	00000000 __ram_rodata_start
000591f4 g     O .bss	00000028 __malloc_current_mallinfo
0004db74 g     F .text	00000240 __d2b
00052d70 g     F .text	00000060 altera_avalon_jtag_uart_read_fd
000544c8 g     F .text	000000c4 alt_get_fd
00050854 g     F .text	00000060 _close_r
000546ac g     F .text	00000134 memcmp
00052e30 g     F .text	00000050 altera_avalon_jtag_uart_close_fd
0005931c g       *ABS*	00000000 __alt_stack_base
00052e80 g     F .text	00000054 altera_avalon_jtag_uart_ioctl_fd
00040608 g     F .text	0000006c getAngleFromModel
00047360 g     F .text	000001a0 __swsetup_r
00042944 g     F .text	000009d0 .hidden __divdf3
000499cc g     F .text	00000194 __sfp
0004df80 g     F .text	000000d0 __copybits
00055a6c g     O .rwdata	00000408 __malloc_av_
00049d10 g     F .text	00000020 __sinit_lock_release
000433f0 g     F .text	0000086c .hidden __muldf3
0004eed8 g     F .text	0000009c __sread
000543c0 g     F .text	00000108 alt_find_file
00053960 g     F .text	000000a4 alt_dev_llist_insert
000528c4 g     F .text	00000024 __malloc_lock
00052ad0 g     F .text	000000b0 sbrk
00049740 g     F .text	00000088 _fflush_r
000508b4 g     F .text	00000164 _calloc_r
000591ac g       *ABS*	00000000 __bss_start
0004c510 g     F .text	000001c4 memset
0004026c g     F .text	00000304 main
000591dc g     O .bss	00000004 alt_envp
000591cc g     O .bss	00000004 __malloc_max_total_mem
00052dd0 g     F .text	00000060 altera_avalon_jtag_uart_write_fd
00051170 g     F .text	00000040 __swbuf
00044bec g     F .text	00000044 srand
0004f0f8 g     F .text	00000054 __sclose
0005c3c0 g       *ABS*	00000000 __alt_heap_limit
00050b44 g     F .text	00000038 fclose
000447c4 g     F .text	000001a8 .hidden __truncdfsf2
000478c4 g     F .text	00001b78 _dtoa_r
0004b448 g     F .text	00000b7c _malloc_r
000513c0 g     F .text	00000078 __ascii_wctomb
00040674 g     F .text	0000022c leastSquare
000570bc g     O .rwdata	00000004 alt_errno
0004ab10 g     F .text	000000d8 _fwalk
00041ebc g     F .text	00000084 .hidden __divsi3
0004a358 g     F .text	000001d0 _malloc_trim_r
00054b70 g       *ABS*	00000000 __CTOR_END__
0004f14c g     F .text	00000140 strcmp
00054b70 g       *ABS*	00000000 __flash_rodata_start
00054b70 g       *ABS*	00000000 __DTOR_LIST__
00052104 g     F .text	00000088 .hidden __nedf2
00052cf0 g     F .text	00000038 alt_irq_init
00052a4c g     F .text	00000084 alt_release_fd
00041420 g     F .text	00000a14 atan
00054c88 g     O .rodata	00000100 .hidden __clz_tab
000591bc g     O .bss	00000004 _PathLocale
00054628 g     F .text	0000003c atexit
000507e4 g     F .text	00000070 _write_r
0004adf8 g     F .text	00000040 setlocale
00057090 g     O .rwdata	00000004 _impure_ptr
000591d4 g     O .bss	00000004 alt_argc
0004943c g     F .text	00000304 __sflush_r
00053a64 g     F .text	00000060 _do_dtors
0004adb0 g     F .text	00000020 __locale_cjk_lang
00040020 g       .exceptions	00000000 alt_irq_entry
0004d8a4 g     F .text	000000cc __ulp
00049db8 g     F .text	00000040 __fp_unlock_all
00055128 g     O .rwdata	000004a8 coords_2
000570a8 g     O .rwdata	00000008 alt_fs_list
00040c24 g     F .text	0000020c inliersOutliers
00040020 g       *ABS*	00000000 __ram_exceptions_start
0004ae38 g     F .text	00000030 localeconv
00053ae4 g     F .text	00000050 alt_ic_isr_register
000570d0 g       *ABS*	00000000 _edata
00054ff4 g     O .rwdata	00000132 coords_1
0005931c g       *ABS*	00000000 _end
00050b7c g     F .text	000001f4 __fputwc
00040230 g       *ABS*	00000000 __ram_exceptions_end
000532a8 g     F .text	000000f0 altera_avalon_jtag_uart_ioctl
00040e30 g     F .text	000001dc checkModel
00053bbc g     F .text	0000008c alt_ic_irq_disable
0004efa4 g     F .text	000000b4 __swrite
0005709c g     O .rwdata	00000004 __malloc_trim_threshold
0004ad8c g     F .text	00000024 __locale_msgcharset
00054664 g     F .text	00000048 exit
0004abe8 g     F .text	000000dc _fwalk_reent
0004d600 g     F .text	000002a4 __mdiff
00041f40 g     F .text	00000074 .hidden __modsi3
0005c3c0 g       *ABS*	00000000 __alt_data_end
00040020 g     F .exceptions	00000000 alt_exception
00049cd0 g     F .text	00000020 __sfp_lock_release
00054b3c g     F .text	00000034 _exit
000537d8 g     F .text	0000012c alt_alarm_start
00051438 g     F .text	0000010c .hidden __muldi3
0004ae68 g     F .text	0000022c __smakebuf_r
00044cf8 g     F .text	000000f4 strlen
0005400c g     F .text	0000015c open
00043314 g     F .text	000000dc .hidden __gedf2
000570a4 g     O .rwdata	00000004 __wctomb
0004f28c g     F .text	0000013c __sprint_r
00053ac4 g     F .text	00000020 alt_icache_flush_all
000570c4 g     O .rwdata	00000004 alt_priority_mask
00053b34 g     F .text	00000088 alt_ic_irq_enable
00044edc g     F .text	00000050 __vfprintf_internal
0005135c g     F .text	00000064 _wctomb_r
00043c5c g     F .text	000008fc .hidden __subdf3
0004cc48 g     F .text	000000ec __lo0bits
000570c8 g     O .rwdata	00000008 alt_alarm_list
00053a04 g     F .text	00000060 _do_ctors
00051284 g     F .text	000000d8 wcrtomb
00052364 g     F .text	000000d8 close
000526ac g     F .text	00000084 alt_load
00050df8 g     F .text	00000068 fputwc
00049cf0 g     F .text	00000020 __sinit_lock_acquire
0004c880 g     F .text	000001ac __multadd
0004c804 g     F .text	0000007c _Bfree



Disassembly of section .entry:

00040000 <__reset>:
 * Jump to the _start entry point in the .text section if reset code
 * is allowed or if optimizing for RTL simulation.
 */
#if defined(ALT_ALLOW_CODE_AT_RESET) || defined(ALT_SIM_OPTIMIZE)
    /* Jump to the _start entry point in the .text section. */
    movhi r1, %hi(_start)
   40000:	00400134 	movhi	at,4
    ori r1, r1, %lo(_start)
   40004:	08408c14 	ori	at,at,560
    jmp r1
   40008:	0800683a 	jmp	at
	...

Disassembly of section .exceptions:

00040020 <alt_exception>:

#else /* ALT_EXCEPTION_STACK disabled */
        /* 
         * Reserve space on normal stack for registers about to be pushed.
         */
        addi  sp, sp, -76
   40020:	deffed04 	addi	sp,sp,-76
         * documentation for details).
         *
         * Leave a gap in the stack frame at 4(sp) for the muldiv handler to
         * store zero into.
         */
        stw   ra,  0(sp)
   40024:	dfc00015 	stw	ra,0(sp)
        stw   r1,   8(sp)
   40028:	d8400215 	stw	at,8(sp)
        stw   r2,  12(sp)
   4002c:	d8800315 	stw	r2,12(sp)
        stw   r3,  16(sp)
   40030:	d8c00415 	stw	r3,16(sp)
        stw   r4,  20(sp)
   40034:	d9000515 	stw	r4,20(sp)
        stw   r5,  24(sp)
   40038:	d9400615 	stw	r5,24(sp)
        stw   r6,  28(sp)
   4003c:	d9800715 	stw	r6,28(sp)
        stw   r7,  32(sp)
   40040:	d9c00815 	stw	r7,32(sp)
        rdctl r5, estatus   /* Read early to avoid usage stall */
   40044:	000b307a 	rdctl	r5,estatus
        stw   r8,  36(sp)
   40048:	da000915 	stw	r8,36(sp)
        stw   r9,  40(sp)
   4004c:	da400a15 	stw	r9,40(sp)
        stw   r10, 44(sp)
   40050:	da800b15 	stw	r10,44(sp)
        stw   r11, 48(sp)
   40054:	dac00c15 	stw	r11,48(sp)
        stw   r12, 52(sp)
   40058:	db000d15 	stw	r12,52(sp)
        stw   r13, 56(sp)
   4005c:	db400e15 	stw	r13,56(sp)
        stw   r14, 60(sp)
   40060:	db800f15 	stw	r14,60(sp)
        stw   r15, 64(sp)
   40064:	dbc01015 	stw	r15,64(sp)
        /*
         * ea-4 contains the address of the instruction being executed
         * when the exception occured. For interrupt exceptions, we will
         * will be re-issue the isntruction. Store it in 72(sp)
         */
        stw   r5,  68(sp)  /* estatus */
   40068:	d9401115 	stw	r5,68(sp)
        addi  r15, ea, -4  /* instruction that caused exception */
   4006c:	ebffff04 	addi	r15,ea,-4
        stw   r15,  72(sp)
   40070:	dbc01215 	stw	r15,72(sp)
#else
        /*
         * Test to see if the exception was a software exception or caused 
         * by an external interrupt, and vector accordingly.
         */
        rdctl r4, ipending
   40074:	0009313a 	rdctl	r4,ipending
        andi  r2, r5, 1
   40078:	2880004c 	andi	r2,r5,1
        beq   r2, zero, .Lnot_irq
   4007c:	10000326 	beq	r2,zero,4008c <alt_exception+0x6c>
        beq   r4, zero, .Lnot_irq
   40080:	20000226 	beq	r4,zero,4008c <alt_exception+0x6c>
        /*
         * Now that all necessary registers have been preserved, call 
         * alt_irq_handler() to process the interrupts.
         */

        call alt_irq_handler
   40084:	00400fc0 	call	400fc <alt_irq_handler>

        .section .exceptions.irqreturn, "xa"

        br    .Lexception_exit
   40088:	00000706 	br	400a8 <alt_exception+0x88>
         * upon completion, so we write ea (address of instruction *after*
         * the one where the exception occured) into 72(sp). The actual
         * instruction that caused the exception is written in r2, which these
         * handlers will utilize.
         */
        stw ea, 72(sp) /* EA is PC+4 so will skip over instruction causing exception */
   4008c:	df401215 	stw	ea,72(sp)
.Lunknown_16bit:
        addi.n r4, r4, 2 /* Need PC+2 to skip over instruction causing exception */
        stw r4, 72(sp)

#else /* CDX is not Enabled and all instructions are 32bits */
        ldw r2, -4(ea) /* Instruction value that caused exception */
   40090:	e8bfff17 	ldw	r2,-4(ea)
         * debugger is present) or go into an infinite loop since the
         * handling behavior is undefined; in that case we will not return here.
         */

        /* Load exception-causing address as first argument (r4) */
        addi   r4, ea, -4
   40094:	e93fff04 	addi	r4,ea,-4

        /* Call the instruction-exception entry */
        call   alt_instruction_exception_entry
   40098:	00401d00 	call	401d0 <alt_instruction_exception_entry>
         * instruction
         *
         * Return code was 0: Skip. The instruction after the exception is
         * already stored in 72(sp).
         */
        bne   r2, r0, .Lexception_exit
   4009c:	1000021e 	bne	r2,zero,400a8 <alt_exception+0x88>

        /*
         * Otherwise, modify 72(sp) to re-issue the instruction that caused the
         * exception.
         */
        addi  r15, ea, -4  /* instruction that caused exception */
   400a0:	ebffff04 	addi	r15,ea,-4
        stw   r15,  72(sp)
   400a4:	dbc01215 	stw	r15,72(sp)
        /* 
         * Restore the saved registers, so that all general purpose registers 
         * have been restored to their state at the time the interrupt occured.
         */

        ldw   r5,  68(sp)
   400a8:	d9401117 	ldw	r5,68(sp)
        ldw   ea,  72(sp)  /* This becomes the PC once eret is executed */
   400ac:	df401217 	ldw	ea,72(sp)
        ldw   ra,   0(sp)
   400b0:	dfc00017 	ldw	ra,0(sp)

        wrctl estatus, r5
   400b4:	2801707a 	wrctl	estatus,r5

        ldw   r1,   8(sp)
   400b8:	d8400217 	ldw	at,8(sp)
        ldw   r2,  12(sp)
   400bc:	d8800317 	ldw	r2,12(sp)
        ldw   r3,  16(sp)
   400c0:	d8c00417 	ldw	r3,16(sp)
        ldw   r4,  20(sp)
   400c4:	d9000517 	ldw	r4,20(sp)
        ldw   r5,  24(sp)
   400c8:	d9400617 	ldw	r5,24(sp)
        ldw   r6,  28(sp)
   400cc:	d9800717 	ldw	r6,28(sp)
        ldw   r7,  32(sp)
   400d0:	d9c00817 	ldw	r7,32(sp)

#if defined(ALT_EXCEPTION_STACK) && defined(ALT_STACK_CHECK)
        ldw   et, %gprel(alt_exception_old_stack_limit)(gp)
#endif

        ldw   r8,  36(sp)
   400d4:	da000917 	ldw	r8,36(sp)
        ldw   r9,  40(sp)
   400d8:	da400a17 	ldw	r9,40(sp)
        ldw   r10, 44(sp)
   400dc:	da800b17 	ldw	r10,44(sp)
        ldw   r11, 48(sp)
   400e0:	dac00c17 	ldw	r11,48(sp)
        ldw   r12, 52(sp)
   400e4:	db000d17 	ldw	r12,52(sp)
        ldw   r13, 56(sp)
   400e8:	db400e17 	ldw	r13,56(sp)
        ldw   r14, 60(sp)
   400ec:	db800f17 	ldw	r14,60(sp)
        ldw   r15, 64(sp)
   400f0:	dbc01017 	ldw	r15,64(sp)
        stw   et, %gprel(alt_stack_limit_value)(gp)
        stw   zero, %gprel(alt_exception_old_stack_limit)(gp)
#endif /* ALT_STACK_CHECK */
        ldw   sp,  76(sp)
#else /* ALT_EXCEPTION_STACK disabled */
        addi  sp, sp, 76
   400f4:	dec01304 	addi	sp,sp,76

        /*
         * Return to the interrupted instruction.
         */

        eret
   400f8:	ef80083a 	eret

000400fc <alt_irq_handler>:
 * instruction is present if the macro ALT_CI_INTERRUPT_VECTOR defined.
 */

void alt_irq_handler (void) __attribute__ ((section (".exceptions")));
void alt_irq_handler (void)
{
   400fc:	defff904 	addi	sp,sp,-28
   40100:	dfc00615 	stw	ra,24(sp)
   40104:	df000515 	stw	fp,20(sp)
   40108:	df000504 	addi	fp,sp,20
  
  /*
   * Notify the operating system that we are at interrupt level.
   */ 
  
  ALT_OS_INT_ENTER();
   4010c:	0001883a 	nop
#ifndef NIOS2_EIC_PRESENT
static ALT_INLINE alt_u32 ALT_ALWAYS_INLINE alt_irq_pending (void)
{
  alt_u32 active;

  NIOS2_READ_IPENDING (active);
   40110:	0005313a 	rdctl	r2,ipending
   40114:	e0bffe15 	stw	r2,-8(fp)

  return active;
   40118:	e0bffe17 	ldw	r2,-8(fp)
   * Consider the case where the high priority interupt is asserted during
   * the interrupt entry sequence for a lower priority interrupt to see why
   * this is the case.
   */

  active = alt_irq_pending ();
   4011c:	e0bffb15 	stw	r2,-20(fp)

  do
  {
    i = 0;
   40120:	e03ffd15 	stw	zero,-12(fp)
    mask = 1;
   40124:	00800044 	movi	r2,1
   40128:	e0bffc15 	stw	r2,-16(fp)
     * called to clear the interrupt condition.
     */

    do
    {
      if (active & mask)
   4012c:	e0fffb17 	ldw	r3,-20(fp)
   40130:	e0bffc17 	ldw	r2,-16(fp)
   40134:	1884703a 	and	r2,r3,r2
   40138:	10001426 	beq	r2,zero,4018c <alt_irq_handler+0x90>
      { 
#ifdef ALT_ENHANCED_INTERRUPT_API_PRESENT
        alt_irq[i].handler(alt_irq[i].context); 
   4013c:	008001b4 	movhi	r2,6
   40140:	10a48704 	addi	r2,r2,-28132
   40144:	e0fffd17 	ldw	r3,-12(fp)
   40148:	180690fa 	slli	r3,r3,3
   4014c:	10c5883a 	add	r2,r2,r3
   40150:	10c00017 	ldw	r3,0(r2)
   40154:	008001b4 	movhi	r2,6
   40158:	10a48704 	addi	r2,r2,-28132
   4015c:	e13ffd17 	ldw	r4,-12(fp)
   40160:	200890fa 	slli	r4,r4,3
   40164:	1105883a 	add	r2,r2,r4
   40168:	10800104 	addi	r2,r2,4
   4016c:	10800017 	ldw	r2,0(r2)
   40170:	1009883a 	mov	r4,r2
   40174:	183ee83a 	callr	r3
#else
        alt_irq[i].handler(alt_irq[i].context, i); 
#endif
        break;
   40178:	0001883a 	nop
#ifndef NIOS2_EIC_PRESENT
static ALT_INLINE alt_u32 ALT_ALWAYS_INLINE alt_irq_pending (void)
{
  alt_u32 active;

  NIOS2_READ_IPENDING (active);
   4017c:	0005313a 	rdctl	r2,ipending
   40180:	e0bfff15 	stw	r2,-4(fp)

  return active;
   40184:	e0bfff17 	ldw	r2,-4(fp)
   40188:	00000706 	br	401a8 <alt_irq_handler+0xac>
      }
      mask <<= 1;
   4018c:	e0bffc17 	ldw	r2,-16(fp)
   40190:	1085883a 	add	r2,r2,r2
   40194:	e0bffc15 	stw	r2,-16(fp)
      i++;
   40198:	e0bffd17 	ldw	r2,-12(fp)
   4019c:	10800044 	addi	r2,r2,1
   401a0:	e0bffd15 	stw	r2,-12(fp)

    } while (1);
   401a4:	003fe106 	br	4012c <_gp+0xfffe10b0>

    active = alt_irq_pending ();
   401a8:	e0bffb15 	stw	r2,-20(fp)
    
  } while (active);
   401ac:	e0bffb17 	ldw	r2,-20(fp)
   401b0:	103fdb1e 	bne	r2,zero,40120 <_gp+0xfffe10a4>

  /*
   * Notify the operating system that interrupt processing is complete.
   */ 

  ALT_OS_INT_EXIT();
   401b4:	0001883a 	nop
}
   401b8:	0001883a 	nop
   401bc:	e037883a 	mov	sp,fp
   401c0:	dfc00117 	ldw	ra,4(sp)
   401c4:	df000017 	ldw	fp,0(sp)
   401c8:	dec00204 	addi	sp,sp,8
   401cc:	f800283a 	ret

000401d0 <alt_instruction_exception_entry>:
 * that handler if it has been registered. Absent a handler, it will
 * break break or hang as discussed below.
 */
int 
alt_instruction_exception_entry (alt_u32 exception_pc)
{
   401d0:	defffb04 	addi	sp,sp,-20
   401d4:	dfc00415 	stw	ra,16(sp)
   401d8:	df000315 	stw	fp,12(sp)
   401dc:	df000304 	addi	fp,sp,12
   401e0:	e13fff15 	stw	r4,-4(fp)
  cause = ( (cause & NIOS2_EXCEPTION_REG_CAUSE_MASK) >>
              NIOS2_EXCEPTION_REG_CAUSE_OFST );

  NIOS2_READ_BADADDR(badaddr);
#else
  cause = NIOS2_EXCEPTION_CAUSE_NOT_PRESENT;
   401e4:	00bfffc4 	movi	r2,-1
   401e8:	e0bffd15 	stw	r2,-12(fp)
  badaddr = 0;
   401ec:	e03ffe15 	stw	zero,-8(fp)
#endif /* NIOS2_HAS_EXTRA_EXCEPTION_INFO */

  if(alt_instruction_exception_handler) {
   401f0:	d0a85c17 	ldw	r2,-24208(gp)
   401f4:	10000726 	beq	r2,zero,40214 <alt_instruction_exception_entry+0x44>
     * Call handler. Its return value indicates whether the exception-causing
     * instruction should be re-issued. The code that called us,
     * alt_eceptions_entry.S, will look at this value and adjust the ea
     * register as necessary
     */
    return alt_instruction_exception_handler(cause, exception_pc, badaddr);
   401f8:	d0a85c17 	ldw	r2,-24208(gp)
   401fc:	e0fffd17 	ldw	r3,-12(fp)
   40200:	e1bffe17 	ldw	r6,-8(fp)
   40204:	e17fff17 	ldw	r5,-4(fp)
   40208:	1809883a 	mov	r4,r3
   4020c:	103ee83a 	callr	r2
   40210:	00000206 	br	4021c <alt_instruction_exception_entry+0x4c>
   *    (a peripheral which negates its interrupt output before its
   *    interrupt handler has been executed will cause spurious interrupts)
   */
  else {
#ifdef NIOS2_HAS_DEBUG_STUB
    NIOS2_BREAK();
   40214:	003da03a 	break	0
      ;
#endif /* NIOS2_HAS_DEBUG_STUB */
  }

  /* We should not get here. Remove compiler warning. */
  return NIOS2_EXCEPTION_RETURN_REISSUE_INST;
   40218:	0005883a 	mov	r2,zero
}
   4021c:	e037883a 	mov	sp,fp
   40220:	dfc00117 	ldw	ra,4(sp)
   40224:	df000017 	ldw	fp,0(sp)
   40228:	dec00204 	addi	sp,sp,8
   4022c:	f800283a 	ret

Disassembly of section .text:

00040230 <_start>:

    /*
     * Now that the caches are initialized, set up the stack pointer and global pointer.
     * The values provided by the linker are assumed to be correctly aligned.
     */
    movhi sp, %hi(__alt_stack_pointer)
   40230:	06c00174 	movhi	sp,5
    ori sp, sp, %lo(__alt_stack_pointer)
   40234:	def0f014 	ori	sp,sp,50112
    movhi gp, %hi(_gp)
   40238:	06800174 	movhi	gp,5
    ori gp, gp, %lo(_gp)
   4023c:	d6bc1f14 	ori	gp,gp,61564
 */
#ifndef ALT_SIM_OPTIMIZE
    /* Log that the BSS is about to be cleared. */
    ALT_LOG_PUTS(alt_log_msg_bss)

    movhi r2, %hi(__bss_start)
   40240:	00800174 	movhi	r2,5
    ori r2, r2, %lo(__bss_start)
   40244:	10a46b14 	ori	r2,r2,37292

    movhi r3, %hi(__bss_end)
   40248:	00c00174 	movhi	r3,5
    ori r3, r3, %lo(__bss_end)
   4024c:	18e4c714 	ori	r3,r3,37660

    beq r2, r3, 1f
   40250:	10c00326 	beq	r2,r3,40260 <_start+0x30>

0:
    stw zero, (r2)
   40254:	10000015 	stw	zero,0(r2)
    addi r2, r2, 4
   40258:	10800104 	addi	r2,r2,4
    bltu r2, r3, 0b
   4025c:	10fffd36 	bltu	r2,r3,40254 <_gp+0xfffe11d8>
     * section aren't defined until alt_load() has been called).
     */
    mov   et, zero
#endif

    call alt_load
   40260:	00526ac0 	call	526ac <alt_load>

    /* Log that alt_main is about to be called. */
    ALT_LOG_PUTS(alt_log_msg_alt_main)

    /* Call the C entry point. It should never return. */
    call alt_main
   40264:	00528480 	call	52848 <alt_main>

00040268 <alt_after_alt_main>:

    /* Wait in infinite loop in case alt_main does return. */
alt_after_alt_main:
    br alt_after_alt_main
   40268:	003fff06 	br	40268 <_gp+0xfffe11ec>

0004026c <main>:
#define END_BASE_ANGLE (int *) 0x00010
#define END_BASE_DATA (int *) 0x0018
#define STEP coords_2
#define SIZE size_2

int main() {
   4026c:	defd8e04 	addi	sp,sp,-2504
   40270:	dfc27115 	stw	ra,2500(sp)
   40274:	df027015 	stw	fp,2496(sp)
   40278:	dc426f15 	stw	r17,2492(sp)
   4027c:	dc026e15 	stw	r16,2488(sp)
   40280:	df027004 	addi	fp,sp,2496
	int *data = END_BASE_DATA;
   40284:	00800604 	movi	r2,24
   40288:	e0bd9615 	stw	r2,-2472(fp)
    Point outliers[MAX_POINTS];
    int temp_data_size = 0;
   4028c:	e03d9715 	stw	zero,-2468(fp)
    int data_size = 0;
   40290:	e03d9115 	stw	zero,-2492(fp)

    //read data_size
    data_size = (int)(SIZE&0xFF);
   40294:	d0a00043 	ldbu	r2,-32767(gp)
   40298:	10803fcc 	andi	r2,r2,255
   4029c:	1080201c 	xori	r2,r2,128
   402a0:	10bfe004 	addi	r2,r2,-128
   402a4:	10803fcc 	andi	r2,r2,255
   402a8:	e0bd9115 	stw	r2,-2492(fp)
    temp_data_size = (2*data_size);
   402ac:	e0bd9117 	ldw	r2,-2492(fp)
   402b0:	1085883a 	add	r2,r2,r2
   402b4:	e0bd9715 	stw	r2,-2468(fp)

    int j = 0;
   402b8:	e03d9215 	stw	zero,-2488(fp)
    for (int i = 0; i<=temp_data_size; i+=1) {
   402bc:	e03d9315 	stw	zero,-2484(fp)
   402c0:	00001f06 	br	40340 <main+0xd4>
    	data[i] = (STEP[X]&0xFF)|(STEP[Y]<<8);
   402c4:	e0bd9317 	ldw	r2,-2484(fp)
   402c8:	1085883a 	add	r2,r2,r2
   402cc:	1085883a 	add	r2,r2,r2
   402d0:	1007883a 	mov	r3,r2
   402d4:	e0bd9617 	ldw	r2,-2472(fp)
   402d8:	10c9883a 	add	r4,r2,r3
   402dc:	00800174 	movhi	r2,5
   402e0:	10944a04 	addi	r2,r2,20776
   402e4:	e0fd9217 	ldw	r3,-2488(fp)
   402e8:	18c7883a 	add	r3,r3,r3
   402ec:	18c7883a 	add	r3,r3,r3
   402f0:	10c5883a 	add	r2,r2,r3
   402f4:	10800017 	ldw	r2,0(r2)
   402f8:	11403fcc 	andi	r5,r2,255
   402fc:	e0bd9217 	ldw	r2,-2488(fp)
   40300:	10c00044 	addi	r3,r2,1
   40304:	00800174 	movhi	r2,5
   40308:	10944a04 	addi	r2,r2,20776
   4030c:	18c7883a 	add	r3,r3,r3
   40310:	18c7883a 	add	r3,r3,r3
   40314:	10c5883a 	add	r2,r2,r3
   40318:	10800017 	ldw	r2,0(r2)
   4031c:	1004923a 	slli	r2,r2,8
   40320:	2884b03a 	or	r2,r5,r2
   40324:	20800015 	stw	r2,0(r4)
    	j+=2;
   40328:	e0bd9217 	ldw	r2,-2488(fp)
   4032c:	10800084 	addi	r2,r2,2
   40330:	e0bd9215 	stw	r2,-2488(fp)
    //read data_size
    data_size = (int)(SIZE&0xFF);
    temp_data_size = (2*data_size);

    int j = 0;
    for (int i = 0; i<=temp_data_size; i+=1) {
   40334:	e0bd9317 	ldw	r2,-2484(fp)
   40338:	10800044 	addi	r2,r2,1
   4033c:	e0bd9315 	stw	r2,-2484(fp)
   40340:	e0bd9317 	ldw	r2,-2484(fp)
   40344:	e0fd9717 	ldw	r3,-2468(fp)
   40348:	18bfde0e 	bge	r3,r2,402c4 <_gp+0xfffe1248>
    	data[i] = (STEP[X]&0xFF)|(STEP[Y]<<8);
    	j+=2;
    }

    if(data_size > MAX_POINTS) data_size = MAX_POINTS;
   4034c:	e0bd9117 	ldw	r2,-2492(fp)
   40350:	10804b50 	cmplti	r2,r2,301
   40354:	1000021e 	bne	r2,zero,40360 <main+0xf4>
   40358:	00804b04 	movi	r2,300
   4035c:	e0bd9115 	stw	r2,-2492(fp)

    // ------------ Calcula primeiro modelo de linha ------------//
    //Posicao inical do robo
    Point start;
    start.x = 0;
   40360:	e03ff015 	stw	zero,-64(fp)
    start.y = 25;
   40364:	00800644 	movi	r2,25
   40368:	e0bff115 	stw	r2,-60(fp)
    RansacResult model;
    Line reference;
	reference.a = 0;
   4036c:	e03ff615 	stw	zero,-40(fp)
	reference.b = 25;
   40370:	00907234 	movhi	r2,16840
   40374:	e0bff715 	stw	r2,-36(fp)

    model = RANSAC(data, &start, outliers, data_size);
   40378:	e0fffa04 	addi	r3,fp,-24
   4037c:	e17d9804 	addi	r5,fp,-2464
   40380:	e13ff004 	addi	r4,fp,-64
   40384:	e0bd9117 	ldw	r2,-2492(fp)
   40388:	d8800015 	stw	r2,0(sp)
   4038c:	280f883a 	mov	r7,r5
   40390:	200d883a 	mov	r6,r4
   40394:	e17d9617 	ldw	r5,-2472(fp)
   40398:	1809883a 	mov	r4,r3
   4039c:	004109c0 	call	4109c <RANSAC>
   403a0:	e0bffa17 	ldw	r2,-24(fp)
   403a4:	e0bff215 	stw	r2,-56(fp)
   403a8:	e0bffb17 	ldw	r2,-20(fp)
   403ac:	e0bff315 	stw	r2,-52(fp)
   403b0:	e0bffc17 	ldw	r2,-16(fp)
   403b4:	e0bff415 	stw	r2,-48(fp)
   403b8:	e0bffd17 	ldw	r2,-12(fp)
   403bc:	e0bff515 	stw	r2,-44(fp)

    // ------------ Variaveis para resultado final -------------//
    Point intersection = { 0.0, 0.0 };
   403c0:	e03ff815 	stw	zero,-32(fp)
   403c4:	e03ff915 	stw	zero,-28(fp)
    int distance = 0.0;
   403c8:	e03d9415 	stw	zero,-2480(fp)
    float angle = 0.0;
   403cc:	e03d9515 	stw	zero,-2476(fp)

	if  (model.bestModel.a == 0.0){
   403d0:	e0bff217 	ldw	r2,-56(fp)
   403d4:	0007883a 	mov	r3,zero
   403d8:	10c5f8b2 	custom	226,r2,r2,r3
   403dc:	10000d1e 	bne	r2,zero,40414 <main+0x1a8>
		distance = data[data_size-1]&0xFF;
   403e0:	e0fd9117 	ldw	r3,-2492(fp)
   403e4:	00900034 	movhi	r2,16384
   403e8:	10bfffc4 	addi	r2,r2,-1
   403ec:	1885883a 	add	r2,r3,r2
   403f0:	1085883a 	add	r2,r2,r2
   403f4:	1085883a 	add	r2,r2,r2
   403f8:	1007883a 	mov	r3,r2
   403fc:	e0bd9617 	ldw	r2,-2472(fp)
   40400:	10c5883a 	add	r2,r2,r3
   40404:	10800017 	ldw	r2,0(r2)
   40408:	10803fcc 	andi	r2,r2,255
   4040c:	e0bd9415 	stw	r2,-2480(fp)
   40410:	00001506 	br	40468 <main+0x1fc>
	}
	else
	{
		intersection = calculateIntersection(&model.bestModel,  &reference);
   40414:	e0fff604 	addi	r3,fp,-40
   40418:	e0bff204 	addi	r2,fp,-56
   4041c:	180b883a 	mov	r5,r3
   40420:	1009883a 	mov	r4,r2
   40424:	00405700 	call	40570 <calculateIntersection>
   40428:	1009883a 	mov	r4,r2
   4042c:	180b883a 	mov	r5,r3
   40430:	e13ff815 	stw	r4,-32(fp)
   40434:	e17ff915 	stw	r5,-28(fp)
		distance = (int)squareDistanceBetweenPoints(&intersection, &start);
   40438:	e0fff004 	addi	r3,fp,-64
   4043c:	e0bff804 	addi	r2,fp,-32
   40440:	180b883a 	mov	r5,r3
   40444:	1009883a 	mov	r4,r2
   40448:	004100c0 	call	4100c <squareDistanceBetweenPoints>
   4044c:	1007883a 	mov	r3,r2
   40450:	1805fe72 	custom	249,r2,r3,zero
   40454:	e0bd9415 	stw	r2,-2480(fp)
		angle = getAngleFromModel (model.bestModel.a);
   40458:	e0bff217 	ldw	r2,-56(fp)
   4045c:	1009883a 	mov	r4,r2
   40460:	00406080 	call	40608 <getAngleFromModel>
   40464:	e0bd9515 	stw	r2,-2476(fp)
	}

	printf("-----LOG-----\n");
   40468:	01000174 	movhi	r4,5
   4046c:	2112dc04 	addi	r4,r4,19312
   40470:	0044bb40 	call	44bb4 <puts>
    printf("%d %d\n", intersection.x, intersection.y);
   40474:	e0bff817 	ldw	r2,-32(fp)
   40478:	e0fff917 	ldw	r3,-28(fp)
   4047c:	180d883a 	mov	r6,r3
   40480:	100b883a 	mov	r5,r2
   40484:	01000174 	movhi	r4,5
   40488:	2112e004 	addi	r4,r4,19328
   4048c:	0044a340 	call	44a34 <printf>
    printf("-----RESULTADO-----\n");
   40490:	01000174 	movhi	r4,5
   40494:	2112e204 	addi	r4,r4,19336
   40498:	0044bb40 	call	44bb4 <puts>
    printf("%f %f\n", model.bestModel.a, model.bestModel.b );
   4049c:	e0bff217 	ldw	r2,-56(fp)
   404a0:	1009883a 	mov	r4,r2
   404a4:	00446b40 	call	446b4 <__extendsfdf2>
   404a8:	1021883a 	mov	r16,r2
   404ac:	1823883a 	mov	r17,r3
   404b0:	e0bff317 	ldw	r2,-52(fp)
   404b4:	1009883a 	mov	r4,r2
   404b8:	00446b40 	call	446b4 <__extendsfdf2>
   404bc:	1009883a 	mov	r4,r2
   404c0:	180b883a 	mov	r5,r3
   404c4:	d9400015 	stw	r5,0(sp)
   404c8:	200f883a 	mov	r7,r4
   404cc:	800b883a 	mov	r5,r16
   404d0:	880d883a 	mov	r6,r17
   404d4:	01000174 	movhi	r4,5
   404d8:	2112e704 	addi	r4,r4,19356
   404dc:	0044a340 	call	44a34 <printf>
    printf("%f\n", model.bestFit);
   404e0:	e0bff417 	ldw	r2,-48(fp)
   404e4:	1009883a 	mov	r4,r2
   404e8:	00446b40 	call	446b4 <__extendsfdf2>
   404ec:	100d883a 	mov	r6,r2
   404f0:	180f883a 	mov	r7,r3
   404f4:	300b883a 	mov	r5,r6
   404f8:	380d883a 	mov	r6,r7
   404fc:	01000174 	movhi	r4,5
   40500:	2112e904 	addi	r4,r4,19364
   40504:	0044a340 	call	44a34 <printf>
    printf("%d\n", model.bestQty);
   40508:	e0bff517 	ldw	r2,-44(fp)
   4050c:	100b883a 	mov	r5,r2
   40510:	01000174 	movhi	r4,5
   40514:	2112ea04 	addi	r4,r4,19368
   40518:	0044a340 	call	44a34 <printf>
    printf("%f\n", angle);
   4051c:	e13d9517 	ldw	r4,-2476(fp)
   40520:	00446b40 	call	446b4 <__extendsfdf2>
   40524:	100d883a 	mov	r6,r2
   40528:	180f883a 	mov	r7,r3
   4052c:	300b883a 	mov	r5,r6
   40530:	380d883a 	mov	r6,r7
   40534:	01000174 	movhi	r4,5
   40538:	2112e904 	addi	r4,r4,19364
   4053c:	0044a340 	call	44a34 <printf>
    printf("%d\n", distance);
   40540:	e17d9417 	ldw	r5,-2480(fp)
   40544:	01000174 	movhi	r4,5
   40548:	2112ea04 	addi	r4,r4,19368
   4054c:	0044a340 	call	44a34 <printf>

    return 0;
   40550:	0005883a 	mov	r2,zero
}
   40554:	e6fffe04 	addi	sp,fp,-8
   40558:	dfc00317 	ldw	ra,12(sp)
   4055c:	df000217 	ldw	fp,8(sp)
   40560:	dc400117 	ldw	r17,4(sp)
   40564:	dc000017 	ldw	r16,0(sp)
   40568:	dec00404 	addi	sp,sp,16
   4056c:	f800283a 	ret

00040570 <calculateIntersection>:
#define E 2               // - A threshold value to determine data points that are fit well by the model (inlier).
#define N 10                // - Number of iterations required
#define MIN_DIST_POINTS 10  // - The minimum points distance required to select the sample


Point calculateIntersection(Line* k, Line* l) {
   40570:	defffb04 	addi	sp,sp,-20
   40574:	df000415 	stw	fp,16(sp)
   40578:	df000404 	addi	fp,sp,16
   4057c:	e13ffe15 	stw	r4,-8(fp)
   40580:	e17fff15 	stw	r5,-4(fp)
    Point intersection;
    intersection.x = (l->b - k->b) / (k->a - l->a);
   40584:	e0bfff17 	ldw	r2,-4(fp)
   40588:	10c00117 	ldw	r3,4(r2)
   4058c:	e13ffe17 	ldw	r4,-8(fp)
   40590:	20800117 	ldw	r2,4(r4)
   40594:	1887ffb2 	custom	254,r3,r3,r2
   40598:	e0bffe17 	ldw	r2,-8(fp)
   4059c:	11000017 	ldw	r4,0(r2)
   405a0:	e17fff17 	ldw	r5,-4(fp)
   405a4:	28800017 	ldw	r2,0(r5)
   405a8:	2085ffb2 	custom	254,r2,r4,r2
   405ac:	1885fff2 	custom	255,r2,r3,r2
   405b0:	1005fe72 	custom	249,r2,r2,zero
   405b4:	e0bffc15 	stw	r2,-16(fp)
    intersection.y = (k->a * intersection.x + k->b);
   405b8:	e0bffe17 	ldw	r2,-8(fp)
   405bc:	10c00017 	ldw	r3,0(r2)
   405c0:	e0bffc17 	ldw	r2,-16(fp)
   405c4:	1005feb2 	custom	250,r2,r2,zero
   405c8:	1887ff32 	custom	252,r3,r3,r2
   405cc:	e13ffe17 	ldw	r4,-8(fp)
   405d0:	20800117 	ldw	r2,4(r4)
   405d4:	1885ff72 	custom	253,r2,r3,r2
   405d8:	1005fe72 	custom	249,r2,r2,zero
   405dc:	e0bffd15 	stw	r2,-12(fp)
    return intersection;
   405e0:	e0bffc17 	ldw	r2,-16(fp)
   405e4:	e0fffd17 	ldw	r3,-12(fp)
   405e8:	1009883a 	mov	r4,r2
   405ec:	180b883a 	mov	r5,r3
}
   405f0:	2005883a 	mov	r2,r4
   405f4:	2807883a 	mov	r3,r5
   405f8:	e037883a 	mov	sp,fp
   405fc:	df000017 	ldw	fp,0(sp)
   40600:	dec00104 	addi	sp,sp,4
   40604:	f800283a 	ret

00040608 <getAngleFromModel>:

float getAngleFromModel(float a) {
   40608:	defffc04 	addi	sp,sp,-16
   4060c:	dfc00315 	stw	ra,12(sp)
   40610:	df000215 	stw	fp,8(sp)
   40614:	df000204 	addi	fp,sp,8
   40618:	e13fff15 	stw	r4,-4(fp)
    float radian = atan(a);
   4061c:	e13fff17 	ldw	r4,-4(fp)
   40620:	00446b40 	call	446b4 <__extendsfdf2>
   40624:	100b883a 	mov	r5,r2
   40628:	180d883a 	mov	r6,r3
   4062c:	2809883a 	mov	r4,r5
   40630:	300b883a 	mov	r5,r6
   40634:	00414200 	call	41420 <atan>
   40638:	100b883a 	mov	r5,r2
   4063c:	180d883a 	mov	r6,r3
   40640:	2809883a 	mov	r4,r5
   40644:	300b883a 	mov	r5,r6
   40648:	00447c40 	call	447c4 <__truncdfsf2>
   4064c:	1007883a 	mov	r3,r2
   40650:	e0fffe15 	stw	r3,-8(fp)
    return radian;
   40654:	e0bffe17 	ldw	r2,-8(fp)
   40658:	1007883a 	mov	r3,r2
}
   4065c:	1805883a 	mov	r2,r3
   40660:	e037883a 	mov	sp,fp
   40664:	dfc00117 	ldw	ra,4(sp)
   40668:	df000017 	ldw	fp,0(sp)
   4066c:	dec00204 	addi	sp,sp,8
   40670:	f800283a 	ret

00040674 <leastSquare>:

Line leastSquare(Point* data, int size) {
   40674:	deffed04 	addi	sp,sp,-76
   40678:	dfc01215 	stw	ra,72(sp)
   4067c:	df001115 	stw	fp,68(sp)
   40680:	df001104 	addi	fp,sp,68
   40684:	e13ffe15 	stw	r4,-8(fp)
   40688:	e17fff15 	stw	r5,-4(fp)
    float sx = 0;
   4068c:	e03fef15 	stw	zero,-68(fp)
    float sy = 0;
   40690:	e03ff015 	stw	zero,-64(fp)
    float sxy = 0;
   40694:	e03ff115 	stw	zero,-60(fp)
    float sx2 = 0;
   40698:	e03ff215 	stw	zero,-56(fp)
    if (size == 0) {
   4069c:	e0bfff17 	ldw	r2,-4(fp)
   406a0:	1000061e 	bne	r2,zero,406bc <leastSquare+0x48>
        Line line = {INFINITY, 0};
   406a4:	009fe034 	movhi	r2,32640
   406a8:	e0bffa15 	stw	r2,-24(fp)
   406ac:	e03ffb15 	stw	zero,-20(fp)
        return line;
   406b0:	e0bffa17 	ldw	r2,-24(fp)
   406b4:	e0fffb17 	ldw	r3,-20(fp)
   406b8:	00007006 	br	4087c <leastSquare+0x208>
    }
    for (int i = 0; i < size; i++) {
   406bc:	e03ff315 	stw	zero,-52(fp)
   406c0:	00003506 	br	40798 <leastSquare+0x124>
        sx += data[i].x;
   406c4:	e0bff317 	ldw	r2,-52(fp)
   406c8:	100490fa 	slli	r2,r2,3
   406cc:	e0fffe17 	ldw	r3,-8(fp)
   406d0:	1885883a 	add	r2,r3,r2
   406d4:	10800017 	ldw	r2,0(r2)
   406d8:	1005feb2 	custom	250,r2,r2,zero
   406dc:	e0ffef17 	ldw	r3,-68(fp)
   406e0:	1885ff72 	custom	253,r2,r3,r2
   406e4:	e0bfef15 	stw	r2,-68(fp)
        sy += data[i].y;
   406e8:	e0bff317 	ldw	r2,-52(fp)
   406ec:	100490fa 	slli	r2,r2,3
   406f0:	e0fffe17 	ldw	r3,-8(fp)
   406f4:	1885883a 	add	r2,r3,r2
   406f8:	10800117 	ldw	r2,4(r2)
   406fc:	1005feb2 	custom	250,r2,r2,zero
   40700:	e0fff017 	ldw	r3,-64(fp)
   40704:	1885ff72 	custom	253,r2,r3,r2
   40708:	e0bff015 	stw	r2,-64(fp)
        sxy += data[i].x * data[i].y;
   4070c:	e0bff317 	ldw	r2,-52(fp)
   40710:	100490fa 	slli	r2,r2,3
   40714:	e0fffe17 	ldw	r3,-8(fp)
   40718:	1885883a 	add	r2,r3,r2
   4071c:	11000017 	ldw	r4,0(r2)
   40720:	e0bff317 	ldw	r2,-52(fp)
   40724:	100490fa 	slli	r2,r2,3
   40728:	e0fffe17 	ldw	r3,-8(fp)
   4072c:	1885883a 	add	r2,r3,r2
   40730:	10800117 	ldw	r2,4(r2)
   40734:	100b883a 	mov	r5,r2
   40738:	00420700 	call	42070 <__mulsi3>
   4073c:	1005feb2 	custom	250,r2,r2,zero
   40740:	e0fff117 	ldw	r3,-60(fp)
   40744:	1885ff72 	custom	253,r2,r3,r2
   40748:	e0bff115 	stw	r2,-60(fp)
        sx2 += data[i].x * data[i].x;
   4074c:	e0bff317 	ldw	r2,-52(fp)
   40750:	100490fa 	slli	r2,r2,3
   40754:	e0fffe17 	ldw	r3,-8(fp)
   40758:	1885883a 	add	r2,r3,r2
   4075c:	11000017 	ldw	r4,0(r2)
   40760:	e0bff317 	ldw	r2,-52(fp)
   40764:	100490fa 	slli	r2,r2,3
   40768:	e0fffe17 	ldw	r3,-8(fp)
   4076c:	1885883a 	add	r2,r3,r2
   40770:	10800017 	ldw	r2,0(r2)
   40774:	100b883a 	mov	r5,r2
   40778:	00420700 	call	42070 <__mulsi3>
   4077c:	1005feb2 	custom	250,r2,r2,zero
   40780:	e0fff217 	ldw	r3,-56(fp)
   40784:	1885ff72 	custom	253,r2,r3,r2
   40788:	e0bff215 	stw	r2,-56(fp)
    float sx2 = 0;
    if (size == 0) {
        Line line = {INFINITY, 0};
        return line;
    }
    for (int i = 0; i < size; i++) {
   4078c:	e0bff317 	ldw	r2,-52(fp)
   40790:	10800044 	addi	r2,r2,1
   40794:	e0bff315 	stw	r2,-52(fp)
   40798:	e0fff317 	ldw	r3,-52(fp)
   4079c:	e0bfff17 	ldw	r2,-4(fp)
   407a0:	18bfc816 	blt	r3,r2,406c4 <_gp+0xfffe1648>
        sx += data[i].x;
        sy += data[i].y;
        sxy += data[i].x * data[i].y;
        sx2 += data[i].x * data[i].x;
    }
    float avg_y = sy / size;
   407a4:	e0bfff17 	ldw	r2,-4(fp)
   407a8:	1005feb2 	custom	250,r2,r2,zero
   407ac:	e0fff017 	ldw	r3,-64(fp)
   407b0:	1885fff2 	custom	255,r2,r3,r2
   407b4:	e0bff415 	stw	r2,-48(fp)
    float den = (size * sx2 - sx * sx);
   407b8:	e0bfff17 	ldw	r2,-4(fp)
   407bc:	1007feb2 	custom	250,r3,r2,zero
   407c0:	e0bff217 	ldw	r2,-56(fp)
   407c4:	1887ff32 	custom	252,r3,r3,r2
   407c8:	e13fef17 	ldw	r4,-68(fp)
   407cc:	e0bfef17 	ldw	r2,-68(fp)
   407d0:	2085ff32 	custom	252,r2,r4,r2
   407d4:	1885ffb2 	custom	254,r2,r3,r2
   407d8:	e0bff515 	stw	r2,-44(fp)
    if (den == 0) {
   407dc:	e0bff517 	ldw	r2,-44(fp)
   407e0:	0007883a 	mov	r3,zero
   407e4:	10c5f8b2 	custom	226,r2,r2,r3
   407e8:	1000071e 	bne	r2,zero,40808 <leastSquare+0x194>
        Line line = {INFINITY, avg_y};
   407ec:	009fe034 	movhi	r2,32640
   407f0:	e0bffc15 	stw	r2,-16(fp)
   407f4:	e0bff417 	ldw	r2,-48(fp)
   407f8:	e0bffd15 	stw	r2,-12(fp)
        return line;
   407fc:	e0bffc17 	ldw	r2,-16(fp)
   40800:	e0fffd17 	ldw	r3,-12(fp)
   40804:	00001d06 	br	4087c <leastSquare+0x208>
    }
    float a = (size * sxy - sx * sy) / den;
   40808:	e0bfff17 	ldw	r2,-4(fp)
   4080c:	1007feb2 	custom	250,r3,r2,zero
   40810:	e0bff117 	ldw	r2,-60(fp)
   40814:	1887ff32 	custom	252,r3,r3,r2
   40818:	e13fef17 	ldw	r4,-68(fp)
   4081c:	e0bff017 	ldw	r2,-64(fp)
   40820:	2085ff32 	custom	252,r2,r4,r2
   40824:	1887ffb2 	custom	254,r3,r3,r2
   40828:	e0bff517 	ldw	r2,-44(fp)
   4082c:	1885fff2 	custom	255,r2,r3,r2
   40830:	e0bff615 	stw	r2,-40(fp)
    float b = (sy / size) - a * (sx / size);
   40834:	e0bfff17 	ldw	r2,-4(fp)
   40838:	1005feb2 	custom	250,r2,r2,zero
   4083c:	e0fff017 	ldw	r3,-64(fp)
   40840:	1887fff2 	custom	255,r3,r3,r2
   40844:	e0bfff17 	ldw	r2,-4(fp)
   40848:	1005feb2 	custom	250,r2,r2,zero
   4084c:	e13fef17 	ldw	r4,-68(fp)
   40850:	2089fff2 	custom	255,r4,r4,r2
   40854:	e0bff617 	ldw	r2,-40(fp)
   40858:	2085ff32 	custom	252,r2,r4,r2
   4085c:	1885ffb2 	custom	254,r2,r3,r2
   40860:	e0bff715 	stw	r2,-36(fp)
    Line line = {a, b};
   40864:	e0bff617 	ldw	r2,-40(fp)
   40868:	e0bff815 	stw	r2,-32(fp)
   4086c:	e0bff717 	ldw	r2,-36(fp)
   40870:	e0bff915 	stw	r2,-28(fp)
    return line;
   40874:	e0bff817 	ldw	r2,-32(fp)
   40878:	e0fff917 	ldw	r3,-28(fp)
   4087c:	1009883a 	mov	r4,r2
   40880:	180b883a 	mov	r5,r3
}
   40884:	2005883a 	mov	r2,r4
   40888:	2807883a 	mov	r3,r5
   4088c:	e037883a 	mov	sp,fp
   40890:	dfc00117 	ldw	ra,4(sp)
   40894:	df000017 	ldw	fp,0(sp)
   40898:	dec00204 	addi	sp,sp,8
   4089c:	f800283a 	ret

000408a0 <coefficientOfDetermination>:

float coefficientOfDetermination(Point* data, Line model, float avg_y, int data_size) {
   408a0:	defff404 	addi	sp,sp,-48
   408a4:	df000b15 	stw	fp,44(sp)
   408a8:	df000b04 	addi	fp,sp,44
   408ac:	e13ffc15 	stw	r4,-16(fp)
   408b0:	e17ffd15 	stw	r5,-12(fp)
   408b4:	e1bffe15 	stw	r6,-8(fp)
   408b8:	e1ffff15 	stw	r7,-4(fp)
    float ss_res = 0;
   408bc:	e03ff515 	stw	zero,-44(fp)
    float ss_tot = 0;
   408c0:	e03ff615 	stw	zero,-40(fp)
    for (int i = 0; i < data_size; i++) {
   408c4:	e03ff715 	stw	zero,-36(fp)
   408c8:	00002c06 	br	4097c <coefficientOfDetermination+0xdc>
        float f = model.a * data[i].x + model.b;
   408cc:	e0fffd17 	ldw	r3,-12(fp)
   408d0:	e0bff717 	ldw	r2,-36(fp)
   408d4:	100490fa 	slli	r2,r2,3
   408d8:	e13ffc17 	ldw	r4,-16(fp)
   408dc:	2085883a 	add	r2,r4,r2
   408e0:	10800017 	ldw	r2,0(r2)
   408e4:	1005feb2 	custom	250,r2,r2,zero
   408e8:	1887ff32 	custom	252,r3,r3,r2
   408ec:	e0bffe17 	ldw	r2,-8(fp)
   408f0:	1885ff72 	custom	253,r2,r3,r2
   408f4:	e0bff815 	stw	r2,-32(fp)
        float y_f = (data[i].y - f);
   408f8:	e0bff717 	ldw	r2,-36(fp)
   408fc:	100490fa 	slli	r2,r2,3
   40900:	e0fffc17 	ldw	r3,-16(fp)
   40904:	1885883a 	add	r2,r3,r2
   40908:	10800117 	ldw	r2,4(r2)
   4090c:	1007feb2 	custom	250,r3,r2,zero
   40910:	e0bff817 	ldw	r2,-32(fp)
   40914:	1885ffb2 	custom	254,r2,r3,r2
   40918:	e0bff915 	stw	r2,-28(fp)
        float y_y = (data[i].y - avg_y);
   4091c:	e0bff717 	ldw	r2,-36(fp)
   40920:	100490fa 	slli	r2,r2,3
   40924:	e0fffc17 	ldw	r3,-16(fp)
   40928:	1885883a 	add	r2,r3,r2
   4092c:	10800117 	ldw	r2,4(r2)
   40930:	1007feb2 	custom	250,r3,r2,zero
   40934:	e0bfff17 	ldw	r2,-4(fp)
   40938:	1885ffb2 	custom	254,r2,r3,r2
   4093c:	e0bffa15 	stw	r2,-24(fp)
        ss_res += y_f * y_f;
   40940:	e0fff917 	ldw	r3,-28(fp)
   40944:	e0bff917 	ldw	r2,-28(fp)
   40948:	1885ff32 	custom	252,r2,r3,r2
   4094c:	e0fff517 	ldw	r3,-44(fp)
   40950:	1885ff72 	custom	253,r2,r3,r2
   40954:	e0bff515 	stw	r2,-44(fp)
        ss_tot += y_y * y_y;
   40958:	e0fffa17 	ldw	r3,-24(fp)
   4095c:	e0bffa17 	ldw	r2,-24(fp)
   40960:	1885ff32 	custom	252,r2,r3,r2
   40964:	e0fff617 	ldw	r3,-40(fp)
   40968:	1885ff72 	custom	253,r2,r3,r2
   4096c:	e0bff615 	stw	r2,-40(fp)
}

float coefficientOfDetermination(Point* data, Line model, float avg_y, int data_size) {
    float ss_res = 0;
    float ss_tot = 0;
    for (int i = 0; i < data_size; i++) {
   40970:	e0bff717 	ldw	r2,-36(fp)
   40974:	10800044 	addi	r2,r2,1
   40978:	e0bff715 	stw	r2,-36(fp)
   4097c:	e0fff717 	ldw	r3,-36(fp)
   40980:	e0800117 	ldw	r2,4(fp)
   40984:	18bfd116 	blt	r3,r2,408cc <_gp+0xfffe1850>
        float y_f = (data[i].y - f);
        float y_y = (data[i].y - avg_y);
        ss_res += y_f * y_f;
        ss_tot += y_y * y_y;
    }
    float r = (ss_res / ss_tot);
   40988:	e0fff517 	ldw	r3,-44(fp)
   4098c:	e0bff617 	ldw	r2,-40(fp)
   40990:	1885fff2 	custom	255,r2,r3,r2
   40994:	e0bffb15 	stw	r2,-20(fp)
    return r;
   40998:	e0bffb17 	ldw	r2,-20(fp)
   4099c:	1007883a 	mov	r3,r2
}
   409a0:	1805883a 	mov	r2,r3
   409a4:	e037883a 	mov	sp,fp
   409a8:	df000017 	ldw	fp,0(sp)
   409ac:	dec00104 	addi	sp,sp,4
   409b0:	f800283a 	ret

000409b4 <inliersOutliersMemory>:

void inliersOutliersMemory(int* data, Line model, Point* inliers, Point* outliers, int dataSize, int* inlierSize, int* outlierSize) {
   409b4:	defff504 	addi	sp,sp,-44
   409b8:	dfc00a15 	stw	ra,40(sp)
   409bc:	df000915 	stw	fp,36(sp)
   409c0:	df000904 	addi	fp,sp,36
   409c4:	e13ffc15 	stw	r4,-16(fp)
   409c8:	e17ffd15 	stw	r5,-12(fp)
   409cc:	e1bffe15 	stw	r6,-8(fp)
   409d0:	e1ffff15 	stw	r7,-4(fp)

    float square2 = E * E * (model.a * model.a + 1.0);
   409d4:	e0fffd17 	ldw	r3,-12(fp)
   409d8:	e0bffd17 	ldw	r2,-12(fp)
   409dc:	1885ff32 	custom	252,r2,r3,r2
   409e0:	1009883a 	mov	r4,r2
   409e4:	00446b40 	call	446b4 <__extendsfdf2>
   409e8:	1011883a 	mov	r8,r2
   409ec:	1813883a 	mov	r9,r3
   409f0:	000d883a 	mov	r6,zero
   409f4:	01cffc34 	movhi	r7,16368
   409f8:	4009883a 	mov	r4,r8
   409fc:	480b883a 	mov	r5,r9
   40a00:	00420980 	call	42098 <__adddf3>
   40a04:	1009883a 	mov	r4,r2
   40a08:	180b883a 	mov	r5,r3
   40a0c:	2005883a 	mov	r2,r4
   40a10:	2807883a 	mov	r3,r5
   40a14:	000d883a 	mov	r6,zero
   40a18:	01d00434 	movhi	r7,16400
   40a1c:	1009883a 	mov	r4,r2
   40a20:	180b883a 	mov	r5,r3
   40a24:	00433f00 	call	433f0 <__muldf3>
   40a28:	1009883a 	mov	r4,r2
   40a2c:	180b883a 	mov	r5,r3
   40a30:	2005883a 	mov	r2,r4
   40a34:	2807883a 	mov	r3,r5
   40a38:	1009883a 	mov	r4,r2
   40a3c:	180b883a 	mov	r5,r3
   40a40:	00447c40 	call	447c4 <__truncdfsf2>
   40a44:	1007883a 	mov	r3,r2
   40a48:	e0fff815 	stw	r3,-32(fp)
    for (int k = 0; k < dataSize; k++) {
   40a4c:	e03ff715 	stw	zero,-36(fp)
   40a50:	00006b06 	br	40c00 <inliersOutliersMemory+0x24c>
    	int tempX = data[k]&0xFF;
   40a54:	e0bff717 	ldw	r2,-36(fp)
   40a58:	1085883a 	add	r2,r2,r2
   40a5c:	1085883a 	add	r2,r2,r2
   40a60:	1007883a 	mov	r3,r2
   40a64:	e0bffc17 	ldw	r2,-16(fp)
   40a68:	10c5883a 	add	r2,r2,r3
   40a6c:	10800017 	ldw	r2,0(r2)
   40a70:	10803fcc 	andi	r2,r2,255
   40a74:	e0bff915 	stw	r2,-28(fp)
    	int tempY = (data[k]>>8)&0xFF ;
   40a78:	e0bff717 	ldw	r2,-36(fp)
   40a7c:	1085883a 	add	r2,r2,r2
   40a80:	1085883a 	add	r2,r2,r2
   40a84:	1007883a 	mov	r3,r2
   40a88:	e0bffc17 	ldw	r2,-16(fp)
   40a8c:	10c5883a 	add	r2,r2,r3
   40a90:	10800017 	ldw	r2,0(r2)
   40a94:	1005d23a 	srai	r2,r2,8
   40a98:	10803fcc 	andi	r2,r2,255
   40a9c:	e0bffa15 	stw	r2,-24(fp)
        float dist = (model.a * tempX - tempY + model.b);
   40aa0:	e0fffd17 	ldw	r3,-12(fp)
   40aa4:	e0bff917 	ldw	r2,-28(fp)
   40aa8:	1005feb2 	custom	250,r2,r2,zero
   40aac:	1887ff32 	custom	252,r3,r3,r2
   40ab0:	e0bffa17 	ldw	r2,-24(fp)
   40ab4:	1005feb2 	custom	250,r2,r2,zero
   40ab8:	1887ffb2 	custom	254,r3,r3,r2
   40abc:	e0bffe17 	ldw	r2,-8(fp)
   40ac0:	1885ff72 	custom	253,r2,r3,r2
   40ac4:	e0bffb15 	stw	r2,-20(fp)
        if (dist * dist <= square2) {
   40ac8:	e0fffb17 	ldw	r3,-20(fp)
   40acc:	e0bffb17 	ldw	r2,-20(fp)
   40ad0:	1887ff32 	custom	252,r3,r3,r2
   40ad4:	e0bff817 	ldw	r2,-32(fp)
   40ad8:	1885f9b2 	custom	230,r2,r3,r2
   40adc:	10002326 	beq	r2,zero,40b6c <inliersOutliersMemory+0x1b8>
        	inliers[*inlierSize].x = data[k]&0xFF;
   40ae0:	e0800417 	ldw	r2,16(fp)
   40ae4:	10800017 	ldw	r2,0(r2)
   40ae8:	100490fa 	slli	r2,r2,3
   40aec:	e0ffff17 	ldw	r3,-4(fp)
   40af0:	1887883a 	add	r3,r3,r2
   40af4:	e0bff717 	ldw	r2,-36(fp)
   40af8:	1085883a 	add	r2,r2,r2
   40afc:	1085883a 	add	r2,r2,r2
   40b00:	1009883a 	mov	r4,r2
   40b04:	e0bffc17 	ldw	r2,-16(fp)
   40b08:	1105883a 	add	r2,r2,r4
   40b0c:	10800017 	ldw	r2,0(r2)
   40b10:	10803fcc 	andi	r2,r2,255
   40b14:	18800015 	stw	r2,0(r3)
        	inliers[*inlierSize].y = (data[k]>>8)&0xFF;
   40b18:	e0800417 	ldw	r2,16(fp)
   40b1c:	10800017 	ldw	r2,0(r2)
   40b20:	100490fa 	slli	r2,r2,3
   40b24:	e0ffff17 	ldw	r3,-4(fp)
   40b28:	1887883a 	add	r3,r3,r2
   40b2c:	e0bff717 	ldw	r2,-36(fp)
   40b30:	1085883a 	add	r2,r2,r2
   40b34:	1085883a 	add	r2,r2,r2
   40b38:	1009883a 	mov	r4,r2
   40b3c:	e0bffc17 	ldw	r2,-16(fp)
   40b40:	1105883a 	add	r2,r2,r4
   40b44:	10800017 	ldw	r2,0(r2)
   40b48:	1005d23a 	srai	r2,r2,8
   40b4c:	10803fcc 	andi	r2,r2,255
   40b50:	18800115 	stw	r2,4(r3)
            (*inlierSize)++;
   40b54:	e0800417 	ldw	r2,16(fp)
   40b58:	10800017 	ldw	r2,0(r2)
   40b5c:	10c00044 	addi	r3,r2,1
   40b60:	e0800417 	ldw	r2,16(fp)
   40b64:	10c00015 	stw	r3,0(r2)
   40b68:	00002206 	br	40bf4 <inliersOutliersMemory+0x240>
        } else {
        	outliers[*outlierSize].x = data[k]&0xFF;
   40b6c:	e0800517 	ldw	r2,20(fp)
   40b70:	10800017 	ldw	r2,0(r2)
   40b74:	100490fa 	slli	r2,r2,3
   40b78:	e0c00217 	ldw	r3,8(fp)
   40b7c:	1887883a 	add	r3,r3,r2
   40b80:	e0bff717 	ldw	r2,-36(fp)
   40b84:	1085883a 	add	r2,r2,r2
   40b88:	1085883a 	add	r2,r2,r2
   40b8c:	1009883a 	mov	r4,r2
   40b90:	e0bffc17 	ldw	r2,-16(fp)
   40b94:	1105883a 	add	r2,r2,r4
   40b98:	10800017 	ldw	r2,0(r2)
   40b9c:	10803fcc 	andi	r2,r2,255
   40ba0:	18800015 	stw	r2,0(r3)
        	outliers[*outlierSize].y = (data[k]>>8)&0xFF;
   40ba4:	e0800517 	ldw	r2,20(fp)
   40ba8:	10800017 	ldw	r2,0(r2)
   40bac:	100490fa 	slli	r2,r2,3
   40bb0:	e0c00217 	ldw	r3,8(fp)
   40bb4:	1887883a 	add	r3,r3,r2
   40bb8:	e0bff717 	ldw	r2,-36(fp)
   40bbc:	1085883a 	add	r2,r2,r2
   40bc0:	1085883a 	add	r2,r2,r2
   40bc4:	1009883a 	mov	r4,r2
   40bc8:	e0bffc17 	ldw	r2,-16(fp)
   40bcc:	1105883a 	add	r2,r2,r4
   40bd0:	10800017 	ldw	r2,0(r2)
   40bd4:	1005d23a 	srai	r2,r2,8
   40bd8:	10803fcc 	andi	r2,r2,255
   40bdc:	18800115 	stw	r2,4(r3)
            (*outlierSize)++;
   40be0:	e0800517 	ldw	r2,20(fp)
   40be4:	10800017 	ldw	r2,0(r2)
   40be8:	10c00044 	addi	r3,r2,1
   40bec:	e0800517 	ldw	r2,20(fp)
   40bf0:	10c00015 	stw	r3,0(r2)
}

void inliersOutliersMemory(int* data, Line model, Point* inliers, Point* outliers, int dataSize, int* inlierSize, int* outlierSize) {

    float square2 = E * E * (model.a * model.a + 1.0);
    for (int k = 0; k < dataSize; k++) {
   40bf4:	e0bff717 	ldw	r2,-36(fp)
   40bf8:	10800044 	addi	r2,r2,1
   40bfc:	e0bff715 	stw	r2,-36(fp)
   40c00:	e0fff717 	ldw	r3,-36(fp)
   40c04:	e0800317 	ldw	r2,12(fp)
   40c08:	18bf9216 	blt	r3,r2,40a54 <_gp+0xfffe19d8>
        	outliers[*outlierSize].x = data[k]&0xFF;
        	outliers[*outlierSize].y = (data[k]>>8)&0xFF;
            (*outlierSize)++;
        }
    }
}
   40c0c:	0001883a 	nop
   40c10:	e037883a 	mov	sp,fp
   40c14:	dfc00117 	ldw	ra,4(sp)
   40c18:	df000017 	ldw	fp,0(sp)
   40c1c:	dec00204 	addi	sp,sp,8
   40c20:	f800283a 	ret

00040c24 <inliersOutliers>:

void inliersOutliers(Point* data, Line model, Point* inliers, Point* outliers, int dataSize, int* inlierSize, int* outlierSize) {
   40c24:	defff704 	addi	sp,sp,-36
   40c28:	dfc00815 	stw	ra,32(sp)
   40c2c:	df000715 	stw	fp,28(sp)
   40c30:	df000704 	addi	fp,sp,28
   40c34:	e13ffc15 	stw	r4,-16(fp)
   40c38:	e17ffd15 	stw	r5,-12(fp)
   40c3c:	e1bffe15 	stw	r6,-8(fp)
   40c40:	e1ffff15 	stw	r7,-4(fp)

    float square2 = E * E * (model.a * model.a + 1.0);
   40c44:	e0fffd17 	ldw	r3,-12(fp)
   40c48:	e0bffd17 	ldw	r2,-12(fp)
   40c4c:	1885ff32 	custom	252,r2,r3,r2
   40c50:	1009883a 	mov	r4,r2
   40c54:	00446b40 	call	446b4 <__extendsfdf2>
   40c58:	1011883a 	mov	r8,r2
   40c5c:	1813883a 	mov	r9,r3
   40c60:	000d883a 	mov	r6,zero
   40c64:	01cffc34 	movhi	r7,16368
   40c68:	4009883a 	mov	r4,r8
   40c6c:	480b883a 	mov	r5,r9
   40c70:	00420980 	call	42098 <__adddf3>
   40c74:	1009883a 	mov	r4,r2
   40c78:	180b883a 	mov	r5,r3
   40c7c:	2005883a 	mov	r2,r4
   40c80:	2807883a 	mov	r3,r5
   40c84:	000d883a 	mov	r6,zero
   40c88:	01d00434 	movhi	r7,16400
   40c8c:	1009883a 	mov	r4,r2
   40c90:	180b883a 	mov	r5,r3
   40c94:	00433f00 	call	433f0 <__muldf3>
   40c98:	1009883a 	mov	r4,r2
   40c9c:	180b883a 	mov	r5,r3
   40ca0:	2005883a 	mov	r2,r4
   40ca4:	2807883a 	mov	r3,r5
   40ca8:	1009883a 	mov	r4,r2
   40cac:	180b883a 	mov	r5,r3
   40cb0:	00447c40 	call	447c4 <__truncdfsf2>
   40cb4:	1007883a 	mov	r3,r2
   40cb8:	e0fffa15 	stw	r3,-24(fp)

    for (int k = 0; k < dataSize; k++) {
   40cbc:	e03ff915 	stw	zero,-28(fp)
   40cc0:	00005206 	br	40e0c <inliersOutliers+0x1e8>
        float dist = (model.a * data[k].x - data[k].y + model.b);
   40cc4:	e0fffd17 	ldw	r3,-12(fp)
   40cc8:	e0bff917 	ldw	r2,-28(fp)
   40ccc:	100490fa 	slli	r2,r2,3
   40cd0:	e13ffc17 	ldw	r4,-16(fp)
   40cd4:	2085883a 	add	r2,r4,r2
   40cd8:	10800017 	ldw	r2,0(r2)
   40cdc:	1005feb2 	custom	250,r2,r2,zero
   40ce0:	1887ff32 	custom	252,r3,r3,r2
   40ce4:	e0bff917 	ldw	r2,-28(fp)
   40ce8:	100490fa 	slli	r2,r2,3
   40cec:	e13ffc17 	ldw	r4,-16(fp)
   40cf0:	2085883a 	add	r2,r4,r2
   40cf4:	10800117 	ldw	r2,4(r2)
   40cf8:	1005feb2 	custom	250,r2,r2,zero
   40cfc:	1887ffb2 	custom	254,r3,r3,r2
   40d00:	e0bffe17 	ldw	r2,-8(fp)
   40d04:	1885ff72 	custom	253,r2,r3,r2
   40d08:	e0bffb15 	stw	r2,-20(fp)
        if (dist * dist <= square2) {
   40d0c:	e0fffb17 	ldw	r3,-20(fp)
   40d10:	e0bffb17 	ldw	r2,-20(fp)
   40d14:	1887ff32 	custom	252,r3,r3,r2
   40d18:	e0bffa17 	ldw	r2,-24(fp)
   40d1c:	1885f9b2 	custom	230,r2,r3,r2
   40d20:	10001c26 	beq	r2,zero,40d94 <inliersOutliers+0x170>
            inliers[*inlierSize].x = data[k].x;
   40d24:	e0800417 	ldw	r2,16(fp)
   40d28:	10800017 	ldw	r2,0(r2)
   40d2c:	100490fa 	slli	r2,r2,3
   40d30:	e0ffff17 	ldw	r3,-4(fp)
   40d34:	1885883a 	add	r2,r3,r2
   40d38:	e0fff917 	ldw	r3,-28(fp)
   40d3c:	180690fa 	slli	r3,r3,3
   40d40:	e13ffc17 	ldw	r4,-16(fp)
   40d44:	20c7883a 	add	r3,r4,r3
   40d48:	18c00017 	ldw	r3,0(r3)
   40d4c:	10c00015 	stw	r3,0(r2)
            inliers[*inlierSize].y = data[k].y;
   40d50:	e0800417 	ldw	r2,16(fp)
   40d54:	10800017 	ldw	r2,0(r2)
   40d58:	100490fa 	slli	r2,r2,3
   40d5c:	e0ffff17 	ldw	r3,-4(fp)
   40d60:	1885883a 	add	r2,r3,r2
   40d64:	e0fff917 	ldw	r3,-28(fp)
   40d68:	180690fa 	slli	r3,r3,3
   40d6c:	e13ffc17 	ldw	r4,-16(fp)
   40d70:	20c7883a 	add	r3,r4,r3
   40d74:	18c00117 	ldw	r3,4(r3)
   40d78:	10c00115 	stw	r3,4(r2)
            (*inlierSize)++;
   40d7c:	e0800417 	ldw	r2,16(fp)
   40d80:	10800017 	ldw	r2,0(r2)
   40d84:	10c00044 	addi	r3,r2,1
   40d88:	e0800417 	ldw	r2,16(fp)
   40d8c:	10c00015 	stw	r3,0(r2)
   40d90:	00001b06 	br	40e00 <inliersOutliers+0x1dc>
        } else {
            outliers[*outlierSize].x = data[k].x;
   40d94:	e0800517 	ldw	r2,20(fp)
   40d98:	10800017 	ldw	r2,0(r2)
   40d9c:	100490fa 	slli	r2,r2,3
   40da0:	e0c00217 	ldw	r3,8(fp)
   40da4:	1885883a 	add	r2,r3,r2
   40da8:	e0fff917 	ldw	r3,-28(fp)
   40dac:	180690fa 	slli	r3,r3,3
   40db0:	e13ffc17 	ldw	r4,-16(fp)
   40db4:	20c7883a 	add	r3,r4,r3
   40db8:	18c00017 	ldw	r3,0(r3)
   40dbc:	10c00015 	stw	r3,0(r2)
            outliers[*outlierSize].y = data[k].y;
   40dc0:	e0800517 	ldw	r2,20(fp)
   40dc4:	10800017 	ldw	r2,0(r2)
   40dc8:	100490fa 	slli	r2,r2,3
   40dcc:	e0c00217 	ldw	r3,8(fp)
   40dd0:	1885883a 	add	r2,r3,r2
   40dd4:	e0fff917 	ldw	r3,-28(fp)
   40dd8:	180690fa 	slli	r3,r3,3
   40ddc:	e13ffc17 	ldw	r4,-16(fp)
   40de0:	20c7883a 	add	r3,r4,r3
   40de4:	18c00117 	ldw	r3,4(r3)
   40de8:	10c00115 	stw	r3,4(r2)
            (*outlierSize)++;
   40dec:	e0800517 	ldw	r2,20(fp)
   40df0:	10800017 	ldw	r2,0(r2)
   40df4:	10c00044 	addi	r3,r2,1
   40df8:	e0800517 	ldw	r2,20(fp)
   40dfc:	10c00015 	stw	r3,0(r2)

void inliersOutliers(Point* data, Line model, Point* inliers, Point* outliers, int dataSize, int* inlierSize, int* outlierSize) {

    float square2 = E * E * (model.a * model.a + 1.0);

    for (int k = 0; k < dataSize; k++) {
   40e00:	e0bff917 	ldw	r2,-28(fp)
   40e04:	10800044 	addi	r2,r2,1
   40e08:	e0bff915 	stw	r2,-28(fp)
   40e0c:	e0fff917 	ldw	r3,-28(fp)
   40e10:	e0800317 	ldw	r2,12(fp)
   40e14:	18bfab16 	blt	r3,r2,40cc4 <_gp+0xfffe1c48>
            outliers[*outlierSize].x = data[k].x;
            outliers[*outlierSize].y = data[k].y;
            (*outlierSize)++;
        }
    }
}
   40e18:	0001883a 	nop
   40e1c:	e037883a 	mov	sp,fp
   40e20:	dfc00117 	ldw	ra,4(sp)
   40e24:	df000017 	ldw	fp,0(sp)
   40e28:	dec00204 	addi	sp,sp,8
   40e2c:	f800283a 	ret

00040e30 <checkModel>:

void checkModel(Point* data, Point* temp, RansacResult* rs, int data_size, int temp_size) {
   40e30:	defb3d04 	addi	sp,sp,-4876
   40e34:	dfc4c215 	stw	ra,4872(sp)
   40e38:	df04c115 	stw	fp,4868(sp)
   40e3c:	df04c104 	addi	fp,sp,4868
   40e40:	e13ffc15 	stw	r4,-16(fp)
   40e44:	e17ffd15 	stw	r5,-12(fp)
   40e48:	e1bffe15 	stw	r6,-8(fp)
   40e4c:	e1ffff15 	stw	r7,-4(fp)

    Point inliers[MAX_POINTS];
    Point outliers[MAX_POINTS];
    int inlinersSize = 0;
   40e50:	e03ff615 	stw	zero,-40(fp)
    int outlierSize = 0;
   40e54:	e03ff715 	stw	zero,-36(fp)
    Line model = leastSquare(temp, temp_size);
   40e58:	e1400217 	ldw	r5,8(fp)
   40e5c:	e13ffd17 	ldw	r4,-12(fp)
   40e60:	00406740 	call	40674 <leastSquare>
   40e64:	1009883a 	mov	r4,r2
   40e68:	180b883a 	mov	r5,r3
   40e6c:	e13ff815 	stw	r4,-32(fp)
   40e70:	e17ff915 	stw	r5,-28(fp)

    inliersOutliers(data, model, inliers, outliers, data_size, &inlinersSize, &outlierSize);
   40e74:	e0fb4604 	addi	r3,fp,-4840
   40e78:	e0bff704 	addi	r2,fp,-36
   40e7c:	d8800315 	stw	r2,12(sp)
   40e80:	e0bff604 	addi	r2,fp,-40
   40e84:	d8800215 	stw	r2,8(sp)
   40e88:	e0bfff17 	ldw	r2,-4(fp)
   40e8c:	d8800115 	stw	r2,4(sp)
   40e90:	e0bd9e04 	addi	r2,fp,-2440
   40e94:	d8800015 	stw	r2,0(sp)
   40e98:	180f883a 	mov	r7,r3
   40e9c:	e17ff817 	ldw	r5,-32(fp)
   40ea0:	e1bff917 	ldw	r6,-28(fp)
   40ea4:	e13ffc17 	ldw	r4,-16(fp)
   40ea8:	0040c240 	call	40c24 <inliersOutliers>

    if(inlinersSize >= rs->bestQty && inlinersSize >= (int)(data_size * C)){
   40eac:	e0bffe17 	ldw	r2,-8(fp)
   40eb0:	10800317 	ldw	r2,12(r2)
   40eb4:	e0fff617 	ldw	r3,-40(fp)
   40eb8:	18804e16 	blt	r3,r2,40ff4 <checkModel+0x1c4>
   40ebc:	e13fff17 	ldw	r4,-4(fp)
   40ec0:	00445d80 	call	445d8 <__floatsidf>
   40ec4:	1011883a 	mov	r8,r2
   40ec8:	1813883a 	mov	r9,r3
   40ecc:	000d883a 	mov	r6,zero
   40ed0:	000f883a 	mov	r7,zero
   40ed4:	4009883a 	mov	r4,r8
   40ed8:	480b883a 	mov	r5,r9
   40edc:	00433f00 	call	433f0 <__muldf3>
   40ee0:	1009883a 	mov	r4,r2
   40ee4:	180b883a 	mov	r5,r3
   40ee8:	2005883a 	mov	r2,r4
   40eec:	2807883a 	mov	r3,r5
   40ef0:	1009883a 	mov	r4,r2
   40ef4:	180b883a 	mov	r5,r3
   40ef8:	00445580 	call	44558 <__fixdfsi>
   40efc:	1007883a 	mov	r3,r2
   40f00:	e0bff617 	ldw	r2,-40(fp)
   40f04:	10c03b16 	blt	r2,r3,40ff4 <checkModel+0x1c4>
        Line inliersModel = leastSquare(inliers, inlinersSize);
   40f08:	e0fff617 	ldw	r3,-40(fp)
   40f0c:	e0bb4604 	addi	r2,fp,-4840
   40f10:	180b883a 	mov	r5,r3
   40f14:	1009883a 	mov	r4,r2
   40f18:	00406740 	call	40674 <leastSquare>
   40f1c:	1009883a 	mov	r4,r2
   40f20:	180b883a 	mov	r5,r3
   40f24:	e13ffa15 	stw	r4,-24(fp)
   40f28:	e17ffb15 	stw	r5,-20(fp)
        float inliersAvg_y = 0;
   40f2c:	e03b4315 	stw	zero,-4852(fp)
        for (int i = 0; i < inlinersSize; i++) {
   40f30:	e03b4415 	stw	zero,-4848(fp)
   40f34:	00000d06 	br	40f6c <checkModel+0x13c>
            inliersAvg_y += inliers[i].y;
   40f38:	e0bb4417 	ldw	r2,-4848(fp)
   40f3c:	100490fa 	slli	r2,r2,3
   40f40:	e0fb4304 	addi	r3,fp,-4852
   40f44:	1885883a 	add	r2,r3,r2
   40f48:	10800404 	addi	r2,r2,16
   40f4c:	10800017 	ldw	r2,0(r2)
   40f50:	1005feb2 	custom	250,r2,r2,zero
   40f54:	e0fb4317 	ldw	r3,-4852(fp)
   40f58:	1885ff72 	custom	253,r2,r3,r2
   40f5c:	e0bb4315 	stw	r2,-4852(fp)
    inliersOutliers(data, model, inliers, outliers, data_size, &inlinersSize, &outlierSize);

    if(inlinersSize >= rs->bestQty && inlinersSize >= (int)(data_size * C)){
        Line inliersModel = leastSquare(inliers, inlinersSize);
        float inliersAvg_y = 0;
        for (int i = 0; i < inlinersSize; i++) {
   40f60:	e0bb4417 	ldw	r2,-4848(fp)
   40f64:	10800044 	addi	r2,r2,1
   40f68:	e0bb4415 	stw	r2,-4848(fp)
   40f6c:	e0bff617 	ldw	r2,-40(fp)
   40f70:	e0fb4417 	ldw	r3,-4848(fp)
   40f74:	18bff016 	blt	r3,r2,40f38 <_gp+0xfffe1ebc>
            inliersAvg_y += inliers[i].y;
        }
        inliersAvg_y /= inlinersSize;
   40f78:	e0bff617 	ldw	r2,-40(fp)
   40f7c:	1005feb2 	custom	250,r2,r2,zero
   40f80:	e0fb4317 	ldw	r3,-4852(fp)
   40f84:	1885fff2 	custom	255,r2,r3,r2
   40f88:	e0bb4315 	stw	r2,-4852(fp)
        float  inliersFit = coefficientOfDetermination(inliers, inliersModel, inliersAvg_y, data_size);
   40f8c:	e0fb4604 	addi	r3,fp,-4840
   40f90:	e0bfff17 	ldw	r2,-4(fp)
   40f94:	d8800015 	stw	r2,0(sp)
   40f98:	e1fb4317 	ldw	r7,-4852(fp)
   40f9c:	e17ffa17 	ldw	r5,-24(fp)
   40fa0:	e1bffb17 	ldw	r6,-20(fp)
   40fa4:	1809883a 	mov	r4,r3
   40fa8:	00408a00 	call	408a0 <coefficientOfDetermination>
   40fac:	e0bb4515 	stw	r2,-4844(fp)
        if (inliersFit < rs->bestFit) {
   40fb0:	e0bffe17 	ldw	r2,-8(fp)
   40fb4:	10c00217 	ldw	r3,8(r2)
   40fb8:	e0bb4517 	ldw	r2,-4844(fp)
   40fbc:	1885f972 	custom	229,r2,r3,r2
   40fc0:	1000011e 	bne	r2,zero,40fc8 <checkModel+0x198>
        rs->bestModel = inliersModel;
        rs->bestFit = inliersFit;
        rs->bestQty = inlinersSize;
        }
    }
}
   40fc4:	00000b06 	br	40ff4 <checkModel+0x1c4>
            inliersAvg_y += inliers[i].y;
        }
        inliersAvg_y /= inlinersSize;
        float  inliersFit = coefficientOfDetermination(inliers, inliersModel, inliersAvg_y, data_size);
        if (inliersFit < rs->bestFit) {
        rs->bestModel = inliersModel;
   40fc8:	e0bffe17 	ldw	r2,-8(fp)
   40fcc:	e0fffa17 	ldw	r3,-24(fp)
   40fd0:	10c00015 	stw	r3,0(r2)
   40fd4:	e0fffb17 	ldw	r3,-20(fp)
   40fd8:	10c00115 	stw	r3,4(r2)
        rs->bestFit = inliersFit;
   40fdc:	e0bffe17 	ldw	r2,-8(fp)
   40fe0:	e0fb4517 	ldw	r3,-4844(fp)
   40fe4:	10c00215 	stw	r3,8(r2)
        rs->bestQty = inlinersSize;
   40fe8:	e0fff617 	ldw	r3,-40(fp)
   40fec:	e0bffe17 	ldw	r2,-8(fp)
   40ff0:	10c00315 	stw	r3,12(r2)
        }
    }
}
   40ff4:	0001883a 	nop
   40ff8:	e037883a 	mov	sp,fp
   40ffc:	dfc00117 	ldw	ra,4(sp)
   41000:	df000017 	ldw	fp,0(sp)
   41004:	dec00204 	addi	sp,sp,8
   41008:	f800283a 	ret

0004100c <squareDistanceBetweenPoints>:

float squareDistanceBetweenPoints (Point* a, Point* b){
   4100c:	defff904 	addi	sp,sp,-28
   41010:	dfc00615 	stw	ra,24(sp)
   41014:	df000515 	stw	fp,20(sp)
   41018:	dc000415 	stw	r16,16(sp)
   4101c:	df000504 	addi	fp,sp,20
   41020:	e13ffd15 	stw	r4,-12(fp)
   41024:	e17ffe15 	stw	r5,-8(fp)
    int dx = a->x - b->x;
   41028:	e0bffd17 	ldw	r2,-12(fp)
   4102c:	10c00017 	ldw	r3,0(r2)
   41030:	e0bffe17 	ldw	r2,-8(fp)
   41034:	10800017 	ldw	r2,0(r2)
   41038:	1885c83a 	sub	r2,r3,r2
   4103c:	e0bffb15 	stw	r2,-20(fp)
    int dy = a->y - b->y;
   41040:	e0bffd17 	ldw	r2,-12(fp)
   41044:	10c00117 	ldw	r3,4(r2)
   41048:	e0bffe17 	ldw	r2,-8(fp)
   4104c:	10800117 	ldw	r2,4(r2)
   41050:	1885c83a 	sub	r2,r3,r2
   41054:	e0bffc15 	stw	r2,-16(fp)
    return (dx * dx) + (dy * dy);
   41058:	e17ffb17 	ldw	r5,-20(fp)
   4105c:	e13ffb17 	ldw	r4,-20(fp)
   41060:	00420700 	call	42070 <__mulsi3>
   41064:	1021883a 	mov	r16,r2
   41068:	e17ffc17 	ldw	r5,-16(fp)
   4106c:	e13ffc17 	ldw	r4,-16(fp)
   41070:	00420700 	call	42070 <__mulsi3>
   41074:	8085883a 	add	r2,r16,r2
   41078:	1005feb2 	custom	250,r2,r2,zero
   4107c:	1007883a 	mov	r3,r2
}
   41080:	1805883a 	mov	r2,r3
   41084:	e6ffff04 	addi	sp,fp,-4
   41088:	dfc00217 	ldw	ra,8(sp)
   4108c:	df000117 	ldw	fp,4(sp)
   41090:	dc000017 	ldw	r16,0(sp)
   41094:	dec00304 	addi	sp,sp,12
   41098:	f800283a 	ret

0004109c <RANSAC>:

RansacResult RANSAC(int* data, Point* botPos, Point* outliers, int data_size) {
   4109c:	defd8604 	addi	sp,sp,-2536
   410a0:	dfc27915 	stw	ra,2532(sp)
   410a4:	df027815 	stw	fp,2528(sp)
   410a8:	ddc27715 	stw	r23,2524(sp)
   410ac:	dd827615 	stw	r22,2520(sp)
   410b0:	dd427515 	stw	r21,2516(sp)
   410b4:	dd027415 	stw	r20,2512(sp)
   410b8:	dcc27315 	stw	r19,2508(sp)
   410bc:	dc827215 	stw	r18,2504(sp)
   410c0:	dc427115 	stw	r17,2500(sp)
   410c4:	dc027015 	stw	r16,2496(sp)
   410c8:	df027804 	addi	fp,sp,2528
   410cc:	e13ff115 	stw	r4,-60(fp)
   410d0:	e17ff215 	stw	r5,-56(fp)
   410d4:	e1bff315 	stw	r6,-52(fp)
   410d8:	e1fff415 	stw	r7,-48(fp)
   410dc:	d805883a 	mov	r2,sp
   410e0:	e0bff515 	stw	r2,-44(fp)
    RansacResult rs;

    rs.bestModel.a = 0.0;
   410e4:	e03d9315 	stw	zero,-2484(fp)
    rs.bestModel.b = (float)botPos->y;
   410e8:	e0bff317 	ldw	r2,-52(fp)
   410ec:	10800117 	ldw	r2,4(r2)
   410f0:	1005feb2 	custom	250,r2,r2,zero
   410f4:	e0bd9415 	stw	r2,-2480(fp)
    rs.bestFit = INFINITY;
   410f8:	009fe034 	movhi	r2,32640
   410fc:	e0bd9515 	stw	r2,-2476(fp)
    rs.bestQty = 0;
   41100:	e03d9615 	stw	zero,-2472(fp)

    printf("RS-ModelInit: %f %f\n", rs.bestModel.a, rs.bestModel.b );
   41104:	e0bd9317 	ldw	r2,-2484(fp)
   41108:	1009883a 	mov	r4,r2
   4110c:	00446b40 	call	446b4 <__extendsfdf2>
   41110:	e0bff615 	stw	r2,-40(fp)
   41114:	e0fff715 	stw	r3,-36(fp)
   41118:	e0bd9417 	ldw	r2,-2480(fp)
   4111c:	1009883a 	mov	r4,r2
   41120:	00446b40 	call	446b4 <__extendsfdf2>
   41124:	1009883a 	mov	r4,r2
   41128:	180b883a 	mov	r5,r3
   4112c:	d9400015 	stw	r5,0(sp)
   41130:	200f883a 	mov	r7,r4
   41134:	e17ff617 	ldw	r5,-40(fp)
   41138:	e1bff717 	ldw	r6,-36(fp)
   4113c:	01000174 	movhi	r4,5
   41140:	2112eb04 	addi	r4,r4,19372
   41144:	0044a340 	call	44a34 <printf>

    Point inliers[MAX_POINTS];

    int temp_dist_points = 0;
   41148:	e03d8c15 	stw	zero,-2512(fp)
    int temp_index = 0;
   4114c:	e03d8f15 	stw	zero,-2500(fp)

    int loopCounter = 0;
   41150:	e03d8d15 	stw	zero,-2508(fp)
    int inlinersSize = 0;
   41154:	e03fef15 	stw	zero,-68(fp)
    int outlierSize = 0;
   41158:	e03ff015 	stw	zero,-64(fp)

    inliersOutliersMemory(data, rs.bestModel, inliers, outliers, data_size, &inlinersSize, &outlierSize);
   4115c:	e0fd9704 	addi	r3,fp,-2468
   41160:	e0bff004 	addi	r2,fp,-64
   41164:	d8800315 	stw	r2,12(sp)
   41168:	e0bfef04 	addi	r2,fp,-68
   4116c:	d8800215 	stw	r2,8(sp)
   41170:	e0800217 	ldw	r2,8(fp)
   41174:	d8800115 	stw	r2,4(sp)
   41178:	e0bff417 	ldw	r2,-48(fp)
   4117c:	d8800015 	stw	r2,0(sp)
   41180:	180f883a 	mov	r7,r3
   41184:	e17d9317 	ldw	r5,-2484(fp)
   41188:	e1bd9417 	ldw	r6,-2480(fp)
   4118c:	e13ff217 	ldw	r4,-56(fp)
   41190:	00409b40 	call	409b4 <inliersOutliersMemory>

    printf("RS-inlinersSize: %d\n", inlinersSize);
   41194:	e0bfef17 	ldw	r2,-68(fp)
   41198:	100b883a 	mov	r5,r2
   4119c:	01000174 	movhi	r4,5
   411a0:	2112f104 	addi	r4,r4,19396
   411a4:	0044a340 	call	44a34 <printf>
    printf("RS-outliers: %d\n", outlierSize);
   411a8:	e0bff017 	ldw	r2,-64(fp)
   411ac:	100b883a 	mov	r5,r2
   411b0:	01000174 	movhi	r4,5
   411b4:	2112f704 	addi	r4,r4,19420
   411b8:	0044a340 	call	44a34 <printf>

    if (outlierSize == 0) {
   411bc:	e0bff017 	ldw	r2,-64(fp)
   411c0:	10000e1e 	bne	r2,zero,411fc <RANSAC+0x160>
        rs.bestFit = INFINITY;
   411c4:	009fe034 	movhi	r2,32640
   411c8:	e0bd9515 	stw	r2,-2476(fp)
        rs.bestQty = data_size;
   411cc:	e0800217 	ldw	r2,8(fp)
   411d0:	e0bd9615 	stw	r2,-2472(fp)
        return rs;
   411d4:	e0bff117 	ldw	r2,-60(fp)
   411d8:	e0fd9317 	ldw	r3,-2484(fp)
   411dc:	10c00015 	stw	r3,0(r2)
   411e0:	e0fd9417 	ldw	r3,-2480(fp)
   411e4:	10c00115 	stw	r3,4(r2)
   411e8:	e0fd9517 	ldw	r3,-2476(fp)
   411ec:	10c00215 	stw	r3,8(r2)
   411f0:	e0fd9617 	ldw	r3,-2472(fp)
   411f4:	10c00315 	stw	r3,12(r2)
   411f8:	00007a06 	br	413e4 <RANSAC+0x348>
    }

    int temp_size = MIN_POINTS;
   411fc:	00800084 	movi	r2,2
   41200:	e0bd9015 	stw	r2,-2496(fp)
    Point temp[temp_size]; // alocao tamanho P
   41204:	e0bd9017 	ldw	r2,-2496(fp)
   41208:	10ffffc4 	addi	r3,r2,-1
   4120c:	e0fd9115 	stw	r3,-2492(fp)
   41210:	1007883a 	mov	r3,r2
   41214:	182d883a 	mov	r22,r3
   41218:	002f883a 	mov	r23,zero
   4121c:	b006d6ba 	srli	r3,r22,26
   41220:	b82691ba 	slli	r19,r23,6
   41224:	1ce6b03a 	or	r19,r3,r19
   41228:	b02491ba 	slli	r18,r22,6
   4122c:	1007883a 	mov	r3,r2
   41230:	1829883a 	mov	r20,r3
   41234:	002b883a 	mov	r21,zero
   41238:	a006d6ba 	srli	r3,r20,26
   4123c:	a82291ba 	slli	r17,r21,6
   41240:	1c62b03a 	or	r17,r3,r17
   41244:	a02091ba 	slli	r16,r20,6
   41248:	100490fa 	slli	r2,r2,3
   4124c:	108000c4 	addi	r2,r2,3
   41250:	108000c4 	addi	r2,r2,3
   41254:	1004d0ba 	srli	r2,r2,2
   41258:	1085883a 	add	r2,r2,r2
   4125c:	1085883a 	add	r2,r2,r2
   41260:	d8b7c83a 	sub	sp,sp,r2
   41264:	d8800404 	addi	r2,sp,16
   41268:	108000c4 	addi	r2,r2,3
   4126c:	1004d0ba 	srli	r2,r2,2
   41270:	1085883a 	add	r2,r2,r2
   41274:	1085883a 	add	r2,r2,r2
   41278:	e0bd9215 	stw	r2,-2488(fp)

    //Posio inicial do rob
    temp[0] = outliers[0];
   4127c:	e0bd9217 	ldw	r2,-2488(fp)
   41280:	e0fff417 	ldw	r3,-48(fp)
   41284:	19000017 	ldw	r4,0(r3)
   41288:	11000015 	stw	r4,0(r2)
   4128c:	18c00117 	ldw	r3,4(r3)
   41290:	10c00115 	stw	r3,4(r2)
    //Execute for N iterations
    while(loopCounter < N) {
   41294:	00004706 	br	413b4 <RANSAC+0x318>
		//Sorteia 2 coordenadas que tenham uma distncia minima entre si
		if(temp_dist_points < MIN_DIST_POINTS) {
   41298:	e0bd8c17 	ldw	r2,-2512(fp)
   4129c:	10800288 	cmpgei	r2,r2,10
   412a0:	1000361e 	bne	r2,zero,4137c <RANSAC+0x2e0>
		for (int j = 1; j < temp_size; j++) {
   412a4:	00800044 	movi	r2,1
   412a8:	e0bd8e15 	stw	r2,-2504(fp)
   412ac:	00002f06 	br	4136c <RANSAC+0x2d0>
			temp_index = rand() % outlierSize;
   412b0:	0044c300 	call	44c30 <rand>
   412b4:	1007883a 	mov	r3,r2
   412b8:	e0bff017 	ldw	r2,-64(fp)
   412bc:	100b883a 	mov	r5,r2
   412c0:	1809883a 	mov	r4,r3
   412c4:	0041f400 	call	41f40 <__modsi3>
   412c8:	e0bd8f15 	stw	r2,-2500(fp)
			temp[j].x = data[temp_index]&0xFF;
   412cc:	e0bd8f17 	ldw	r2,-2500(fp)
   412d0:	1085883a 	add	r2,r2,r2
   412d4:	1085883a 	add	r2,r2,r2
   412d8:	1007883a 	mov	r3,r2
   412dc:	e0bff217 	ldw	r2,-56(fp)
   412e0:	10c5883a 	add	r2,r2,r3
   412e4:	10800017 	ldw	r2,0(r2)
   412e8:	10c03fcc 	andi	r3,r2,255
   412ec:	e13d9217 	ldw	r4,-2488(fp)
   412f0:	e0bd8e17 	ldw	r2,-2504(fp)
   412f4:	100490fa 	slli	r2,r2,3
   412f8:	2085883a 	add	r2,r4,r2
   412fc:	10c00015 	stw	r3,0(r2)
			temp[j].y = (data[temp_index]>>8)&0xFF;
   41300:	e0bd8f17 	ldw	r2,-2500(fp)
   41304:	1085883a 	add	r2,r2,r2
   41308:	1085883a 	add	r2,r2,r2
   4130c:	1007883a 	mov	r3,r2
   41310:	e0bff217 	ldw	r2,-56(fp)
   41314:	10c5883a 	add	r2,r2,r3
   41318:	10800017 	ldw	r2,0(r2)
   4131c:	1005d23a 	srai	r2,r2,8
   41320:	10c03fcc 	andi	r3,r2,255
   41324:	e13d9217 	ldw	r4,-2488(fp)
   41328:	e0bd8e17 	ldw	r2,-2504(fp)
   4132c:	100490fa 	slli	r2,r2,3
   41330:	2085883a 	add	r2,r4,r2
   41334:	10800104 	addi	r2,r2,4
   41338:	10c00015 	stw	r3,0(r2)
			temp_dist_points = squareDistanceBetweenPoints(&temp[0], &temp[1]);
   4133c:	e0fd9217 	ldw	r3,-2488(fp)
   41340:	e0bd9217 	ldw	r2,-2488(fp)
   41344:	10800204 	addi	r2,r2,8
   41348:	100b883a 	mov	r5,r2
   4134c:	1809883a 	mov	r4,r3
   41350:	004100c0 	call	4100c <squareDistanceBetweenPoints>
   41354:	1007883a 	mov	r3,r2
   41358:	1805fe72 	custom	249,r2,r3,zero
   4135c:	e0bd8c15 	stw	r2,-2512(fp)
    temp[0] = outliers[0];
    //Execute for N iterations
    while(loopCounter < N) {
		//Sorteia 2 coordenadas que tenham uma distncia minima entre si
		if(temp_dist_points < MIN_DIST_POINTS) {
		for (int j = 1; j < temp_size; j++) {
   41360:	e0bd8e17 	ldw	r2,-2504(fp)
   41364:	10800044 	addi	r2,r2,1
   41368:	e0bd8e15 	stw	r2,-2504(fp)
   4136c:	e0fd8e17 	ldw	r3,-2504(fp)
   41370:	e0bd9017 	ldw	r2,-2496(fp)
   41374:	18bfce16 	blt	r3,r2,412b0 <_gp+0xfffe2234>
   41378:	00000e06 	br	413b4 <RANSAC+0x318>
			temp[j].y = (data[temp_index]>>8)&0xFF;
			temp_dist_points = squareDistanceBetweenPoints(&temp[0], &temp[1]);
		}
        }
        else {
        	checkModel(outliers, temp, &rs, outlierSize, temp_size);
   4137c:	e0fd9217 	ldw	r3,-2488(fp)
   41380:	e17ff017 	ldw	r5,-64(fp)
   41384:	e13d9304 	addi	r4,fp,-2484
   41388:	e0bd9017 	ldw	r2,-2496(fp)
   4138c:	d8800015 	stw	r2,0(sp)
   41390:	280f883a 	mov	r7,r5
   41394:	200d883a 	mov	r6,r4
   41398:	180b883a 	mov	r5,r3
   4139c:	e13ff417 	ldw	r4,-48(fp)
   413a0:	0040e300 	call	40e30 <checkModel>
            temp_dist_points = 0;
   413a4:	e03d8c15 	stw	zero,-2512(fp)
            loopCounter++;
   413a8:	e0bd8d17 	ldw	r2,-2508(fp)
   413ac:	10800044 	addi	r2,r2,1
   413b0:	e0bd8d15 	stw	r2,-2508(fp)
    Point temp[temp_size]; // alocao tamanho P

    //Posio inicial do rob
    temp[0] = outliers[0];
    //Execute for N iterations
    while(loopCounter < N) {
   413b4:	e0bd8d17 	ldw	r2,-2508(fp)
   413b8:	10800290 	cmplti	r2,r2,10
   413bc:	103fb61e 	bne	r2,zero,41298 <_gp+0xfffe221c>
            temp_dist_points = 0;
            loopCounter++;
        }
    }

    return rs;
   413c0:	e0bff117 	ldw	r2,-60(fp)
   413c4:	e0fd9317 	ldw	r3,-2484(fp)
   413c8:	10c00015 	stw	r3,0(r2)
   413cc:	e0fd9417 	ldw	r3,-2480(fp)
   413d0:	10c00115 	stw	r3,4(r2)
   413d4:	e0fd9517 	ldw	r3,-2476(fp)
   413d8:	10c00215 	stw	r3,8(r2)
   413dc:	e0fd9617 	ldw	r3,-2472(fp)
   413e0:	10c00315 	stw	r3,12(r2)
   413e4:	e6fff517 	ldw	sp,-44(fp)
}
   413e8:	e0bff117 	ldw	r2,-60(fp)
   413ec:	e6fff804 	addi	sp,fp,-32
   413f0:	dfc00917 	ldw	ra,36(sp)
   413f4:	df000817 	ldw	fp,32(sp)
   413f8:	ddc00717 	ldw	r23,28(sp)
   413fc:	dd800617 	ldw	r22,24(sp)
   41400:	dd400517 	ldw	r21,20(sp)
   41404:	dd000417 	ldw	r20,16(sp)
   41408:	dcc00317 	ldw	r19,12(sp)
   4140c:	dc800217 	ldw	r18,8(sp)
   41410:	dc400117 	ldw	r17,4(sp)
   41414:	dc000017 	ldw	r16,0(sp)
   41418:	dec00a04 	addi	sp,sp,40
   4141c:	f800283a 	ret

00041420 <atan>:
	double atan(double x)
#else
	double atan(x)
	double x;
#endif
{
   41420:	deffde04 	addi	sp,sp,-136
   41424:	dfc02115 	stw	ra,132(sp)
   41428:	df002015 	stw	fp,128(sp)
   4142c:	ddc01f15 	stw	r23,124(sp)
   41430:	dd801e15 	stw	r22,120(sp)
   41434:	dd401d15 	stw	r21,116(sp)
   41438:	dd001c15 	stw	r20,112(sp)
   4143c:	dcc01b15 	stw	r19,108(sp)
   41440:	dc801a15 	stw	r18,104(sp)
   41444:	dc401915 	stw	r17,100(sp)
   41448:	dc001815 	stw	r16,96(sp)
   4144c:	df002004 	addi	fp,sp,128
   41450:	e13ff015 	stw	r4,-64(fp)
   41454:	e17ff115 	stw	r5,-60(fp)
	double w,s1,s2,z;
	__int32_t ix,hx,id;

	GET_HIGH_WORD(hx,x);
   41458:	e0bff017 	ldw	r2,-64(fp)
   4145c:	e0bfec15 	stw	r2,-80(fp)
   41460:	e0bff117 	ldw	r2,-60(fp)
   41464:	e0bfed15 	stw	r2,-76(fp)
   41468:	e0bfed17 	ldw	r2,-76(fp)
   4146c:	e0bfe115 	stw	r2,-124(fp)
	ix = hx&0x7fffffff;
   41470:	e0ffe117 	ldw	r3,-124(fp)
   41474:	00a00034 	movhi	r2,32768
   41478:	10bfffc4 	addi	r2,r2,-1
   4147c:	1884703a 	and	r2,r3,r2
   41480:	e0bfe215 	stw	r2,-120(fp)
	if(ix>=0x44100000) {	/* if |x| >= 2^66 */
   41484:	e0ffe217 	ldw	r3,-120(fp)
   41488:	00910434 	movhi	r2,17424
   4148c:	18804216 	blt	r3,r2,41598 <atan+0x178>
	    __uint32_t low;
	    GET_LOW_WORD(low,x);
   41490:	e0bff017 	ldw	r2,-64(fp)
   41494:	e0bfee15 	stw	r2,-72(fp)
   41498:	e0bff117 	ldw	r2,-60(fp)
   4149c:	e0bfef15 	stw	r2,-68(fp)
   414a0:	e0bfee17 	ldw	r2,-72(fp)
   414a4:	e0bfe315 	stw	r2,-116(fp)
	    if(ix>0x7ff00000||
   414a8:	e0bfe217 	ldw	r2,-120(fp)
   414ac:	00dffc34 	movhi	r3,32752
   414b0:	18800516 	blt	r3,r2,414c8 <atan+0xa8>
   414b4:	e0ffe217 	ldw	r3,-120(fp)
   414b8:	009ffc34 	movhi	r2,32752
   414bc:	18800e1e 	bne	r3,r2,414f8 <atan+0xd8>
		(ix==0x7ff00000&&(low!=0)))
   414c0:	e0bfe317 	ldw	r2,-116(fp)
   414c4:	10000c26 	beq	r2,zero,414f8 <atan+0xd8>
		return x+x;		/* NaN */
   414c8:	e0bff017 	ldw	r2,-64(fp)
   414cc:	e0fff117 	ldw	r3,-60(fp)
   414d0:	100d883a 	mov	r6,r2
   414d4:	180f883a 	mov	r7,r3
   414d8:	1009883a 	mov	r4,r2
   414dc:	180b883a 	mov	r5,r3
   414e0:	00420980 	call	42098 <__adddf3>
   414e4:	1009883a 	mov	r4,r2
   414e8:	180b883a 	mov	r5,r3
   414ec:	2021883a 	mov	r16,r4
   414f0:	2823883a 	mov	r17,r5
   414f4:	00023e06 	br	41df0 <atan+0x9d0>
	    if(hx>0) return  atanhi[3]+atanlo[3];
   414f8:	e0bfe117 	ldw	r2,-124(fp)
   414fc:	0080120e 	bge	zero,r2,41548 <atan+0x128>
   41500:	00951134 	movhi	r2,21572
   41504:	108b4604 	addi	r2,r2,11544
   41508:	00cffe74 	movhi	r3,16377
   4150c:	18c87ec4 	addi	r3,r3,8699
   41510:	010cc534 	movhi	r4,13076
   41514:	211701c4 	addi	r4,r4,23559
   41518:	014f24b4 	movhi	r5,15506
   4151c:	29698984 	addi	r5,r5,-23002
   41520:	200d883a 	mov	r6,r4
   41524:	280f883a 	mov	r7,r5
   41528:	1009883a 	mov	r4,r2
   4152c:	180b883a 	mov	r5,r3
   41530:	00420980 	call	42098 <__adddf3>
   41534:	1009883a 	mov	r4,r2
   41538:	180b883a 	mov	r5,r3
   4153c:	2021883a 	mov	r16,r4
   41540:	2823883a 	mov	r17,r5
   41544:	00022a06 	br	41df0 <atan+0x9d0>
	    else     return -atanhi[3]-atanlo[3];
   41548:	00951134 	movhi	r2,21572
   4154c:	108b4604 	addi	r2,r2,11544
   41550:	00cffe74 	movhi	r3,16377
   41554:	18c87ec4 	addi	r3,r3,8699
   41558:	1011883a 	mov	r8,r2
   4155c:	1a60003c 	xorhi	r9,r3,32768
   41560:	008cc534 	movhi	r2,13076
   41564:	109701c4 	addi	r2,r2,23559
   41568:	00cf24b4 	movhi	r3,15506
   4156c:	18e98984 	addi	r3,r3,-23002
   41570:	100d883a 	mov	r6,r2
   41574:	180f883a 	mov	r7,r3
   41578:	4009883a 	mov	r4,r8
   4157c:	480b883a 	mov	r5,r9
   41580:	0043c5c0 	call	43c5c <__subdf3>
   41584:	1009883a 	mov	r4,r2
   41588:	180b883a 	mov	r5,r3
   4158c:	2021883a 	mov	r16,r4
   41590:	2823883a 	mov	r17,r5
   41594:	00021606 	br	41df0 <atan+0x9d0>
	} if (ix < 0x3fdc0000) {	/* |x| < 0.4375 */
   41598:	e0ffe217 	ldw	r3,-120(fp)
   4159c:	008ff734 	movhi	r2,16348
   415a0:	18801e0e 	bge	r3,r2,4161c <atan+0x1fc>
	    if (ix < 0x3e200000) {	/* |x| < 2^-29 */
   415a4:	e0ffe217 	ldw	r3,-120(fp)
   415a8:	008f8834 	movhi	r2,15904
   415ac:	1880180e 	bge	r3,r2,41610 <atan+0x1f0>
		if(huge+x>one) return x;	/* raise inexact */
   415b0:	00a20034 	movhi	r2,34816
   415b4:	109d6704 	addi	r2,r2,30108
   415b8:	00df8e34 	movhi	r3,32312
   415bc:	18f90f04 	addi	r3,r3,-7108
   415c0:	e1bff017 	ldw	r6,-64(fp)
   415c4:	e1fff117 	ldw	r7,-60(fp)
   415c8:	1009883a 	mov	r4,r2
   415cc:	180b883a 	mov	r5,r3
   415d0:	00420980 	call	42098 <__adddf3>
   415d4:	1009883a 	mov	r4,r2
   415d8:	180b883a 	mov	r5,r3
   415dc:	2011883a 	mov	r8,r4
   415e0:	2813883a 	mov	r9,r5
   415e4:	0005883a 	mov	r2,zero
   415e8:	00cffc34 	movhi	r3,16368
   415ec:	100d883a 	mov	r6,r2
   415f0:	180f883a 	mov	r7,r3
   415f4:	4009883a 	mov	r4,r8
   415f8:	480b883a 	mov	r5,r9
   415fc:	00433140 	call	43314 <__gedf2>
   41600:	0080030e 	bge	zero,r2,41610 <atan+0x1f0>
   41604:	e43ff017 	ldw	r16,-64(fp)
   41608:	e47ff117 	ldw	r17,-60(fp)
   4160c:	0001f806 	br	41df0 <atan+0x9d0>
	    }
	    id = -1;
   41610:	00bfffc4 	movi	r2,-1
   41614:	e0bfe015 	stw	r2,-128(fp)
   41618:	00008f06 	br	41858 <atan+0x438>
	} else {
	x = fabs(x);
   4161c:	e13ff017 	ldw	r4,-64(fp)
   41620:	e17ff117 	ldw	r5,-60(fp)
   41624:	0041e340 	call	41e34 <fabs>
   41628:	e0bff015 	stw	r2,-64(fp)
   4162c:	e0fff115 	stw	r3,-60(fp)
	if (ix < 0x3ff30000) {		/* |x| < 1.1875 */
   41630:	e0ffe217 	ldw	r3,-120(fp)
   41634:	008ffcf4 	movhi	r2,16371
   41638:	18804f0e 	bge	r3,r2,41778 <atan+0x358>
	    if (ix < 0x3fe60000) {	/* 7/16 <=|x|<11/16 */
   4163c:	e0ffe217 	ldw	r3,-120(fp)
   41640:	008ff9b4 	movhi	r2,16358
   41644:	18802a0e 	bge	r3,r2,416f0 <atan+0x2d0>
		id = 0; x = (2.0*x-one)/(2.0+x); 
   41648:	e03fe015 	stw	zero,-128(fp)
   4164c:	e0bff017 	ldw	r2,-64(fp)
   41650:	e0fff117 	ldw	r3,-60(fp)
   41654:	100d883a 	mov	r6,r2
   41658:	180f883a 	mov	r7,r3
   4165c:	1009883a 	mov	r4,r2
   41660:	180b883a 	mov	r5,r3
   41664:	00420980 	call	42098 <__adddf3>
   41668:	1009883a 	mov	r4,r2
   4166c:	180b883a 	mov	r5,r3
   41670:	2011883a 	mov	r8,r4
   41674:	2813883a 	mov	r9,r5
   41678:	0005883a 	mov	r2,zero
   4167c:	00cffc34 	movhi	r3,16368
   41680:	100d883a 	mov	r6,r2
   41684:	180f883a 	mov	r7,r3
   41688:	4009883a 	mov	r4,r8
   4168c:	480b883a 	mov	r5,r9
   41690:	0043c5c0 	call	43c5c <__subdf3>
   41694:	1009883a 	mov	r4,r2
   41698:	180b883a 	mov	r5,r3
   4169c:	2025883a 	mov	r18,r4
   416a0:	2827883a 	mov	r19,r5
   416a4:	000d883a 	mov	r6,zero
   416a8:	01d00034 	movhi	r7,16384
   416ac:	e13ff017 	ldw	r4,-64(fp)
   416b0:	e17ff117 	ldw	r5,-60(fp)
   416b4:	00420980 	call	42098 <__adddf3>
   416b8:	1009883a 	mov	r4,r2
   416bc:	180b883a 	mov	r5,r3
   416c0:	2005883a 	mov	r2,r4
   416c4:	2807883a 	mov	r3,r5
   416c8:	100d883a 	mov	r6,r2
   416cc:	180f883a 	mov	r7,r3
   416d0:	9009883a 	mov	r4,r18
   416d4:	980b883a 	mov	r5,r19
   416d8:	00429440 	call	42944 <__divdf3>
   416dc:	1009883a 	mov	r4,r2
   416e0:	180b883a 	mov	r5,r3
   416e4:	e13ff015 	stw	r4,-64(fp)
   416e8:	e17ff115 	stw	r5,-60(fp)
   416ec:	00005a06 	br	41858 <atan+0x438>
	    } else {			/* 11/16<=|x|< 19/16 */
		id = 1; x  = (x-one)/(x+one); 
   416f0:	00800044 	movi	r2,1
   416f4:	e0bfe015 	stw	r2,-128(fp)
   416f8:	0005883a 	mov	r2,zero
   416fc:	00cffc34 	movhi	r3,16368
   41700:	100d883a 	mov	r6,r2
   41704:	180f883a 	mov	r7,r3
   41708:	e13ff017 	ldw	r4,-64(fp)
   4170c:	e17ff117 	ldw	r5,-60(fp)
   41710:	0043c5c0 	call	43c5c <__subdf3>
   41714:	1009883a 	mov	r4,r2
   41718:	180b883a 	mov	r5,r3
   4171c:	2025883a 	mov	r18,r4
   41720:	2827883a 	mov	r19,r5
   41724:	0005883a 	mov	r2,zero
   41728:	00cffc34 	movhi	r3,16368
   4172c:	e1bff017 	ldw	r6,-64(fp)
   41730:	e1fff117 	ldw	r7,-60(fp)
   41734:	1009883a 	mov	r4,r2
   41738:	180b883a 	mov	r5,r3
   4173c:	00420980 	call	42098 <__adddf3>
   41740:	1009883a 	mov	r4,r2
   41744:	180b883a 	mov	r5,r3
   41748:	2005883a 	mov	r2,r4
   4174c:	2807883a 	mov	r3,r5
   41750:	100d883a 	mov	r6,r2
   41754:	180f883a 	mov	r7,r3
   41758:	9009883a 	mov	r4,r18
   4175c:	980b883a 	mov	r5,r19
   41760:	00429440 	call	42944 <__divdf3>
   41764:	1009883a 	mov	r4,r2
   41768:	180b883a 	mov	r5,r3
   4176c:	e13ff015 	stw	r4,-64(fp)
   41770:	e17ff115 	stw	r5,-60(fp)
   41774:	00003806 	br	41858 <atan+0x438>
	    }
	} else {
	    if (ix < 0x40038000) {	/* |x| < 2.4375 */
   41778:	e0ffe217 	ldw	r3,-120(fp)
   4177c:	009000f4 	movhi	r2,16387
   41780:	109fffc4 	addi	r2,r2,32767
   41784:	10c02916 	blt	r2,r3,4182c <atan+0x40c>
		id = 2; x  = (x-1.5)/(one+1.5*x);
   41788:	00800084 	movi	r2,2
   4178c:	e0bfe015 	stw	r2,-128(fp)
   41790:	000d883a 	mov	r6,zero
   41794:	01cffe34 	movhi	r7,16376
   41798:	e13ff017 	ldw	r4,-64(fp)
   4179c:	e17ff117 	ldw	r5,-60(fp)
   417a0:	0043c5c0 	call	43c5c <__subdf3>
   417a4:	1009883a 	mov	r4,r2
   417a8:	180b883a 	mov	r5,r3
   417ac:	2025883a 	mov	r18,r4
   417b0:	2827883a 	mov	r19,r5
   417b4:	000d883a 	mov	r6,zero
   417b8:	01cffe34 	movhi	r7,16376
   417bc:	e13ff017 	ldw	r4,-64(fp)
   417c0:	e17ff117 	ldw	r5,-60(fp)
   417c4:	00433f00 	call	433f0 <__muldf3>
   417c8:	1009883a 	mov	r4,r2
   417cc:	180b883a 	mov	r5,r3
   417d0:	2011883a 	mov	r8,r4
   417d4:	2813883a 	mov	r9,r5
   417d8:	0005883a 	mov	r2,zero
   417dc:	00cffc34 	movhi	r3,16368
   417e0:	100d883a 	mov	r6,r2
   417e4:	180f883a 	mov	r7,r3
   417e8:	4009883a 	mov	r4,r8
   417ec:	480b883a 	mov	r5,r9
   417f0:	00420980 	call	42098 <__adddf3>
   417f4:	1009883a 	mov	r4,r2
   417f8:	180b883a 	mov	r5,r3
   417fc:	2005883a 	mov	r2,r4
   41800:	2807883a 	mov	r3,r5
   41804:	100d883a 	mov	r6,r2
   41808:	180f883a 	mov	r7,r3
   4180c:	9009883a 	mov	r4,r18
   41810:	980b883a 	mov	r5,r19
   41814:	00429440 	call	42944 <__divdf3>
   41818:	1009883a 	mov	r4,r2
   4181c:	180b883a 	mov	r5,r3
   41820:	e13ff015 	stw	r4,-64(fp)
   41824:	e17ff115 	stw	r5,-60(fp)
   41828:	00000b06 	br	41858 <atan+0x438>
	    } else {			/* 2.4375 <= |x| < 2^66 */
		id = 3; x  = -1.0/x;
   4182c:	008000c4 	movi	r2,3
   41830:	e0bfe015 	stw	r2,-128(fp)
   41834:	e1bff017 	ldw	r6,-64(fp)
   41838:	e1fff117 	ldw	r7,-60(fp)
   4183c:	0009883a 	mov	r4,zero
   41840:	016ffc34 	movhi	r5,49136
   41844:	00429440 	call	42944 <__divdf3>
   41848:	1009883a 	mov	r4,r2
   4184c:	180b883a 	mov	r5,r3
   41850:	e13ff015 	stw	r4,-64(fp)
   41854:	e17ff115 	stw	r5,-60(fp)
	    }
	}}
    /* end of argument reduction */
	z = x*x;
   41858:	e1bff017 	ldw	r6,-64(fp)
   4185c:	e1fff117 	ldw	r7,-60(fp)
   41860:	e13ff017 	ldw	r4,-64(fp)
   41864:	e17ff117 	ldw	r5,-60(fp)
   41868:	00433f00 	call	433f0 <__muldf3>
   4186c:	1009883a 	mov	r4,r2
   41870:	180b883a 	mov	r5,r3
   41874:	e13fe415 	stw	r4,-112(fp)
   41878:	e17fe515 	stw	r5,-108(fp)
	w = z*z;
   4187c:	e1bfe417 	ldw	r6,-112(fp)
   41880:	e1ffe517 	ldw	r7,-108(fp)
   41884:	e13fe417 	ldw	r4,-112(fp)
   41888:	e17fe517 	ldw	r5,-108(fp)
   4188c:	00433f00 	call	433f0 <__muldf3>
   41890:	1009883a 	mov	r4,r2
   41894:	180b883a 	mov	r5,r3
   41898:	e13fe615 	stw	r4,-104(fp)
   4189c:	e17fe715 	stw	r5,-100(fp)
    /* break sum from i=0 to 10 aT[i]z**(i+1) into odd and even poly */
	s1 = z*(aT[0]+w*(aT[2]+w*(aT[4]+w*(aT[6]+w*(aT[8]+w*aT[10])))));
   418a0:	04955574 	movhi	r18,21845
   418a4:	94954344 	addi	r18,r18,21773
   418a8:	04cff574 	movhi	r19,16341
   418ac:	9cd55544 	addi	r19,r19,21845
   418b0:	05248074 	movhi	r20,37377
   418b4:	a520ffc4 	addi	r20,r20,-31745
   418b8:	054ff0b4 	movhi	r21,16322
   418bc:	ad524904 	addi	r21,r21,18724
   418c0:	05b15334 	movhi	r22,50508
   418c4:	b5881b84 	addi	r22,r22,8302
   418c8:	05cfedf4 	movhi	r23,16311
   418cc:	bdd17344 	addi	r23,r23,17869
   418d0:	00a83434 	movhi	r2,41168
   418d4:	e0bff215 	stw	r2,-56(fp)
   418d8:	e0bff217 	ldw	r2,-56(fp)
   418dc:	108f5444 	addi	r2,r2,15697
   418e0:	e0bff215 	stw	r2,-56(fp)
   418e4:	008fec74 	movhi	r2,16305
   418e8:	e0bff315 	stw	r2,-52(fp)
   418ec:	e0bff317 	ldw	r2,-52(fp)
   418f0:	10835984 	addi	r2,r2,3430
   418f4:	e0bff315 	stw	r2,-52(fp)
   418f8:	00891db4 	movhi	r2,9334
   418fc:	e0bff415 	stw	r2,-48(fp)
   41900:	e0bff417 	ldw	r2,-48(fp)
   41904:	10837ac4 	addi	r2,r2,3563
   41908:	e0bff415 	stw	r2,-48(fp)
   4190c:	008fea74 	movhi	r2,16297
   41910:	e0bff515 	stw	r2,-44(fp)
   41914:	e0bff517 	ldw	r2,-44(fp)
   41918:	109ed2c4 	addi	r2,r2,31563
   4191c:	e0bff515 	stw	r2,-44(fp)
   41920:	00b8c8f4 	movhi	r2,58147
   41924:	10b68444 	addi	r2,r2,-9711
   41928:	00cfe474 	movhi	r3,16273
   4192c:	18eb4e84 	addi	r3,r3,-21190
   41930:	e1bfe617 	ldw	r6,-104(fp)
   41934:	e1ffe717 	ldw	r7,-100(fp)
   41938:	1009883a 	mov	r4,r2
   4193c:	180b883a 	mov	r5,r3
   41940:	00433f00 	call	433f0 <__muldf3>
   41944:	1009883a 	mov	r4,r2
   41948:	180b883a 	mov	r5,r3
   4194c:	2005883a 	mov	r2,r4
   41950:	2807883a 	mov	r3,r5
   41954:	100d883a 	mov	r6,r2
   41958:	180f883a 	mov	r7,r3
   4195c:	e13ff417 	ldw	r4,-48(fp)
   41960:	e17ff517 	ldw	r5,-44(fp)
   41964:	00420980 	call	42098 <__adddf3>
   41968:	1009883a 	mov	r4,r2
   4196c:	180b883a 	mov	r5,r3
   41970:	2005883a 	mov	r2,r4
   41974:	2807883a 	mov	r3,r5
   41978:	e1bfe617 	ldw	r6,-104(fp)
   4197c:	e1ffe717 	ldw	r7,-100(fp)
   41980:	1009883a 	mov	r4,r2
   41984:	180b883a 	mov	r5,r3
   41988:	00433f00 	call	433f0 <__muldf3>
   4198c:	1009883a 	mov	r4,r2
   41990:	180b883a 	mov	r5,r3
   41994:	2005883a 	mov	r2,r4
   41998:	2807883a 	mov	r3,r5
   4199c:	100d883a 	mov	r6,r2
   419a0:	180f883a 	mov	r7,r3
   419a4:	e13ff217 	ldw	r4,-56(fp)
   419a8:	e17ff317 	ldw	r5,-52(fp)
   419ac:	00420980 	call	42098 <__adddf3>
   419b0:	1009883a 	mov	r4,r2
   419b4:	180b883a 	mov	r5,r3
   419b8:	2005883a 	mov	r2,r4
   419bc:	2807883a 	mov	r3,r5
   419c0:	e1bfe617 	ldw	r6,-104(fp)
   419c4:	e1ffe717 	ldw	r7,-100(fp)
   419c8:	1009883a 	mov	r4,r2
   419cc:	180b883a 	mov	r5,r3
   419d0:	00433f00 	call	433f0 <__muldf3>
   419d4:	1009883a 	mov	r4,r2
   419d8:	180b883a 	mov	r5,r3
   419dc:	2005883a 	mov	r2,r4
   419e0:	2807883a 	mov	r3,r5
   419e4:	100d883a 	mov	r6,r2
   419e8:	180f883a 	mov	r7,r3
   419ec:	b009883a 	mov	r4,r22
   419f0:	b80b883a 	mov	r5,r23
   419f4:	00420980 	call	42098 <__adddf3>
   419f8:	1009883a 	mov	r4,r2
   419fc:	180b883a 	mov	r5,r3
   41a00:	2005883a 	mov	r2,r4
   41a04:	2807883a 	mov	r3,r5
   41a08:	e1bfe617 	ldw	r6,-104(fp)
   41a0c:	e1ffe717 	ldw	r7,-100(fp)
   41a10:	1009883a 	mov	r4,r2
   41a14:	180b883a 	mov	r5,r3
   41a18:	00433f00 	call	433f0 <__muldf3>
   41a1c:	1009883a 	mov	r4,r2
   41a20:	180b883a 	mov	r5,r3
   41a24:	2005883a 	mov	r2,r4
   41a28:	2807883a 	mov	r3,r5
   41a2c:	100d883a 	mov	r6,r2
   41a30:	180f883a 	mov	r7,r3
   41a34:	a009883a 	mov	r4,r20
   41a38:	a80b883a 	mov	r5,r21
   41a3c:	00420980 	call	42098 <__adddf3>
   41a40:	1009883a 	mov	r4,r2
   41a44:	180b883a 	mov	r5,r3
   41a48:	2005883a 	mov	r2,r4
   41a4c:	2807883a 	mov	r3,r5
   41a50:	e1bfe617 	ldw	r6,-104(fp)
   41a54:	e1ffe717 	ldw	r7,-100(fp)
   41a58:	1009883a 	mov	r4,r2
   41a5c:	180b883a 	mov	r5,r3
   41a60:	00433f00 	call	433f0 <__muldf3>
   41a64:	1009883a 	mov	r4,r2
   41a68:	180b883a 	mov	r5,r3
   41a6c:	2005883a 	mov	r2,r4
   41a70:	2807883a 	mov	r3,r5
   41a74:	100d883a 	mov	r6,r2
   41a78:	180f883a 	mov	r7,r3
   41a7c:	9009883a 	mov	r4,r18
   41a80:	980b883a 	mov	r5,r19
   41a84:	00420980 	call	42098 <__adddf3>
   41a88:	1009883a 	mov	r4,r2
   41a8c:	180b883a 	mov	r5,r3
   41a90:	2005883a 	mov	r2,r4
   41a94:	2807883a 	mov	r3,r5
   41a98:	e1bfe417 	ldw	r6,-112(fp)
   41a9c:	e1ffe517 	ldw	r7,-108(fp)
   41aa0:	1009883a 	mov	r4,r2
   41aa4:	180b883a 	mov	r5,r3
   41aa8:	00433f00 	call	433f0 <__muldf3>
   41aac:	1009883a 	mov	r4,r2
   41ab0:	180b883a 	mov	r5,r3
   41ab4:	e13fe815 	stw	r4,-96(fp)
   41ab8:	e17fe915 	stw	r5,-92(fp)
	s2 = w*(aT[1]+w*(aT[3]+w*(aT[5]+w*(aT[7]+w*aT[9]))));
   41abc:	04a66674 	movhi	r18,39321
   41ac0:	94baf104 	addi	r18,r18,-5180
   41ac4:	04eff2b4 	movhi	r19,49098
   41ac8:	9ce66644 	addi	r19,r19,-26215
   41acc:	053f88f4 	movhi	r20,65059
   41ad0:	a5059c44 	addi	r20,r20,5745
   41ad4:	056fef34 	movhi	r21,49084
   41ad8:	ad5c7184 	addi	r21,r21,29126
   41adc:	05abdd74 	movhi	r22,44917
   41ae0:	b5a69b44 	addi	r22,r22,-26003
   41ae4:	05efed34 	movhi	r23,49076
   41ae8:	bdec3c84 	addi	r23,r23,-20238
   41aec:	0094b7f4 	movhi	r2,21215
   41af0:	e0bff615 	stw	r2,-40(fp)
   41af4:	e0bff617 	ldw	r2,-40(fp)
   41af8:	10bf6684 	addi	r2,r2,-614
   41afc:	e0bff615 	stw	r2,-40(fp)
   41b00:	00afebb4 	movhi	r2,49070
   41b04:	e0bff715 	stw	r2,-36(fp)
   41b08:	e0bff717 	ldw	r2,-36(fp)
   41b0c:	10b78b44 	addi	r2,r2,-8659
   41b10:	e0bff715 	stw	r2,-36(fp)
   41b14:	008b1ab4 	movhi	r2,11370
   41b18:	109b0bc4 	addi	r2,r2,27695
   41b1c:	00efe8f4 	movhi	r3,49059
   41b20:	18ed1104 	addi	r3,r3,-19388
   41b24:	e1bfe617 	ldw	r6,-104(fp)
   41b28:	e1ffe717 	ldw	r7,-100(fp)
   41b2c:	1009883a 	mov	r4,r2
   41b30:	180b883a 	mov	r5,r3
   41b34:	00433f00 	call	433f0 <__muldf3>
   41b38:	1009883a 	mov	r4,r2
   41b3c:	180b883a 	mov	r5,r3
   41b40:	2005883a 	mov	r2,r4
   41b44:	2807883a 	mov	r3,r5
   41b48:	100d883a 	mov	r6,r2
   41b4c:	180f883a 	mov	r7,r3
   41b50:	e13ff617 	ldw	r4,-40(fp)
   41b54:	e17ff717 	ldw	r5,-36(fp)
   41b58:	00420980 	call	42098 <__adddf3>
   41b5c:	1009883a 	mov	r4,r2
   41b60:	180b883a 	mov	r5,r3
   41b64:	2005883a 	mov	r2,r4
   41b68:	2807883a 	mov	r3,r5
   41b6c:	e1bfe617 	ldw	r6,-104(fp)
   41b70:	e1ffe717 	ldw	r7,-100(fp)
   41b74:	1009883a 	mov	r4,r2
   41b78:	180b883a 	mov	r5,r3
   41b7c:	00433f00 	call	433f0 <__muldf3>
   41b80:	1009883a 	mov	r4,r2
   41b84:	180b883a 	mov	r5,r3
   41b88:	2005883a 	mov	r2,r4
   41b8c:	2807883a 	mov	r3,r5
   41b90:	100d883a 	mov	r6,r2
   41b94:	180f883a 	mov	r7,r3
   41b98:	b009883a 	mov	r4,r22
   41b9c:	b80b883a 	mov	r5,r23
   41ba0:	00420980 	call	42098 <__adddf3>
   41ba4:	1009883a 	mov	r4,r2
   41ba8:	180b883a 	mov	r5,r3
   41bac:	2005883a 	mov	r2,r4
   41bb0:	2807883a 	mov	r3,r5
   41bb4:	e1bfe617 	ldw	r6,-104(fp)
   41bb8:	e1ffe717 	ldw	r7,-100(fp)
   41bbc:	1009883a 	mov	r4,r2
   41bc0:	180b883a 	mov	r5,r3
   41bc4:	00433f00 	call	433f0 <__muldf3>
   41bc8:	1009883a 	mov	r4,r2
   41bcc:	180b883a 	mov	r5,r3
   41bd0:	2005883a 	mov	r2,r4
   41bd4:	2807883a 	mov	r3,r5
   41bd8:	100d883a 	mov	r6,r2
   41bdc:	180f883a 	mov	r7,r3
   41be0:	a009883a 	mov	r4,r20
   41be4:	a80b883a 	mov	r5,r21
   41be8:	00420980 	call	42098 <__adddf3>
   41bec:	1009883a 	mov	r4,r2
   41bf0:	180b883a 	mov	r5,r3
   41bf4:	2005883a 	mov	r2,r4
   41bf8:	2807883a 	mov	r3,r5
   41bfc:	e1bfe617 	ldw	r6,-104(fp)
   41c00:	e1ffe717 	ldw	r7,-100(fp)
   41c04:	1009883a 	mov	r4,r2
   41c08:	180b883a 	mov	r5,r3
   41c0c:	00433f00 	call	433f0 <__muldf3>
   41c10:	1009883a 	mov	r4,r2
   41c14:	180b883a 	mov	r5,r3
   41c18:	2005883a 	mov	r2,r4
   41c1c:	2807883a 	mov	r3,r5
   41c20:	100d883a 	mov	r6,r2
   41c24:	180f883a 	mov	r7,r3
   41c28:	9009883a 	mov	r4,r18
   41c2c:	980b883a 	mov	r5,r19
   41c30:	00420980 	call	42098 <__adddf3>
   41c34:	1009883a 	mov	r4,r2
   41c38:	180b883a 	mov	r5,r3
   41c3c:	2005883a 	mov	r2,r4
   41c40:	2807883a 	mov	r3,r5
   41c44:	e1bfe617 	ldw	r6,-104(fp)
   41c48:	e1ffe717 	ldw	r7,-100(fp)
   41c4c:	1009883a 	mov	r4,r2
   41c50:	180b883a 	mov	r5,r3
   41c54:	00433f00 	call	433f0 <__muldf3>
   41c58:	1009883a 	mov	r4,r2
   41c5c:	180b883a 	mov	r5,r3
   41c60:	e13fea15 	stw	r4,-88(fp)
   41c64:	e17feb15 	stw	r5,-84(fp)
	if (id<0) return x - x*(s1+s2);
   41c68:	e0bfe017 	ldw	r2,-128(fp)
   41c6c:	10001c0e 	bge	r2,zero,41ce0 <atan+0x8c0>
   41c70:	e1bfea17 	ldw	r6,-88(fp)
   41c74:	e1ffeb17 	ldw	r7,-84(fp)
   41c78:	e13fe817 	ldw	r4,-96(fp)
   41c7c:	e17fe917 	ldw	r5,-92(fp)
   41c80:	00420980 	call	42098 <__adddf3>
   41c84:	1009883a 	mov	r4,r2
   41c88:	180b883a 	mov	r5,r3
   41c8c:	2005883a 	mov	r2,r4
   41c90:	2807883a 	mov	r3,r5
   41c94:	e1bff017 	ldw	r6,-64(fp)
   41c98:	e1fff117 	ldw	r7,-60(fp)
   41c9c:	1009883a 	mov	r4,r2
   41ca0:	180b883a 	mov	r5,r3
   41ca4:	00433f00 	call	433f0 <__muldf3>
   41ca8:	1009883a 	mov	r4,r2
   41cac:	180b883a 	mov	r5,r3
   41cb0:	2005883a 	mov	r2,r4
   41cb4:	2807883a 	mov	r3,r5
   41cb8:	100d883a 	mov	r6,r2
   41cbc:	180f883a 	mov	r7,r3
   41cc0:	e13ff017 	ldw	r4,-64(fp)
   41cc4:	e17ff117 	ldw	r5,-60(fp)
   41cc8:	0043c5c0 	call	43c5c <__subdf3>
   41ccc:	1009883a 	mov	r4,r2
   41cd0:	180b883a 	mov	r5,r3
   41cd4:	2021883a 	mov	r16,r4
   41cd8:	2823883a 	mov	r17,r5
   41cdc:	00004406 	br	41df0 <atan+0x9d0>
	else {
	    z = atanhi[id] - ((x*(s1+s2) - atanlo[id]) - x);
   41ce0:	00800174 	movhi	r2,5
   41ce4:	1092fc04 	addi	r2,r2,19440
   41ce8:	e0ffe017 	ldw	r3,-128(fp)
   41cec:	180690fa 	slli	r3,r3,3
   41cf0:	10c5883a 	add	r2,r2,r3
   41cf4:	14800017 	ldw	r18,0(r2)
   41cf8:	14c00117 	ldw	r19,4(r2)
   41cfc:	e1bfea17 	ldw	r6,-88(fp)
   41d00:	e1ffeb17 	ldw	r7,-84(fp)
   41d04:	e13fe817 	ldw	r4,-96(fp)
   41d08:	e17fe917 	ldw	r5,-92(fp)
   41d0c:	00420980 	call	42098 <__adddf3>
   41d10:	1009883a 	mov	r4,r2
   41d14:	180b883a 	mov	r5,r3
   41d18:	2005883a 	mov	r2,r4
   41d1c:	2807883a 	mov	r3,r5
   41d20:	e1bff017 	ldw	r6,-64(fp)
   41d24:	e1fff117 	ldw	r7,-60(fp)
   41d28:	1009883a 	mov	r4,r2
   41d2c:	180b883a 	mov	r5,r3
   41d30:	00433f00 	call	433f0 <__muldf3>
   41d34:	1009883a 	mov	r4,r2
   41d38:	180b883a 	mov	r5,r3
   41d3c:	2011883a 	mov	r8,r4
   41d40:	2813883a 	mov	r9,r5
   41d44:	00800174 	movhi	r2,5
   41d48:	10930404 	addi	r2,r2,19472
   41d4c:	e0ffe017 	ldw	r3,-128(fp)
   41d50:	180690fa 	slli	r3,r3,3
   41d54:	10c9883a 	add	r4,r2,r3
   41d58:	20800017 	ldw	r2,0(r4)
   41d5c:	20c00117 	ldw	r3,4(r4)
   41d60:	100d883a 	mov	r6,r2
   41d64:	180f883a 	mov	r7,r3
   41d68:	4009883a 	mov	r4,r8
   41d6c:	480b883a 	mov	r5,r9
   41d70:	0043c5c0 	call	43c5c <__subdf3>
   41d74:	1009883a 	mov	r4,r2
   41d78:	180b883a 	mov	r5,r3
   41d7c:	2005883a 	mov	r2,r4
   41d80:	2807883a 	mov	r3,r5
   41d84:	e1bff017 	ldw	r6,-64(fp)
   41d88:	e1fff117 	ldw	r7,-60(fp)
   41d8c:	1009883a 	mov	r4,r2
   41d90:	180b883a 	mov	r5,r3
   41d94:	0043c5c0 	call	43c5c <__subdf3>
   41d98:	1009883a 	mov	r4,r2
   41d9c:	180b883a 	mov	r5,r3
   41da0:	2005883a 	mov	r2,r4
   41da4:	2807883a 	mov	r3,r5
   41da8:	100d883a 	mov	r6,r2
   41dac:	180f883a 	mov	r7,r3
   41db0:	9009883a 	mov	r4,r18
   41db4:	980b883a 	mov	r5,r19
   41db8:	0043c5c0 	call	43c5c <__subdf3>
   41dbc:	1009883a 	mov	r4,r2
   41dc0:	180b883a 	mov	r5,r3
   41dc4:	e13fe415 	stw	r4,-112(fp)
   41dc8:	e17fe515 	stw	r5,-108(fp)
	    return (hx<0)? -z:z;
   41dcc:	e0bfe117 	ldw	r2,-124(fp)
   41dd0:	1000040e 	bge	r2,zero,41de4 <atan+0x9c4>
   41dd4:	e43fe417 	ldw	r16,-112(fp)
   41dd8:	e0bfe517 	ldw	r2,-108(fp)
   41ddc:	1460003c 	xorhi	r17,r2,32768
   41de0:	00000206 	br	41dec <atan+0x9cc>
   41de4:	e43fe417 	ldw	r16,-112(fp)
   41de8:	e47fe517 	ldw	r17,-108(fp)
   41dec:	0001883a 	nop
   41df0:	8007883a 	mov	r3,r16
   41df4:	8809883a 	mov	r4,r17
	}
}
   41df8:	1805883a 	mov	r2,r3
   41dfc:	2007883a 	mov	r3,r4
   41e00:	e6fff804 	addi	sp,fp,-32
   41e04:	dfc00917 	ldw	ra,36(sp)
   41e08:	df000817 	ldw	fp,32(sp)
   41e0c:	ddc00717 	ldw	r23,28(sp)
   41e10:	dd800617 	ldw	r22,24(sp)
   41e14:	dd400517 	ldw	r21,20(sp)
   41e18:	dd000417 	ldw	r20,16(sp)
   41e1c:	dcc00317 	ldw	r19,12(sp)
   41e20:	dc800217 	ldw	r18,8(sp)
   41e24:	dc400117 	ldw	r17,4(sp)
   41e28:	dc000017 	ldw	r16,0(sp)
   41e2c:	dec00a04 	addi	sp,sp,40
   41e30:	f800283a 	ret

00041e34 <fabs>:
	double fabs(double x)
#else
	double fabs(x)
	double x;
#endif
{
   41e34:	defff804 	addi	sp,sp,-32
   41e38:	df000715 	stw	fp,28(sp)
   41e3c:	df000704 	addi	fp,sp,28
   41e40:	e13ffe15 	stw	r4,-8(fp)
   41e44:	e17fff15 	stw	r5,-4(fp)
	__uint32_t high;
	GET_HIGH_WORD(high,x);
   41e48:	e0bffe17 	ldw	r2,-8(fp)
   41e4c:	e0bffa15 	stw	r2,-24(fp)
   41e50:	e0bfff17 	ldw	r2,-4(fp)
   41e54:	e0bffb15 	stw	r2,-20(fp)
   41e58:	e0bffb17 	ldw	r2,-20(fp)
   41e5c:	e0bff915 	stw	r2,-28(fp)
	SET_HIGH_WORD(x,high&0x7fffffff);
   41e60:	e0bffe17 	ldw	r2,-8(fp)
   41e64:	e0bffc15 	stw	r2,-16(fp)
   41e68:	e0bfff17 	ldw	r2,-4(fp)
   41e6c:	e0bffd15 	stw	r2,-12(fp)
   41e70:	e0fff917 	ldw	r3,-28(fp)
   41e74:	00a00034 	movhi	r2,32768
   41e78:	10bfffc4 	addi	r2,r2,-1
   41e7c:	1884703a 	and	r2,r3,r2
   41e80:	e0bffd15 	stw	r2,-12(fp)
   41e84:	e0bffc17 	ldw	r2,-16(fp)
   41e88:	e0bffe15 	stw	r2,-8(fp)
   41e8c:	e0bffd17 	ldw	r2,-12(fp)
   41e90:	e0bfff15 	stw	r2,-4(fp)
        return x;
   41e94:	e0bffe17 	ldw	r2,-8(fp)
   41e98:	e0ffff17 	ldw	r3,-4(fp)
   41e9c:	1009883a 	mov	r4,r2
   41ea0:	180b883a 	mov	r5,r3
}
   41ea4:	2005883a 	mov	r2,r4
   41ea8:	2807883a 	mov	r3,r5
   41eac:	e037883a 	mov	sp,fp
   41eb0:	df000017 	ldw	fp,0(sp)
   41eb4:	dec00104 	addi	sp,sp,4
   41eb8:	f800283a 	ret

00041ebc <__divsi3>:
   41ebc:	20001b16 	blt	r4,zero,41f2c <__divsi3+0x70>
   41ec0:	000f883a 	mov	r7,zero
   41ec4:	28001616 	blt	r5,zero,41f20 <__divsi3+0x64>
   41ec8:	200d883a 	mov	r6,r4
   41ecc:	29001a2e 	bgeu	r5,r4,41f38 <__divsi3+0x7c>
   41ed0:	00800804 	movi	r2,32
   41ed4:	00c00044 	movi	r3,1
   41ed8:	00000106 	br	41ee0 <__divsi3+0x24>
   41edc:	10000d26 	beq	r2,zero,41f14 <__divsi3+0x58>
   41ee0:	294b883a 	add	r5,r5,r5
   41ee4:	10bfffc4 	addi	r2,r2,-1
   41ee8:	18c7883a 	add	r3,r3,r3
   41eec:	293ffb36 	bltu	r5,r4,41edc <_gp+0xfffe2e60>
   41ef0:	0005883a 	mov	r2,zero
   41ef4:	18000726 	beq	r3,zero,41f14 <__divsi3+0x58>
   41ef8:	0005883a 	mov	r2,zero
   41efc:	31400236 	bltu	r6,r5,41f08 <__divsi3+0x4c>
   41f00:	314dc83a 	sub	r6,r6,r5
   41f04:	10c4b03a 	or	r2,r2,r3
   41f08:	1806d07a 	srli	r3,r3,1
   41f0c:	280ad07a 	srli	r5,r5,1
   41f10:	183ffa1e 	bne	r3,zero,41efc <_gp+0xfffe2e80>
   41f14:	38000126 	beq	r7,zero,41f1c <__divsi3+0x60>
   41f18:	0085c83a 	sub	r2,zero,r2
   41f1c:	f800283a 	ret
   41f20:	014bc83a 	sub	r5,zero,r5
   41f24:	39c0005c 	xori	r7,r7,1
   41f28:	003fe706 	br	41ec8 <_gp+0xfffe2e4c>
   41f2c:	0109c83a 	sub	r4,zero,r4
   41f30:	01c00044 	movi	r7,1
   41f34:	003fe306 	br	41ec4 <_gp+0xfffe2e48>
   41f38:	00c00044 	movi	r3,1
   41f3c:	003fee06 	br	41ef8 <_gp+0xfffe2e7c>

00041f40 <__modsi3>:
   41f40:	20001716 	blt	r4,zero,41fa0 <__modsi3+0x60>
   41f44:	000f883a 	mov	r7,zero
   41f48:	2005883a 	mov	r2,r4
   41f4c:	28001216 	blt	r5,zero,41f98 <__modsi3+0x58>
   41f50:	2900162e 	bgeu	r5,r4,41fac <__modsi3+0x6c>
   41f54:	01800804 	movi	r6,32
   41f58:	00c00044 	movi	r3,1
   41f5c:	00000106 	br	41f64 <__modsi3+0x24>
   41f60:	30000a26 	beq	r6,zero,41f8c <__modsi3+0x4c>
   41f64:	294b883a 	add	r5,r5,r5
   41f68:	31bfffc4 	addi	r6,r6,-1
   41f6c:	18c7883a 	add	r3,r3,r3
   41f70:	293ffb36 	bltu	r5,r4,41f60 <_gp+0xfffe2ee4>
   41f74:	18000526 	beq	r3,zero,41f8c <__modsi3+0x4c>
   41f78:	1806d07a 	srli	r3,r3,1
   41f7c:	11400136 	bltu	r2,r5,41f84 <__modsi3+0x44>
   41f80:	1145c83a 	sub	r2,r2,r5
   41f84:	280ad07a 	srli	r5,r5,1
   41f88:	183ffb1e 	bne	r3,zero,41f78 <_gp+0xfffe2efc>
   41f8c:	38000126 	beq	r7,zero,41f94 <__modsi3+0x54>
   41f90:	0085c83a 	sub	r2,zero,r2
   41f94:	f800283a 	ret
   41f98:	014bc83a 	sub	r5,zero,r5
   41f9c:	003fec06 	br	41f50 <_gp+0xfffe2ed4>
   41fa0:	0109c83a 	sub	r4,zero,r4
   41fa4:	01c00044 	movi	r7,1
   41fa8:	003fe706 	br	41f48 <_gp+0xfffe2ecc>
   41fac:	00c00044 	movi	r3,1
   41fb0:	003ff106 	br	41f78 <_gp+0xfffe2efc>

00041fb4 <__udivsi3>:
   41fb4:	200d883a 	mov	r6,r4
   41fb8:	2900152e 	bgeu	r5,r4,42010 <__udivsi3+0x5c>
   41fbc:	28001416 	blt	r5,zero,42010 <__udivsi3+0x5c>
   41fc0:	00800804 	movi	r2,32
   41fc4:	00c00044 	movi	r3,1
   41fc8:	00000206 	br	41fd4 <__udivsi3+0x20>
   41fcc:	10000e26 	beq	r2,zero,42008 <__udivsi3+0x54>
   41fd0:	28000516 	blt	r5,zero,41fe8 <__udivsi3+0x34>
   41fd4:	294b883a 	add	r5,r5,r5
   41fd8:	10bfffc4 	addi	r2,r2,-1
   41fdc:	18c7883a 	add	r3,r3,r3
   41fe0:	293ffa36 	bltu	r5,r4,41fcc <_gp+0xfffe2f50>
   41fe4:	18000826 	beq	r3,zero,42008 <__udivsi3+0x54>
   41fe8:	0005883a 	mov	r2,zero
   41fec:	31400236 	bltu	r6,r5,41ff8 <__udivsi3+0x44>
   41ff0:	314dc83a 	sub	r6,r6,r5
   41ff4:	10c4b03a 	or	r2,r2,r3
   41ff8:	1806d07a 	srli	r3,r3,1
   41ffc:	280ad07a 	srli	r5,r5,1
   42000:	183ffa1e 	bne	r3,zero,41fec <_gp+0xfffe2f70>
   42004:	f800283a 	ret
   42008:	0005883a 	mov	r2,zero
   4200c:	f800283a 	ret
   42010:	00c00044 	movi	r3,1
   42014:	003ff406 	br	41fe8 <_gp+0xfffe2f6c>

00042018 <__umodsi3>:
   42018:	2005883a 	mov	r2,r4
   4201c:	2900122e 	bgeu	r5,r4,42068 <__umodsi3+0x50>
   42020:	28001116 	blt	r5,zero,42068 <__umodsi3+0x50>
   42024:	01800804 	movi	r6,32
   42028:	00c00044 	movi	r3,1
   4202c:	00000206 	br	42038 <__umodsi3+0x20>
   42030:	30000c26 	beq	r6,zero,42064 <__umodsi3+0x4c>
   42034:	28000516 	blt	r5,zero,4204c <__umodsi3+0x34>
   42038:	294b883a 	add	r5,r5,r5
   4203c:	31bfffc4 	addi	r6,r6,-1
   42040:	18c7883a 	add	r3,r3,r3
   42044:	293ffa36 	bltu	r5,r4,42030 <_gp+0xfffe2fb4>
   42048:	18000626 	beq	r3,zero,42064 <__umodsi3+0x4c>
   4204c:	1806d07a 	srli	r3,r3,1
   42050:	11400136 	bltu	r2,r5,42058 <__umodsi3+0x40>
   42054:	1145c83a 	sub	r2,r2,r5
   42058:	280ad07a 	srli	r5,r5,1
   4205c:	183ffb1e 	bne	r3,zero,4204c <_gp+0xfffe2fd0>
   42060:	f800283a 	ret
   42064:	f800283a 	ret
   42068:	00c00044 	movi	r3,1
   4206c:	003ff706 	br	4204c <_gp+0xfffe2fd0>

00042070 <__mulsi3>:
   42070:	0005883a 	mov	r2,zero
   42074:	20000726 	beq	r4,zero,42094 <__mulsi3+0x24>
   42078:	20c0004c 	andi	r3,r4,1
   4207c:	2008d07a 	srli	r4,r4,1
   42080:	18000126 	beq	r3,zero,42088 <__mulsi3+0x18>
   42084:	1145883a 	add	r2,r2,r5
   42088:	294b883a 	add	r5,r5,r5
   4208c:	203ffa1e 	bne	r4,zero,42078 <_gp+0xfffe2ffc>
   42090:	f800283a 	ret
   42094:	f800283a 	ret

00042098 <__adddf3>:
   42098:	02c00434 	movhi	r11,16
   4209c:	5affffc4 	addi	r11,r11,-1
   420a0:	2806d7fa 	srli	r3,r5,31
   420a4:	2ad4703a 	and	r10,r5,r11
   420a8:	3ad2703a 	and	r9,r7,r11
   420ac:	3804d53a 	srli	r2,r7,20
   420b0:	3018d77a 	srli	r12,r6,29
   420b4:	280ad53a 	srli	r5,r5,20
   420b8:	501490fa 	slli	r10,r10,3
   420bc:	2010d77a 	srli	r8,r4,29
   420c0:	481290fa 	slli	r9,r9,3
   420c4:	380ed7fa 	srli	r7,r7,31
   420c8:	defffb04 	addi	sp,sp,-20
   420cc:	dc800215 	stw	r18,8(sp)
   420d0:	dc400115 	stw	r17,4(sp)
   420d4:	dc000015 	stw	r16,0(sp)
   420d8:	dfc00415 	stw	ra,16(sp)
   420dc:	dcc00315 	stw	r19,12(sp)
   420e0:	1c803fcc 	andi	r18,r3,255
   420e4:	2c01ffcc 	andi	r16,r5,2047
   420e8:	5210b03a 	or	r8,r10,r8
   420ec:	202290fa 	slli	r17,r4,3
   420f0:	1081ffcc 	andi	r2,r2,2047
   420f4:	4b12b03a 	or	r9,r9,r12
   420f8:	300c90fa 	slli	r6,r6,3
   420fc:	91c07526 	beq	r18,r7,422d4 <__adddf3+0x23c>
   42100:	8087c83a 	sub	r3,r16,r2
   42104:	00c0ab0e 	bge	zero,r3,423b4 <__adddf3+0x31c>
   42108:	10002a1e 	bne	r2,zero,421b4 <__adddf3+0x11c>
   4210c:	4984b03a 	or	r2,r9,r6
   42110:	1000961e 	bne	r2,zero,4236c <__adddf3+0x2d4>
   42114:	888001cc 	andi	r2,r17,7
   42118:	10000726 	beq	r2,zero,42138 <__adddf3+0xa0>
   4211c:	888003cc 	andi	r2,r17,15
   42120:	00c00104 	movi	r3,4
   42124:	10c00426 	beq	r2,r3,42138 <__adddf3+0xa0>
   42128:	88c7883a 	add	r3,r17,r3
   4212c:	1c63803a 	cmpltu	r17,r3,r17
   42130:	4451883a 	add	r8,r8,r17
   42134:	1823883a 	mov	r17,r3
   42138:	4080202c 	andhi	r2,r8,128
   4213c:	10005926 	beq	r2,zero,422a4 <__adddf3+0x20c>
   42140:	84000044 	addi	r16,r16,1
   42144:	0081ffc4 	movi	r2,2047
   42148:	8080ba26 	beq	r16,r2,42434 <__adddf3+0x39c>
   4214c:	00bfe034 	movhi	r2,65408
   42150:	10bfffc4 	addi	r2,r2,-1
   42154:	4090703a 	and	r8,r8,r2
   42158:	4004977a 	slli	r2,r8,29
   4215c:	4010927a 	slli	r8,r8,9
   42160:	8822d0fa 	srli	r17,r17,3
   42164:	8401ffcc 	andi	r16,r16,2047
   42168:	4010d33a 	srli	r8,r8,12
   4216c:	9007883a 	mov	r3,r18
   42170:	1444b03a 	or	r2,r2,r17
   42174:	8401ffcc 	andi	r16,r16,2047
   42178:	8020953a 	slli	r16,r16,20
   4217c:	18c03fcc 	andi	r3,r3,255
   42180:	01000434 	movhi	r4,16
   42184:	213fffc4 	addi	r4,r4,-1
   42188:	180697fa 	slli	r3,r3,31
   4218c:	4110703a 	and	r8,r8,r4
   42190:	4410b03a 	or	r8,r8,r16
   42194:	40c6b03a 	or	r3,r8,r3
   42198:	dfc00417 	ldw	ra,16(sp)
   4219c:	dcc00317 	ldw	r19,12(sp)
   421a0:	dc800217 	ldw	r18,8(sp)
   421a4:	dc400117 	ldw	r17,4(sp)
   421a8:	dc000017 	ldw	r16,0(sp)
   421ac:	dec00504 	addi	sp,sp,20
   421b0:	f800283a 	ret
   421b4:	0081ffc4 	movi	r2,2047
   421b8:	80bfd626 	beq	r16,r2,42114 <_gp+0xfffe3098>
   421bc:	4a402034 	orhi	r9,r9,128
   421c0:	00800e04 	movi	r2,56
   421c4:	10c09f16 	blt	r2,r3,42444 <__adddf3+0x3ac>
   421c8:	008007c4 	movi	r2,31
   421cc:	10c0c216 	blt	r2,r3,424d8 <__adddf3+0x440>
   421d0:	00800804 	movi	r2,32
   421d4:	10c5c83a 	sub	r2,r2,r3
   421d8:	488a983a 	sll	r5,r9,r2
   421dc:	30c8d83a 	srl	r4,r6,r3
   421e0:	3084983a 	sll	r2,r6,r2
   421e4:	48c6d83a 	srl	r3,r9,r3
   421e8:	290cb03a 	or	r6,r5,r4
   421ec:	1004c03a 	cmpne	r2,r2,zero
   421f0:	308cb03a 	or	r6,r6,r2
   421f4:	898dc83a 	sub	r6,r17,r6
   421f8:	89a3803a 	cmpltu	r17,r17,r6
   421fc:	40d1c83a 	sub	r8,r8,r3
   42200:	4451c83a 	sub	r8,r8,r17
   42204:	3023883a 	mov	r17,r6
   42208:	4080202c 	andhi	r2,r8,128
   4220c:	10002326 	beq	r2,zero,4229c <__adddf3+0x204>
   42210:	04c02034 	movhi	r19,128
   42214:	9cffffc4 	addi	r19,r19,-1
   42218:	44e6703a 	and	r19,r8,r19
   4221c:	98007626 	beq	r19,zero,423f8 <__adddf3+0x360>
   42220:	9809883a 	mov	r4,r19
   42224:	004496c0 	call	4496c <__clzsi2>
   42228:	10fffe04 	addi	r3,r2,-8
   4222c:	010007c4 	movi	r4,31
   42230:	20c07716 	blt	r4,r3,42410 <__adddf3+0x378>
   42234:	00800804 	movi	r2,32
   42238:	10c5c83a 	sub	r2,r2,r3
   4223c:	8884d83a 	srl	r2,r17,r2
   42240:	98d0983a 	sll	r8,r19,r3
   42244:	88e2983a 	sll	r17,r17,r3
   42248:	1204b03a 	or	r2,r2,r8
   4224c:	1c007416 	blt	r3,r16,42420 <__adddf3+0x388>
   42250:	1c21c83a 	sub	r16,r3,r16
   42254:	82000044 	addi	r8,r16,1
   42258:	00c007c4 	movi	r3,31
   4225c:	1a009116 	blt	r3,r8,424a4 <__adddf3+0x40c>
   42260:	00c00804 	movi	r3,32
   42264:	1a07c83a 	sub	r3,r3,r8
   42268:	8a08d83a 	srl	r4,r17,r8
   4226c:	88e2983a 	sll	r17,r17,r3
   42270:	10c6983a 	sll	r3,r2,r3
   42274:	1210d83a 	srl	r8,r2,r8
   42278:	8804c03a 	cmpne	r2,r17,zero
   4227c:	1906b03a 	or	r3,r3,r4
   42280:	18a2b03a 	or	r17,r3,r2
   42284:	0021883a 	mov	r16,zero
   42288:	003fa206 	br	42114 <_gp+0xfffe3098>
   4228c:	1890b03a 	or	r8,r3,r2
   42290:	40017d26 	beq	r8,zero,42888 <__adddf3+0x7f0>
   42294:	1011883a 	mov	r8,r2
   42298:	1823883a 	mov	r17,r3
   4229c:	888001cc 	andi	r2,r17,7
   422a0:	103f9e1e 	bne	r2,zero,4211c <_gp+0xfffe30a0>
   422a4:	4004977a 	slli	r2,r8,29
   422a8:	8822d0fa 	srli	r17,r17,3
   422ac:	4010d0fa 	srli	r8,r8,3
   422b0:	9007883a 	mov	r3,r18
   422b4:	1444b03a 	or	r2,r2,r17
   422b8:	0101ffc4 	movi	r4,2047
   422bc:	81002426 	beq	r16,r4,42350 <__adddf3+0x2b8>
   422c0:	8120703a 	and	r16,r16,r4
   422c4:	01000434 	movhi	r4,16
   422c8:	213fffc4 	addi	r4,r4,-1
   422cc:	4110703a 	and	r8,r8,r4
   422d0:	003fa806 	br	42174 <_gp+0xfffe30f8>
   422d4:	8089c83a 	sub	r4,r16,r2
   422d8:	01005e0e 	bge	zero,r4,42454 <__adddf3+0x3bc>
   422dc:	10002b26 	beq	r2,zero,4238c <__adddf3+0x2f4>
   422e0:	0081ffc4 	movi	r2,2047
   422e4:	80bf8b26 	beq	r16,r2,42114 <_gp+0xfffe3098>
   422e8:	4a402034 	orhi	r9,r9,128
   422ec:	00800e04 	movi	r2,56
   422f0:	1100a40e 	bge	r2,r4,42584 <__adddf3+0x4ec>
   422f4:	498cb03a 	or	r6,r9,r6
   422f8:	300ac03a 	cmpne	r5,r6,zero
   422fc:	0013883a 	mov	r9,zero
   42300:	2c4b883a 	add	r5,r5,r17
   42304:	2c63803a 	cmpltu	r17,r5,r17
   42308:	4a11883a 	add	r8,r9,r8
   4230c:	8a11883a 	add	r8,r17,r8
   42310:	2823883a 	mov	r17,r5
   42314:	4080202c 	andhi	r2,r8,128
   42318:	103fe026 	beq	r2,zero,4229c <_gp+0xfffe3220>
   4231c:	84000044 	addi	r16,r16,1
   42320:	0081ffc4 	movi	r2,2047
   42324:	8080d226 	beq	r16,r2,42670 <__adddf3+0x5d8>
   42328:	00bfe034 	movhi	r2,65408
   4232c:	10bfffc4 	addi	r2,r2,-1
   42330:	4090703a 	and	r8,r8,r2
   42334:	880ad07a 	srli	r5,r17,1
   42338:	400897fa 	slli	r4,r8,31
   4233c:	88c0004c 	andi	r3,r17,1
   42340:	28e2b03a 	or	r17,r5,r3
   42344:	4010d07a 	srli	r8,r8,1
   42348:	2462b03a 	or	r17,r4,r17
   4234c:	003f7106 	br	42114 <_gp+0xfffe3098>
   42350:	4088b03a 	or	r4,r8,r2
   42354:	20014526 	beq	r4,zero,4286c <__adddf3+0x7d4>
   42358:	01000434 	movhi	r4,16
   4235c:	42000234 	orhi	r8,r8,8
   42360:	213fffc4 	addi	r4,r4,-1
   42364:	4110703a 	and	r8,r8,r4
   42368:	003f8206 	br	42174 <_gp+0xfffe30f8>
   4236c:	18ffffc4 	addi	r3,r3,-1
   42370:	1800491e 	bne	r3,zero,42498 <__adddf3+0x400>
   42374:	898bc83a 	sub	r5,r17,r6
   42378:	8963803a 	cmpltu	r17,r17,r5
   4237c:	4251c83a 	sub	r8,r8,r9
   42380:	4451c83a 	sub	r8,r8,r17
   42384:	2823883a 	mov	r17,r5
   42388:	003f9f06 	br	42208 <_gp+0xfffe318c>
   4238c:	4984b03a 	or	r2,r9,r6
   42390:	103f6026 	beq	r2,zero,42114 <_gp+0xfffe3098>
   42394:	213fffc4 	addi	r4,r4,-1
   42398:	2000931e 	bne	r4,zero,425e8 <__adddf3+0x550>
   4239c:	898d883a 	add	r6,r17,r6
   423a0:	3463803a 	cmpltu	r17,r6,r17
   423a4:	4251883a 	add	r8,r8,r9
   423a8:	8a11883a 	add	r8,r17,r8
   423ac:	3023883a 	mov	r17,r6
   423b0:	003fd806 	br	42314 <_gp+0xfffe3298>
   423b4:	1800541e 	bne	r3,zero,42508 <__adddf3+0x470>
   423b8:	80800044 	addi	r2,r16,1
   423bc:	1081ffcc 	andi	r2,r2,2047
   423c0:	00c00044 	movi	r3,1
   423c4:	1880a00e 	bge	r3,r2,42648 <__adddf3+0x5b0>
   423c8:	8989c83a 	sub	r4,r17,r6
   423cc:	8905803a 	cmpltu	r2,r17,r4
   423d0:	4267c83a 	sub	r19,r8,r9
   423d4:	98a7c83a 	sub	r19,r19,r2
   423d8:	9880202c 	andhi	r2,r19,128
   423dc:	10006326 	beq	r2,zero,4256c <__adddf3+0x4d4>
   423e0:	3463c83a 	sub	r17,r6,r17
   423e4:	4a07c83a 	sub	r3,r9,r8
   423e8:	344d803a 	cmpltu	r6,r6,r17
   423ec:	19a7c83a 	sub	r19,r3,r6
   423f0:	3825883a 	mov	r18,r7
   423f4:	983f8a1e 	bne	r19,zero,42220 <_gp+0xfffe31a4>
   423f8:	8809883a 	mov	r4,r17
   423fc:	004496c0 	call	4496c <__clzsi2>
   42400:	10800804 	addi	r2,r2,32
   42404:	10fffe04 	addi	r3,r2,-8
   42408:	010007c4 	movi	r4,31
   4240c:	20ff890e 	bge	r4,r3,42234 <_gp+0xfffe31b8>
   42410:	10bff604 	addi	r2,r2,-40
   42414:	8884983a 	sll	r2,r17,r2
   42418:	0023883a 	mov	r17,zero
   4241c:	1c3f8c0e 	bge	r3,r16,42250 <_gp+0xfffe31d4>
   42420:	023fe034 	movhi	r8,65408
   42424:	423fffc4 	addi	r8,r8,-1
   42428:	80e1c83a 	sub	r16,r16,r3
   4242c:	1210703a 	and	r8,r2,r8
   42430:	003f3806 	br	42114 <_gp+0xfffe3098>
   42434:	9007883a 	mov	r3,r18
   42438:	0011883a 	mov	r8,zero
   4243c:	0005883a 	mov	r2,zero
   42440:	003f4c06 	br	42174 <_gp+0xfffe30f8>
   42444:	498cb03a 	or	r6,r9,r6
   42448:	300cc03a 	cmpne	r6,r6,zero
   4244c:	0007883a 	mov	r3,zero
   42450:	003f6806 	br	421f4 <_gp+0xfffe3178>
   42454:	20009c1e 	bne	r4,zero,426c8 <__adddf3+0x630>
   42458:	80800044 	addi	r2,r16,1
   4245c:	1141ffcc 	andi	r5,r2,2047
   42460:	01000044 	movi	r4,1
   42464:	2140670e 	bge	r4,r5,42604 <__adddf3+0x56c>
   42468:	0101ffc4 	movi	r4,2047
   4246c:	11007f26 	beq	r2,r4,4266c <__adddf3+0x5d4>
   42470:	898d883a 	add	r6,r17,r6
   42474:	4247883a 	add	r3,r8,r9
   42478:	3451803a 	cmpltu	r8,r6,r17
   4247c:	40d1883a 	add	r8,r8,r3
   42480:	402297fa 	slli	r17,r8,31
   42484:	300cd07a 	srli	r6,r6,1
   42488:	4010d07a 	srli	r8,r8,1
   4248c:	1021883a 	mov	r16,r2
   42490:	89a2b03a 	or	r17,r17,r6
   42494:	003f1f06 	br	42114 <_gp+0xfffe3098>
   42498:	0081ffc4 	movi	r2,2047
   4249c:	80bf481e 	bne	r16,r2,421c0 <_gp+0xfffe3144>
   424a0:	003f1c06 	br	42114 <_gp+0xfffe3098>
   424a4:	843ff844 	addi	r16,r16,-31
   424a8:	01000804 	movi	r4,32
   424ac:	1406d83a 	srl	r3,r2,r16
   424b0:	41005026 	beq	r8,r4,425f4 <__adddf3+0x55c>
   424b4:	01001004 	movi	r4,64
   424b8:	2211c83a 	sub	r8,r4,r8
   424bc:	1204983a 	sll	r2,r2,r8
   424c0:	88a2b03a 	or	r17,r17,r2
   424c4:	8822c03a 	cmpne	r17,r17,zero
   424c8:	1c62b03a 	or	r17,r3,r17
   424cc:	0011883a 	mov	r8,zero
   424d0:	0021883a 	mov	r16,zero
   424d4:	003f7106 	br	4229c <_gp+0xfffe3220>
   424d8:	193ff804 	addi	r4,r3,-32
   424dc:	00800804 	movi	r2,32
   424e0:	4908d83a 	srl	r4,r9,r4
   424e4:	18804526 	beq	r3,r2,425fc <__adddf3+0x564>
   424e8:	00801004 	movi	r2,64
   424ec:	10c5c83a 	sub	r2,r2,r3
   424f0:	4886983a 	sll	r3,r9,r2
   424f4:	198cb03a 	or	r6,r3,r6
   424f8:	300cc03a 	cmpne	r6,r6,zero
   424fc:	218cb03a 	or	r6,r4,r6
   42500:	0007883a 	mov	r3,zero
   42504:	003f3b06 	br	421f4 <_gp+0xfffe3178>
   42508:	80002a26 	beq	r16,zero,425b4 <__adddf3+0x51c>
   4250c:	0101ffc4 	movi	r4,2047
   42510:	11006826 	beq	r2,r4,426b4 <__adddf3+0x61c>
   42514:	00c7c83a 	sub	r3,zero,r3
   42518:	42002034 	orhi	r8,r8,128
   4251c:	01000e04 	movi	r4,56
   42520:	20c07c16 	blt	r4,r3,42714 <__adddf3+0x67c>
   42524:	010007c4 	movi	r4,31
   42528:	20c0da16 	blt	r4,r3,42894 <__adddf3+0x7fc>
   4252c:	01000804 	movi	r4,32
   42530:	20c9c83a 	sub	r4,r4,r3
   42534:	4114983a 	sll	r10,r8,r4
   42538:	88cad83a 	srl	r5,r17,r3
   4253c:	8908983a 	sll	r4,r17,r4
   42540:	40c6d83a 	srl	r3,r8,r3
   42544:	5162b03a 	or	r17,r10,r5
   42548:	2008c03a 	cmpne	r4,r4,zero
   4254c:	8922b03a 	or	r17,r17,r4
   42550:	3463c83a 	sub	r17,r6,r17
   42554:	48c7c83a 	sub	r3,r9,r3
   42558:	344d803a 	cmpltu	r6,r6,r17
   4255c:	1991c83a 	sub	r8,r3,r6
   42560:	1021883a 	mov	r16,r2
   42564:	3825883a 	mov	r18,r7
   42568:	003f2706 	br	42208 <_gp+0xfffe318c>
   4256c:	24d0b03a 	or	r8,r4,r19
   42570:	40001b1e 	bne	r8,zero,425e0 <__adddf3+0x548>
   42574:	0005883a 	mov	r2,zero
   42578:	0007883a 	mov	r3,zero
   4257c:	0021883a 	mov	r16,zero
   42580:	003f4d06 	br	422b8 <_gp+0xfffe323c>
   42584:	008007c4 	movi	r2,31
   42588:	11003c16 	blt	r2,r4,4267c <__adddf3+0x5e4>
   4258c:	00800804 	movi	r2,32
   42590:	1105c83a 	sub	r2,r2,r4
   42594:	488e983a 	sll	r7,r9,r2
   42598:	310ad83a 	srl	r5,r6,r4
   4259c:	3084983a 	sll	r2,r6,r2
   425a0:	4912d83a 	srl	r9,r9,r4
   425a4:	394ab03a 	or	r5,r7,r5
   425a8:	1004c03a 	cmpne	r2,r2,zero
   425ac:	288ab03a 	or	r5,r5,r2
   425b0:	003f5306 	br	42300 <_gp+0xfffe3284>
   425b4:	4448b03a 	or	r4,r8,r17
   425b8:	20003e26 	beq	r4,zero,426b4 <__adddf3+0x61c>
   425bc:	00c6303a 	nor	r3,zero,r3
   425c0:	18003a1e 	bne	r3,zero,426ac <__adddf3+0x614>
   425c4:	3463c83a 	sub	r17,r6,r17
   425c8:	4a07c83a 	sub	r3,r9,r8
   425cc:	344d803a 	cmpltu	r6,r6,r17
   425d0:	1991c83a 	sub	r8,r3,r6
   425d4:	1021883a 	mov	r16,r2
   425d8:	3825883a 	mov	r18,r7
   425dc:	003f0a06 	br	42208 <_gp+0xfffe318c>
   425e0:	2023883a 	mov	r17,r4
   425e4:	003f0d06 	br	4221c <_gp+0xfffe31a0>
   425e8:	0081ffc4 	movi	r2,2047
   425ec:	80bf3f1e 	bne	r16,r2,422ec <_gp+0xfffe3270>
   425f0:	003ec806 	br	42114 <_gp+0xfffe3098>
   425f4:	0005883a 	mov	r2,zero
   425f8:	003fb106 	br	424c0 <_gp+0xfffe3444>
   425fc:	0007883a 	mov	r3,zero
   42600:	003fbc06 	br	424f4 <_gp+0xfffe3478>
   42604:	4444b03a 	or	r2,r8,r17
   42608:	8000871e 	bne	r16,zero,42828 <__adddf3+0x790>
   4260c:	1000ba26 	beq	r2,zero,428f8 <__adddf3+0x860>
   42610:	4984b03a 	or	r2,r9,r6
   42614:	103ebf26 	beq	r2,zero,42114 <_gp+0xfffe3098>
   42618:	8985883a 	add	r2,r17,r6
   4261c:	4247883a 	add	r3,r8,r9
   42620:	1451803a 	cmpltu	r8,r2,r17
   42624:	40d1883a 	add	r8,r8,r3
   42628:	40c0202c 	andhi	r3,r8,128
   4262c:	1023883a 	mov	r17,r2
   42630:	183f1a26 	beq	r3,zero,4229c <_gp+0xfffe3220>
   42634:	00bfe034 	movhi	r2,65408
   42638:	10bfffc4 	addi	r2,r2,-1
   4263c:	2021883a 	mov	r16,r4
   42640:	4090703a 	and	r8,r8,r2
   42644:	003eb306 	br	42114 <_gp+0xfffe3098>
   42648:	4444b03a 	or	r2,r8,r17
   4264c:	8000291e 	bne	r16,zero,426f4 <__adddf3+0x65c>
   42650:	10004b1e 	bne	r2,zero,42780 <__adddf3+0x6e8>
   42654:	4990b03a 	or	r8,r9,r6
   42658:	40008b26 	beq	r8,zero,42888 <__adddf3+0x7f0>
   4265c:	4811883a 	mov	r8,r9
   42660:	3023883a 	mov	r17,r6
   42664:	3825883a 	mov	r18,r7
   42668:	003eaa06 	br	42114 <_gp+0xfffe3098>
   4266c:	1021883a 	mov	r16,r2
   42670:	0011883a 	mov	r8,zero
   42674:	0005883a 	mov	r2,zero
   42678:	003f0f06 	br	422b8 <_gp+0xfffe323c>
   4267c:	217ff804 	addi	r5,r4,-32
   42680:	00800804 	movi	r2,32
   42684:	494ad83a 	srl	r5,r9,r5
   42688:	20807d26 	beq	r4,r2,42880 <__adddf3+0x7e8>
   4268c:	00801004 	movi	r2,64
   42690:	1109c83a 	sub	r4,r2,r4
   42694:	4912983a 	sll	r9,r9,r4
   42698:	498cb03a 	or	r6,r9,r6
   4269c:	300cc03a 	cmpne	r6,r6,zero
   426a0:	298ab03a 	or	r5,r5,r6
   426a4:	0013883a 	mov	r9,zero
   426a8:	003f1506 	br	42300 <_gp+0xfffe3284>
   426ac:	0101ffc4 	movi	r4,2047
   426b0:	113f9a1e 	bne	r2,r4,4251c <_gp+0xfffe34a0>
   426b4:	4811883a 	mov	r8,r9
   426b8:	3023883a 	mov	r17,r6
   426bc:	1021883a 	mov	r16,r2
   426c0:	3825883a 	mov	r18,r7
   426c4:	003e9306 	br	42114 <_gp+0xfffe3098>
   426c8:	8000161e 	bne	r16,zero,42724 <__adddf3+0x68c>
   426cc:	444ab03a 	or	r5,r8,r17
   426d0:	28005126 	beq	r5,zero,42818 <__adddf3+0x780>
   426d4:	0108303a 	nor	r4,zero,r4
   426d8:	20004d1e 	bne	r4,zero,42810 <__adddf3+0x778>
   426dc:	89a3883a 	add	r17,r17,r6
   426e0:	4253883a 	add	r9,r8,r9
   426e4:	898d803a 	cmpltu	r6,r17,r6
   426e8:	3251883a 	add	r8,r6,r9
   426ec:	1021883a 	mov	r16,r2
   426f0:	003f0806 	br	42314 <_gp+0xfffe3298>
   426f4:	1000301e 	bne	r2,zero,427b8 <__adddf3+0x720>
   426f8:	4984b03a 	or	r2,r9,r6
   426fc:	10007126 	beq	r2,zero,428c4 <__adddf3+0x82c>
   42700:	4811883a 	mov	r8,r9
   42704:	3023883a 	mov	r17,r6
   42708:	3825883a 	mov	r18,r7
   4270c:	0401ffc4 	movi	r16,2047
   42710:	003e8006 	br	42114 <_gp+0xfffe3098>
   42714:	4462b03a 	or	r17,r8,r17
   42718:	8822c03a 	cmpne	r17,r17,zero
   4271c:	0007883a 	mov	r3,zero
   42720:	003f8b06 	br	42550 <_gp+0xfffe34d4>
   42724:	0141ffc4 	movi	r5,2047
   42728:	11403b26 	beq	r2,r5,42818 <__adddf3+0x780>
   4272c:	0109c83a 	sub	r4,zero,r4
   42730:	42002034 	orhi	r8,r8,128
   42734:	01400e04 	movi	r5,56
   42738:	29006716 	blt	r5,r4,428d8 <__adddf3+0x840>
   4273c:	014007c4 	movi	r5,31
   42740:	29007016 	blt	r5,r4,42904 <__adddf3+0x86c>
   42744:	01400804 	movi	r5,32
   42748:	290bc83a 	sub	r5,r5,r4
   4274c:	4154983a 	sll	r10,r8,r5
   42750:	890ed83a 	srl	r7,r17,r4
   42754:	894a983a 	sll	r5,r17,r5
   42758:	4108d83a 	srl	r4,r8,r4
   4275c:	51e2b03a 	or	r17,r10,r7
   42760:	280ac03a 	cmpne	r5,r5,zero
   42764:	8962b03a 	or	r17,r17,r5
   42768:	89a3883a 	add	r17,r17,r6
   4276c:	2253883a 	add	r9,r4,r9
   42770:	898d803a 	cmpltu	r6,r17,r6
   42774:	3251883a 	add	r8,r6,r9
   42778:	1021883a 	mov	r16,r2
   4277c:	003ee506 	br	42314 <_gp+0xfffe3298>
   42780:	4984b03a 	or	r2,r9,r6
   42784:	103e6326 	beq	r2,zero,42114 <_gp+0xfffe3098>
   42788:	8987c83a 	sub	r3,r17,r6
   4278c:	88c9803a 	cmpltu	r4,r17,r3
   42790:	4245c83a 	sub	r2,r8,r9
   42794:	1105c83a 	sub	r2,r2,r4
   42798:	1100202c 	andhi	r4,r2,128
   4279c:	203ebb26 	beq	r4,zero,4228c <_gp+0xfffe3210>
   427a0:	3463c83a 	sub	r17,r6,r17
   427a4:	4a07c83a 	sub	r3,r9,r8
   427a8:	344d803a 	cmpltu	r6,r6,r17
   427ac:	1991c83a 	sub	r8,r3,r6
   427b0:	3825883a 	mov	r18,r7
   427b4:	003e5706 	br	42114 <_gp+0xfffe3098>
   427b8:	4984b03a 	or	r2,r9,r6
   427bc:	10002e26 	beq	r2,zero,42878 <__adddf3+0x7e0>
   427c0:	4004d0fa 	srli	r2,r8,3
   427c4:	8822d0fa 	srli	r17,r17,3
   427c8:	4010977a 	slli	r8,r8,29
   427cc:	10c0022c 	andhi	r3,r2,8
   427d0:	4462b03a 	or	r17,r8,r17
   427d4:	18000826 	beq	r3,zero,427f8 <__adddf3+0x760>
   427d8:	4808d0fa 	srli	r4,r9,3
   427dc:	20c0022c 	andhi	r3,r4,8
   427e0:	1800051e 	bne	r3,zero,427f8 <__adddf3+0x760>
   427e4:	300cd0fa 	srli	r6,r6,3
   427e8:	4806977a 	slli	r3,r9,29
   427ec:	2005883a 	mov	r2,r4
   427f0:	3825883a 	mov	r18,r7
   427f4:	19a2b03a 	or	r17,r3,r6
   427f8:	8810d77a 	srli	r8,r17,29
   427fc:	100490fa 	slli	r2,r2,3
   42800:	882290fa 	slli	r17,r17,3
   42804:	0401ffc4 	movi	r16,2047
   42808:	4090b03a 	or	r8,r8,r2
   4280c:	003e4106 	br	42114 <_gp+0xfffe3098>
   42810:	0141ffc4 	movi	r5,2047
   42814:	117fc71e 	bne	r2,r5,42734 <_gp+0xfffe36b8>
   42818:	4811883a 	mov	r8,r9
   4281c:	3023883a 	mov	r17,r6
   42820:	1021883a 	mov	r16,r2
   42824:	003e3b06 	br	42114 <_gp+0xfffe3098>
   42828:	10002f26 	beq	r2,zero,428e8 <__adddf3+0x850>
   4282c:	4984b03a 	or	r2,r9,r6
   42830:	10001126 	beq	r2,zero,42878 <__adddf3+0x7e0>
   42834:	4004d0fa 	srli	r2,r8,3
   42838:	8822d0fa 	srli	r17,r17,3
   4283c:	4010977a 	slli	r8,r8,29
   42840:	10c0022c 	andhi	r3,r2,8
   42844:	4462b03a 	or	r17,r8,r17
   42848:	183feb26 	beq	r3,zero,427f8 <_gp+0xfffe377c>
   4284c:	4808d0fa 	srli	r4,r9,3
   42850:	20c0022c 	andhi	r3,r4,8
   42854:	183fe81e 	bne	r3,zero,427f8 <_gp+0xfffe377c>
   42858:	300cd0fa 	srli	r6,r6,3
   4285c:	4806977a 	slli	r3,r9,29
   42860:	2005883a 	mov	r2,r4
   42864:	19a2b03a 	or	r17,r3,r6
   42868:	003fe306 	br	427f8 <_gp+0xfffe377c>
   4286c:	0011883a 	mov	r8,zero
   42870:	0005883a 	mov	r2,zero
   42874:	003e3f06 	br	42174 <_gp+0xfffe30f8>
   42878:	0401ffc4 	movi	r16,2047
   4287c:	003e2506 	br	42114 <_gp+0xfffe3098>
   42880:	0013883a 	mov	r9,zero
   42884:	003f8406 	br	42698 <_gp+0xfffe361c>
   42888:	0005883a 	mov	r2,zero
   4288c:	0007883a 	mov	r3,zero
   42890:	003e8906 	br	422b8 <_gp+0xfffe323c>
   42894:	197ff804 	addi	r5,r3,-32
   42898:	01000804 	movi	r4,32
   4289c:	414ad83a 	srl	r5,r8,r5
   428a0:	19002426 	beq	r3,r4,42934 <__adddf3+0x89c>
   428a4:	01001004 	movi	r4,64
   428a8:	20c7c83a 	sub	r3,r4,r3
   428ac:	40c6983a 	sll	r3,r8,r3
   428b0:	1c46b03a 	or	r3,r3,r17
   428b4:	1806c03a 	cmpne	r3,r3,zero
   428b8:	28e2b03a 	or	r17,r5,r3
   428bc:	0007883a 	mov	r3,zero
   428c0:	003f2306 	br	42550 <_gp+0xfffe34d4>
   428c4:	0007883a 	mov	r3,zero
   428c8:	5811883a 	mov	r8,r11
   428cc:	00bfffc4 	movi	r2,-1
   428d0:	0401ffc4 	movi	r16,2047
   428d4:	003e7806 	br	422b8 <_gp+0xfffe323c>
   428d8:	4462b03a 	or	r17,r8,r17
   428dc:	8822c03a 	cmpne	r17,r17,zero
   428e0:	0009883a 	mov	r4,zero
   428e4:	003fa006 	br	42768 <_gp+0xfffe36ec>
   428e8:	4811883a 	mov	r8,r9
   428ec:	3023883a 	mov	r17,r6
   428f0:	0401ffc4 	movi	r16,2047
   428f4:	003e0706 	br	42114 <_gp+0xfffe3098>
   428f8:	4811883a 	mov	r8,r9
   428fc:	3023883a 	mov	r17,r6
   42900:	003e0406 	br	42114 <_gp+0xfffe3098>
   42904:	21fff804 	addi	r7,r4,-32
   42908:	01400804 	movi	r5,32
   4290c:	41ced83a 	srl	r7,r8,r7
   42910:	21400a26 	beq	r4,r5,4293c <__adddf3+0x8a4>
   42914:	01401004 	movi	r5,64
   42918:	2909c83a 	sub	r4,r5,r4
   4291c:	4108983a 	sll	r4,r8,r4
   42920:	2448b03a 	or	r4,r4,r17
   42924:	2008c03a 	cmpne	r4,r4,zero
   42928:	3922b03a 	or	r17,r7,r4
   4292c:	0009883a 	mov	r4,zero
   42930:	003f8d06 	br	42768 <_gp+0xfffe36ec>
   42934:	0007883a 	mov	r3,zero
   42938:	003fdd06 	br	428b0 <_gp+0xfffe3834>
   4293c:	0009883a 	mov	r4,zero
   42940:	003ff706 	br	42920 <_gp+0xfffe38a4>

00042944 <__divdf3>:
   42944:	defff004 	addi	sp,sp,-64
   42948:	dc800815 	stw	r18,32(sp)
   4294c:	2824d53a 	srli	r18,r5,20
   42950:	dd800c15 	stw	r22,48(sp)
   42954:	282cd7fa 	srli	r22,r5,31
   42958:	dc000615 	stw	r16,24(sp)
   4295c:	04000434 	movhi	r16,16
   42960:	843fffc4 	addi	r16,r16,-1
   42964:	dfc00f15 	stw	ra,60(sp)
   42968:	df000e15 	stw	fp,56(sp)
   4296c:	ddc00d15 	stw	r23,52(sp)
   42970:	dd400b15 	stw	r21,44(sp)
   42974:	dd000a15 	stw	r20,40(sp)
   42978:	dcc00915 	stw	r19,36(sp)
   4297c:	dc400715 	stw	r17,28(sp)
   42980:	9481ffcc 	andi	r18,r18,2047
   42984:	2c20703a 	and	r16,r5,r16
   42988:	b2003fcc 	andi	r8,r22,255
   4298c:	90006126 	beq	r18,zero,42b14 <__divdf3+0x1d0>
   42990:	0081ffc4 	movi	r2,2047
   42994:	202b883a 	mov	r21,r4
   42998:	90803726 	beq	r18,r2,42a78 <__divdf3+0x134>
   4299c:	80800434 	orhi	r2,r16,16
   429a0:	100490fa 	slli	r2,r2,3
   429a4:	2020d77a 	srli	r16,r4,29
   429a8:	202a90fa 	slli	r21,r4,3
   429ac:	94bf0044 	addi	r18,r18,-1023
   429b0:	80a0b03a 	or	r16,r16,r2
   429b4:	0013883a 	mov	r9,zero
   429b8:	000b883a 	mov	r5,zero
   429bc:	3806d53a 	srli	r3,r7,20
   429c0:	382ed7fa 	srli	r23,r7,31
   429c4:	04400434 	movhi	r17,16
   429c8:	8c7fffc4 	addi	r17,r17,-1
   429cc:	18c1ffcc 	andi	r3,r3,2047
   429d0:	3029883a 	mov	r20,r6
   429d4:	3c62703a 	and	r17,r7,r17
   429d8:	bf003fcc 	andi	fp,r23,255
   429dc:	18006e26 	beq	r3,zero,42b98 <__divdf3+0x254>
   429e0:	0081ffc4 	movi	r2,2047
   429e4:	18806626 	beq	r3,r2,42b80 <__divdf3+0x23c>
   429e8:	88800434 	orhi	r2,r17,16
   429ec:	100490fa 	slli	r2,r2,3
   429f0:	3022d77a 	srli	r17,r6,29
   429f4:	302890fa 	slli	r20,r6,3
   429f8:	18ff0044 	addi	r3,r3,-1023
   429fc:	88a2b03a 	or	r17,r17,r2
   42a00:	000f883a 	mov	r7,zero
   42a04:	b5e6f03a 	xor	r19,r22,r23
   42a08:	3a4cb03a 	or	r6,r7,r9
   42a0c:	008003c4 	movi	r2,15
   42a10:	9809883a 	mov	r4,r19
   42a14:	90c7c83a 	sub	r3,r18,r3
   42a18:	9cc03fcc 	andi	r19,r19,255
   42a1c:	11809636 	bltu	r2,r6,42c78 <__divdf3+0x334>
   42a20:	300c90ba 	slli	r6,r6,2
   42a24:	00800134 	movhi	r2,4
   42a28:	108a8e04 	addi	r2,r2,10808
   42a2c:	308d883a 	add	r6,r6,r2
   42a30:	30800017 	ldw	r2,0(r6)
   42a34:	1000683a 	jmp	r2
   42a38:	00042c78 	rdprs	zero,zero,4273
   42a3c:	00042ab0 	cmpltui	zero,zero,4266
   42a40:	00042c68 	cmpgeui	zero,zero,4273
   42a44:	00042aa4 	muli	zero,zero,4266
   42a48:	00042c68 	cmpgeui	zero,zero,4273
   42a4c:	00042c3c 	xorhi	zero,zero,4272
   42a50:	00042c68 	cmpgeui	zero,zero,4273
   42a54:	00042aa4 	muli	zero,zero,4266
   42a58:	00042ab0 	cmpltui	zero,zero,4266
   42a5c:	00042ab0 	cmpltui	zero,zero,4266
   42a60:	00042c3c 	xorhi	zero,zero,4272
   42a64:	00042aa4 	muli	zero,zero,4266
   42a68:	00042a94 	movui	zero,4266
   42a6c:	00042a94 	movui	zero,4266
   42a70:	00042a94 	movui	zero,4266
   42a74:	00043000 	call	4300 <__alt_mem_MemoriaDados+0x4300>
   42a78:	2404b03a 	or	r2,r4,r16
   42a7c:	10006c1e 	bne	r2,zero,42c30 <__divdf3+0x2ec>
   42a80:	02400204 	movi	r9,8
   42a84:	0021883a 	mov	r16,zero
   42a88:	002b883a 	mov	r21,zero
   42a8c:	01400084 	movi	r5,2
   42a90:	003fca06 	br	429bc <_gp+0xfffe3940>
   42a94:	8023883a 	mov	r17,r16
   42a98:	a829883a 	mov	r20,r21
   42a9c:	4039883a 	mov	fp,r8
   42aa0:	280f883a 	mov	r7,r5
   42aa4:	00800084 	movi	r2,2
   42aa8:	3881601e 	bne	r7,r2,4302c <__divdf3+0x6e8>
   42aac:	e027883a 	mov	r19,fp
   42ab0:	9900004c 	andi	r4,r19,1
   42ab4:	0081ffc4 	movi	r2,2047
   42ab8:	0021883a 	mov	r16,zero
   42abc:	002b883a 	mov	r21,zero
   42ac0:	1004953a 	slli	r2,r2,20
   42ac4:	20c03fcc 	andi	r3,r4,255
   42ac8:	01400434 	movhi	r5,16
   42acc:	297fffc4 	addi	r5,r5,-1
   42ad0:	180697fa 	slli	r3,r3,31
   42ad4:	8160703a 	and	r16,r16,r5
   42ad8:	80a0b03a 	or	r16,r16,r2
   42adc:	80c6b03a 	or	r3,r16,r3
   42ae0:	a805883a 	mov	r2,r21
   42ae4:	dfc00f17 	ldw	ra,60(sp)
   42ae8:	df000e17 	ldw	fp,56(sp)
   42aec:	ddc00d17 	ldw	r23,52(sp)
   42af0:	dd800c17 	ldw	r22,48(sp)
   42af4:	dd400b17 	ldw	r21,44(sp)
   42af8:	dd000a17 	ldw	r20,40(sp)
   42afc:	dcc00917 	ldw	r19,36(sp)
   42b00:	dc800817 	ldw	r18,32(sp)
   42b04:	dc400717 	ldw	r17,28(sp)
   42b08:	dc000617 	ldw	r16,24(sp)
   42b0c:	dec01004 	addi	sp,sp,64
   42b10:	f800283a 	ret
   42b14:	2404b03a 	or	r2,r4,r16
   42b18:	2023883a 	mov	r17,r4
   42b1c:	10003f26 	beq	r2,zero,42c1c <__divdf3+0x2d8>
   42b20:	80015e26 	beq	r16,zero,4309c <__divdf3+0x758>
   42b24:	8009883a 	mov	r4,r16
   42b28:	d9800215 	stw	r6,8(sp)
   42b2c:	d9c00515 	stw	r7,20(sp)
   42b30:	da000415 	stw	r8,16(sp)
   42b34:	004496c0 	call	4496c <__clzsi2>
   42b38:	d9800217 	ldw	r6,8(sp)
   42b3c:	d9c00517 	ldw	r7,20(sp)
   42b40:	da000417 	ldw	r8,16(sp)
   42b44:	113ffd44 	addi	r4,r2,-11
   42b48:	00c00704 	movi	r3,28
   42b4c:	19014f16 	blt	r3,r4,4308c <__divdf3+0x748>
   42b50:	00c00744 	movi	r3,29
   42b54:	157ffe04 	addi	r21,r2,-8
   42b58:	1907c83a 	sub	r3,r3,r4
   42b5c:	8560983a 	sll	r16,r16,r21
   42b60:	88c6d83a 	srl	r3,r17,r3
   42b64:	8d6a983a 	sll	r21,r17,r21
   42b68:	1c20b03a 	or	r16,r3,r16
   42b6c:	1080fcc4 	addi	r2,r2,1011
   42b70:	00a5c83a 	sub	r18,zero,r2
   42b74:	0013883a 	mov	r9,zero
   42b78:	000b883a 	mov	r5,zero
   42b7c:	003f8f06 	br	429bc <_gp+0xfffe3940>
   42b80:	3444b03a 	or	r2,r6,r17
   42b84:	1000231e 	bne	r2,zero,42c14 <__divdf3+0x2d0>
   42b88:	0023883a 	mov	r17,zero
   42b8c:	0029883a 	mov	r20,zero
   42b90:	01c00084 	movi	r7,2
   42b94:	003f9b06 	br	42a04 <_gp+0xfffe3988>
   42b98:	3444b03a 	or	r2,r6,r17
   42b9c:	10001926 	beq	r2,zero,42c04 <__divdf3+0x2c0>
   42ba0:	88014b26 	beq	r17,zero,430d0 <__divdf3+0x78c>
   42ba4:	8809883a 	mov	r4,r17
   42ba8:	d9400115 	stw	r5,4(sp)
   42bac:	d9800215 	stw	r6,8(sp)
   42bb0:	da000415 	stw	r8,16(sp)
   42bb4:	da400315 	stw	r9,12(sp)
   42bb8:	004496c0 	call	4496c <__clzsi2>
   42bbc:	d9400117 	ldw	r5,4(sp)
   42bc0:	d9800217 	ldw	r6,8(sp)
   42bc4:	da000417 	ldw	r8,16(sp)
   42bc8:	da400317 	ldw	r9,12(sp)
   42bcc:	113ffd44 	addi	r4,r2,-11
   42bd0:	00c00704 	movi	r3,28
   42bd4:	19013a16 	blt	r3,r4,430c0 <__divdf3+0x77c>
   42bd8:	00c00744 	movi	r3,29
   42bdc:	153ffe04 	addi	r20,r2,-8
   42be0:	1907c83a 	sub	r3,r3,r4
   42be4:	8d22983a 	sll	r17,r17,r20
   42be8:	30c6d83a 	srl	r3,r6,r3
   42bec:	3528983a 	sll	r20,r6,r20
   42bf0:	1c62b03a 	or	r17,r3,r17
   42bf4:	1080fcc4 	addi	r2,r2,1011
   42bf8:	0087c83a 	sub	r3,zero,r2
   42bfc:	000f883a 	mov	r7,zero
   42c00:	003f8006 	br	42a04 <_gp+0xfffe3988>
   42c04:	0023883a 	mov	r17,zero
   42c08:	0029883a 	mov	r20,zero
   42c0c:	01c00044 	movi	r7,1
   42c10:	003f7c06 	br	42a04 <_gp+0xfffe3988>
   42c14:	01c000c4 	movi	r7,3
   42c18:	003f7a06 	br	42a04 <_gp+0xfffe3988>
   42c1c:	02400104 	movi	r9,4
   42c20:	0021883a 	mov	r16,zero
   42c24:	002b883a 	mov	r21,zero
   42c28:	01400044 	movi	r5,1
   42c2c:	003f6306 	br	429bc <_gp+0xfffe3940>
   42c30:	02400304 	movi	r9,12
   42c34:	014000c4 	movi	r5,3
   42c38:	003f6006 	br	429bc <_gp+0xfffe3940>
   42c3c:	04000434 	movhi	r16,16
   42c40:	0009883a 	mov	r4,zero
   42c44:	843fffc4 	addi	r16,r16,-1
   42c48:	057fffc4 	movi	r21,-1
   42c4c:	0081ffc4 	movi	r2,2047
   42c50:	003f9b06 	br	42ac0 <_gp+0xfffe3a44>
   42c54:	00c00044 	movi	r3,1
   42c58:	1887c83a 	sub	r3,r3,r2
   42c5c:	01000e04 	movi	r4,56
   42c60:	20c1530e 	bge	r4,r3,431b0 <__divdf3+0x86c>
   42c64:	9900004c 	andi	r4,r19,1
   42c68:	0005883a 	mov	r2,zero
   42c6c:	0021883a 	mov	r16,zero
   42c70:	002b883a 	mov	r21,zero
   42c74:	003f9206 	br	42ac0 <_gp+0xfffe3a44>
   42c78:	8c012e36 	bltu	r17,r16,43134 <__divdf3+0x7f0>
   42c7c:	84412c26 	beq	r16,r17,43130 <__divdf3+0x7ec>
   42c80:	a82f883a 	mov	r23,r21
   42c84:	18ffffc4 	addi	r3,r3,-1
   42c88:	002b883a 	mov	r21,zero
   42c8c:	a004d63a 	srli	r2,r20,24
   42c90:	8822923a 	slli	r17,r17,8
   42c94:	a028923a 	slli	r20,r20,8
   42c98:	8009883a 	mov	r4,r16
   42c9c:	88acb03a 	or	r22,r17,r2
   42ca0:	dd000015 	stw	r20,0(sp)
   42ca4:	b028d43a 	srli	r20,r22,16
   42ca8:	d8c00215 	stw	r3,8(sp)
   42cac:	b4bfffcc 	andi	r18,r22,65535
   42cb0:	a00b883a 	mov	r5,r20
   42cb4:	0041fb40 	call	41fb4 <__udivsi3>
   42cb8:	100b883a 	mov	r5,r2
   42cbc:	9009883a 	mov	r4,r18
   42cc0:	1023883a 	mov	r17,r2
   42cc4:	00420700 	call	42070 <__mulsi3>
   42cc8:	8009883a 	mov	r4,r16
   42ccc:	a00b883a 	mov	r5,r20
   42cd0:	1039883a 	mov	fp,r2
   42cd4:	00420180 	call	42018 <__umodsi3>
   42cd8:	1004943a 	slli	r2,r2,16
   42cdc:	b808d43a 	srli	r4,r23,16
   42ce0:	d8c00217 	ldw	r3,8(sp)
   42ce4:	2084b03a 	or	r2,r4,r2
   42ce8:	1700062e 	bgeu	r2,fp,42d04 <__divdf3+0x3c0>
   42cec:	1585883a 	add	r2,r2,r22
   42cf0:	893fffc4 	addi	r4,r17,-1
   42cf4:	15811d36 	bltu	r2,r22,4316c <__divdf3+0x828>
   42cf8:	17011c2e 	bgeu	r2,fp,4316c <__divdf3+0x828>
   42cfc:	8c7fff84 	addi	r17,r17,-2
   42d00:	1585883a 	add	r2,r2,r22
   42d04:	1739c83a 	sub	fp,r2,fp
   42d08:	a00b883a 	mov	r5,r20
   42d0c:	e009883a 	mov	r4,fp
   42d10:	d8c00215 	stw	r3,8(sp)
   42d14:	0041fb40 	call	41fb4 <__udivsi3>
   42d18:	100b883a 	mov	r5,r2
   42d1c:	9009883a 	mov	r4,r18
   42d20:	1021883a 	mov	r16,r2
   42d24:	00420700 	call	42070 <__mulsi3>
   42d28:	a00b883a 	mov	r5,r20
   42d2c:	e009883a 	mov	r4,fp
   42d30:	d8800415 	stw	r2,16(sp)
   42d34:	00420180 	call	42018 <__umodsi3>
   42d38:	1004943a 	slli	r2,r2,16
   42d3c:	da000417 	ldw	r8,16(sp)
   42d40:	bdffffcc 	andi	r23,r23,65535
   42d44:	b884b03a 	or	r2,r23,r2
   42d48:	d8c00217 	ldw	r3,8(sp)
   42d4c:	1200062e 	bgeu	r2,r8,42d68 <__divdf3+0x424>
   42d50:	1585883a 	add	r2,r2,r22
   42d54:	813fffc4 	addi	r4,r16,-1
   42d58:	15810236 	bltu	r2,r22,43164 <__divdf3+0x820>
   42d5c:	1201012e 	bgeu	r2,r8,43164 <__divdf3+0x820>
   42d60:	843fff84 	addi	r16,r16,-2
   42d64:	1585883a 	add	r2,r2,r22
   42d68:	8822943a 	slli	r17,r17,16
   42d6c:	d9800017 	ldw	r6,0(sp)
   42d70:	1211c83a 	sub	r8,r2,r8
   42d74:	8c22b03a 	or	r17,r17,r16
   42d78:	373fffcc 	andi	fp,r6,65535
   42d7c:	8abfffcc 	andi	r10,r17,65535
   42d80:	8820d43a 	srli	r16,r17,16
   42d84:	5009883a 	mov	r4,r10
   42d88:	e00b883a 	mov	r5,fp
   42d8c:	302ed43a 	srli	r23,r6,16
   42d90:	d8c00215 	stw	r3,8(sp)
   42d94:	da000415 	stw	r8,16(sp)
   42d98:	da800115 	stw	r10,4(sp)
   42d9c:	00420700 	call	42070 <__mulsi3>
   42da0:	800b883a 	mov	r5,r16
   42da4:	e009883a 	mov	r4,fp
   42da8:	d8800515 	stw	r2,20(sp)
   42dac:	00420700 	call	42070 <__mulsi3>
   42db0:	8009883a 	mov	r4,r16
   42db4:	b80b883a 	mov	r5,r23
   42db8:	d8800315 	stw	r2,12(sp)
   42dbc:	00420700 	call	42070 <__mulsi3>
   42dc0:	da800117 	ldw	r10,4(sp)
   42dc4:	b80b883a 	mov	r5,r23
   42dc8:	1021883a 	mov	r16,r2
   42dcc:	5009883a 	mov	r4,r10
   42dd0:	00420700 	call	42070 <__mulsi3>
   42dd4:	d9c00517 	ldw	r7,20(sp)
   42dd8:	da400317 	ldw	r9,12(sp)
   42ddc:	d8c00217 	ldw	r3,8(sp)
   42de0:	3808d43a 	srli	r4,r7,16
   42de4:	1245883a 	add	r2,r2,r9
   42de8:	da000417 	ldw	r8,16(sp)
   42dec:	2085883a 	add	r2,r4,r2
   42df0:	1240022e 	bgeu	r2,r9,42dfc <__divdf3+0x4b8>
   42df4:	01000074 	movhi	r4,1
   42df8:	8121883a 	add	r16,r16,r4
   42dfc:	1008d43a 	srli	r4,r2,16
   42e00:	1004943a 	slli	r2,r2,16
   42e04:	39ffffcc 	andi	r7,r7,65535
   42e08:	2409883a 	add	r4,r4,r16
   42e0c:	11c5883a 	add	r2,r2,r7
   42e10:	4100bb36 	bltu	r8,r4,43100 <__divdf3+0x7bc>
   42e14:	4100d726 	beq	r8,r4,43174 <__divdf3+0x830>
   42e18:	4109c83a 	sub	r4,r8,r4
   42e1c:	a8a1c83a 	sub	r16,r21,r2
   42e20:	ac2b803a 	cmpltu	r21,r21,r16
   42e24:	256bc83a 	sub	r21,r4,r21
   42e28:	b540d926 	beq	r22,r21,43190 <__divdf3+0x84c>
   42e2c:	a00b883a 	mov	r5,r20
   42e30:	a809883a 	mov	r4,r21
   42e34:	d8c00215 	stw	r3,8(sp)
   42e38:	0041fb40 	call	41fb4 <__udivsi3>
   42e3c:	100b883a 	mov	r5,r2
   42e40:	9009883a 	mov	r4,r18
   42e44:	d8800515 	stw	r2,20(sp)
   42e48:	00420700 	call	42070 <__mulsi3>
   42e4c:	a809883a 	mov	r4,r21
   42e50:	a00b883a 	mov	r5,r20
   42e54:	d8800415 	stw	r2,16(sp)
   42e58:	00420180 	call	42018 <__umodsi3>
   42e5c:	1004943a 	slli	r2,r2,16
   42e60:	8008d43a 	srli	r4,r16,16
   42e64:	da000417 	ldw	r8,16(sp)
   42e68:	d8c00217 	ldw	r3,8(sp)
   42e6c:	2084b03a 	or	r2,r4,r2
   42e70:	d9c00517 	ldw	r7,20(sp)
   42e74:	1200062e 	bgeu	r2,r8,42e90 <__divdf3+0x54c>
   42e78:	1585883a 	add	r2,r2,r22
   42e7c:	393fffc4 	addi	r4,r7,-1
   42e80:	1580c536 	bltu	r2,r22,43198 <__divdf3+0x854>
   42e84:	1200c42e 	bgeu	r2,r8,43198 <__divdf3+0x854>
   42e88:	39ffff84 	addi	r7,r7,-2
   42e8c:	1585883a 	add	r2,r2,r22
   42e90:	122bc83a 	sub	r21,r2,r8
   42e94:	a00b883a 	mov	r5,r20
   42e98:	a809883a 	mov	r4,r21
   42e9c:	d8c00215 	stw	r3,8(sp)
   42ea0:	d9c00515 	stw	r7,20(sp)
   42ea4:	0041fb40 	call	41fb4 <__udivsi3>
   42ea8:	9009883a 	mov	r4,r18
   42eac:	100b883a 	mov	r5,r2
   42eb0:	d8800415 	stw	r2,16(sp)
   42eb4:	00420700 	call	42070 <__mulsi3>
   42eb8:	a809883a 	mov	r4,r21
   42ebc:	a00b883a 	mov	r5,r20
   42ec0:	1025883a 	mov	r18,r2
   42ec4:	00420180 	call	42018 <__umodsi3>
   42ec8:	1004943a 	slli	r2,r2,16
   42ecc:	813fffcc 	andi	r4,r16,65535
   42ed0:	d8c00217 	ldw	r3,8(sp)
   42ed4:	20a0b03a 	or	r16,r4,r2
   42ed8:	d9c00517 	ldw	r7,20(sp)
   42edc:	da000417 	ldw	r8,16(sp)
   42ee0:	8480062e 	bgeu	r16,r18,42efc <__divdf3+0x5b8>
   42ee4:	85a1883a 	add	r16,r16,r22
   42ee8:	40bfffc4 	addi	r2,r8,-1
   42eec:	8580ac36 	bltu	r16,r22,431a0 <__divdf3+0x85c>
   42ef0:	8480ab2e 	bgeu	r16,r18,431a0 <__divdf3+0x85c>
   42ef4:	423fff84 	addi	r8,r8,-2
   42ef8:	85a1883a 	add	r16,r16,r22
   42efc:	3804943a 	slli	r2,r7,16
   42f00:	84a1c83a 	sub	r16,r16,r18
   42f04:	e009883a 	mov	r4,fp
   42f08:	1228b03a 	or	r20,r2,r8
   42f0c:	a1ffffcc 	andi	r7,r20,65535
   42f10:	a024d43a 	srli	r18,r20,16
   42f14:	380b883a 	mov	r5,r7
   42f18:	d8c00215 	stw	r3,8(sp)
   42f1c:	d9c00515 	stw	r7,20(sp)
   42f20:	00420700 	call	42070 <__mulsi3>
   42f24:	900b883a 	mov	r5,r18
   42f28:	e009883a 	mov	r4,fp
   42f2c:	102b883a 	mov	r21,r2
   42f30:	00420700 	call	42070 <__mulsi3>
   42f34:	900b883a 	mov	r5,r18
   42f38:	b809883a 	mov	r4,r23
   42f3c:	1039883a 	mov	fp,r2
   42f40:	00420700 	call	42070 <__mulsi3>
   42f44:	d9c00517 	ldw	r7,20(sp)
   42f48:	b80b883a 	mov	r5,r23
   42f4c:	1025883a 	mov	r18,r2
   42f50:	3809883a 	mov	r4,r7
   42f54:	00420700 	call	42070 <__mulsi3>
   42f58:	a808d43a 	srli	r4,r21,16
   42f5c:	1705883a 	add	r2,r2,fp
   42f60:	d8c00217 	ldw	r3,8(sp)
   42f64:	2085883a 	add	r2,r4,r2
   42f68:	1700022e 	bgeu	r2,fp,42f74 <__divdf3+0x630>
   42f6c:	01000074 	movhi	r4,1
   42f70:	9125883a 	add	r18,r18,r4
   42f74:	1008d43a 	srli	r4,r2,16
   42f78:	1004943a 	slli	r2,r2,16
   42f7c:	ad7fffcc 	andi	r21,r21,65535
   42f80:	2489883a 	add	r4,r4,r18
   42f84:	1545883a 	add	r2,r2,r21
   42f88:	81003836 	bltu	r16,r4,4306c <__divdf3+0x728>
   42f8c:	81003626 	beq	r16,r4,43068 <__divdf3+0x724>
   42f90:	a5000054 	ori	r20,r20,1
   42f94:	1880ffc4 	addi	r2,r3,1023
   42f98:	00bf2e0e 	bge	zero,r2,42c54 <_gp+0xfffe3bd8>
   42f9c:	a10001cc 	andi	r4,r20,7
   42fa0:	20000726 	beq	r4,zero,42fc0 <__divdf3+0x67c>
   42fa4:	a10003cc 	andi	r4,r20,15
   42fa8:	01400104 	movi	r5,4
   42fac:	21400426 	beq	r4,r5,42fc0 <__divdf3+0x67c>
   42fb0:	a149883a 	add	r4,r20,r5
   42fb4:	2529803a 	cmpltu	r20,r4,r20
   42fb8:	8d23883a 	add	r17,r17,r20
   42fbc:	2029883a 	mov	r20,r4
   42fc0:	8900402c 	andhi	r4,r17,256
   42fc4:	20000426 	beq	r4,zero,42fd8 <__divdf3+0x694>
   42fc8:	18810004 	addi	r2,r3,1024
   42fcc:	00ffc034 	movhi	r3,65280
   42fd0:	18ffffc4 	addi	r3,r3,-1
   42fd4:	88e2703a 	and	r17,r17,r3
   42fd8:	00c1ff84 	movi	r3,2046
   42fdc:	18beb416 	blt	r3,r2,42ab0 <_gp+0xfffe3a34>
   42fe0:	a028d0fa 	srli	r20,r20,3
   42fe4:	882a977a 	slli	r21,r17,29
   42fe8:	8820927a 	slli	r16,r17,9
   42fec:	1081ffcc 	andi	r2,r2,2047
   42ff0:	ad2ab03a 	or	r21,r21,r20
   42ff4:	8020d33a 	srli	r16,r16,12
   42ff8:	9900004c 	andi	r4,r19,1
   42ffc:	003eb006 	br	42ac0 <_gp+0xfffe3a44>
   43000:	8080022c 	andhi	r2,r16,8
   43004:	10001226 	beq	r2,zero,43050 <__divdf3+0x70c>
   43008:	8880022c 	andhi	r2,r17,8
   4300c:	1000101e 	bne	r2,zero,43050 <__divdf3+0x70c>
   43010:	00800434 	movhi	r2,16
   43014:	8c000234 	orhi	r16,r17,8
   43018:	10bfffc4 	addi	r2,r2,-1
   4301c:	b809883a 	mov	r4,r23
   43020:	80a0703a 	and	r16,r16,r2
   43024:	a02b883a 	mov	r21,r20
   43028:	003f0806 	br	42c4c <_gp+0xfffe3bd0>
   4302c:	008000c4 	movi	r2,3
   43030:	3880b126 	beq	r7,r2,432f8 <__divdf3+0x9b4>
   43034:	00800044 	movi	r2,1
   43038:	38805b1e 	bne	r7,r2,431a8 <__divdf3+0x864>
   4303c:	e009883a 	mov	r4,fp
   43040:	0005883a 	mov	r2,zero
   43044:	0021883a 	mov	r16,zero
   43048:	002b883a 	mov	r21,zero
   4304c:	003e9c06 	br	42ac0 <_gp+0xfffe3a44>
   43050:	00800434 	movhi	r2,16
   43054:	84000234 	orhi	r16,r16,8
   43058:	10bfffc4 	addi	r2,r2,-1
   4305c:	b009883a 	mov	r4,r22
   43060:	80a0703a 	and	r16,r16,r2
   43064:	003ef906 	br	42c4c <_gp+0xfffe3bd0>
   43068:	103fca26 	beq	r2,zero,42f94 <_gp+0xfffe3f18>
   4306c:	b421883a 	add	r16,r22,r16
   43070:	a17fffc4 	addi	r5,r20,-1
   43074:	8580422e 	bgeu	r16,r22,43180 <__divdf3+0x83c>
   43078:	2829883a 	mov	r20,r5
   4307c:	813fc41e 	bne	r16,r4,42f90 <_gp+0xfffe3f14>
   43080:	d9800017 	ldw	r6,0(sp)
   43084:	30bfc21e 	bne	r6,r2,42f90 <_gp+0xfffe3f14>
   43088:	003fc206 	br	42f94 <_gp+0xfffe3f18>
   4308c:	143ff604 	addi	r16,r2,-40
   43090:	8c20983a 	sll	r16,r17,r16
   43094:	002b883a 	mov	r21,zero
   43098:	003eb406 	br	42b6c <_gp+0xfffe3af0>
   4309c:	d9800215 	stw	r6,8(sp)
   430a0:	d9c00515 	stw	r7,20(sp)
   430a4:	da000415 	stw	r8,16(sp)
   430a8:	004496c0 	call	4496c <__clzsi2>
   430ac:	10800804 	addi	r2,r2,32
   430b0:	da000417 	ldw	r8,16(sp)
   430b4:	d9c00517 	ldw	r7,20(sp)
   430b8:	d9800217 	ldw	r6,8(sp)
   430bc:	003ea106 	br	42b44 <_gp+0xfffe3ac8>
   430c0:	147ff604 	addi	r17,r2,-40
   430c4:	3462983a 	sll	r17,r6,r17
   430c8:	0029883a 	mov	r20,zero
   430cc:	003ec906 	br	42bf4 <_gp+0xfffe3b78>
   430d0:	3009883a 	mov	r4,r6
   430d4:	d9400115 	stw	r5,4(sp)
   430d8:	d9800215 	stw	r6,8(sp)
   430dc:	da000415 	stw	r8,16(sp)
   430e0:	da400315 	stw	r9,12(sp)
   430e4:	004496c0 	call	4496c <__clzsi2>
   430e8:	10800804 	addi	r2,r2,32
   430ec:	da400317 	ldw	r9,12(sp)
   430f0:	da000417 	ldw	r8,16(sp)
   430f4:	d9800217 	ldw	r6,8(sp)
   430f8:	d9400117 	ldw	r5,4(sp)
   430fc:	003eb306 	br	42bcc <_gp+0xfffe3b50>
   43100:	d9800017 	ldw	r6,0(sp)
   43104:	a9ab883a 	add	r21,r21,r6
   43108:	a98b803a 	cmpltu	r5,r21,r6
   4310c:	2d8b883a 	add	r5,r5,r22
   43110:	2a11883a 	add	r8,r5,r8
   43114:	897fffc4 	addi	r5,r17,-1
   43118:	b2000c2e 	bgeu	r22,r8,4314c <__divdf3+0x808>
   4311c:	41003f36 	bltu	r8,r4,4321c <__divdf3+0x8d8>
   43120:	22006c26 	beq	r4,r8,432d4 <__divdf3+0x990>
   43124:	4109c83a 	sub	r4,r8,r4
   43128:	2823883a 	mov	r17,r5
   4312c:	003f3b06 	br	42e1c <_gp+0xfffe3da0>
   43130:	ad3ed336 	bltu	r21,r20,42c80 <_gp+0xfffe3c04>
   43134:	a804d07a 	srli	r2,r21,1
   43138:	802e97fa 	slli	r23,r16,31
   4313c:	a82a97fa 	slli	r21,r21,31
   43140:	8020d07a 	srli	r16,r16,1
   43144:	b8aeb03a 	or	r23,r23,r2
   43148:	003ed006 	br	42c8c <_gp+0xfffe3c10>
   4314c:	b23ff51e 	bne	r22,r8,43124 <_gp+0xfffe40a8>
   43150:	d9800017 	ldw	r6,0(sp)
   43154:	a9bff12e 	bgeu	r21,r6,4311c <_gp+0xfffe40a0>
   43158:	b109c83a 	sub	r4,r22,r4
   4315c:	2823883a 	mov	r17,r5
   43160:	003f2e06 	br	42e1c <_gp+0xfffe3da0>
   43164:	2021883a 	mov	r16,r4
   43168:	003eff06 	br	42d68 <_gp+0xfffe3cec>
   4316c:	2023883a 	mov	r17,r4
   43170:	003ee406 	br	42d04 <_gp+0xfffe3c88>
   43174:	a8bfe236 	bltu	r21,r2,43100 <_gp+0xfffe4084>
   43178:	0009883a 	mov	r4,zero
   4317c:	003f2706 	br	42e1c <_gp+0xfffe3da0>
   43180:	81002d36 	bltu	r16,r4,43238 <__divdf3+0x8f4>
   43184:	24005626 	beq	r4,r16,432e0 <__divdf3+0x99c>
   43188:	2829883a 	mov	r20,r5
   4318c:	003f8006 	br	42f90 <_gp+0xfffe3f14>
   43190:	053fffc4 	movi	r20,-1
   43194:	003f7f06 	br	42f94 <_gp+0xfffe3f18>
   43198:	200f883a 	mov	r7,r4
   4319c:	003f3c06 	br	42e90 <_gp+0xfffe3e14>
   431a0:	1011883a 	mov	r8,r2
   431a4:	003f5506 	br	42efc <_gp+0xfffe3e80>
   431a8:	e027883a 	mov	r19,fp
   431ac:	003f7906 	br	42f94 <_gp+0xfffe3f18>
   431b0:	010007c4 	movi	r4,31
   431b4:	20c02816 	blt	r4,r3,43258 <__divdf3+0x914>
   431b8:	00800804 	movi	r2,32
   431bc:	10c5c83a 	sub	r2,r2,r3
   431c0:	888a983a 	sll	r5,r17,r2
   431c4:	a0c8d83a 	srl	r4,r20,r3
   431c8:	a084983a 	sll	r2,r20,r2
   431cc:	88e2d83a 	srl	r17,r17,r3
   431d0:	2906b03a 	or	r3,r5,r4
   431d4:	1004c03a 	cmpne	r2,r2,zero
   431d8:	1886b03a 	or	r3,r3,r2
   431dc:	188001cc 	andi	r2,r3,7
   431e0:	10000726 	beq	r2,zero,43200 <__divdf3+0x8bc>
   431e4:	188003cc 	andi	r2,r3,15
   431e8:	01000104 	movi	r4,4
   431ec:	11000426 	beq	r2,r4,43200 <__divdf3+0x8bc>
   431f0:	1805883a 	mov	r2,r3
   431f4:	10c00104 	addi	r3,r2,4
   431f8:	1885803a 	cmpltu	r2,r3,r2
   431fc:	88a3883a 	add	r17,r17,r2
   43200:	8880202c 	andhi	r2,r17,128
   43204:	10002926 	beq	r2,zero,432ac <__divdf3+0x968>
   43208:	9900004c 	andi	r4,r19,1
   4320c:	00800044 	movi	r2,1
   43210:	0021883a 	mov	r16,zero
   43214:	002b883a 	mov	r21,zero
   43218:	003e2906 	br	42ac0 <_gp+0xfffe3a44>
   4321c:	d9800017 	ldw	r6,0(sp)
   43220:	8c7fff84 	addi	r17,r17,-2
   43224:	a9ab883a 	add	r21,r21,r6
   43228:	a98b803a 	cmpltu	r5,r21,r6
   4322c:	2d8b883a 	add	r5,r5,r22
   43230:	2a11883a 	add	r8,r5,r8
   43234:	003ef806 	br	42e18 <_gp+0xfffe3d9c>
   43238:	d9800017 	ldw	r6,0(sp)
   4323c:	318f883a 	add	r7,r6,r6
   43240:	398b803a 	cmpltu	r5,r7,r6
   43244:	2d8d883a 	add	r6,r5,r22
   43248:	81a1883a 	add	r16,r16,r6
   4324c:	a17fff84 	addi	r5,r20,-2
   43250:	d9c00015 	stw	r7,0(sp)
   43254:	003f8806 	br	43078 <_gp+0xfffe3ffc>
   43258:	013ff844 	movi	r4,-31
   4325c:	2085c83a 	sub	r2,r4,r2
   43260:	8888d83a 	srl	r4,r17,r2
   43264:	00800804 	movi	r2,32
   43268:	18802126 	beq	r3,r2,432f0 <__divdf3+0x9ac>
   4326c:	04001004 	movi	r16,64
   43270:	80c7c83a 	sub	r3,r16,r3
   43274:	88e0983a 	sll	r16,r17,r3
   43278:	8504b03a 	or	r2,r16,r20
   4327c:	1004c03a 	cmpne	r2,r2,zero
   43280:	2084b03a 	or	r2,r4,r2
   43284:	144001cc 	andi	r17,r2,7
   43288:	88000d1e 	bne	r17,zero,432c0 <__divdf3+0x97c>
   4328c:	0021883a 	mov	r16,zero
   43290:	102ad0fa 	srli	r21,r2,3
   43294:	9900004c 	andi	r4,r19,1
   43298:	0005883a 	mov	r2,zero
   4329c:	ac6ab03a 	or	r21,r21,r17
   432a0:	003e0706 	br	42ac0 <_gp+0xfffe3a44>
   432a4:	1007883a 	mov	r3,r2
   432a8:	0023883a 	mov	r17,zero
   432ac:	8820927a 	slli	r16,r17,9
   432b0:	1805883a 	mov	r2,r3
   432b4:	8822977a 	slli	r17,r17,29
   432b8:	8020d33a 	srli	r16,r16,12
   432bc:	003ff406 	br	43290 <_gp+0xfffe4214>
   432c0:	10c003cc 	andi	r3,r2,15
   432c4:	01000104 	movi	r4,4
   432c8:	193ff626 	beq	r3,r4,432a4 <_gp+0xfffe4228>
   432cc:	0023883a 	mov	r17,zero
   432d0:	003fc806 	br	431f4 <_gp+0xfffe4178>
   432d4:	a8bfd136 	bltu	r21,r2,4321c <_gp+0xfffe41a0>
   432d8:	2823883a 	mov	r17,r5
   432dc:	003fa606 	br	43178 <_gp+0xfffe40fc>
   432e0:	d9800017 	ldw	r6,0(sp)
   432e4:	30bfd436 	bltu	r6,r2,43238 <_gp+0xfffe41bc>
   432e8:	2829883a 	mov	r20,r5
   432ec:	003f6406 	br	43080 <_gp+0xfffe4004>
   432f0:	0021883a 	mov	r16,zero
   432f4:	003fe006 	br	43278 <_gp+0xfffe41fc>
   432f8:	00800434 	movhi	r2,16
   432fc:	8c000234 	orhi	r16,r17,8
   43300:	10bfffc4 	addi	r2,r2,-1
   43304:	e009883a 	mov	r4,fp
   43308:	80a0703a 	and	r16,r16,r2
   4330c:	a02b883a 	mov	r21,r20
   43310:	003e4e06 	br	42c4c <_gp+0xfffe3bd0>

00043314 <__gedf2>:
   43314:	2804d53a 	srli	r2,r5,20
   43318:	3806d53a 	srli	r3,r7,20
   4331c:	02000434 	movhi	r8,16
   43320:	423fffc4 	addi	r8,r8,-1
   43324:	1081ffcc 	andi	r2,r2,2047
   43328:	0241ffc4 	movi	r9,2047
   4332c:	2a14703a 	and	r10,r5,r8
   43330:	18c1ffcc 	andi	r3,r3,2047
   43334:	3a10703a 	and	r8,r7,r8
   43338:	280ad7fa 	srli	r5,r5,31
   4333c:	380ed7fa 	srli	r7,r7,31
   43340:	12401d26 	beq	r2,r9,433b8 <__gedf2+0xa4>
   43344:	0241ffc4 	movi	r9,2047
   43348:	1a401226 	beq	r3,r9,43394 <__gedf2+0x80>
   4334c:	1000081e 	bne	r2,zero,43370 <__gedf2+0x5c>
   43350:	2296b03a 	or	r11,r4,r10
   43354:	5813003a 	cmpeq	r9,r11,zero
   43358:	1800091e 	bne	r3,zero,43380 <__gedf2+0x6c>
   4335c:	3218b03a 	or	r12,r6,r8
   43360:	6000071e 	bne	r12,zero,43380 <__gedf2+0x6c>
   43364:	0005883a 	mov	r2,zero
   43368:	5800101e 	bne	r11,zero,433ac <__gedf2+0x98>
   4336c:	f800283a 	ret
   43370:	18000c1e 	bne	r3,zero,433a4 <__gedf2+0x90>
   43374:	3212b03a 	or	r9,r6,r8
   43378:	48000c26 	beq	r9,zero,433ac <__gedf2+0x98>
   4337c:	0013883a 	mov	r9,zero
   43380:	39c03fcc 	andi	r7,r7,255
   43384:	48000826 	beq	r9,zero,433a8 <__gedf2+0x94>
   43388:	38000926 	beq	r7,zero,433b0 <__gedf2+0x9c>
   4338c:	00800044 	movi	r2,1
   43390:	f800283a 	ret
   43394:	3212b03a 	or	r9,r6,r8
   43398:	483fec26 	beq	r9,zero,4334c <_gp+0xfffe42d0>
   4339c:	00bfff84 	movi	r2,-2
   433a0:	f800283a 	ret
   433a4:	39c03fcc 	andi	r7,r7,255
   433a8:	29c00626 	beq	r5,r7,433c4 <__gedf2+0xb0>
   433ac:	283ff726 	beq	r5,zero,4338c <_gp+0xfffe4310>
   433b0:	00bfffc4 	movi	r2,-1
   433b4:	f800283a 	ret
   433b8:	2292b03a 	or	r9,r4,r10
   433bc:	483fe126 	beq	r9,zero,43344 <_gp+0xfffe42c8>
   433c0:	003ff606 	br	4339c <_gp+0xfffe4320>
   433c4:	18bff916 	blt	r3,r2,433ac <_gp+0xfffe4330>
   433c8:	10c00316 	blt	r2,r3,433d8 <__gedf2+0xc4>
   433cc:	42bff736 	bltu	r8,r10,433ac <_gp+0xfffe4330>
   433d0:	52000326 	beq	r10,r8,433e0 <__gedf2+0xcc>
   433d4:	5200042e 	bgeu	r10,r8,433e8 <__gedf2+0xd4>
   433d8:	283fec1e 	bne	r5,zero,4338c <_gp+0xfffe4310>
   433dc:	003ff406 	br	433b0 <_gp+0xfffe4334>
   433e0:	313ff236 	bltu	r6,r4,433ac <_gp+0xfffe4330>
   433e4:	21bffc36 	bltu	r4,r6,433d8 <_gp+0xfffe435c>
   433e8:	0005883a 	mov	r2,zero
   433ec:	f800283a 	ret

000433f0 <__muldf3>:
   433f0:	deffee04 	addi	sp,sp,-72
   433f4:	dd000c15 	stw	r20,48(sp)
   433f8:	2828d53a 	srli	r20,r5,20
   433fc:	ddc00f15 	stw	r23,60(sp)
   43400:	282ed7fa 	srli	r23,r5,31
   43404:	dc000815 	stw	r16,32(sp)
   43408:	04000434 	movhi	r16,16
   4340c:	dcc00b15 	stw	r19,44(sp)
   43410:	843fffc4 	addi	r16,r16,-1
   43414:	dfc01115 	stw	ra,68(sp)
   43418:	df001015 	stw	fp,64(sp)
   4341c:	dd800e15 	stw	r22,56(sp)
   43420:	dd400d15 	stw	r21,52(sp)
   43424:	dc800a15 	stw	r18,40(sp)
   43428:	dc400915 	stw	r17,36(sp)
   4342c:	a501ffcc 	andi	r20,r20,2047
   43430:	2c20703a 	and	r16,r5,r16
   43434:	b827883a 	mov	r19,r23
   43438:	ba403fcc 	andi	r9,r23,255
   4343c:	a0006026 	beq	r20,zero,435c0 <__muldf3+0x1d0>
   43440:	0081ffc4 	movi	r2,2047
   43444:	202d883a 	mov	r22,r4
   43448:	a0803626 	beq	r20,r2,43524 <__muldf3+0x134>
   4344c:	84000434 	orhi	r16,r16,16
   43450:	200ad77a 	srli	r5,r4,29
   43454:	800490fa 	slli	r2,r16,3
   43458:	202c90fa 	slli	r22,r4,3
   4345c:	a53f0044 	addi	r20,r20,-1023
   43460:	28a0b03a 	or	r16,r5,r2
   43464:	002b883a 	mov	r21,zero
   43468:	000b883a 	mov	r5,zero
   4346c:	3804d53a 	srli	r2,r7,20
   43470:	3838d7fa 	srli	fp,r7,31
   43474:	04400434 	movhi	r17,16
   43478:	8c7fffc4 	addi	r17,r17,-1
   4347c:	1081ffcc 	andi	r2,r2,2047
   43480:	3025883a 	mov	r18,r6
   43484:	3c62703a 	and	r17,r7,r17
   43488:	e2803fcc 	andi	r10,fp,255
   4348c:	10006d26 	beq	r2,zero,43644 <__muldf3+0x254>
   43490:	00c1ffc4 	movi	r3,2047
   43494:	10c06526 	beq	r2,r3,4362c <__muldf3+0x23c>
   43498:	8c400434 	orhi	r17,r17,16
   4349c:	300ed77a 	srli	r7,r6,29
   434a0:	880690fa 	slli	r3,r17,3
   434a4:	302490fa 	slli	r18,r6,3
   434a8:	10bf0044 	addi	r2,r2,-1023
   434ac:	38e2b03a 	or	r17,r7,r3
   434b0:	000f883a 	mov	r7,zero
   434b4:	a087883a 	add	r3,r20,r2
   434b8:	010003c4 	movi	r4,15
   434bc:	3d44b03a 	or	r2,r7,r21
   434c0:	e5ccf03a 	xor	r6,fp,r23
   434c4:	1a000044 	addi	r8,r3,1
   434c8:	20809b36 	bltu	r4,r2,43738 <__muldf3+0x348>
   434cc:	100490ba 	slli	r2,r2,2
   434d0:	01000134 	movhi	r4,4
   434d4:	210d3904 	addi	r4,r4,13540
   434d8:	1105883a 	add	r2,r2,r4
   434dc:	10800017 	ldw	r2,0(r2)
   434e0:	1000683a 	jmp	r2
   434e4:	00043738 	rdprs	zero,zero,4316
   434e8:	00043544 	movi	zero,4309
   434ec:	00043544 	movi	zero,4309
   434f0:	00043540 	call	4354 <__alt_mem_MemoriaDados+0x4354>
   434f4:	00043714 	movui	zero,4316
   434f8:	00043714 	movui	zero,4316
   434fc:	000436fc 	xorhi	zero,zero,4315
   43500:	00043540 	call	4354 <__alt_mem_MemoriaDados+0x4354>
   43504:	00043714 	movui	zero,4316
   43508:	000436fc 	xorhi	zero,zero,4315
   4350c:	00043714 	movui	zero,4316
   43510:	00043540 	call	4354 <__alt_mem_MemoriaDados+0x4354>
   43514:	00043724 	muli	zero,zero,4316
   43518:	00043724 	muli	zero,zero,4316
   4351c:	00043724 	muli	zero,zero,4316
   43520:	00043a84 	movi	zero,4330
   43524:	2404b03a 	or	r2,r4,r16
   43528:	1000711e 	bne	r2,zero,436f0 <__muldf3+0x300>
   4352c:	05400204 	movi	r21,8
   43530:	0021883a 	mov	r16,zero
   43534:	002d883a 	mov	r22,zero
   43538:	01400084 	movi	r5,2
   4353c:	003fcb06 	br	4346c <_gp+0xfffe43f0>
   43540:	500d883a 	mov	r6,r10
   43544:	00800084 	movi	r2,2
   43548:	38805926 	beq	r7,r2,436b0 <__muldf3+0x2c0>
   4354c:	008000c4 	movi	r2,3
   43550:	3881bb26 	beq	r7,r2,43c40 <__muldf3+0x850>
   43554:	00800044 	movi	r2,1
   43558:	3881961e 	bne	r7,r2,43bb4 <__muldf3+0x7c4>
   4355c:	3027883a 	mov	r19,r6
   43560:	0005883a 	mov	r2,zero
   43564:	0021883a 	mov	r16,zero
   43568:	002d883a 	mov	r22,zero
   4356c:	1004953a 	slli	r2,r2,20
   43570:	98c03fcc 	andi	r3,r19,255
   43574:	04400434 	movhi	r17,16
   43578:	8c7fffc4 	addi	r17,r17,-1
   4357c:	180697fa 	slli	r3,r3,31
   43580:	8460703a 	and	r16,r16,r17
   43584:	80a0b03a 	or	r16,r16,r2
   43588:	80c6b03a 	or	r3,r16,r3
   4358c:	b005883a 	mov	r2,r22
   43590:	dfc01117 	ldw	ra,68(sp)
   43594:	df001017 	ldw	fp,64(sp)
   43598:	ddc00f17 	ldw	r23,60(sp)
   4359c:	dd800e17 	ldw	r22,56(sp)
   435a0:	dd400d17 	ldw	r21,52(sp)
   435a4:	dd000c17 	ldw	r20,48(sp)
   435a8:	dcc00b17 	ldw	r19,44(sp)
   435ac:	dc800a17 	ldw	r18,40(sp)
   435b0:	dc400917 	ldw	r17,36(sp)
   435b4:	dc000817 	ldw	r16,32(sp)
   435b8:	dec01204 	addi	sp,sp,72
   435bc:	f800283a 	ret
   435c0:	2404b03a 	or	r2,r4,r16
   435c4:	202b883a 	mov	r21,r4
   435c8:	10004426 	beq	r2,zero,436dc <__muldf3+0x2ec>
   435cc:	80015126 	beq	r16,zero,43b14 <__muldf3+0x724>
   435d0:	8009883a 	mov	r4,r16
   435d4:	d9800715 	stw	r6,28(sp)
   435d8:	d9c00215 	stw	r7,8(sp)
   435dc:	da400415 	stw	r9,16(sp)
   435e0:	004496c0 	call	4496c <__clzsi2>
   435e4:	d9800717 	ldw	r6,28(sp)
   435e8:	d9c00217 	ldw	r7,8(sp)
   435ec:	da400417 	ldw	r9,16(sp)
   435f0:	113ffd44 	addi	r4,r2,-11
   435f4:	00c00704 	movi	r3,28
   435f8:	19014216 	blt	r3,r4,43b04 <__muldf3+0x714>
   435fc:	00c00744 	movi	r3,29
   43600:	15bffe04 	addi	r22,r2,-8
   43604:	1907c83a 	sub	r3,r3,r4
   43608:	85a0983a 	sll	r16,r16,r22
   4360c:	a8c6d83a 	srl	r3,r21,r3
   43610:	adac983a 	sll	r22,r21,r22
   43614:	1c20b03a 	or	r16,r3,r16
   43618:	1080fcc4 	addi	r2,r2,1011
   4361c:	00a9c83a 	sub	r20,zero,r2
   43620:	002b883a 	mov	r21,zero
   43624:	000b883a 	mov	r5,zero
   43628:	003f9006 	br	4346c <_gp+0xfffe43f0>
   4362c:	3446b03a 	or	r3,r6,r17
   43630:	1800281e 	bne	r3,zero,436d4 <__muldf3+0x2e4>
   43634:	0023883a 	mov	r17,zero
   43638:	0025883a 	mov	r18,zero
   4363c:	01c00084 	movi	r7,2
   43640:	003f9c06 	br	434b4 <_gp+0xfffe4438>
   43644:	3446b03a 	or	r3,r6,r17
   43648:	18001e26 	beq	r3,zero,436c4 <__muldf3+0x2d4>
   4364c:	88012126 	beq	r17,zero,43ad4 <__muldf3+0x6e4>
   43650:	8809883a 	mov	r4,r17
   43654:	d9400215 	stw	r5,8(sp)
   43658:	d9800715 	stw	r6,28(sp)
   4365c:	da400415 	stw	r9,16(sp)
   43660:	da800315 	stw	r10,12(sp)
   43664:	004496c0 	call	4496c <__clzsi2>
   43668:	d9400217 	ldw	r5,8(sp)
   4366c:	d9800717 	ldw	r6,28(sp)
   43670:	da400417 	ldw	r9,16(sp)
   43674:	da800317 	ldw	r10,12(sp)
   43678:	113ffd44 	addi	r4,r2,-11
   4367c:	00c00704 	movi	r3,28
   43680:	19011016 	blt	r3,r4,43ac4 <__muldf3+0x6d4>
   43684:	00c00744 	movi	r3,29
   43688:	14bffe04 	addi	r18,r2,-8
   4368c:	1907c83a 	sub	r3,r3,r4
   43690:	8ca2983a 	sll	r17,r17,r18
   43694:	30c6d83a 	srl	r3,r6,r3
   43698:	34a4983a 	sll	r18,r6,r18
   4369c:	1c62b03a 	or	r17,r3,r17
   436a0:	1080fcc4 	addi	r2,r2,1011
   436a4:	0085c83a 	sub	r2,zero,r2
   436a8:	000f883a 	mov	r7,zero
   436ac:	003f8106 	br	434b4 <_gp+0xfffe4438>
   436b0:	3027883a 	mov	r19,r6
   436b4:	0081ffc4 	movi	r2,2047
   436b8:	0021883a 	mov	r16,zero
   436bc:	002d883a 	mov	r22,zero
   436c0:	003faa06 	br	4356c <_gp+0xfffe44f0>
   436c4:	0023883a 	mov	r17,zero
   436c8:	0025883a 	mov	r18,zero
   436cc:	01c00044 	movi	r7,1
   436d0:	003f7806 	br	434b4 <_gp+0xfffe4438>
   436d4:	01c000c4 	movi	r7,3
   436d8:	003f7606 	br	434b4 <_gp+0xfffe4438>
   436dc:	05400104 	movi	r21,4
   436e0:	0021883a 	mov	r16,zero
   436e4:	002d883a 	mov	r22,zero
   436e8:	01400044 	movi	r5,1
   436ec:	003f5f06 	br	4346c <_gp+0xfffe43f0>
   436f0:	05400304 	movi	r21,12
   436f4:	014000c4 	movi	r5,3
   436f8:	003f5c06 	br	4346c <_gp+0xfffe43f0>
   436fc:	04000434 	movhi	r16,16
   43700:	0027883a 	mov	r19,zero
   43704:	843fffc4 	addi	r16,r16,-1
   43708:	05bfffc4 	movi	r22,-1
   4370c:	0081ffc4 	movi	r2,2047
   43710:	003f9606 	br	4356c <_gp+0xfffe44f0>
   43714:	8023883a 	mov	r17,r16
   43718:	b025883a 	mov	r18,r22
   4371c:	280f883a 	mov	r7,r5
   43720:	003f8806 	br	43544 <_gp+0xfffe44c8>
   43724:	8023883a 	mov	r17,r16
   43728:	b025883a 	mov	r18,r22
   4372c:	480d883a 	mov	r6,r9
   43730:	280f883a 	mov	r7,r5
   43734:	003f8306 	br	43544 <_gp+0xfffe44c8>
   43738:	b026d43a 	srli	r19,r22,16
   4373c:	902ed43a 	srli	r23,r18,16
   43740:	b5bfffcc 	andi	r22,r22,65535
   43744:	94bfffcc 	andi	r18,r18,65535
   43748:	b00b883a 	mov	r5,r22
   4374c:	9009883a 	mov	r4,r18
   43750:	d8c00515 	stw	r3,20(sp)
   43754:	d9800715 	stw	r6,28(sp)
   43758:	da000615 	stw	r8,24(sp)
   4375c:	00420700 	call	42070 <__mulsi3>
   43760:	980b883a 	mov	r5,r19
   43764:	9009883a 	mov	r4,r18
   43768:	1029883a 	mov	r20,r2
   4376c:	00420700 	call	42070 <__mulsi3>
   43770:	b80b883a 	mov	r5,r23
   43774:	9809883a 	mov	r4,r19
   43778:	102b883a 	mov	r21,r2
   4377c:	00420700 	call	42070 <__mulsi3>
   43780:	b809883a 	mov	r4,r23
   43784:	b00b883a 	mov	r5,r22
   43788:	1039883a 	mov	fp,r2
   4378c:	00420700 	call	42070 <__mulsi3>
   43790:	a008d43a 	srli	r4,r20,16
   43794:	1545883a 	add	r2,r2,r21
   43798:	d8c00517 	ldw	r3,20(sp)
   4379c:	2085883a 	add	r2,r4,r2
   437a0:	d9800717 	ldw	r6,28(sp)
   437a4:	da000617 	ldw	r8,24(sp)
   437a8:	1540022e 	bgeu	r2,r21,437b4 <__muldf3+0x3c4>
   437ac:	01000074 	movhi	r4,1
   437b0:	e139883a 	add	fp,fp,r4
   437b4:	100e943a 	slli	r7,r2,16
   437b8:	1004d43a 	srli	r2,r2,16
   437bc:	882ad43a 	srli	r21,r17,16
   437c0:	a53fffcc 	andi	r20,r20,65535
   437c4:	8c7fffcc 	andi	r17,r17,65535
   437c8:	3d29883a 	add	r20,r7,r20
   437cc:	b00b883a 	mov	r5,r22
   437d0:	8809883a 	mov	r4,r17
   437d4:	d8c00515 	stw	r3,20(sp)
   437d8:	d9800715 	stw	r6,28(sp)
   437dc:	da000615 	stw	r8,24(sp)
   437e0:	dd000115 	stw	r20,4(sp)
   437e4:	d8800015 	stw	r2,0(sp)
   437e8:	00420700 	call	42070 <__mulsi3>
   437ec:	980b883a 	mov	r5,r19
   437f0:	8809883a 	mov	r4,r17
   437f4:	d8800215 	stw	r2,8(sp)
   437f8:	00420700 	call	42070 <__mulsi3>
   437fc:	9809883a 	mov	r4,r19
   43800:	a80b883a 	mov	r5,r21
   43804:	1029883a 	mov	r20,r2
   43808:	00420700 	call	42070 <__mulsi3>
   4380c:	b00b883a 	mov	r5,r22
   43810:	a809883a 	mov	r4,r21
   43814:	d8800415 	stw	r2,16(sp)
   43818:	00420700 	call	42070 <__mulsi3>
   4381c:	d9c00217 	ldw	r7,8(sp)
   43820:	1505883a 	add	r2,r2,r20
   43824:	d8c00517 	ldw	r3,20(sp)
   43828:	3826d43a 	srli	r19,r7,16
   4382c:	d9800717 	ldw	r6,28(sp)
   43830:	da000617 	ldw	r8,24(sp)
   43834:	9885883a 	add	r2,r19,r2
   43838:	da400417 	ldw	r9,16(sp)
   4383c:	1500022e 	bgeu	r2,r20,43848 <__muldf3+0x458>
   43840:	01000074 	movhi	r4,1
   43844:	4913883a 	add	r9,r9,r4
   43848:	1028d43a 	srli	r20,r2,16
   4384c:	1004943a 	slli	r2,r2,16
   43850:	802cd43a 	srli	r22,r16,16
   43854:	843fffcc 	andi	r16,r16,65535
   43858:	3cffffcc 	andi	r19,r7,65535
   4385c:	9009883a 	mov	r4,r18
   43860:	800b883a 	mov	r5,r16
   43864:	a269883a 	add	r20,r20,r9
   43868:	d8c00515 	stw	r3,20(sp)
   4386c:	d9800715 	stw	r6,28(sp)
   43870:	da000615 	stw	r8,24(sp)
   43874:	14e7883a 	add	r19,r2,r19
   43878:	00420700 	call	42070 <__mulsi3>
   4387c:	9009883a 	mov	r4,r18
   43880:	b00b883a 	mov	r5,r22
   43884:	d8800315 	stw	r2,12(sp)
   43888:	00420700 	call	42070 <__mulsi3>
   4388c:	b809883a 	mov	r4,r23
   43890:	b00b883a 	mov	r5,r22
   43894:	d8800215 	stw	r2,8(sp)
   43898:	00420700 	call	42070 <__mulsi3>
   4389c:	b80b883a 	mov	r5,r23
   438a0:	8009883a 	mov	r4,r16
   438a4:	d8800415 	stw	r2,16(sp)
   438a8:	00420700 	call	42070 <__mulsi3>
   438ac:	da800317 	ldw	r10,12(sp)
   438b0:	d9c00217 	ldw	r7,8(sp)
   438b4:	d9000017 	ldw	r4,0(sp)
   438b8:	502ed43a 	srli	r23,r10,16
   438bc:	11c5883a 	add	r2,r2,r7
   438c0:	24e5883a 	add	r18,r4,r19
   438c4:	b885883a 	add	r2,r23,r2
   438c8:	d8c00517 	ldw	r3,20(sp)
   438cc:	d9800717 	ldw	r6,28(sp)
   438d0:	da000617 	ldw	r8,24(sp)
   438d4:	da400417 	ldw	r9,16(sp)
   438d8:	11c0022e 	bgeu	r2,r7,438e4 <__muldf3+0x4f4>
   438dc:	01000074 	movhi	r4,1
   438e0:	4913883a 	add	r9,r9,r4
   438e4:	100ed43a 	srli	r7,r2,16
   438e8:	1004943a 	slli	r2,r2,16
   438ec:	55ffffcc 	andi	r23,r10,65535
   438f0:	3a53883a 	add	r9,r7,r9
   438f4:	8809883a 	mov	r4,r17
   438f8:	800b883a 	mov	r5,r16
   438fc:	d8c00515 	stw	r3,20(sp)
   43900:	d9800715 	stw	r6,28(sp)
   43904:	da000615 	stw	r8,24(sp)
   43908:	da400415 	stw	r9,16(sp)
   4390c:	15ef883a 	add	r23,r2,r23
   43910:	00420700 	call	42070 <__mulsi3>
   43914:	8809883a 	mov	r4,r17
   43918:	b00b883a 	mov	r5,r22
   4391c:	d8800215 	stw	r2,8(sp)
   43920:	00420700 	call	42070 <__mulsi3>
   43924:	b00b883a 	mov	r5,r22
   43928:	a809883a 	mov	r4,r21
   4392c:	d8800315 	stw	r2,12(sp)
   43930:	00420700 	call	42070 <__mulsi3>
   43934:	8009883a 	mov	r4,r16
   43938:	a80b883a 	mov	r5,r21
   4393c:	1023883a 	mov	r17,r2
   43940:	00420700 	call	42070 <__mulsi3>
   43944:	d9c00217 	ldw	r7,8(sp)
   43948:	da800317 	ldw	r10,12(sp)
   4394c:	d8c00517 	ldw	r3,20(sp)
   43950:	3808d43a 	srli	r4,r7,16
   43954:	1285883a 	add	r2,r2,r10
   43958:	d9800717 	ldw	r6,28(sp)
   4395c:	2085883a 	add	r2,r4,r2
   43960:	da000617 	ldw	r8,24(sp)
   43964:	da400417 	ldw	r9,16(sp)
   43968:	1280022e 	bgeu	r2,r10,43974 <__muldf3+0x584>
   4396c:	01000074 	movhi	r4,1
   43970:	8923883a 	add	r17,r17,r4
   43974:	1008943a 	slli	r4,r2,16
   43978:	39ffffcc 	andi	r7,r7,65535
   4397c:	e4b9883a 	add	fp,fp,r18
   43980:	21cf883a 	add	r7,r4,r7
   43984:	e4e7803a 	cmpltu	r19,fp,r19
   43988:	3d0f883a 	add	r7,r7,r20
   4398c:	bf39883a 	add	fp,r23,fp
   43990:	99c9883a 	add	r4,r19,r7
   43994:	e5ef803a 	cmpltu	r23,fp,r23
   43998:	490b883a 	add	r5,r9,r4
   4399c:	1004d43a 	srli	r2,r2,16
   439a0:	b965883a 	add	r18,r23,r5
   439a4:	24c9803a 	cmpltu	r4,r4,r19
   439a8:	3d29803a 	cmpltu	r20,r7,r20
   439ac:	a128b03a 	or	r20,r20,r4
   439b0:	95ef803a 	cmpltu	r23,r18,r23
   439b4:	2a53803a 	cmpltu	r9,r5,r9
   439b8:	a0a9883a 	add	r20,r20,r2
   439bc:	4deeb03a 	or	r23,r9,r23
   439c0:	a5ef883a 	add	r23,r20,r23
   439c4:	bc63883a 	add	r17,r23,r17
   439c8:	e004927a 	slli	r2,fp,9
   439cc:	d9000117 	ldw	r4,4(sp)
   439d0:	882e927a 	slli	r23,r17,9
   439d4:	9022d5fa 	srli	r17,r18,23
   439d8:	e038d5fa 	srli	fp,fp,23
   439dc:	1104b03a 	or	r2,r2,r4
   439e0:	9024927a 	slli	r18,r18,9
   439e4:	1004c03a 	cmpne	r2,r2,zero
   439e8:	bc62b03a 	or	r17,r23,r17
   439ec:	1738b03a 	or	fp,r2,fp
   439f0:	8880402c 	andhi	r2,r17,256
   439f4:	e4a4b03a 	or	r18,fp,r18
   439f8:	10000726 	beq	r2,zero,43a18 <__muldf3+0x628>
   439fc:	9006d07a 	srli	r3,r18,1
   43a00:	880497fa 	slli	r2,r17,31
   43a04:	9480004c 	andi	r18,r18,1
   43a08:	8822d07a 	srli	r17,r17,1
   43a0c:	1ca4b03a 	or	r18,r3,r18
   43a10:	14a4b03a 	or	r18,r2,r18
   43a14:	4007883a 	mov	r3,r8
   43a18:	1880ffc4 	addi	r2,r3,1023
   43a1c:	0080460e 	bge	zero,r2,43b38 <__muldf3+0x748>
   43a20:	910001cc 	andi	r4,r18,7
   43a24:	20000726 	beq	r4,zero,43a44 <__muldf3+0x654>
   43a28:	910003cc 	andi	r4,r18,15
   43a2c:	01400104 	movi	r5,4
   43a30:	21400426 	beq	r4,r5,43a44 <__muldf3+0x654>
   43a34:	9149883a 	add	r4,r18,r5
   43a38:	24a5803a 	cmpltu	r18,r4,r18
   43a3c:	8ca3883a 	add	r17,r17,r18
   43a40:	2025883a 	mov	r18,r4
   43a44:	8900402c 	andhi	r4,r17,256
   43a48:	20000426 	beq	r4,zero,43a5c <__muldf3+0x66c>
   43a4c:	18810004 	addi	r2,r3,1024
   43a50:	00ffc034 	movhi	r3,65280
   43a54:	18ffffc4 	addi	r3,r3,-1
   43a58:	88e2703a 	and	r17,r17,r3
   43a5c:	00c1ff84 	movi	r3,2046
   43a60:	18bf1316 	blt	r3,r2,436b0 <_gp+0xfffe4634>
   43a64:	882c977a 	slli	r22,r17,29
   43a68:	9024d0fa 	srli	r18,r18,3
   43a6c:	8822927a 	slli	r17,r17,9
   43a70:	1081ffcc 	andi	r2,r2,2047
   43a74:	b4acb03a 	or	r22,r22,r18
   43a78:	8820d33a 	srli	r16,r17,12
   43a7c:	3027883a 	mov	r19,r6
   43a80:	003eba06 	br	4356c <_gp+0xfffe44f0>
   43a84:	8080022c 	andhi	r2,r16,8
   43a88:	10000926 	beq	r2,zero,43ab0 <__muldf3+0x6c0>
   43a8c:	8880022c 	andhi	r2,r17,8
   43a90:	1000071e 	bne	r2,zero,43ab0 <__muldf3+0x6c0>
   43a94:	00800434 	movhi	r2,16
   43a98:	8c000234 	orhi	r16,r17,8
   43a9c:	10bfffc4 	addi	r2,r2,-1
   43aa0:	e027883a 	mov	r19,fp
   43aa4:	80a0703a 	and	r16,r16,r2
   43aa8:	902d883a 	mov	r22,r18
   43aac:	003f1706 	br	4370c <_gp+0xfffe4690>
   43ab0:	00800434 	movhi	r2,16
   43ab4:	84000234 	orhi	r16,r16,8
   43ab8:	10bfffc4 	addi	r2,r2,-1
   43abc:	80a0703a 	and	r16,r16,r2
   43ac0:	003f1206 	br	4370c <_gp+0xfffe4690>
   43ac4:	147ff604 	addi	r17,r2,-40
   43ac8:	3462983a 	sll	r17,r6,r17
   43acc:	0025883a 	mov	r18,zero
   43ad0:	003ef306 	br	436a0 <_gp+0xfffe4624>
   43ad4:	3009883a 	mov	r4,r6
   43ad8:	d9400215 	stw	r5,8(sp)
   43adc:	d9800715 	stw	r6,28(sp)
   43ae0:	da400415 	stw	r9,16(sp)
   43ae4:	da800315 	stw	r10,12(sp)
   43ae8:	004496c0 	call	4496c <__clzsi2>
   43aec:	10800804 	addi	r2,r2,32
   43af0:	da800317 	ldw	r10,12(sp)
   43af4:	da400417 	ldw	r9,16(sp)
   43af8:	d9800717 	ldw	r6,28(sp)
   43afc:	d9400217 	ldw	r5,8(sp)
   43b00:	003edd06 	br	43678 <_gp+0xfffe45fc>
   43b04:	143ff604 	addi	r16,r2,-40
   43b08:	ac20983a 	sll	r16,r21,r16
   43b0c:	002d883a 	mov	r22,zero
   43b10:	003ec106 	br	43618 <_gp+0xfffe459c>
   43b14:	d9800715 	stw	r6,28(sp)
   43b18:	d9c00215 	stw	r7,8(sp)
   43b1c:	da400415 	stw	r9,16(sp)
   43b20:	004496c0 	call	4496c <__clzsi2>
   43b24:	10800804 	addi	r2,r2,32
   43b28:	da400417 	ldw	r9,16(sp)
   43b2c:	d9c00217 	ldw	r7,8(sp)
   43b30:	d9800717 	ldw	r6,28(sp)
   43b34:	003eae06 	br	435f0 <_gp+0xfffe4574>
   43b38:	00c00044 	movi	r3,1
   43b3c:	1887c83a 	sub	r3,r3,r2
   43b40:	01000e04 	movi	r4,56
   43b44:	20fe8516 	blt	r4,r3,4355c <_gp+0xfffe44e0>
   43b48:	010007c4 	movi	r4,31
   43b4c:	20c01b16 	blt	r4,r3,43bbc <__muldf3+0x7cc>
   43b50:	00800804 	movi	r2,32
   43b54:	10c5c83a 	sub	r2,r2,r3
   43b58:	888a983a 	sll	r5,r17,r2
   43b5c:	90c8d83a 	srl	r4,r18,r3
   43b60:	9084983a 	sll	r2,r18,r2
   43b64:	88e2d83a 	srl	r17,r17,r3
   43b68:	2906b03a 	or	r3,r5,r4
   43b6c:	1004c03a 	cmpne	r2,r2,zero
   43b70:	1886b03a 	or	r3,r3,r2
   43b74:	188001cc 	andi	r2,r3,7
   43b78:	10000726 	beq	r2,zero,43b98 <__muldf3+0x7a8>
   43b7c:	188003cc 	andi	r2,r3,15
   43b80:	01000104 	movi	r4,4
   43b84:	11000426 	beq	r2,r4,43b98 <__muldf3+0x7a8>
   43b88:	1805883a 	mov	r2,r3
   43b8c:	10c00104 	addi	r3,r2,4
   43b90:	1885803a 	cmpltu	r2,r3,r2
   43b94:	88a3883a 	add	r17,r17,r2
   43b98:	8880202c 	andhi	r2,r17,128
   43b9c:	10001c26 	beq	r2,zero,43c10 <__muldf3+0x820>
   43ba0:	3027883a 	mov	r19,r6
   43ba4:	00800044 	movi	r2,1
   43ba8:	0021883a 	mov	r16,zero
   43bac:	002d883a 	mov	r22,zero
   43bb0:	003e6e06 	br	4356c <_gp+0xfffe44f0>
   43bb4:	4007883a 	mov	r3,r8
   43bb8:	003f9706 	br	43a18 <_gp+0xfffe499c>
   43bbc:	017ff844 	movi	r5,-31
   43bc0:	2885c83a 	sub	r2,r5,r2
   43bc4:	888ad83a 	srl	r5,r17,r2
   43bc8:	00800804 	movi	r2,32
   43bcc:	18801a26 	beq	r3,r2,43c38 <__muldf3+0x848>
   43bd0:	01001004 	movi	r4,64
   43bd4:	20c7c83a 	sub	r3,r4,r3
   43bd8:	88e2983a 	sll	r17,r17,r3
   43bdc:	8ca4b03a 	or	r18,r17,r18
   43be0:	9004c03a 	cmpne	r2,r18,zero
   43be4:	2884b03a 	or	r2,r5,r2
   43be8:	144001cc 	andi	r17,r2,7
   43bec:	88000d1e 	bne	r17,zero,43c24 <__muldf3+0x834>
   43bf0:	0021883a 	mov	r16,zero
   43bf4:	102cd0fa 	srli	r22,r2,3
   43bf8:	3027883a 	mov	r19,r6
   43bfc:	0005883a 	mov	r2,zero
   43c00:	b46cb03a 	or	r22,r22,r17
   43c04:	003e5906 	br	4356c <_gp+0xfffe44f0>
   43c08:	1007883a 	mov	r3,r2
   43c0c:	0023883a 	mov	r17,zero
   43c10:	8820927a 	slli	r16,r17,9
   43c14:	1805883a 	mov	r2,r3
   43c18:	8822977a 	slli	r17,r17,29
   43c1c:	8020d33a 	srli	r16,r16,12
   43c20:	003ff406 	br	43bf4 <_gp+0xfffe4b78>
   43c24:	10c003cc 	andi	r3,r2,15
   43c28:	01000104 	movi	r4,4
   43c2c:	193ff626 	beq	r3,r4,43c08 <_gp+0xfffe4b8c>
   43c30:	0023883a 	mov	r17,zero
   43c34:	003fd506 	br	43b8c <_gp+0xfffe4b10>
   43c38:	0023883a 	mov	r17,zero
   43c3c:	003fe706 	br	43bdc <_gp+0xfffe4b60>
   43c40:	00800434 	movhi	r2,16
   43c44:	8c000234 	orhi	r16,r17,8
   43c48:	10bfffc4 	addi	r2,r2,-1
   43c4c:	3027883a 	mov	r19,r6
   43c50:	80a0703a 	and	r16,r16,r2
   43c54:	902d883a 	mov	r22,r18
   43c58:	003eac06 	br	4370c <_gp+0xfffe4690>

00043c5c <__subdf3>:
   43c5c:	02000434 	movhi	r8,16
   43c60:	423fffc4 	addi	r8,r8,-1
   43c64:	defffb04 	addi	sp,sp,-20
   43c68:	2a14703a 	and	r10,r5,r8
   43c6c:	3812d53a 	srli	r9,r7,20
   43c70:	3a10703a 	and	r8,r7,r8
   43c74:	2006d77a 	srli	r3,r4,29
   43c78:	3004d77a 	srli	r2,r6,29
   43c7c:	dc000015 	stw	r16,0(sp)
   43c80:	501490fa 	slli	r10,r10,3
   43c84:	2820d53a 	srli	r16,r5,20
   43c88:	401090fa 	slli	r8,r8,3
   43c8c:	dc800215 	stw	r18,8(sp)
   43c90:	dc400115 	stw	r17,4(sp)
   43c94:	dfc00415 	stw	ra,16(sp)
   43c98:	202290fa 	slli	r17,r4,3
   43c9c:	dcc00315 	stw	r19,12(sp)
   43ca0:	4a41ffcc 	andi	r9,r9,2047
   43ca4:	0101ffc4 	movi	r4,2047
   43ca8:	2824d7fa 	srli	r18,r5,31
   43cac:	8401ffcc 	andi	r16,r16,2047
   43cb0:	50c6b03a 	or	r3,r10,r3
   43cb4:	380ed7fa 	srli	r7,r7,31
   43cb8:	408ab03a 	or	r5,r8,r2
   43cbc:	300c90fa 	slli	r6,r6,3
   43cc0:	49009626 	beq	r9,r4,43f1c <__subdf3+0x2c0>
   43cc4:	39c0005c 	xori	r7,r7,1
   43cc8:	8245c83a 	sub	r2,r16,r9
   43ccc:	3c807426 	beq	r7,r18,43ea0 <__subdf3+0x244>
   43cd0:	0080af0e 	bge	zero,r2,43f90 <__subdf3+0x334>
   43cd4:	48002a1e 	bne	r9,zero,43d80 <__subdf3+0x124>
   43cd8:	2988b03a 	or	r4,r5,r6
   43cdc:	20009a1e 	bne	r4,zero,43f48 <__subdf3+0x2ec>
   43ce0:	888001cc 	andi	r2,r17,7
   43ce4:	10000726 	beq	r2,zero,43d04 <__subdf3+0xa8>
   43ce8:	888003cc 	andi	r2,r17,15
   43cec:	01000104 	movi	r4,4
   43cf0:	11000426 	beq	r2,r4,43d04 <__subdf3+0xa8>
   43cf4:	890b883a 	add	r5,r17,r4
   43cf8:	2c63803a 	cmpltu	r17,r5,r17
   43cfc:	1c47883a 	add	r3,r3,r17
   43d00:	2823883a 	mov	r17,r5
   43d04:	1880202c 	andhi	r2,r3,128
   43d08:	10005926 	beq	r2,zero,43e70 <__subdf3+0x214>
   43d0c:	84000044 	addi	r16,r16,1
   43d10:	0081ffc4 	movi	r2,2047
   43d14:	8080be26 	beq	r16,r2,44010 <__subdf3+0x3b4>
   43d18:	017fe034 	movhi	r5,65408
   43d1c:	297fffc4 	addi	r5,r5,-1
   43d20:	1946703a 	and	r3,r3,r5
   43d24:	1804977a 	slli	r2,r3,29
   43d28:	1806927a 	slli	r3,r3,9
   43d2c:	8822d0fa 	srli	r17,r17,3
   43d30:	8401ffcc 	andi	r16,r16,2047
   43d34:	180ad33a 	srli	r5,r3,12
   43d38:	9100004c 	andi	r4,r18,1
   43d3c:	1444b03a 	or	r2,r2,r17
   43d40:	80c1ffcc 	andi	r3,r16,2047
   43d44:	1820953a 	slli	r16,r3,20
   43d48:	20c03fcc 	andi	r3,r4,255
   43d4c:	180897fa 	slli	r4,r3,31
   43d50:	00c00434 	movhi	r3,16
   43d54:	18ffffc4 	addi	r3,r3,-1
   43d58:	28c6703a 	and	r3,r5,r3
   43d5c:	1c06b03a 	or	r3,r3,r16
   43d60:	1906b03a 	or	r3,r3,r4
   43d64:	dfc00417 	ldw	ra,16(sp)
   43d68:	dcc00317 	ldw	r19,12(sp)
   43d6c:	dc800217 	ldw	r18,8(sp)
   43d70:	dc400117 	ldw	r17,4(sp)
   43d74:	dc000017 	ldw	r16,0(sp)
   43d78:	dec00504 	addi	sp,sp,20
   43d7c:	f800283a 	ret
   43d80:	0101ffc4 	movi	r4,2047
   43d84:	813fd626 	beq	r16,r4,43ce0 <_gp+0xfffe4c64>
   43d88:	29402034 	orhi	r5,r5,128
   43d8c:	01000e04 	movi	r4,56
   43d90:	2080a316 	blt	r4,r2,44020 <__subdf3+0x3c4>
   43d94:	010007c4 	movi	r4,31
   43d98:	2080c616 	blt	r4,r2,440b4 <__subdf3+0x458>
   43d9c:	01000804 	movi	r4,32
   43da0:	2089c83a 	sub	r4,r4,r2
   43da4:	2910983a 	sll	r8,r5,r4
   43da8:	308ed83a 	srl	r7,r6,r2
   43dac:	3108983a 	sll	r4,r6,r4
   43db0:	2884d83a 	srl	r2,r5,r2
   43db4:	41ccb03a 	or	r6,r8,r7
   43db8:	2008c03a 	cmpne	r4,r4,zero
   43dbc:	310cb03a 	or	r6,r6,r4
   43dc0:	898dc83a 	sub	r6,r17,r6
   43dc4:	89a3803a 	cmpltu	r17,r17,r6
   43dc8:	1887c83a 	sub	r3,r3,r2
   43dcc:	1c47c83a 	sub	r3,r3,r17
   43dd0:	3023883a 	mov	r17,r6
   43dd4:	1880202c 	andhi	r2,r3,128
   43dd8:	10002326 	beq	r2,zero,43e68 <__subdf3+0x20c>
   43ddc:	04c02034 	movhi	r19,128
   43de0:	9cffffc4 	addi	r19,r19,-1
   43de4:	1ce6703a 	and	r19,r3,r19
   43de8:	98007a26 	beq	r19,zero,43fd4 <__subdf3+0x378>
   43dec:	9809883a 	mov	r4,r19
   43df0:	004496c0 	call	4496c <__clzsi2>
   43df4:	113ffe04 	addi	r4,r2,-8
   43df8:	00c007c4 	movi	r3,31
   43dfc:	19007b16 	blt	r3,r4,43fec <__subdf3+0x390>
   43e00:	00800804 	movi	r2,32
   43e04:	1105c83a 	sub	r2,r2,r4
   43e08:	8884d83a 	srl	r2,r17,r2
   43e0c:	9906983a 	sll	r3,r19,r4
   43e10:	8922983a 	sll	r17,r17,r4
   43e14:	10c4b03a 	or	r2,r2,r3
   43e18:	24007816 	blt	r4,r16,43ffc <__subdf3+0x3a0>
   43e1c:	2421c83a 	sub	r16,r4,r16
   43e20:	80c00044 	addi	r3,r16,1
   43e24:	010007c4 	movi	r4,31
   43e28:	20c09516 	blt	r4,r3,44080 <__subdf3+0x424>
   43e2c:	01400804 	movi	r5,32
   43e30:	28cbc83a 	sub	r5,r5,r3
   43e34:	88c8d83a 	srl	r4,r17,r3
   43e38:	8962983a 	sll	r17,r17,r5
   43e3c:	114a983a 	sll	r5,r2,r5
   43e40:	10c6d83a 	srl	r3,r2,r3
   43e44:	8804c03a 	cmpne	r2,r17,zero
   43e48:	290ab03a 	or	r5,r5,r4
   43e4c:	28a2b03a 	or	r17,r5,r2
   43e50:	0021883a 	mov	r16,zero
   43e54:	003fa206 	br	43ce0 <_gp+0xfffe4c64>
   43e58:	2090b03a 	or	r8,r4,r2
   43e5c:	40018e26 	beq	r8,zero,44498 <__subdf3+0x83c>
   43e60:	1007883a 	mov	r3,r2
   43e64:	2023883a 	mov	r17,r4
   43e68:	888001cc 	andi	r2,r17,7
   43e6c:	103f9e1e 	bne	r2,zero,43ce8 <_gp+0xfffe4c6c>
   43e70:	1804977a 	slli	r2,r3,29
   43e74:	8822d0fa 	srli	r17,r17,3
   43e78:	1810d0fa 	srli	r8,r3,3
   43e7c:	9100004c 	andi	r4,r18,1
   43e80:	1444b03a 	or	r2,r2,r17
   43e84:	00c1ffc4 	movi	r3,2047
   43e88:	80c02826 	beq	r16,r3,43f2c <__subdf3+0x2d0>
   43e8c:	01400434 	movhi	r5,16
   43e90:	297fffc4 	addi	r5,r5,-1
   43e94:	80e0703a 	and	r16,r16,r3
   43e98:	414a703a 	and	r5,r8,r5
   43e9c:	003fa806 	br	43d40 <_gp+0xfffe4cc4>
   43ea0:	0080630e 	bge	zero,r2,44030 <__subdf3+0x3d4>
   43ea4:	48003026 	beq	r9,zero,43f68 <__subdf3+0x30c>
   43ea8:	0101ffc4 	movi	r4,2047
   43eac:	813f8c26 	beq	r16,r4,43ce0 <_gp+0xfffe4c64>
   43eb0:	29402034 	orhi	r5,r5,128
   43eb4:	01000e04 	movi	r4,56
   43eb8:	2080a90e 	bge	r4,r2,44160 <__subdf3+0x504>
   43ebc:	298cb03a 	or	r6,r5,r6
   43ec0:	3012c03a 	cmpne	r9,r6,zero
   43ec4:	0005883a 	mov	r2,zero
   43ec8:	4c53883a 	add	r9,r9,r17
   43ecc:	4c63803a 	cmpltu	r17,r9,r17
   43ed0:	10c7883a 	add	r3,r2,r3
   43ed4:	88c7883a 	add	r3,r17,r3
   43ed8:	4823883a 	mov	r17,r9
   43edc:	1880202c 	andhi	r2,r3,128
   43ee0:	1000d026 	beq	r2,zero,44224 <__subdf3+0x5c8>
   43ee4:	84000044 	addi	r16,r16,1
   43ee8:	0081ffc4 	movi	r2,2047
   43eec:	8080fe26 	beq	r16,r2,442e8 <__subdf3+0x68c>
   43ef0:	00bfe034 	movhi	r2,65408
   43ef4:	10bfffc4 	addi	r2,r2,-1
   43ef8:	1886703a 	and	r3,r3,r2
   43efc:	880ad07a 	srli	r5,r17,1
   43f00:	180497fa 	slli	r2,r3,31
   43f04:	8900004c 	andi	r4,r17,1
   43f08:	2922b03a 	or	r17,r5,r4
   43f0c:	1806d07a 	srli	r3,r3,1
   43f10:	1462b03a 	or	r17,r2,r17
   43f14:	3825883a 	mov	r18,r7
   43f18:	003f7106 	br	43ce0 <_gp+0xfffe4c64>
   43f1c:	2984b03a 	or	r2,r5,r6
   43f20:	103f6826 	beq	r2,zero,43cc4 <_gp+0xfffe4c48>
   43f24:	39c03fcc 	andi	r7,r7,255
   43f28:	003f6706 	br	43cc8 <_gp+0xfffe4c4c>
   43f2c:	4086b03a 	or	r3,r8,r2
   43f30:	18015226 	beq	r3,zero,4447c <__subdf3+0x820>
   43f34:	00c00434 	movhi	r3,16
   43f38:	41400234 	orhi	r5,r8,8
   43f3c:	18ffffc4 	addi	r3,r3,-1
   43f40:	28ca703a 	and	r5,r5,r3
   43f44:	003f7e06 	br	43d40 <_gp+0xfffe4cc4>
   43f48:	10bfffc4 	addi	r2,r2,-1
   43f4c:	1000491e 	bne	r2,zero,44074 <__subdf3+0x418>
   43f50:	898fc83a 	sub	r7,r17,r6
   43f54:	89e3803a 	cmpltu	r17,r17,r7
   43f58:	1947c83a 	sub	r3,r3,r5
   43f5c:	1c47c83a 	sub	r3,r3,r17
   43f60:	3823883a 	mov	r17,r7
   43f64:	003f9b06 	br	43dd4 <_gp+0xfffe4d58>
   43f68:	2988b03a 	or	r4,r5,r6
   43f6c:	203f5c26 	beq	r4,zero,43ce0 <_gp+0xfffe4c64>
   43f70:	10bfffc4 	addi	r2,r2,-1
   43f74:	1000931e 	bne	r2,zero,441c4 <__subdf3+0x568>
   43f78:	898d883a 	add	r6,r17,r6
   43f7c:	3463803a 	cmpltu	r17,r6,r17
   43f80:	1947883a 	add	r3,r3,r5
   43f84:	88c7883a 	add	r3,r17,r3
   43f88:	3023883a 	mov	r17,r6
   43f8c:	003fd306 	br	43edc <_gp+0xfffe4e60>
   43f90:	1000541e 	bne	r2,zero,440e4 <__subdf3+0x488>
   43f94:	80800044 	addi	r2,r16,1
   43f98:	1081ffcc 	andi	r2,r2,2047
   43f9c:	01000044 	movi	r4,1
   43fa0:	2080a20e 	bge	r4,r2,4422c <__subdf3+0x5d0>
   43fa4:	8989c83a 	sub	r4,r17,r6
   43fa8:	8905803a 	cmpltu	r2,r17,r4
   43fac:	1967c83a 	sub	r19,r3,r5
   43fb0:	98a7c83a 	sub	r19,r19,r2
   43fb4:	9880202c 	andhi	r2,r19,128
   43fb8:	10006326 	beq	r2,zero,44148 <__subdf3+0x4ec>
   43fbc:	3463c83a 	sub	r17,r6,r17
   43fc0:	28c7c83a 	sub	r3,r5,r3
   43fc4:	344d803a 	cmpltu	r6,r6,r17
   43fc8:	19a7c83a 	sub	r19,r3,r6
   43fcc:	3825883a 	mov	r18,r7
   43fd0:	983f861e 	bne	r19,zero,43dec <_gp+0xfffe4d70>
   43fd4:	8809883a 	mov	r4,r17
   43fd8:	004496c0 	call	4496c <__clzsi2>
   43fdc:	10800804 	addi	r2,r2,32
   43fe0:	113ffe04 	addi	r4,r2,-8
   43fe4:	00c007c4 	movi	r3,31
   43fe8:	193f850e 	bge	r3,r4,43e00 <_gp+0xfffe4d84>
   43fec:	10bff604 	addi	r2,r2,-40
   43ff0:	8884983a 	sll	r2,r17,r2
   43ff4:	0023883a 	mov	r17,zero
   43ff8:	243f880e 	bge	r4,r16,43e1c <_gp+0xfffe4da0>
   43ffc:	00ffe034 	movhi	r3,65408
   44000:	18ffffc4 	addi	r3,r3,-1
   44004:	8121c83a 	sub	r16,r16,r4
   44008:	10c6703a 	and	r3,r2,r3
   4400c:	003f3406 	br	43ce0 <_gp+0xfffe4c64>
   44010:	9100004c 	andi	r4,r18,1
   44014:	000b883a 	mov	r5,zero
   44018:	0005883a 	mov	r2,zero
   4401c:	003f4806 	br	43d40 <_gp+0xfffe4cc4>
   44020:	298cb03a 	or	r6,r5,r6
   44024:	300cc03a 	cmpne	r6,r6,zero
   44028:	0005883a 	mov	r2,zero
   4402c:	003f6406 	br	43dc0 <_gp+0xfffe4d44>
   44030:	10009a1e 	bne	r2,zero,4429c <__subdf3+0x640>
   44034:	82400044 	addi	r9,r16,1
   44038:	4881ffcc 	andi	r2,r9,2047
   4403c:	02800044 	movi	r10,1
   44040:	5080670e 	bge	r10,r2,441e0 <__subdf3+0x584>
   44044:	0081ffc4 	movi	r2,2047
   44048:	4880af26 	beq	r9,r2,44308 <__subdf3+0x6ac>
   4404c:	898d883a 	add	r6,r17,r6
   44050:	1945883a 	add	r2,r3,r5
   44054:	3447803a 	cmpltu	r3,r6,r17
   44058:	1887883a 	add	r3,r3,r2
   4405c:	182297fa 	slli	r17,r3,31
   44060:	300cd07a 	srli	r6,r6,1
   44064:	1806d07a 	srli	r3,r3,1
   44068:	4821883a 	mov	r16,r9
   4406c:	89a2b03a 	or	r17,r17,r6
   44070:	003f1b06 	br	43ce0 <_gp+0xfffe4c64>
   44074:	0101ffc4 	movi	r4,2047
   44078:	813f441e 	bne	r16,r4,43d8c <_gp+0xfffe4d10>
   4407c:	003f1806 	br	43ce0 <_gp+0xfffe4c64>
   44080:	843ff844 	addi	r16,r16,-31
   44084:	01400804 	movi	r5,32
   44088:	1408d83a 	srl	r4,r2,r16
   4408c:	19405026 	beq	r3,r5,441d0 <__subdf3+0x574>
   44090:	01401004 	movi	r5,64
   44094:	28c7c83a 	sub	r3,r5,r3
   44098:	10c4983a 	sll	r2,r2,r3
   4409c:	88a2b03a 	or	r17,r17,r2
   440a0:	8822c03a 	cmpne	r17,r17,zero
   440a4:	2462b03a 	or	r17,r4,r17
   440a8:	0007883a 	mov	r3,zero
   440ac:	0021883a 	mov	r16,zero
   440b0:	003f6d06 	br	43e68 <_gp+0xfffe4dec>
   440b4:	11fff804 	addi	r7,r2,-32
   440b8:	01000804 	movi	r4,32
   440bc:	29ced83a 	srl	r7,r5,r7
   440c0:	11004526 	beq	r2,r4,441d8 <__subdf3+0x57c>
   440c4:	01001004 	movi	r4,64
   440c8:	2089c83a 	sub	r4,r4,r2
   440cc:	2904983a 	sll	r2,r5,r4
   440d0:	118cb03a 	or	r6,r2,r6
   440d4:	300cc03a 	cmpne	r6,r6,zero
   440d8:	398cb03a 	or	r6,r7,r6
   440dc:	0005883a 	mov	r2,zero
   440e0:	003f3706 	br	43dc0 <_gp+0xfffe4d44>
   440e4:	80002a26 	beq	r16,zero,44190 <__subdf3+0x534>
   440e8:	0101ffc4 	movi	r4,2047
   440ec:	49006626 	beq	r9,r4,44288 <__subdf3+0x62c>
   440f0:	0085c83a 	sub	r2,zero,r2
   440f4:	18c02034 	orhi	r3,r3,128
   440f8:	01000e04 	movi	r4,56
   440fc:	20807e16 	blt	r4,r2,442f8 <__subdf3+0x69c>
   44100:	010007c4 	movi	r4,31
   44104:	2080e716 	blt	r4,r2,444a4 <__subdf3+0x848>
   44108:	01000804 	movi	r4,32
   4410c:	2089c83a 	sub	r4,r4,r2
   44110:	1914983a 	sll	r10,r3,r4
   44114:	8890d83a 	srl	r8,r17,r2
   44118:	8908983a 	sll	r4,r17,r4
   4411c:	1884d83a 	srl	r2,r3,r2
   44120:	5222b03a 	or	r17,r10,r8
   44124:	2006c03a 	cmpne	r3,r4,zero
   44128:	88e2b03a 	or	r17,r17,r3
   4412c:	3463c83a 	sub	r17,r6,r17
   44130:	2885c83a 	sub	r2,r5,r2
   44134:	344d803a 	cmpltu	r6,r6,r17
   44138:	1187c83a 	sub	r3,r2,r6
   4413c:	4821883a 	mov	r16,r9
   44140:	3825883a 	mov	r18,r7
   44144:	003f2306 	br	43dd4 <_gp+0xfffe4d58>
   44148:	24d0b03a 	or	r8,r4,r19
   4414c:	40001b1e 	bne	r8,zero,441bc <__subdf3+0x560>
   44150:	0005883a 	mov	r2,zero
   44154:	0009883a 	mov	r4,zero
   44158:	0021883a 	mov	r16,zero
   4415c:	003f4906 	br	43e84 <_gp+0xfffe4e08>
   44160:	010007c4 	movi	r4,31
   44164:	20803a16 	blt	r4,r2,44250 <__subdf3+0x5f4>
   44168:	01000804 	movi	r4,32
   4416c:	2089c83a 	sub	r4,r4,r2
   44170:	2912983a 	sll	r9,r5,r4
   44174:	3090d83a 	srl	r8,r6,r2
   44178:	3108983a 	sll	r4,r6,r4
   4417c:	2884d83a 	srl	r2,r5,r2
   44180:	4a12b03a 	or	r9,r9,r8
   44184:	2008c03a 	cmpne	r4,r4,zero
   44188:	4912b03a 	or	r9,r9,r4
   4418c:	003f4e06 	br	43ec8 <_gp+0xfffe4e4c>
   44190:	1c48b03a 	or	r4,r3,r17
   44194:	20003c26 	beq	r4,zero,44288 <__subdf3+0x62c>
   44198:	0084303a 	nor	r2,zero,r2
   4419c:	1000381e 	bne	r2,zero,44280 <__subdf3+0x624>
   441a0:	3463c83a 	sub	r17,r6,r17
   441a4:	28c5c83a 	sub	r2,r5,r3
   441a8:	344d803a 	cmpltu	r6,r6,r17
   441ac:	1187c83a 	sub	r3,r2,r6
   441b0:	4821883a 	mov	r16,r9
   441b4:	3825883a 	mov	r18,r7
   441b8:	003f0606 	br	43dd4 <_gp+0xfffe4d58>
   441bc:	2023883a 	mov	r17,r4
   441c0:	003f0906 	br	43de8 <_gp+0xfffe4d6c>
   441c4:	0101ffc4 	movi	r4,2047
   441c8:	813f3a1e 	bne	r16,r4,43eb4 <_gp+0xfffe4e38>
   441cc:	003ec406 	br	43ce0 <_gp+0xfffe4c64>
   441d0:	0005883a 	mov	r2,zero
   441d4:	003fb106 	br	4409c <_gp+0xfffe5020>
   441d8:	0005883a 	mov	r2,zero
   441dc:	003fbc06 	br	440d0 <_gp+0xfffe5054>
   441e0:	1c44b03a 	or	r2,r3,r17
   441e4:	80008e1e 	bne	r16,zero,44420 <__subdf3+0x7c4>
   441e8:	1000c826 	beq	r2,zero,4450c <__subdf3+0x8b0>
   441ec:	2984b03a 	or	r2,r5,r6
   441f0:	103ebb26 	beq	r2,zero,43ce0 <_gp+0xfffe4c64>
   441f4:	8989883a 	add	r4,r17,r6
   441f8:	1945883a 	add	r2,r3,r5
   441fc:	2447803a 	cmpltu	r3,r4,r17
   44200:	1887883a 	add	r3,r3,r2
   44204:	1880202c 	andhi	r2,r3,128
   44208:	2023883a 	mov	r17,r4
   4420c:	103f1626 	beq	r2,zero,43e68 <_gp+0xfffe4dec>
   44210:	00bfe034 	movhi	r2,65408
   44214:	10bfffc4 	addi	r2,r2,-1
   44218:	5021883a 	mov	r16,r10
   4421c:	1886703a 	and	r3,r3,r2
   44220:	003eaf06 	br	43ce0 <_gp+0xfffe4c64>
   44224:	3825883a 	mov	r18,r7
   44228:	003f0f06 	br	43e68 <_gp+0xfffe4dec>
   4422c:	1c44b03a 	or	r2,r3,r17
   44230:	8000251e 	bne	r16,zero,442c8 <__subdf3+0x66c>
   44234:	1000661e 	bne	r2,zero,443d0 <__subdf3+0x774>
   44238:	2990b03a 	or	r8,r5,r6
   4423c:	40009626 	beq	r8,zero,44498 <__subdf3+0x83c>
   44240:	2807883a 	mov	r3,r5
   44244:	3023883a 	mov	r17,r6
   44248:	3825883a 	mov	r18,r7
   4424c:	003ea406 	br	43ce0 <_gp+0xfffe4c64>
   44250:	127ff804 	addi	r9,r2,-32
   44254:	01000804 	movi	r4,32
   44258:	2a52d83a 	srl	r9,r5,r9
   4425c:	11008c26 	beq	r2,r4,44490 <__subdf3+0x834>
   44260:	01001004 	movi	r4,64
   44264:	2085c83a 	sub	r2,r4,r2
   44268:	2884983a 	sll	r2,r5,r2
   4426c:	118cb03a 	or	r6,r2,r6
   44270:	300cc03a 	cmpne	r6,r6,zero
   44274:	4992b03a 	or	r9,r9,r6
   44278:	0005883a 	mov	r2,zero
   4427c:	003f1206 	br	43ec8 <_gp+0xfffe4e4c>
   44280:	0101ffc4 	movi	r4,2047
   44284:	493f9c1e 	bne	r9,r4,440f8 <_gp+0xfffe507c>
   44288:	2807883a 	mov	r3,r5
   4428c:	3023883a 	mov	r17,r6
   44290:	4821883a 	mov	r16,r9
   44294:	3825883a 	mov	r18,r7
   44298:	003e9106 	br	43ce0 <_gp+0xfffe4c64>
   4429c:	80001f1e 	bne	r16,zero,4431c <__subdf3+0x6c0>
   442a0:	1c48b03a 	or	r4,r3,r17
   442a4:	20005a26 	beq	r4,zero,44410 <__subdf3+0x7b4>
   442a8:	0084303a 	nor	r2,zero,r2
   442ac:	1000561e 	bne	r2,zero,44408 <__subdf3+0x7ac>
   442b0:	89a3883a 	add	r17,r17,r6
   442b4:	1945883a 	add	r2,r3,r5
   442b8:	898d803a 	cmpltu	r6,r17,r6
   442bc:	3087883a 	add	r3,r6,r2
   442c0:	4821883a 	mov	r16,r9
   442c4:	003f0506 	br	43edc <_gp+0xfffe4e60>
   442c8:	10002b1e 	bne	r2,zero,44378 <__subdf3+0x71c>
   442cc:	2984b03a 	or	r2,r5,r6
   442d0:	10008026 	beq	r2,zero,444d4 <__subdf3+0x878>
   442d4:	2807883a 	mov	r3,r5
   442d8:	3023883a 	mov	r17,r6
   442dc:	3825883a 	mov	r18,r7
   442e0:	0401ffc4 	movi	r16,2047
   442e4:	003e7e06 	br	43ce0 <_gp+0xfffe4c64>
   442e8:	3809883a 	mov	r4,r7
   442ec:	0011883a 	mov	r8,zero
   442f0:	0005883a 	mov	r2,zero
   442f4:	003ee306 	br	43e84 <_gp+0xfffe4e08>
   442f8:	1c62b03a 	or	r17,r3,r17
   442fc:	8822c03a 	cmpne	r17,r17,zero
   44300:	0005883a 	mov	r2,zero
   44304:	003f8906 	br	4412c <_gp+0xfffe50b0>
   44308:	3809883a 	mov	r4,r7
   4430c:	4821883a 	mov	r16,r9
   44310:	0011883a 	mov	r8,zero
   44314:	0005883a 	mov	r2,zero
   44318:	003eda06 	br	43e84 <_gp+0xfffe4e08>
   4431c:	0101ffc4 	movi	r4,2047
   44320:	49003b26 	beq	r9,r4,44410 <__subdf3+0x7b4>
   44324:	0085c83a 	sub	r2,zero,r2
   44328:	18c02034 	orhi	r3,r3,128
   4432c:	01000e04 	movi	r4,56
   44330:	20806e16 	blt	r4,r2,444ec <__subdf3+0x890>
   44334:	010007c4 	movi	r4,31
   44338:	20807716 	blt	r4,r2,44518 <__subdf3+0x8bc>
   4433c:	01000804 	movi	r4,32
   44340:	2089c83a 	sub	r4,r4,r2
   44344:	1914983a 	sll	r10,r3,r4
   44348:	8890d83a 	srl	r8,r17,r2
   4434c:	8908983a 	sll	r4,r17,r4
   44350:	1884d83a 	srl	r2,r3,r2
   44354:	5222b03a 	or	r17,r10,r8
   44358:	2006c03a 	cmpne	r3,r4,zero
   4435c:	88e2b03a 	or	r17,r17,r3
   44360:	89a3883a 	add	r17,r17,r6
   44364:	1145883a 	add	r2,r2,r5
   44368:	898d803a 	cmpltu	r6,r17,r6
   4436c:	3087883a 	add	r3,r6,r2
   44370:	4821883a 	mov	r16,r9
   44374:	003ed906 	br	43edc <_gp+0xfffe4e60>
   44378:	2984b03a 	or	r2,r5,r6
   4437c:	10004226 	beq	r2,zero,44488 <__subdf3+0x82c>
   44380:	1808d0fa 	srli	r4,r3,3
   44384:	8822d0fa 	srli	r17,r17,3
   44388:	1806977a 	slli	r3,r3,29
   4438c:	2080022c 	andhi	r2,r4,8
   44390:	1c62b03a 	or	r17,r3,r17
   44394:	10000826 	beq	r2,zero,443b8 <__subdf3+0x75c>
   44398:	2812d0fa 	srli	r9,r5,3
   4439c:	4880022c 	andhi	r2,r9,8
   443a0:	1000051e 	bne	r2,zero,443b8 <__subdf3+0x75c>
   443a4:	300cd0fa 	srli	r6,r6,3
   443a8:	2804977a 	slli	r2,r5,29
   443ac:	4809883a 	mov	r4,r9
   443b0:	3825883a 	mov	r18,r7
   443b4:	11a2b03a 	or	r17,r2,r6
   443b8:	8806d77a 	srli	r3,r17,29
   443bc:	200890fa 	slli	r4,r4,3
   443c0:	882290fa 	slli	r17,r17,3
   443c4:	0401ffc4 	movi	r16,2047
   443c8:	1906b03a 	or	r3,r3,r4
   443cc:	003e4406 	br	43ce0 <_gp+0xfffe4c64>
   443d0:	2984b03a 	or	r2,r5,r6
   443d4:	103e4226 	beq	r2,zero,43ce0 <_gp+0xfffe4c64>
   443d8:	8989c83a 	sub	r4,r17,r6
   443dc:	8911803a 	cmpltu	r8,r17,r4
   443e0:	1945c83a 	sub	r2,r3,r5
   443e4:	1205c83a 	sub	r2,r2,r8
   443e8:	1200202c 	andhi	r8,r2,128
   443ec:	403e9a26 	beq	r8,zero,43e58 <_gp+0xfffe4ddc>
   443f0:	3463c83a 	sub	r17,r6,r17
   443f4:	28c5c83a 	sub	r2,r5,r3
   443f8:	344d803a 	cmpltu	r6,r6,r17
   443fc:	1187c83a 	sub	r3,r2,r6
   44400:	3825883a 	mov	r18,r7
   44404:	003e3606 	br	43ce0 <_gp+0xfffe4c64>
   44408:	0101ffc4 	movi	r4,2047
   4440c:	493fc71e 	bne	r9,r4,4432c <_gp+0xfffe52b0>
   44410:	2807883a 	mov	r3,r5
   44414:	3023883a 	mov	r17,r6
   44418:	4821883a 	mov	r16,r9
   4441c:	003e3006 	br	43ce0 <_gp+0xfffe4c64>
   44420:	10003626 	beq	r2,zero,444fc <__subdf3+0x8a0>
   44424:	2984b03a 	or	r2,r5,r6
   44428:	10001726 	beq	r2,zero,44488 <__subdf3+0x82c>
   4442c:	1808d0fa 	srli	r4,r3,3
   44430:	8822d0fa 	srli	r17,r17,3
   44434:	1806977a 	slli	r3,r3,29
   44438:	2080022c 	andhi	r2,r4,8
   4443c:	1c62b03a 	or	r17,r3,r17
   44440:	10000726 	beq	r2,zero,44460 <__subdf3+0x804>
   44444:	2812d0fa 	srli	r9,r5,3
   44448:	4880022c 	andhi	r2,r9,8
   4444c:	1000041e 	bne	r2,zero,44460 <__subdf3+0x804>
   44450:	300cd0fa 	srli	r6,r6,3
   44454:	2804977a 	slli	r2,r5,29
   44458:	4809883a 	mov	r4,r9
   4445c:	11a2b03a 	or	r17,r2,r6
   44460:	8806d77a 	srli	r3,r17,29
   44464:	200890fa 	slli	r4,r4,3
   44468:	882290fa 	slli	r17,r17,3
   4446c:	3825883a 	mov	r18,r7
   44470:	1906b03a 	or	r3,r3,r4
   44474:	0401ffc4 	movi	r16,2047
   44478:	003e1906 	br	43ce0 <_gp+0xfffe4c64>
   4447c:	000b883a 	mov	r5,zero
   44480:	0005883a 	mov	r2,zero
   44484:	003e2e06 	br	43d40 <_gp+0xfffe4cc4>
   44488:	0401ffc4 	movi	r16,2047
   4448c:	003e1406 	br	43ce0 <_gp+0xfffe4c64>
   44490:	0005883a 	mov	r2,zero
   44494:	003f7506 	br	4426c <_gp+0xfffe51f0>
   44498:	0005883a 	mov	r2,zero
   4449c:	0009883a 	mov	r4,zero
   444a0:	003e7806 	br	43e84 <_gp+0xfffe4e08>
   444a4:	123ff804 	addi	r8,r2,-32
   444a8:	01000804 	movi	r4,32
   444ac:	1a10d83a 	srl	r8,r3,r8
   444b0:	11002526 	beq	r2,r4,44548 <__subdf3+0x8ec>
   444b4:	01001004 	movi	r4,64
   444b8:	2085c83a 	sub	r2,r4,r2
   444bc:	1884983a 	sll	r2,r3,r2
   444c0:	1444b03a 	or	r2,r2,r17
   444c4:	1004c03a 	cmpne	r2,r2,zero
   444c8:	40a2b03a 	or	r17,r8,r2
   444cc:	0005883a 	mov	r2,zero
   444d0:	003f1606 	br	4412c <_gp+0xfffe50b0>
   444d4:	02000434 	movhi	r8,16
   444d8:	0009883a 	mov	r4,zero
   444dc:	423fffc4 	addi	r8,r8,-1
   444e0:	00bfffc4 	movi	r2,-1
   444e4:	0401ffc4 	movi	r16,2047
   444e8:	003e6606 	br	43e84 <_gp+0xfffe4e08>
   444ec:	1c62b03a 	or	r17,r3,r17
   444f0:	8822c03a 	cmpne	r17,r17,zero
   444f4:	0005883a 	mov	r2,zero
   444f8:	003f9906 	br	44360 <_gp+0xfffe52e4>
   444fc:	2807883a 	mov	r3,r5
   44500:	3023883a 	mov	r17,r6
   44504:	0401ffc4 	movi	r16,2047
   44508:	003df506 	br	43ce0 <_gp+0xfffe4c64>
   4450c:	2807883a 	mov	r3,r5
   44510:	3023883a 	mov	r17,r6
   44514:	003df206 	br	43ce0 <_gp+0xfffe4c64>
   44518:	123ff804 	addi	r8,r2,-32
   4451c:	01000804 	movi	r4,32
   44520:	1a10d83a 	srl	r8,r3,r8
   44524:	11000a26 	beq	r2,r4,44550 <__subdf3+0x8f4>
   44528:	01001004 	movi	r4,64
   4452c:	2085c83a 	sub	r2,r4,r2
   44530:	1884983a 	sll	r2,r3,r2
   44534:	1444b03a 	or	r2,r2,r17
   44538:	1004c03a 	cmpne	r2,r2,zero
   4453c:	40a2b03a 	or	r17,r8,r2
   44540:	0005883a 	mov	r2,zero
   44544:	003f8606 	br	44360 <_gp+0xfffe52e4>
   44548:	0005883a 	mov	r2,zero
   4454c:	003fdc06 	br	444c0 <_gp+0xfffe5444>
   44550:	0005883a 	mov	r2,zero
   44554:	003ff706 	br	44534 <_gp+0xfffe54b8>

00044558 <__fixdfsi>:
   44558:	280cd53a 	srli	r6,r5,20
   4455c:	00c00434 	movhi	r3,16
   44560:	18ffffc4 	addi	r3,r3,-1
   44564:	3181ffcc 	andi	r6,r6,2047
   44568:	01c0ff84 	movi	r7,1022
   4456c:	28c6703a 	and	r3,r5,r3
   44570:	280ad7fa 	srli	r5,r5,31
   44574:	3980120e 	bge	r7,r6,445c0 <__fixdfsi+0x68>
   44578:	00810744 	movi	r2,1053
   4457c:	11800c16 	blt	r2,r6,445b0 <__fixdfsi+0x58>
   44580:	00810cc4 	movi	r2,1075
   44584:	1185c83a 	sub	r2,r2,r6
   44588:	01c007c4 	movi	r7,31
   4458c:	18c00434 	orhi	r3,r3,16
   44590:	38800d16 	blt	r7,r2,445c8 <__fixdfsi+0x70>
   44594:	31befb44 	addi	r6,r6,-1043
   44598:	2084d83a 	srl	r2,r4,r2
   4459c:	1986983a 	sll	r3,r3,r6
   445a0:	1884b03a 	or	r2,r3,r2
   445a4:	28000726 	beq	r5,zero,445c4 <__fixdfsi+0x6c>
   445a8:	0085c83a 	sub	r2,zero,r2
   445ac:	f800283a 	ret
   445b0:	00a00034 	movhi	r2,32768
   445b4:	10bfffc4 	addi	r2,r2,-1
   445b8:	2885883a 	add	r2,r5,r2
   445bc:	f800283a 	ret
   445c0:	0005883a 	mov	r2,zero
   445c4:	f800283a 	ret
   445c8:	008104c4 	movi	r2,1043
   445cc:	1185c83a 	sub	r2,r2,r6
   445d0:	1884d83a 	srl	r2,r3,r2
   445d4:	003ff306 	br	445a4 <_gp+0xfffe5528>

000445d8 <__floatsidf>:
   445d8:	defffd04 	addi	sp,sp,-12
   445dc:	dfc00215 	stw	ra,8(sp)
   445e0:	dc400115 	stw	r17,4(sp)
   445e4:	dc000015 	stw	r16,0(sp)
   445e8:	20002b26 	beq	r4,zero,44698 <__floatsidf+0xc0>
   445ec:	2023883a 	mov	r17,r4
   445f0:	2020d7fa 	srli	r16,r4,31
   445f4:	20002d16 	blt	r4,zero,446ac <__floatsidf+0xd4>
   445f8:	8809883a 	mov	r4,r17
   445fc:	004496c0 	call	4496c <__clzsi2>
   44600:	01410784 	movi	r5,1054
   44604:	288bc83a 	sub	r5,r5,r2
   44608:	01010cc4 	movi	r4,1075
   4460c:	2149c83a 	sub	r4,r4,r5
   44610:	00c007c4 	movi	r3,31
   44614:	1900160e 	bge	r3,r4,44670 <__floatsidf+0x98>
   44618:	00c104c4 	movi	r3,1043
   4461c:	1947c83a 	sub	r3,r3,r5
   44620:	88c6983a 	sll	r3,r17,r3
   44624:	00800434 	movhi	r2,16
   44628:	10bfffc4 	addi	r2,r2,-1
   4462c:	1886703a 	and	r3,r3,r2
   44630:	2941ffcc 	andi	r5,r5,2047
   44634:	800d883a 	mov	r6,r16
   44638:	0005883a 	mov	r2,zero
   4463c:	280a953a 	slli	r5,r5,20
   44640:	31803fcc 	andi	r6,r6,255
   44644:	01000434 	movhi	r4,16
   44648:	300c97fa 	slli	r6,r6,31
   4464c:	213fffc4 	addi	r4,r4,-1
   44650:	1906703a 	and	r3,r3,r4
   44654:	1946b03a 	or	r3,r3,r5
   44658:	1986b03a 	or	r3,r3,r6
   4465c:	dfc00217 	ldw	ra,8(sp)
   44660:	dc400117 	ldw	r17,4(sp)
   44664:	dc000017 	ldw	r16,0(sp)
   44668:	dec00304 	addi	sp,sp,12
   4466c:	f800283a 	ret
   44670:	00c002c4 	movi	r3,11
   44674:	1887c83a 	sub	r3,r3,r2
   44678:	88c6d83a 	srl	r3,r17,r3
   4467c:	8904983a 	sll	r2,r17,r4
   44680:	01000434 	movhi	r4,16
   44684:	213fffc4 	addi	r4,r4,-1
   44688:	2941ffcc 	andi	r5,r5,2047
   4468c:	1906703a 	and	r3,r3,r4
   44690:	800d883a 	mov	r6,r16
   44694:	003fe906 	br	4463c <_gp+0xfffe55c0>
   44698:	000d883a 	mov	r6,zero
   4469c:	000b883a 	mov	r5,zero
   446a0:	0007883a 	mov	r3,zero
   446a4:	0005883a 	mov	r2,zero
   446a8:	003fe406 	br	4463c <_gp+0xfffe55c0>
   446ac:	0123c83a 	sub	r17,zero,r4
   446b0:	003fd106 	br	445f8 <_gp+0xfffe557c>

000446b4 <__extendsfdf2>:
   446b4:	200ad5fa 	srli	r5,r4,23
   446b8:	defffd04 	addi	sp,sp,-12
   446bc:	dc400115 	stw	r17,4(sp)
   446c0:	29403fcc 	andi	r5,r5,255
   446c4:	29800044 	addi	r6,r5,1
   446c8:	04402034 	movhi	r17,128
   446cc:	dc000015 	stw	r16,0(sp)
   446d0:	8c7fffc4 	addi	r17,r17,-1
   446d4:	dfc00215 	stw	ra,8(sp)
   446d8:	31803fcc 	andi	r6,r6,255
   446dc:	00800044 	movi	r2,1
   446e0:	8922703a 	and	r17,r17,r4
   446e4:	2020d7fa 	srli	r16,r4,31
   446e8:	1180110e 	bge	r2,r6,44730 <__extendsfdf2+0x7c>
   446ec:	880cd0fa 	srli	r6,r17,3
   446f0:	8822977a 	slli	r17,r17,29
   446f4:	2940e004 	addi	r5,r5,896
   446f8:	2941ffcc 	andi	r5,r5,2047
   446fc:	2804953a 	slli	r2,r5,20
   44700:	01400434 	movhi	r5,16
   44704:	800697fa 	slli	r3,r16,31
   44708:	297fffc4 	addi	r5,r5,-1
   4470c:	314a703a 	and	r5,r6,r5
   44710:	288ab03a 	or	r5,r5,r2
   44714:	28c6b03a 	or	r3,r5,r3
   44718:	8805883a 	mov	r2,r17
   4471c:	dfc00217 	ldw	ra,8(sp)
   44720:	dc400117 	ldw	r17,4(sp)
   44724:	dc000017 	ldw	r16,0(sp)
   44728:	dec00304 	addi	sp,sp,12
   4472c:	f800283a 	ret
   44730:	2800111e 	bne	r5,zero,44778 <__extendsfdf2+0xc4>
   44734:	88001c26 	beq	r17,zero,447a8 <__extendsfdf2+0xf4>
   44738:	8809883a 	mov	r4,r17
   4473c:	004496c0 	call	4496c <__clzsi2>
   44740:	00c00284 	movi	r3,10
   44744:	18801b16 	blt	r3,r2,447b4 <__extendsfdf2+0x100>
   44748:	018002c4 	movi	r6,11
   4474c:	308dc83a 	sub	r6,r6,r2
   44750:	11000544 	addi	r4,r2,21
   44754:	8986d83a 	srl	r3,r17,r6
   44758:	8922983a 	sll	r17,r17,r4
   4475c:	0180e244 	movi	r6,905
   44760:	01400434 	movhi	r5,16
   44764:	3085c83a 	sub	r2,r6,r2
   44768:	297fffc4 	addi	r5,r5,-1
   4476c:	194c703a 	and	r6,r3,r5
   44770:	1141ffcc 	andi	r5,r2,2047
   44774:	003fe006 	br	446f8 <_gp+0xfffe567c>
   44778:	88000826 	beq	r17,zero,4479c <__extendsfdf2+0xe8>
   4477c:	880cd0fa 	srli	r6,r17,3
   44780:	00800434 	movhi	r2,16
   44784:	10bfffc4 	addi	r2,r2,-1
   44788:	31800234 	orhi	r6,r6,8
   4478c:	8822977a 	slli	r17,r17,29
   44790:	308c703a 	and	r6,r6,r2
   44794:	0141ffc4 	movi	r5,2047
   44798:	003fd706 	br	446f8 <_gp+0xfffe567c>
   4479c:	0141ffc4 	movi	r5,2047
   447a0:	000d883a 	mov	r6,zero
   447a4:	003fd406 	br	446f8 <_gp+0xfffe567c>
   447a8:	000b883a 	mov	r5,zero
   447ac:	000d883a 	mov	r6,zero
   447b0:	003fd106 	br	446f8 <_gp+0xfffe567c>
   447b4:	11bffd44 	addi	r6,r2,-11
   447b8:	8986983a 	sll	r3,r17,r6
   447bc:	0023883a 	mov	r17,zero
   447c0:	003fe606 	br	4475c <_gp+0xfffe56e0>

000447c4 <__truncdfsf2>:
   447c4:	2810d53a 	srli	r8,r5,20
   447c8:	01c00434 	movhi	r7,16
   447cc:	39ffffc4 	addi	r7,r7,-1
   447d0:	29ce703a 	and	r7,r5,r7
   447d4:	4201ffcc 	andi	r8,r8,2047
   447d8:	380e90fa 	slli	r7,r7,3
   447dc:	200cd77a 	srli	r6,r4,29
   447e0:	42400044 	addi	r9,r8,1
   447e4:	4a41ffcc 	andi	r9,r9,2047
   447e8:	00c00044 	movi	r3,1
   447ec:	280ad7fa 	srli	r5,r5,31
   447f0:	31ceb03a 	or	r7,r6,r7
   447f4:	200490fa 	slli	r2,r4,3
   447f8:	1a40230e 	bge	r3,r9,44888 <__truncdfsf2+0xc4>
   447fc:	40ff2004 	addi	r3,r8,-896
   44800:	01803f84 	movi	r6,254
   44804:	30c01516 	blt	r6,r3,4485c <__truncdfsf2+0x98>
   44808:	00c0380e 	bge	zero,r3,448ec <__truncdfsf2+0x128>
   4480c:	200c91ba 	slli	r6,r4,6
   44810:	380e90fa 	slli	r7,r7,3
   44814:	1004d77a 	srli	r2,r2,29
   44818:	300cc03a 	cmpne	r6,r6,zero
   4481c:	31ccb03a 	or	r6,r6,r7
   44820:	308cb03a 	or	r6,r6,r2
   44824:	308001cc 	andi	r2,r6,7
   44828:	10000426 	beq	r2,zero,4483c <__truncdfsf2+0x78>
   4482c:	308003cc 	andi	r2,r6,15
   44830:	01000104 	movi	r4,4
   44834:	11000126 	beq	r2,r4,4483c <__truncdfsf2+0x78>
   44838:	31800104 	addi	r6,r6,4
   4483c:	3081002c 	andhi	r2,r6,1024
   44840:	10001626 	beq	r2,zero,4489c <__truncdfsf2+0xd8>
   44844:	18c00044 	addi	r3,r3,1
   44848:	00803fc4 	movi	r2,255
   4484c:	18800326 	beq	r3,r2,4485c <__truncdfsf2+0x98>
   44850:	300c91ba 	slli	r6,r6,6
   44854:	300cd27a 	srli	r6,r6,9
   44858:	00000206 	br	44864 <__truncdfsf2+0xa0>
   4485c:	00ffffc4 	movi	r3,-1
   44860:	000d883a 	mov	r6,zero
   44864:	18c03fcc 	andi	r3,r3,255
   44868:	180895fa 	slli	r4,r3,23
   4486c:	00c02034 	movhi	r3,128
   44870:	280a97fa 	slli	r5,r5,31
   44874:	18ffffc4 	addi	r3,r3,-1
   44878:	30c6703a 	and	r3,r6,r3
   4487c:	1906b03a 	or	r3,r3,r4
   44880:	1944b03a 	or	r2,r3,r5
   44884:	f800283a 	ret
   44888:	40000b1e 	bne	r8,zero,448b8 <__truncdfsf2+0xf4>
   4488c:	388cb03a 	or	r6,r7,r2
   44890:	0007883a 	mov	r3,zero
   44894:	30000426 	beq	r6,zero,448a8 <__truncdfsf2+0xe4>
   44898:	01800144 	movi	r6,5
   4489c:	00803fc4 	movi	r2,255
   448a0:	300cd0fa 	srli	r6,r6,3
   448a4:	18800a26 	beq	r3,r2,448d0 <__truncdfsf2+0x10c>
   448a8:	00802034 	movhi	r2,128
   448ac:	10bfffc4 	addi	r2,r2,-1
   448b0:	308c703a 	and	r6,r6,r2
   448b4:	003feb06 	br	44864 <_gp+0xfffe57e8>
   448b8:	3888b03a 	or	r4,r7,r2
   448bc:	203fe726 	beq	r4,zero,4485c <_gp+0xfffe57e0>
   448c0:	380c90fa 	slli	r6,r7,3
   448c4:	00c03fc4 	movi	r3,255
   448c8:	31808034 	orhi	r6,r6,512
   448cc:	003fd506 	br	44824 <_gp+0xfffe57a8>
   448d0:	303fe226 	beq	r6,zero,4485c <_gp+0xfffe57e0>
   448d4:	00802034 	movhi	r2,128
   448d8:	31801034 	orhi	r6,r6,64
   448dc:	10bfffc4 	addi	r2,r2,-1
   448e0:	00ffffc4 	movi	r3,-1
   448e4:	308c703a 	and	r6,r6,r2
   448e8:	003fde06 	br	44864 <_gp+0xfffe57e8>
   448ec:	013ffa44 	movi	r4,-23
   448f0:	19000e16 	blt	r3,r4,4492c <__truncdfsf2+0x168>
   448f4:	01000784 	movi	r4,30
   448f8:	20c9c83a 	sub	r4,r4,r3
   448fc:	018007c4 	movi	r6,31
   44900:	39c02034 	orhi	r7,r7,128
   44904:	31000b16 	blt	r6,r4,44934 <__truncdfsf2+0x170>
   44908:	423f2084 	addi	r8,r8,-894
   4490c:	120c983a 	sll	r6,r2,r8
   44910:	3a0e983a 	sll	r7,r7,r8
   44914:	1104d83a 	srl	r2,r2,r4
   44918:	300cc03a 	cmpne	r6,r6,zero
   4491c:	31ceb03a 	or	r7,r6,r7
   44920:	388cb03a 	or	r6,r7,r2
   44924:	0007883a 	mov	r3,zero
   44928:	003fbe06 	br	44824 <_gp+0xfffe57a8>
   4492c:	0007883a 	mov	r3,zero
   44930:	003fd906 	br	44898 <_gp+0xfffe581c>
   44934:	01bfff84 	movi	r6,-2
   44938:	30cdc83a 	sub	r6,r6,r3
   4493c:	00c00804 	movi	r3,32
   44940:	398cd83a 	srl	r6,r7,r6
   44944:	20c00726 	beq	r4,r3,44964 <__truncdfsf2+0x1a0>
   44948:	423f2884 	addi	r8,r8,-862
   4494c:	3a0e983a 	sll	r7,r7,r8
   44950:	3884b03a 	or	r2,r7,r2
   44954:	1004c03a 	cmpne	r2,r2,zero
   44958:	118cb03a 	or	r6,r2,r6
   4495c:	0007883a 	mov	r3,zero
   44960:	003fb006 	br	44824 <_gp+0xfffe57a8>
   44964:	000f883a 	mov	r7,zero
   44968:	003ff906 	br	44950 <_gp+0xfffe58d4>

0004496c <__clzsi2>:
   4496c:	00bfffd4 	movui	r2,65535
   44970:	11000536 	bltu	r2,r4,44988 <__clzsi2+0x1c>
   44974:	00803fc4 	movi	r2,255
   44978:	11000f36 	bltu	r2,r4,449b8 <__clzsi2+0x4c>
   4497c:	00800804 	movi	r2,32
   44980:	0007883a 	mov	r3,zero
   44984:	00000506 	br	4499c <__clzsi2+0x30>
   44988:	00804034 	movhi	r2,256
   4498c:	10bfffc4 	addi	r2,r2,-1
   44990:	11000c2e 	bgeu	r2,r4,449c4 <__clzsi2+0x58>
   44994:	00800204 	movi	r2,8
   44998:	00c00604 	movi	r3,24
   4499c:	20c8d83a 	srl	r4,r4,r3
   449a0:	00c00174 	movhi	r3,5
   449a4:	18d32204 	addi	r3,r3,19592
   449a8:	1909883a 	add	r4,r3,r4
   449ac:	20c00003 	ldbu	r3,0(r4)
   449b0:	10c5c83a 	sub	r2,r2,r3
   449b4:	f800283a 	ret
   449b8:	00800604 	movi	r2,24
   449bc:	00c00204 	movi	r3,8
   449c0:	003ff606 	br	4499c <_gp+0xfffe5920>
   449c4:	00800404 	movi	r2,16
   449c8:	1007883a 	mov	r3,r2
   449cc:	003ff306 	br	4499c <_gp+0xfffe5920>

000449d0 <_printf_r>:

int
_DEFUN(_printf_r, (ptr, fmt),
       struct _reent *ptr _AND
       const char *__restrict fmt _DOTS)
{
   449d0:	defff804 	addi	sp,sp,-32
   449d4:	dfc00515 	stw	ra,20(sp)
   449d8:	df000415 	stw	fp,16(sp)
   449dc:	df000404 	addi	fp,sp,16
   449e0:	e13ffe15 	stw	r4,-8(fp)
   449e4:	e17fff15 	stw	r5,-4(fp)
   449e8:	e1800215 	stw	r6,8(fp)
   449ec:	e1c00315 	stw	r7,12(fp)
  int ret;
  va_list ap;

  _REENT_SMALL_CHECK_INIT (ptr);
  _FILE_INIT_DEV_WRITE (_stdout_r (ptr));						/* AlteraSpecific */
  va_start (ap, fmt);
   449f0:	e0800204 	addi	r2,fp,8
   449f4:	e0bffd15 	stw	r2,-12(fp)
/*ret =   _vfprintf_r          (ptr, _stdout_r (ptr), fmt, ap);	*/	/*1.16.0*/	/* AlteraSpecific */
/*ret = ___vfprintf_internal_r (ptr, _stdout_r (ptr), fmt, ap);	*/	/*1.16  */	/* AlteraSpecific */
/*ret =   _vfprintf_r          (ptr, _stdout_r (ptr), fmt, ap);	*/	/*1.18.0*/	/* AlteraSpecific */
/*ret =   _vfprintf_r          (ptr, _stdout_r (ptr), fmt, ap);	*/	/* try1 */	/* AlteraSpecific */
  ret = ___vfprintf_internal_r (ptr, _stdout_r (ptr), fmt, ap);		/* try2 */	/* AlteraSpecific */
   449f8:	e0bffe17 	ldw	r2,-8(fp)
   449fc:	10800217 	ldw	r2,8(r2)
   44a00:	e0fffd17 	ldw	r3,-12(fp)
   44a04:	180f883a 	mov	r7,r3
   44a08:	e1bfff17 	ldw	r6,-4(fp)
   44a0c:	100b883a 	mov	r5,r2
   44a10:	e13ffe17 	ldw	r4,-8(fp)
   44a14:	0044f2c0 	call	44f2c <___vfprintf_internal_r>
   44a18:	e0bffc15 	stw	r2,-16(fp)
  va_end (ap);
  return ret;
   44a1c:	e0bffc17 	ldw	r2,-16(fp)
}
   44a20:	e037883a 	mov	sp,fp
   44a24:	dfc00117 	ldw	ra,4(sp)
   44a28:	df000017 	ldw	fp,0(sp)
   44a2c:	dec00404 	addi	sp,sp,16
   44a30:	f800283a 	ret

00044a34 <printf>:
#ifndef _REENT_ONLY

int
_DEFUN(printf, (fmt),
       const char *__restrict fmt _DOTS)
{
   44a34:	defff704 	addi	sp,sp,-36
   44a38:	dfc00515 	stw	ra,20(sp)
   44a3c:	df000415 	stw	fp,16(sp)
   44a40:	df000404 	addi	fp,sp,16
   44a44:	e13fff15 	stw	r4,-4(fp)
   44a48:	e1400215 	stw	r5,8(fp)
   44a4c:	e1800315 	stw	r6,12(fp)
   44a50:	e1c00415 	stw	r7,16(fp)
  int ret;
  va_list ap;
  struct _reent *ptr = _REENT;
   44a54:	d0a00517 	ldw	r2,-32748(gp)
   44a58:	e0bffc15 	stw	r2,-16(fp)

  _REENT_SMALL_CHECK_INIT (ptr);
  _FILE_INIT_DEV_WRITE (_stdout_r (_REENT));					/* AlteraSpecific. Mirror changes here in iprintf.c */
  va_start (ap, fmt);
   44a5c:	e0800204 	addi	r2,fp,8
   44a60:	e0bffe15 	stw	r2,-8(fp)
/*ret =  _vfprintf_r        (ptr, _stdout_r    (ptr), fmt, ap);	*/ /*1.16.0*/	/* AlteraSpecific */
/*ret = __vfprintf_internal (     _stdout_r (_REENT), fmt, ap);	*/ /*1.16  */	/* AlteraSpecific */
/*ret =  _vfprintf_r        (ptr, _stdout_r    (ptr), fmt, ap);	*/ /*1.18.0*/	/* AlteraSpecific */
/*ret =  _vfprintf_r        (ptr, _stdout_r    (ptr), fmt, ap); */ /* try1 */	/* AlteraSpecific */
  ret = __vfprintf_internal (     _stdout_r (_REENT), fmt, ap);    /* try2 */	/* AlteraSpecific */
   44a64:	d0a00517 	ldw	r2,-32748(gp)
   44a68:	10800217 	ldw	r2,8(r2)
   44a6c:	e0fffe17 	ldw	r3,-8(fp)
   44a70:	180d883a 	mov	r6,r3
   44a74:	e17fff17 	ldw	r5,-4(fp)
   44a78:	1009883a 	mov	r4,r2
   44a7c:	0044edc0 	call	44edc <__vfprintf_internal>
   44a80:	e0bffd15 	stw	r2,-12(fp)
  va_end (ap);
  return ret;
   44a84:	e0bffd17 	ldw	r2,-12(fp)
}
   44a88:	e037883a 	mov	sp,fp
   44a8c:	dfc00117 	ldw	ra,4(sp)
   44a90:	df000017 	ldw	fp,0(sp)
   44a94:	dec00504 	addi	sp,sp,20
   44a98:	f800283a 	ret

00044a9c <_puts_r>:

int
_DEFUN(_puts_r, (ptr, s),
       struct _reent *ptr _AND
       _CONST char * s)
{
   44a9c:	defff104 	addi	sp,sp,-60
   44aa0:	dfc00e15 	stw	ra,56(sp)
   44aa4:	df000d15 	stw	fp,52(sp)
   44aa8:	df000d04 	addi	fp,sp,52
   44aac:	e13ffe15 	stw	r4,-8(fp)
   44ab0:	e17fff15 	stw	r5,-4(fp)
#ifdef _FVWRITE_IN_STREAMIO
  int result;
  size_t c = strlen (s);
   44ab4:	e13fff17 	ldw	r4,-4(fp)
   44ab8:	0044cf80 	call	44cf8 <strlen>
   44abc:	e0bff315 	stw	r2,-52(fp)
  struct __suio uio;
  struct __siov iov[2];
  FILE *fp;

  iov[0].iov_base = s;
   44ac0:	e0bfff17 	ldw	r2,-4(fp)
   44ac4:	e0bffa15 	stw	r2,-24(fp)
  iov[0].iov_len = c;
   44ac8:	e0bff317 	ldw	r2,-52(fp)
   44acc:	e0bffb15 	stw	r2,-20(fp)
  iov[1].iov_base = "\n";
   44ad0:	00800174 	movhi	r2,5
   44ad4:	10936204 	addi	r2,r2,19848
   44ad8:	e0bffc15 	stw	r2,-16(fp)
  iov[1].iov_len = 1;
   44adc:	00800044 	movi	r2,1
   44ae0:	e0bffd15 	stw	r2,-12(fp)
  uio.uio_resid = c + 1;
   44ae4:	e0bff317 	ldw	r2,-52(fp)
   44ae8:	10800044 	addi	r2,r2,1
   44aec:	e0bff915 	stw	r2,-28(fp)
  uio.uio_iov = &iov[0];
   44af0:	e0bffa04 	addi	r2,fp,-24
   44af4:	e0bff715 	stw	r2,-36(fp)
  uio.uio_iovcnt = 2;
   44af8:	00800084 	movi	r2,2
   44afc:	e0bff815 	stw	r2,-32(fp)

  CHECK_STD_INIT (ptr);
   44b00:	e0bffe17 	ldw	r2,-8(fp)
   44b04:	e0bff415 	stw	r2,-48(fp)
   44b08:	e0bff417 	ldw	r2,-48(fp)
   44b0c:	10000526 	beq	r2,zero,44b24 <_puts_r+0x88>
   44b10:	e0bff417 	ldw	r2,-48(fp)
   44b14:	10800e17 	ldw	r2,56(r2)
   44b18:	1000021e 	bne	r2,zero,44b24 <_puts_r+0x88>
   44b1c:	e13ff417 	ldw	r4,-48(fp)
   44b20:	0049bd80 	call	49bd8 <__sinit>
  fp = _stdout_r (ptr);
   44b24:	e0bffe17 	ldw	r2,-8(fp)
   44b28:	10800217 	ldw	r2,8(r2)
   44b2c:	e0bff515 	stw	r2,-44(fp)
  _newlib_flockfile_start (fp);
  ORIENT (fp, -1);
   44b30:	e0bff517 	ldw	r2,-44(fp)
   44b34:	1080030b 	ldhu	r2,12(r2)
   44b38:	10bfffcc 	andi	r2,r2,65535
   44b3c:	1088000c 	andi	r2,r2,8192
   44b40:	10000c1e 	bne	r2,zero,44b74 <_puts_r+0xd8>
   44b44:	e0bff517 	ldw	r2,-44(fp)
   44b48:	1080030b 	ldhu	r2,12(r2)
   44b4c:	10880014 	ori	r2,r2,8192
   44b50:	1007883a 	mov	r3,r2
   44b54:	e0bff517 	ldw	r2,-44(fp)
   44b58:	10c0030d 	sth	r3,12(r2)
   44b5c:	e0bff517 	ldw	r2,-44(fp)
   44b60:	10c01917 	ldw	r3,100(r2)
   44b64:	00b7ffc4 	movi	r2,-8193
   44b68:	1886703a 	and	r3,r3,r2
   44b6c:	e0bff517 	ldw	r2,-44(fp)
   44b70:	10c01915 	stw	r3,100(r2)
  result = (__sfvwrite_r (ptr, fp, &uio) ? EOF : '\n');
   44b74:	e0bff704 	addi	r2,fp,-36
   44b78:	100d883a 	mov	r6,r2
   44b7c:	e17ff517 	ldw	r5,-44(fp)
   44b80:	e13ffe17 	ldw	r4,-8(fp)
   44b84:	004a5280 	call	4a528 <__sfvwrite_r>
   44b88:	10000226 	beq	r2,zero,44b94 <_puts_r+0xf8>
   44b8c:	00bfffc4 	movi	r2,-1
   44b90:	00000106 	br	44b98 <_puts_r+0xfc>
   44b94:	00800284 	movi	r2,10
   44b98:	e0bff615 	stw	r2,-40(fp)
  _newlib_flockfile_end (fp);
  return result;
   44b9c:	e0bff617 	ldw	r2,-40(fp)

err:
  _newlib_flockfile_end (fp);
  return result;
#endif
}
   44ba0:	e037883a 	mov	sp,fp
   44ba4:	dfc00117 	ldw	ra,4(sp)
   44ba8:	df000017 	ldw	fp,0(sp)
   44bac:	dec00204 	addi	sp,sp,8
   44bb0:	f800283a 	ret

00044bb4 <puts>:
#ifndef _REENT_ONLY

int
_DEFUN(puts, (s),
       char _CONST * s)
{
   44bb4:	defffd04 	addi	sp,sp,-12
   44bb8:	dfc00215 	stw	ra,8(sp)
   44bbc:	df000115 	stw	fp,4(sp)
   44bc0:	df000104 	addi	fp,sp,4
   44bc4:	e13fff15 	stw	r4,-4(fp)
  return _puts_r (_REENT, s);
   44bc8:	d0a00517 	ldw	r2,-32748(gp)
   44bcc:	e17fff17 	ldw	r5,-4(fp)
   44bd0:	1009883a 	mov	r4,r2
   44bd4:	0044a9c0 	call	44a9c <_puts_r>
}
   44bd8:	e037883a 	mov	sp,fp
   44bdc:	dfc00117 	ldw	ra,4(sp)
   44be0:	df000017 	ldw	fp,0(sp)
   44be4:	dec00204 	addi	sp,sp,8
   44be8:	f800283a 	ret

00044bec <srand>:
					/* if compiled with -ansi switch.   */	/* AlteraSpecific */
#endif /* !WANT_SMALL_STDIO */							/* AlteraSpecific */

void
_DEFUN (srand, (seed), unsigned int seed)
{
   44bec:	defffd04 	addi	sp,sp,-12
   44bf0:	df000215 	stw	fp,8(sp)
   44bf4:	df000204 	addi	fp,sp,8
   44bf8:	e13fff15 	stw	r4,-4(fp)
  struct _reent *reent = _REENT;
   44bfc:	d1200517 	ldw	r4,-32748(gp)
   44c00:	e13ffe15 	stw	r4,-8(fp)

  _REENT_CHECK_RAND48(reent);
  _REENT_RAND_NEXT(reent) = seed;
   44c04:	e13fff17 	ldw	r4,-4(fp)
   44c08:	2005883a 	mov	r2,r4
   44c0c:	0007883a 	mov	r3,zero
   44c10:	e13ffe17 	ldw	r4,-8(fp)
   44c14:	20802915 	stw	r2,164(r4)
   44c18:	20c02a15 	stw	r3,168(r4)
}
   44c1c:	0001883a 	nop
   44c20:	e037883a 	mov	sp,fp
   44c24:	df000017 	ldw	fp,0(sp)
   44c28:	dec00104 	addi	sp,sp,4
   44c2c:	f800283a 	ret

00044c30 <rand>:

int
_DEFUN_VOID (rand)
{
   44c30:	defffb04 	addi	sp,sp,-20
   44c34:	dfc00415 	stw	ra,16(sp)
   44c38:	df000315 	stw	fp,12(sp)
   44c3c:	dc400215 	stw	r17,8(sp)
   44c40:	dc000115 	stw	r16,4(sp)
   44c44:	df000304 	addi	fp,sp,12
  struct _reent *reent = _REENT;
   44c48:	d0a00517 	ldw	r2,-32748(gp)
   44c4c:	e0bffd15 	stw	r2,-12(fp)
  /* This multiplier was obtained from Knuth, D.E., "The Art of
     Computer Programming," Vol 2, Seminumerical Algorithms, Third
     Edition, Addison-Wesley, 1998, p. 106 (line 26) & p. 108 */
  _REENT_CHECK_RAND48(reent);
  _REENT_RAND_NEXT(reent) =
     _REENT_RAND_NEXT(reent) * __extension__ 6364136223846793005LL + 1;
   44c50:	e13ffd17 	ldw	r4,-12(fp)
   44c54:	20802917 	ldw	r2,164(r4)
   44c58:	20c02a17 	ldw	r3,168(r4)
   44c5c:	01932574 	movhi	r6,19605
   44c60:	319fcb44 	addi	r6,r6,32557
   44c64:	01d614b4 	movhi	r7,22610
   44c68:	39fd0b44 	addi	r7,r7,-3027
   44c6c:	1009883a 	mov	r4,r2
   44c70:	180b883a 	mov	r5,r3
   44c74:	00514380 	call	51438 <__muldi3>
   44c78:	100d883a 	mov	r6,r2
   44c7c:	180f883a 	mov	r7,r3
   44c80:	3009883a 	mov	r4,r6
   44c84:	380b883a 	mov	r5,r7
   44c88:	01800044 	movi	r6,1
   44c8c:	000f883a 	mov	r7,zero
   44c90:	2185883a 	add	r2,r4,r6
   44c94:	1111803a 	cmpltu	r8,r2,r4
   44c98:	29c7883a 	add	r3,r5,r7
   44c9c:	40c9883a 	add	r4,r8,r3
   44ca0:	2007883a 	mov	r3,r4
   44ca4:	1009883a 	mov	r4,r2
   44ca8:	180b883a 	mov	r5,r3

  /* This multiplier was obtained from Knuth, D.E., "The Art of
     Computer Programming," Vol 2, Seminumerical Algorithms, Third
     Edition, Addison-Wesley, 1998, p. 106 (line 26) & p. 108 */
  _REENT_CHECK_RAND48(reent);
  _REENT_RAND_NEXT(reent) =
   44cac:	e0bffd17 	ldw	r2,-12(fp)
   44cb0:	11002915 	stw	r4,164(r2)
   44cb4:	11402a15 	stw	r5,168(r2)
     _REENT_RAND_NEXT(reent) * __extension__ 6364136223846793005LL + 1;
  return (int)((_REENT_RAND_NEXT(reent) >> 32) & RAND_MAX);
   44cb8:	e13ffd17 	ldw	r4,-12(fp)
   44cbc:	20802917 	ldw	r2,164(r4)
   44cc0:	20c02a17 	ldw	r3,168(r4)
   44cc4:	1820d83a 	srl	r16,r3,zero
   44cc8:	0023883a 	mov	r17,zero
   44ccc:	8007883a 	mov	r3,r16
   44cd0:	00a00034 	movhi	r2,32768
   44cd4:	10bfffc4 	addi	r2,r2,-1
   44cd8:	1884703a 	and	r2,r3,r2
}
   44cdc:	e6fffe04 	addi	sp,fp,-8
   44ce0:	dfc00317 	ldw	ra,12(sp)
   44ce4:	df000217 	ldw	fp,8(sp)
   44ce8:	dc400117 	ldw	r17,4(sp)
   44cec:	dc000017 	ldw	r16,0(sp)
   44cf0:	dec00404 	addi	sp,sp,16
   44cf4:	f800283a 	ret

00044cf8 <strlen>:
#endif

size_t
_DEFUN (strlen, (str),
	_CONST char *str)
{
   44cf8:	defffc04 	addi	sp,sp,-16
   44cfc:	df000315 	stw	fp,12(sp)
   44d00:	df000304 	addi	fp,sp,12
   44d04:	e13fff15 	stw	r4,-4(fp)
  _CONST char *start = str;
   44d08:	e0bfff17 	ldw	r2,-4(fp)
   44d0c:	e0bffe15 	stw	r2,-8(fp)

#if !defined(PREFER_SIZE_OVER_SPEED) && !defined(__OPTIMIZE_SIZE__)
  unsigned long *aligned_addr;

  /* Align the pointer, so we can search a word at a time.  */
  while (UNALIGNED (str))
   44d10:	00000d06 	br	44d48 <strlen+0x50>
    {
      if (!*str)
   44d14:	e0bfff17 	ldw	r2,-4(fp)
   44d18:	10800003 	ldbu	r2,0(r2)
   44d1c:	10803fcc 	andi	r2,r2,255
   44d20:	1080201c 	xori	r2,r2,128
   44d24:	10bfe004 	addi	r2,r2,-128
   44d28:	1000041e 	bne	r2,zero,44d3c <strlen+0x44>
	return str - start;
   44d2c:	e0ffff17 	ldw	r3,-4(fp)
   44d30:	e0bffe17 	ldw	r2,-8(fp)
   44d34:	1885c83a 	sub	r2,r3,r2
   44d38:	00002806 	br	44ddc <strlen+0xe4>
      str++;
   44d3c:	e0bfff17 	ldw	r2,-4(fp)
   44d40:	10800044 	addi	r2,r2,1
   44d44:	e0bfff15 	stw	r2,-4(fp)

#if !defined(PREFER_SIZE_OVER_SPEED) && !defined(__OPTIMIZE_SIZE__)
  unsigned long *aligned_addr;

  /* Align the pointer, so we can search a word at a time.  */
  while (UNALIGNED (str))
   44d48:	e0bfff17 	ldw	r2,-4(fp)
   44d4c:	108000cc 	andi	r2,r2,3
   44d50:	103ff01e 	bne	r2,zero,44d14 <_gp+0xfffe5c98>
      str++;
    }

  /* If the string is word-aligned, we can check for the presence of
     a null in each word-sized block.  */
  aligned_addr = (unsigned long *)str;
   44d54:	e0bfff17 	ldw	r2,-4(fp)
   44d58:	e0bffd15 	stw	r2,-12(fp)
  while (!DETECTNULL (*aligned_addr))
   44d5c:	00000306 	br	44d6c <strlen+0x74>
    aligned_addr++;
   44d60:	e0bffd17 	ldw	r2,-12(fp)
   44d64:	10800104 	addi	r2,r2,4
   44d68:	e0bffd15 	stw	r2,-12(fp)
    }

  /* If the string is word-aligned, we can check for the presence of
     a null in each word-sized block.  */
  aligned_addr = (unsigned long *)str;
  while (!DETECTNULL (*aligned_addr))
   44d6c:	e0bffd17 	ldw	r2,-12(fp)
   44d70:	10c00017 	ldw	r3,0(r2)
   44d74:	00bfbff4 	movhi	r2,65279
   44d78:	10bfbfc4 	addi	r2,r2,-257
   44d7c:	1887883a 	add	r3,r3,r2
   44d80:	e0bffd17 	ldw	r2,-12(fp)
   44d84:	10800017 	ldw	r2,0(r2)
   44d88:	0084303a 	nor	r2,zero,r2
   44d8c:	1886703a 	and	r3,r3,r2
   44d90:	00a02074 	movhi	r2,32897
   44d94:	10a02004 	addi	r2,r2,-32640
   44d98:	1884703a 	and	r2,r3,r2
   44d9c:	103ff026 	beq	r2,zero,44d60 <_gp+0xfffe5ce4>
    aligned_addr++;

  /* Once a null is detected, we check each byte in that block for a
     precise position of the null.  */
  str = (char *) aligned_addr;
   44da0:	e0bffd17 	ldw	r2,-12(fp)
   44da4:	e0bfff15 	stw	r2,-4(fp)

#endif /* not PREFER_SIZE_OVER_SPEED */

  while (*str)
   44da8:	00000306 	br	44db8 <strlen+0xc0>
    str++;
   44dac:	e0bfff17 	ldw	r2,-4(fp)
   44db0:	10800044 	addi	r2,r2,1
   44db4:	e0bfff15 	stw	r2,-4(fp)
     precise position of the null.  */
  str = (char *) aligned_addr;

#endif /* not PREFER_SIZE_OVER_SPEED */

  while (*str)
   44db8:	e0bfff17 	ldw	r2,-4(fp)
   44dbc:	10800003 	ldbu	r2,0(r2)
   44dc0:	10803fcc 	andi	r2,r2,255
   44dc4:	1080201c 	xori	r2,r2,128
   44dc8:	10bfe004 	addi	r2,r2,-128
   44dcc:	103ff71e 	bne	r2,zero,44dac <_gp+0xfffe5d30>
    str++;
  return str - start;
   44dd0:	e0ffff17 	ldw	r3,-4(fp)
   44dd4:	e0bffe17 	ldw	r2,-8(fp)
   44dd8:	1885c83a 	sub	r2,r3,r2
}
   44ddc:	e037883a 	mov	sp,fp
   44de0:	df000017 	ldw	fp,0(sp)
   44de4:	dec00104 	addi	sp,sp,4
   44de8:	f800283a 	ret

00044dec <__sbprintf>:
_DEFUN(__sbprintf, (rptr, fp, fmt, ap),
       struct _reent *rptr _AND
       register FILE *fp   _AND
       _CONST char *fmt  _AND
       va_list ap)
{
   44dec:	defedf04 	addi	sp,sp,-1156
   44df0:	dfc12015 	stw	ra,1152(sp)
   44df4:	df011f15 	stw	fp,1148(sp)
   44df8:	dc011e15 	stw	r16,1144(sp)
   44dfc:	df011f04 	addi	fp,sp,1148
   44e00:	e13ffc15 	stw	r4,-16(fp)
   44e04:	2821883a 	mov	r16,r5
   44e08:	e1bffd15 	stw	r6,-12(fp)
   44e0c:	e1fffe15 	stw	r7,-8(fp)
	int ret;
	FILE fake;
	unsigned char buf[BUFSIZ];

	/* copy the important variables */
	fake._flags = fp->_flags & ~__SNBF;
   44e10:	80c0030b 	ldhu	r3,12(r16)
   44e14:	00bfff44 	movi	r2,-3
   44e18:	1884703a 	and	r2,r3,r2
   44e1c:	e0bee50d 	sth	r2,-1132(fp)
	fake._flags2 = fp->_flags2;
   44e20:	80801917 	ldw	r2,100(r16)
   44e24:	e0befb15 	stw	r2,-1044(fp)
	fake._file = fp->_file;
   44e28:	8080038b 	ldhu	r2,14(r16)
   44e2c:	e0bee58d 	sth	r2,-1130(fp)
	fake._cookie = fp->_cookie;
   44e30:	80800717 	ldw	r2,28(r16)
   44e34:	e0bee915 	stw	r2,-1116(fp)
	fake._write = fp->_write;
   44e38:	80800917 	ldw	r2,36(r16)
   44e3c:	e0beeb15 	stw	r2,-1108(fp)

	/* set up the buffer */
	fake._bf._base = fake._p = buf;
   44e40:	e0befc04 	addi	r2,fp,-1040
   44e44:	e0bee215 	stw	r2,-1144(fp)
   44e48:	e0bee217 	ldw	r2,-1144(fp)
   44e4c:	e0bee615 	stw	r2,-1128(fp)
	fake._bf._size = fake._w = sizeof (buf);
   44e50:	00810004 	movi	r2,1024
   44e54:	e0bee415 	stw	r2,-1136(fp)
   44e58:	e0bee417 	ldw	r2,-1136(fp)
   44e5c:	e0bee715 	stw	r2,-1124(fp)
	fake._lbfsize = 0;	/* not actually used, but Just In Case */
   44e60:	e03ee815 	stw	zero,-1120(fp)
#ifndef __SINGLE_THREAD__
	__lock_init_recursive (fake._lock);
#endif

	/* do the work, then copy any error status */
	ret = _VFPRINTF_R (rptr, &fake, fmt, ap);
   44e64:	e0bee204 	addi	r2,fp,-1144
   44e68:	e1fffe17 	ldw	r7,-8(fp)
   44e6c:	e1bffd17 	ldw	r6,-12(fp)
   44e70:	100b883a 	mov	r5,r2
   44e74:	e13ffc17 	ldw	r4,-16(fp)
   44e78:	0044f2c0 	call	44f2c <___vfprintf_internal_r>
   44e7c:	e0bee115 	stw	r2,-1148(fp)
	if (ret >= 0 && _fflush_r (rptr, &fake))
   44e80:	e0bee117 	ldw	r2,-1148(fp)
   44e84:	10000716 	blt	r2,zero,44ea4 <__sbprintf+0xb8>
   44e88:	e0bee204 	addi	r2,fp,-1144
   44e8c:	100b883a 	mov	r5,r2
   44e90:	e13ffc17 	ldw	r4,-16(fp)
   44e94:	00497400 	call	49740 <_fflush_r>
   44e98:	10000226 	beq	r2,zero,44ea4 <__sbprintf+0xb8>
		ret = EOF;
   44e9c:	00bfffc4 	movi	r2,-1
   44ea0:	e0bee115 	stw	r2,-1148(fp)
	if (fake._flags & __SERR)
   44ea4:	e0bee50b 	ldhu	r2,-1132(fp)
   44ea8:	10bfffcc 	andi	r2,r2,65535
   44eac:	1080100c 	andi	r2,r2,64
   44eb0:	10000326 	beq	r2,zero,44ec0 <__sbprintf+0xd4>
		fp->_flags |= __SERR;
   44eb4:	8080030b 	ldhu	r2,12(r16)
   44eb8:	10801014 	ori	r2,r2,64
   44ebc:	8080030d 	sth	r2,12(r16)

#ifndef __SINGLE_THREAD__
	__lock_close_recursive (fake._lock);
#endif
	return (ret);
   44ec0:	e0bee117 	ldw	r2,-1148(fp)
}
   44ec4:	e6ffff04 	addi	sp,fp,-4
   44ec8:	dfc00217 	ldw	ra,8(sp)
   44ecc:	df000117 	ldw	fp,4(sp)
   44ed0:	dc000017 	ldw	r16,0(sp)
   44ed4:	dec00304 	addi	sp,sp,12
   44ed8:	f800283a 	ret

00044edc <__vfprintf_internal>:
int
_DEFUN(VFPRINTF, (fp, fmt0, ap),
       FILE * fp         _AND
       _CONST char *fmt0 _AND
       va_list ap)
{
   44edc:	defffa04 	addi	sp,sp,-24
   44ee0:	dfc00515 	stw	ra,20(sp)
   44ee4:	df000415 	stw	fp,16(sp)
   44ee8:	df000404 	addi	fp,sp,16
   44eec:	e13ffd15 	stw	r4,-12(fp)
   44ef0:	e17ffe15 	stw	r5,-8(fp)
   44ef4:	e1bfff15 	stw	r6,-4(fp)
  int result;
  result = _VFPRINTF_R (_REENT, fp, fmt0, ap);
   44ef8:	d0a00517 	ldw	r2,-32748(gp)
   44efc:	e1ffff17 	ldw	r7,-4(fp)
   44f00:	e1bffe17 	ldw	r6,-8(fp)
   44f04:	e17ffd17 	ldw	r5,-12(fp)
   44f08:	1009883a 	mov	r4,r2
   44f0c:	0044f2c0 	call	44f2c <___vfprintf_internal_r>
   44f10:	e0bffc15 	stw	r2,-16(fp)
  return result;
   44f14:	e0bffc17 	ldw	r2,-16(fp)
}
   44f18:	e037883a 	mov	sp,fp
   44f1c:	dfc00117 	ldw	ra,4(sp)
   44f20:	df000017 	ldw	fp,0(sp)
   44f24:	dec00204 	addi	sp,sp,8
   44f28:	f800283a 	ret

00044f2c <___vfprintf_internal_r>:
_DEFUN(_VFPRINTF_R, (data, fp, fmt0, ap),
       struct _reent *data _AND
       FILE * fp           _AND
       _CONST char *fmt0   _AND
       va_list ap)
{
   44f2c:	deffa404 	addi	sp,sp,-368
   44f30:	dfc05b15 	stw	ra,364(sp)
   44f34:	df005a15 	stw	fp,360(sp)
   44f38:	ddc05915 	stw	r23,356(sp)
   44f3c:	dd805815 	stw	r22,352(sp)
   44f40:	dd405715 	stw	r21,348(sp)
   44f44:	dd005615 	stw	r20,344(sp)
   44f48:	dcc05515 	stw	r19,340(sp)
   44f4c:	dc805415 	stw	r18,336(sp)
   44f50:	dc405315 	stw	r17,332(sp)
   44f54:	dc005215 	stw	r16,328(sp)
   44f58:	df005a04 	addi	fp,sp,360
   44f5c:	e13fe615 	stw	r4,-104(fp)
   44f60:	e17fe715 	stw	r5,-100(fp)
   44f64:	e1bfe815 	stw	r6,-96(fp)
   44f68:	e1ffe915 	stw	r7,-92(fp)
	char *thousands_sep = NULL;
	size_t thsnd_len = 0;
	const char *grouping = NULL;
#endif
#ifdef FLOATING_POINT
	char *decimal_point = _localeconv_r (data)->decimal_point;
   44f6c:	e13fe617 	ldw	r4,-104(fp)
   44f70:	004add00 	call	4add0 <_localeconv_r>
   44f74:	10800017 	ldw	r2,0(r2)
   44f78:	e0bfbb15 	stw	r2,-276(fp)
	size_t decp_len = strlen (decimal_point);
   44f7c:	e13fbb17 	ldw	r4,-276(fp)
   44f80:	0044cf80 	call	44cf8 <strlen>
   44f84:	e0bfbc15 	stw	r2,-272(fp)
	char softsign;		/* temporary negative sign for floats */
	union { int i; _PRINTF_FLOAT_TYPE fp; } _double_ = {0};
   44f88:	e03fc215 	stw	zero,-248(fp)
   44f8c:	e03fc315 	stw	zero,-244(fp)
# define _fpvalue (_double_.fp)
	int expt;		/* integer value of exponent */
	int expsize = 0;	/* character count for expstr */
   44f90:	e03faf15 	stw	zero,-324(fp)
	char expstr[MAXEXPLEN];	/* buffer for exponent string */
	int lead;		/* sig figs before decimal or group sep */
#endif /* FLOATING_POINT */
#if defined (FLOATING_POINT) || defined (_WANT_IO_C99_FORMATS)
	int ndig = 0;		/* actual number of digits returned by cvt */
   44f94:	e03fc715 	stw	zero,-228(fp)
	u_quad_t _uquad;	/* integer arguments %[diouxX] */
	enum { OCT, DEC, HEX } base;/* base for [diouxX] conversion */
	int dprec;		/* a copy of prec if [diouxX], 0 otherwise */
	int realsz;		/* field size expanded by dprec */
	int size;		/* size of converted field or string */
	char *xdigs = NULL;	/* digits for [xX] conversion */
   44f98:	e03fb715 	stw	zero,-292(fp)
	char ox[2];		/* space for 0x hex-prefix */
#ifdef _MB_CAPABLE
	wchar_t wc;
	mbstate_t state;        /* mbtowc calls from library must not change state */
#endif
	char *malloc_buf = NULL;/* handy pointer for malloced buffers */
   44f9c:	e03fb815 	stw	zero,-288(fp)
	    (u_long)GET_ARG (N, ap, u_int))
#endif

#ifndef STRING_ONLY
	/* Initialize std streams if not dealing with sprintf family.  */
	CHECK_INIT (data, fp);
   44fa0:	e0bfe617 	ldw	r2,-104(fp)
   44fa4:	e0bfbd15 	stw	r2,-268(fp)
   44fa8:	e0bfbd17 	ldw	r2,-268(fp)
   44fac:	10000526 	beq	r2,zero,44fc4 <___vfprintf_internal_r+0x98>
   44fb0:	e0bfbd17 	ldw	r2,-268(fp)
   44fb4:	10800e17 	ldw	r2,56(r2)
   44fb8:	1000021e 	bne	r2,zero,44fc4 <___vfprintf_internal_r+0x98>
   44fbc:	e13fbd17 	ldw	r4,-268(fp)
   44fc0:	0049bd80 	call	49bd8 <__sinit>
	_newlib_flockfile_start (fp);

	ORIENT(fp, -1);
   44fc4:	e0bfe717 	ldw	r2,-100(fp)
   44fc8:	1080030b 	ldhu	r2,12(r2)
   44fcc:	10bfffcc 	andi	r2,r2,65535
   44fd0:	1088000c 	andi	r2,r2,8192
   44fd4:	10000c1e 	bne	r2,zero,45008 <___vfprintf_internal_r+0xdc>
   44fd8:	e0bfe717 	ldw	r2,-100(fp)
   44fdc:	1080030b 	ldhu	r2,12(r2)
   44fe0:	10880014 	ori	r2,r2,8192
   44fe4:	1007883a 	mov	r3,r2
   44fe8:	e0bfe717 	ldw	r2,-100(fp)
   44fec:	10c0030d 	sth	r3,12(r2)
   44ff0:	e0bfe717 	ldw	r2,-100(fp)
   44ff4:	10c01917 	ldw	r3,100(r2)
   44ff8:	00b7ffc4 	movi	r2,-8193
   44ffc:	1886703a 	and	r3,r3,r2
   45000:	e0bfe717 	ldw	r2,-100(fp)
   45004:	10c01915 	stw	r3,100(r2)

	/* sorry, fprintf(read_only_file, "") returns EOF, not 0 */
	if (cantwrite (data, fp)) {
   45008:	e0bfe717 	ldw	r2,-100(fp)
   4500c:	1080030b 	ldhu	r2,12(r2)
   45010:	10bfffcc 	andi	r2,r2,65535
   45014:	1080020c 	andi	r2,r2,8
   45018:	10000326 	beq	r2,zero,45028 <___vfprintf_internal_r+0xfc>
   4501c:	e0bfe717 	ldw	r2,-100(fp)
   45020:	10800417 	ldw	r2,16(r2)
   45024:	1000061e 	bne	r2,zero,45040 <___vfprintf_internal_r+0x114>
   45028:	e17fe717 	ldw	r5,-100(fp)
   4502c:	e13fe617 	ldw	r4,-104(fp)
   45030:	00473600 	call	47360 <__swsetup_r>
   45034:	10000226 	beq	r2,zero,45040 <___vfprintf_internal_r+0x114>
		_newlib_flockfile_exit (fp);
		return (EOF);
   45038:	00bfffc4 	movi	r2,-1
   4503c:	0007e806 	br	46fe0 <___vfprintf_internal_r+0x20b4>
	}

#ifdef _UNBUF_STREAM_OPT
	/* optimise fprintf(stderr) (and other unbuffered Unix files) */
	if ((fp->_flags & (__SNBF|__SWR|__SRW)) == (__SNBF|__SWR) &&
   45040:	e0bfe717 	ldw	r2,-100(fp)
   45044:	1080030b 	ldhu	r2,12(r2)
   45048:	10bfffcc 	andi	r2,r2,65535
   4504c:	1080068c 	andi	r2,r2,26
   45050:	10800298 	cmpnei	r2,r2,10
   45054:	10000c1e 	bne	r2,zero,45088 <___vfprintf_internal_r+0x15c>
	    fp->_file >= 0) {
   45058:	e0bfe717 	ldw	r2,-100(fp)
   4505c:	1080038b 	ldhu	r2,14(r2)
		return (EOF);
	}

#ifdef _UNBUF_STREAM_OPT
	/* optimise fprintf(stderr) (and other unbuffered Unix files) */
	if ((fp->_flags & (__SNBF|__SWR|__SRW)) == (__SNBF|__SWR) &&
   45060:	10bfffcc 	andi	r2,r2,65535
   45064:	10a0001c 	xori	r2,r2,32768
   45068:	10a00004 	addi	r2,r2,-32768
   4506c:	10000616 	blt	r2,zero,45088 <___vfprintf_internal_r+0x15c>
	    fp->_file >= 0) {
		_newlib_flockfile_exit (fp);
		return (__sbprintf (data, fp, fmt0, ap));
   45070:	e1ffe917 	ldw	r7,-92(fp)
   45074:	e1bfe817 	ldw	r6,-96(fp)
   45078:	e17fe717 	ldw	r5,-100(fp)
   4507c:	e13fe617 	ldw	r4,-104(fp)
   45080:	0044dec0 	call	44dec <__sbprintf>
   45084:	0007d606 	br	46fe0 <___vfprintf_internal_r+0x20b4>
		}
		fp->_bf._size = 64;
        }
#endif /* STRING_ONLY */

	fmt = (char *)fmt0;
   45088:	e57fe817 	ldw	r21,-96(fp)
#ifdef _FVWRITE_IN_STREAMIO
	uio.uio_iov = iovp = iov;
   4508c:	e47fcb04 	addi	r17,fp,-212
   45090:	e47fc815 	stw	r17,-224(fp)
	uio.uio_resid = 0;
   45094:	e03fca15 	stw	zero,-216(fp)
	uio.uio_iovcnt = 0;
   45098:	e03fc915 	stw	zero,-220(fp)
#endif
	ret = 0;
   4509c:	e03fac15 	stw	zero,-336(fp)

	/*
	 * Scan the format for conversions (`%' character).
	 */
	for (;;) {
	        cp = fmt;
   450a0:	a825883a 	mov	r18,r21
                    else if (wc == '%')
                        break;
                    fmt += n;
		}
#else
                while (*fmt != '\0' && *fmt != '%')
   450a4:	00000106 	br	450ac <___vfprintf_internal_r+0x180>
                    fmt += 1;
   450a8:	ad400044 	addi	r21,r21,1
                    else if (wc == '%')
                        break;
                    fmt += n;
		}
#else
                while (*fmt != '\0' && *fmt != '%')
   450ac:	a8800003 	ldbu	r2,0(r21)
   450b0:	10803fcc 	andi	r2,r2,255
   450b4:	1080201c 	xori	r2,r2,128
   450b8:	10bfe004 	addi	r2,r2,-128
   450bc:	10000626 	beq	r2,zero,450d8 <___vfprintf_internal_r+0x1ac>
   450c0:	a8800003 	ldbu	r2,0(r21)
   450c4:	10803fcc 	andi	r2,r2,255
   450c8:	1080201c 	xori	r2,r2,128
   450cc:	10bfe004 	addi	r2,r2,-128
   450d0:	10800958 	cmpnei	r2,r2,37
   450d4:	103ff41e 	bne	r2,zero,450a8 <_gp+0xfffe602c>
                    fmt += 1;
#endif
		if ((m = fmt - cp) != 0) {
   450d8:	a807883a 	mov	r3,r21
   450dc:	9005883a 	mov	r2,r18
   450e0:	18a1c83a 	sub	r16,r3,r2
   450e4:	80001826 	beq	r16,zero,45148 <___vfprintf_internal_r+0x21c>
			PRINT (cp, m);
   450e8:	8c800015 	stw	r18,0(r17)
   450ec:	8005883a 	mov	r2,r16
   450f0:	88800115 	stw	r2,4(r17)
   450f4:	e0bfca17 	ldw	r2,-216(fp)
   450f8:	8007883a 	mov	r3,r16
   450fc:	10c5883a 	add	r2,r2,r3
   45100:	e0bfca15 	stw	r2,-216(fp)
   45104:	8c400204 	addi	r17,r17,8
   45108:	e0bfc917 	ldw	r2,-220(fp)
   4510c:	10800044 	addi	r2,r2,1
   45110:	e0bfc915 	stw	r2,-220(fp)
   45114:	e0bfc917 	ldw	r2,-220(fp)
   45118:	10800210 	cmplti	r2,r2,8
   4511c:	1000071e 	bne	r2,zero,4513c <___vfprintf_internal_r+0x210>
   45120:	e0bfc804 	addi	r2,fp,-224
   45124:	100d883a 	mov	r6,r2
   45128:	e17fe717 	ldw	r5,-100(fp)
   4512c:	e13fe617 	ldw	r4,-104(fp)
   45130:	004f28c0 	call	4f28c <__sprint_r>
   45134:	1007531e 	bne	r2,zero,46e84 <___vfprintf_internal_r+0x1f58>
   45138:	e47fcb04 	addi	r17,fp,-212
			ret += m;
   4513c:	e0bfac17 	ldw	r2,-336(fp)
   45140:	1405883a 	add	r2,r2,r16
   45144:	e0bfac15 	stw	r2,-336(fp)
		}
#ifdef _MB_CAPABLE
		if (n <= 0)
                    goto done;
#else
                if (*fmt == '\0')
   45148:	a8800003 	ldbu	r2,0(r21)
   4514c:	10803fcc 	andi	r2,r2,255
   45150:	1080201c 	xori	r2,r2,128
   45154:	10bfe004 	addi	r2,r2,-128
   45158:	10073c26 	beq	r2,zero,46e4c <___vfprintf_internal_r+0x1f20>
                    goto done;
#endif
		fmt_anchor = fmt;
   4515c:	e57fbe15 	stw	r21,-264(fp)
		fmt++;		/* skip over '%' */
   45160:	ad400044 	addi	r21,r21,1

		flags = 0;
   45164:	0027883a 	mov	r19,zero
		dprec = 0;
   45168:	e03fb415 	stw	zero,-304(fp)
		width = 0;
   4516c:	e03fad15 	stw	zero,-332(fp)
		prec = -1;
   45170:	00bfffc4 	movi	r2,-1
   45174:	e0bfae15 	stw	r2,-328(fp)
		sign = '\0';
   45178:	e03fc105 	stb	zero,-252(fp)
#ifdef FLOATING_POINT
		lead = 0;
   4517c:	e03fb015 	stw	zero,-320(fp)
#ifndef _NO_POS_ARGS
		N = arg_index;
		is_pos_arg = 0;
#endif

rflag:		ch = *fmt++;
   45180:	a805883a 	mov	r2,r21
   45184:	15400044 	addi	r21,r2,1
   45188:	10800003 	ldbu	r2,0(r2)
   4518c:	15003fcc 	andi	r20,r2,255
   45190:	a500201c 	xori	r20,r20,128
   45194:	a53fe004 	addi	r20,r20,-128
reswitch:	switch (ch) {
   45198:	a0bff804 	addi	r2,r20,-32
   4519c:	10c01668 	cmpgeui	r3,r2,89
   451a0:	18034f1e 	bne	r3,zero,45ee0 <___vfprintf_internal_r+0xfb4>
   451a4:	100690ba 	slli	r3,r2,2
   451a8:	00800134 	movhi	r2,4
   451ac:	10946f04 	addi	r2,r2,20924
   451b0:	1885883a 	add	r2,r3,r2
   451b4:	10800017 	ldw	r2,0(r2)
   451b8:	1000683a 	jmp	r2
   451bc:	00045320 	cmpeqi	zero,zero,4428
   451c0:	00045ee0 	cmpeqi	zero,zero,4475
   451c4:	00045ee0 	cmpeqi	zero,zero,4475
   451c8:	00045340 	call	4534 <__alt_mem_MemoriaDados+0x4534>
   451cc:	00045ee0 	cmpeqi	zero,zero,4475
   451d0:	00045ee0 	cmpeqi	zero,zero,4475
   451d4:	00045ee0 	cmpeqi	zero,zero,4475
   451d8:	00045ee0 	cmpeqi	zero,zero,4475
   451dc:	00045ee0 	cmpeqi	zero,zero,4475
   451e0:	00045ee0 	cmpeqi	zero,zero,4475
   451e4:	00045348 	cmpgei	zero,zero,4429
   451e8:	0004537c 	xorhi	zero,zero,4429
   451ec:	00045ee0 	cmpeqi	zero,zero,4475
   451f0:	00045374 	movhi	zero,4429
   451f4:	00045388 	cmpgei	zero,zero,4430
   451f8:	00045ee0 	cmpeqi	zero,zero,4475
   451fc:	00045428 	cmpgeui	zero,zero,4432
   45200:	00045430 	cmpltui	zero,zero,4432
   45204:	00045430 	cmpltui	zero,zero,4432
   45208:	00045430 	cmpltui	zero,zero,4432
   4520c:	00045430 	cmpltui	zero,zero,4432
   45210:	00045430 	cmpltui	zero,zero,4432
   45214:	00045430 	cmpltui	zero,zero,4432
   45218:	00045430 	cmpltui	zero,zero,4432
   4521c:	00045430 	cmpltui	zero,zero,4432
   45220:	00045430 	cmpltui	zero,zero,4432
   45224:	00045ee0 	cmpeqi	zero,zero,4475
   45228:	00045ee0 	cmpeqi	zero,zero,4475
   4522c:	00045ee0 	cmpeqi	zero,zero,4475
   45230:	00045ee0 	cmpeqi	zero,zero,4475
   45234:	00045ee0 	cmpeqi	zero,zero,4475
   45238:	00045ee0 	cmpeqi	zero,zero,4475
   4523c:	00045ee0 	cmpeqi	zero,zero,4475
   45240:	00045ee0 	cmpeqi	zero,zero,4475
   45244:	00045ee0 	cmpeqi	zero,zero,4475
   45248:	00045ee0 	cmpeqi	zero,zero,4475
   4524c:	000454e4 	muli	zero,zero,4435
   45250:	000455e4 	muli	zero,zero,4439
   45254:	00045ee0 	cmpeqi	zero,zero,4475
   45258:	000455e4 	muli	zero,zero,4439
   4525c:	00045ee0 	cmpeqi	zero,zero,4475
   45260:	00045ee0 	cmpeqi	zero,zero,4475
   45264:	00045ee0 	cmpeqi	zero,zero,4475
   45268:	00045ee0 	cmpeqi	zero,zero,4475
   4526c:	00045478 	rdprs	zero,zero,4433
   45270:	00045ee0 	cmpeqi	zero,zero,4475
   45274:	00045ee0 	cmpeqi	zero,zero,4475
   45278:	00045980 	call	4598 <__alt_mem_MemoriaDados+0x4598>
   4527c:	00045ee0 	cmpeqi	zero,zero,4475
   45280:	00045ee0 	cmpeqi	zero,zero,4475
   45284:	00045ee0 	cmpeqi	zero,zero,4475
   45288:	00045ee0 	cmpeqi	zero,zero,4475
   4528c:	00045ee0 	cmpeqi	zero,zero,4475
   45290:	00045afc 	xorhi	zero,zero,4459
   45294:	00045ee0 	cmpeqi	zero,zero,4475
   45298:	00045ee0 	cmpeqi	zero,zero,4475
   4529c:	00045bbc 	xorhi	zero,zero,4462
   452a0:	00045ee0 	cmpeqi	zero,zero,4475
   452a4:	00045ee0 	cmpeqi	zero,zero,4475
   452a8:	00045ee0 	cmpeqi	zero,zero,4475
   452ac:	00045ee0 	cmpeqi	zero,zero,4475
   452b0:	00045ee0 	cmpeqi	zero,zero,4475
   452b4:	00045ee0 	cmpeqi	zero,zero,4475
   452b8:	00045ee0 	cmpeqi	zero,zero,4475
   452bc:	00045ee0 	cmpeqi	zero,zero,4475
   452c0:	00045ee0 	cmpeqi	zero,zero,4475
   452c4:	00045ee0 	cmpeqi	zero,zero,4475
   452c8:	000454bc 	xorhi	zero,zero,4434
   452cc:	000454e8 	cmpgeui	zero,zero,4435
   452d0:	000455e4 	muli	zero,zero,4439
   452d4:	000455e4 	muli	zero,zero,4439
   452d8:	000455e4 	muli	zero,zero,4439
   452dc:	00045480 	call	4548 <__alt_mem_MemoriaDados+0x4548>
   452e0:	000454e8 	cmpgeui	zero,zero,4435
   452e4:	00045ee0 	cmpeqi	zero,zero,4475
   452e8:	00045ee0 	cmpeqi	zero,zero,4475
   452ec:	00045488 	cmpgei	zero,zero,4434
   452f0:	00045ee0 	cmpeqi	zero,zero,4475
   452f4:	000458e0 	cmpeqi	zero,zero,4451
   452f8:	00045984 	movi	zero,4454
   452fc:	00045a24 	muli	zero,zero,4456
   45300:	000454b4 	movhi	zero,4434
   45304:	00045ee0 	cmpeqi	zero,zero,4475
   45308:	00045a6c 	andhi	zero,zero,4457
   4530c:	00045ee0 	cmpeqi	zero,zero,4475
   45310:	00045b00 	call	45b0 <__alt_mem_MemoriaDados+0x45b0>
   45314:	00045ee0 	cmpeqi	zero,zero,4475
   45318:	00045ee0 	cmpeqi	zero,zero,4475
   4531c:	00045bcc 	andi	zero,zero,4463
			/*
			 * ``If the space and + flags both appear, the space
			 * flag will be ignored.''
			 *	-- ANSI X3J11
			 */
			if (!sign)
   45320:	e0bfc103 	ldbu	r2,-252(fp)
   45324:	10803fcc 	andi	r2,r2,255
   45328:	1080201c 	xori	r2,r2,128
   4532c:	10bfe004 	addi	r2,r2,-128
   45330:	103f931e 	bne	r2,zero,45180 <_gp+0xfffe6104>
				sign = ' ';
   45334:	00800804 	movi	r2,32
   45338:	e0bfc105 	stb	r2,-252(fp)
			goto rflag;
   4533c:	003f9006 	br	45180 <_gp+0xfffe6104>
		case '#':
			flags |= ALT;
   45340:	9cc00054 	ori	r19,r19,1
			goto rflag;
   45344:	003f8e06 	br	45180 <_gp+0xfffe6104>
			 * ``A negative field width argument is taken as a
			 * - flag followed by a positive field width.''
			 *	-- ANSI X3J11
			 * They don't exclude field widths read from args.
			 */
			width = GET_ARG (n, ap, int);
   45348:	e0bfe917 	ldw	r2,-92(fp)
   4534c:	10c00104 	addi	r3,r2,4
   45350:	e0ffe915 	stw	r3,-92(fp)
   45354:	10800017 	ldw	r2,0(r2)
   45358:	e0bfad15 	stw	r2,-332(fp)
#ifndef _NO_POS_ARGS
			is_pos_arg = old_is_pos_arg;
#endif
			if (width >= 0)
   4535c:	e0bfad17 	ldw	r2,-332(fp)
   45360:	10000116 	blt	r2,zero,45368 <___vfprintf_internal_r+0x43c>
				goto rflag;
   45364:	003f8606 	br	45180 <_gp+0xfffe6104>
			width = -width;
   45368:	e0bfad17 	ldw	r2,-332(fp)
   4536c:	0085c83a 	sub	r2,zero,r2
   45370:	e0bfad15 	stw	r2,-332(fp)
			/* FALLTHROUGH */
		case '-':
			flags |= LADJUST;
   45374:	9cc00114 	ori	r19,r19,4
			goto rflag;
   45378:	003f8106 	br	45180 <_gp+0xfffe6104>
		case '+':
			sign = '+';
   4537c:	00800ac4 	movi	r2,43
   45380:	e0bfc105 	stb	r2,-252(fp)
			goto rflag;
   45384:	003f7e06 	br	45180 <_gp+0xfffe6104>
		case '.':
			if ((ch = *fmt++) == '*') {
   45388:	a805883a 	mov	r2,r21
   4538c:	15400044 	addi	r21,r2,1
   45390:	10800003 	ldbu	r2,0(r2)
   45394:	15003fcc 	andi	r20,r2,255
   45398:	a500201c 	xori	r20,r20,128
   4539c:	a53fe004 	addi	r20,r20,-128
   453a0:	a0800a98 	cmpnei	r2,r20,42
   453a4:	10000a1e 	bne	r2,zero,453d0 <___vfprintf_internal_r+0x4a4>
						fmt = old_fmt;
						goto rflag;
					}
				}
#endif /* !_NO_POS_ARGS */
				prec = GET_ARG (n, ap, int);
   453a8:	e0bfe917 	ldw	r2,-92(fp)
   453ac:	10c00104 	addi	r3,r2,4
   453b0:	e0ffe915 	stw	r3,-92(fp)
   453b4:	10800017 	ldw	r2,0(r2)
   453b8:	e0bfae15 	stw	r2,-328(fp)
#ifndef _NO_POS_ARGS
				is_pos_arg = old_is_pos_arg;
#endif
				if (prec < 0)
   453bc:	e0bfae17 	ldw	r2,-328(fp)
   453c0:	103f6f0e 	bge	r2,zero,45180 <_gp+0xfffe6104>
					prec = -1;
   453c4:	00bfffc4 	movi	r2,-1
   453c8:	e0bfae15 	stw	r2,-328(fp)
				goto rflag;
   453cc:	003f6c06 	br	45180 <_gp+0xfffe6104>
			}
			n = 0;
   453d0:	0021883a 	mov	r16,zero
			while (is_digit (ch)) {
   453d4:	00000c06 	br	45408 <___vfprintf_internal_r+0x4dc>
				n = 10 * n + to_digit (ch);
   453d8:	01400284 	movi	r5,10
   453dc:	8009883a 	mov	r4,r16
   453e0:	00420700 	call	42070 <__mulsi3>
   453e4:	1007883a 	mov	r3,r2
   453e8:	a0bff404 	addi	r2,r20,-48
   453ec:	18a1883a 	add	r16,r3,r2
				ch = *fmt++;
   453f0:	a805883a 	mov	r2,r21
   453f4:	15400044 	addi	r21,r2,1
   453f8:	10800003 	ldbu	r2,0(r2)
   453fc:	15003fcc 	andi	r20,r2,255
   45400:	a500201c 	xori	r20,r20,128
   45404:	a53fe004 	addi	r20,r20,-128
				if (prec < 0)
					prec = -1;
				goto rflag;
			}
			n = 0;
			while (is_digit (ch)) {
   45408:	a0bff404 	addi	r2,r20,-48
   4540c:	108002b0 	cmpltui	r2,r2,10
   45410:	103ff11e 	bne	r2,zero,453d8 <_gp+0xfffe635c>
				n = 10 * n + to_digit (ch);
				ch = *fmt++;
			}
			prec = n < 0 ? -1 : n;
   45414:	8005883a 	mov	r2,r16
   45418:	1000010e 	bge	r2,zero,45420 <___vfprintf_internal_r+0x4f4>
   4541c:	00bfffc4 	movi	r2,-1
   45420:	e0bfae15 	stw	r2,-328(fp)
			goto reswitch;
   45424:	003f5c06 	br	45198 <_gp+0xfffe611c>
			/*
			 * ``Note that 0 is taken as a flag, not as the
			 * beginning of a field width.''
			 *	-- ANSI X3J11
			 */
			flags |= ZEROPAD;
   45428:	9cc02014 	ori	r19,r19,128
			goto rflag;
   4542c:	003f5406 	br	45180 <_gp+0xfffe6104>
		case '1': case '2': case '3': case '4':
		case '5': case '6': case '7': case '8': case '9':
			n = 0;
   45430:	0021883a 	mov	r16,zero
			do {
				n = 10 * n + to_digit (ch);
