
SoftwareRansac.elf:     file format elf32-littlenios2
SoftwareRansac.elf
architecture: nios2:r1, flags 0x00000112:
EXEC_P, HAS_SYMS, D_PAGED
start address 0x00040230

Program Header:
    LOAD off    0x00001000 vaddr 0x00040000 paddr 0x00040000 align 2**12
         filesz 0x00000020 memsz 0x00000020 flags r-x
    LOAD off    0x00001020 vaddr 0x00040020 paddr 0x00040020 align 2**12
         filesz 0x000130a0 memsz 0x000130a0 flags r-x
    LOAD off    0x000140c0 vaddr 0x000530c0 paddr 0x0005518c align 2**12
         filesz 0x000020cc memsz 0x000020cc flags rw-
    LOAD off    0x00016258 vaddr 0x00057258 paddr 0x00057258 align 2**12
         filesz 0x00000000 memsz 0x00000160 flags rw-

Sections:
Idx Name          Size      VMA       LMA       File off  Algn
  0 .entry        00000020  00040000  00040000  00001000  2**5
                  CONTENTS, ALLOC, LOAD, READONLY, CODE
  1 .exceptions   00000210  00040020  00040020  00001020  2**2
                  CONTENTS, ALLOC, LOAD, READONLY, CODE
  2 .text         00012b1c  00040230  00040230  00001230  2**2
                  CONTENTS, ALLOC, LOAD, READONLY, CODE
  3 .rodata       00000374  00052d4c  00052d4c  00013d4c  2**2
                  CONTENTS, ALLOC, LOAD, READONLY, DATA
  4 .rwdata       000020cc  000530c0  0005518c  000140c0  2**2
                  CONTENTS, ALLOC, LOAD, DATA, SMALL_DATA
  5 .bss          00000160  00057258  00057258  00016258  2**2
                  ALLOC, SMALL_DATA
  6 .MemoriaDados 00000000  00000000  00000000  0001618c  2**0
                  CONTENTS
  7 .MemoriaPrograma 00000000  000573b8  000573b8  0001618c  2**0
                  CONTENTS
  8 .comment      00000023  00000000  00000000  0001618c  2**0
                  CONTENTS, READONLY
  9 .debug_aranges 000010a0  00000000  00000000  000161b0  2**3
                  CONTENTS, READONLY, DEBUGGING
 10 .debug_info   0002613e  00000000  00000000  00017250  2**0
                  CONTENTS, READONLY, DEBUGGING
 11 .debug_abbrev 0000a0c6  00000000  00000000  0003d38e  2**0
                  CONTENTS, READONLY, DEBUGGING
 12 .debug_line   0000c859  00000000  00000000  00047454  2**0
                  CONTENTS, READONLY, DEBUGGING
 13 .debug_frame  00002580  00000000  00000000  00053cb0  2**2
                  CONTENTS, READONLY, DEBUGGING
 14 .debug_str    00003f13  00000000  00000000  00056230  2**0
                  CONTENTS, READONLY, DEBUGGING
 15 .debug_loc    0001ae2b  00000000  00000000  0005a143  2**0
                  CONTENTS, READONLY, DEBUGGING
 16 .debug_alt_sim_info 00000010  00000000  00000000  00074f70  2**2
                  CONTENTS, READONLY, DEBUGGING
 17 .debug_ranges 00001f88  00000000  00000000  00074f80  2**3
                  CONTENTS, READONLY, DEBUGGING
 18 .thread_model 00000003  00000000  00000000  0007a45e  2**0
                  CONTENTS, READONLY
 19 .cpu          0000000b  00000000  00000000  0007a461  2**0
                  CONTENTS, READONLY
 20 .qsys         00000001  00000000  00000000  0007a46c  2**0
                  CONTENTS, READONLY
 21 .simulation_enabled 00000001  00000000  00000000  0007a46d  2**0
                  CONTENTS, READONLY
 22 .stderr_dev   00000009  00000000  00000000  0007a46e  2**0
                  CONTENTS, READONLY
 23 .stdin_dev    00000009  00000000  00000000  0007a477  2**0
                  CONTENTS, READONLY
 24 .stdout_dev   00000009  00000000  00000000  0007a480  2**0
                  CONTENTS, READONLY
 25 .sopc_system_name 00000010  00000000  00000000  0007a489  2**0
                  CONTENTS, READONLY
 26 .quartus_project_dir 0000001f  00000000  00000000  0007a499  2**0
                  CONTENTS, READONLY
 27 .jdi          0000567a  00000000  00000000  0007a4b8  2**0
                  CONTENTS, READONLY
 28 .sopcinfo     0003ccb5  00000000  00000000  0007fb32  2**0
                  CONTENTS, READONLY
SYMBOL TABLE:
00040000 l    d  .entry	00000000 .entry
00040020 l    d  .exceptions	00000000 .exceptions
00040230 l    d  .text	00000000 .text
00052d4c l    d  .rodata	00000000 .rodata
000530c0 l    d  .rwdata	00000000 .rwdata
00057258 l    d  .bss	00000000 .bss
00000000 l    d  .MemoriaDados	00000000 .MemoriaDados
000573b8 l    d  .MemoriaPrograma	00000000 .MemoriaPrograma
00000000 l    d  .comment	00000000 .comment
00000000 l    d  .debug_aranges	00000000 .debug_aranges
00000000 l    d  .debug_info	00000000 .debug_info
00000000 l    d  .debug_abbrev	00000000 .debug_abbrev
00000000 l    d  .debug_line	00000000 .debug_line
00000000 l    d  .debug_frame	00000000 .debug_frame
00000000 l    d  .debug_str	00000000 .debug_str
00000000 l    d  .debug_loc	00000000 .debug_loc
00000000 l    d  .debug_alt_sim_info	00000000 .debug_alt_sim_info
00000000 l    d  .debug_ranges	00000000 .debug_ranges
00000000 l    df *ABS*	00000000 ../SoftwareRansac_bsp//obj/HAL/src/crt0.o
00040268 l       .text	00000000 alt_after_alt_main
00000000 l    df *ABS*	00000000 alt_irq_handler.c
00000000 l    df *ABS*	00000000 alt_instruction_exception_entry.c
00000000 l    df *ABS*	00000000 main.c
00000000 l    df *ABS*	00000000 ransac.c
00000000 l    df *ABS*	00000000 s_atan.c
00052da8 l     O .rodata	00000020 atanhi
00052d88 l     O .rodata	00000020 atanlo
00000000 l    df *ABS*	00000000 s_fabs.c
00000000 l    df *ABS*	00000000 lib2-divmod.c
00000000 l    df *ABS*	00000000 lib2-mul.c
00000000 l    df *ABS*	00000000 addsf3.c
00000000 l    df *ABS*	00000000 divsf3.c
00000000 l    df *ABS*	00000000 eqsf2.c
00000000 l    df *ABS*	00000000 gesf2.c
00000000 l    df *ABS*	00000000 lesf2.c
00000000 l    df *ABS*	00000000 mulsf3.c
00000000 l    df *ABS*	00000000 subsf3.c
00000000 l    df *ABS*	00000000 fixsfsi.c
00000000 l    df *ABS*	00000000 floatsisf.c
00000000 l    df *ABS*	00000000 adddf3.c
00000000 l    df *ABS*	00000000 divdf3.c
00000000 l    df *ABS*	00000000 gedf2.c
00000000 l    df *ABS*	00000000 ledf2.c
00000000 l    df *ABS*	00000000 muldf3.c
00000000 l    df *ABS*	00000000 subdf3.c
00000000 l    df *ABS*	00000000 fixdfsi.c
00000000 l    df *ABS*	00000000 floatsidf.c
00000000 l    df *ABS*	00000000 extendsfdf2.c
00000000 l    df *ABS*	00000000 truncdfsf2.c
00000000 l    df *ABS*	00000000 libgcc2.c
00000000 l    df *ABS*	00000000 libgcc2.c
00000000 l    df *ABS*	00000000 printf.c
00000000 l    df *ABS*	00000000 puts.c
00000000 l    df *ABS*	00000000 rand.c
00000000 l    df *ABS*	00000000 strlen.c
00000000 l    df *ABS*	00000000 vfprintf.c
00052f0e l     O .rodata	00000010 zeroes.4404
0004848c l     F .text	000000bc __sbprintf
00052f1e l     O .rodata	00000010 blanks.4403
00000000 l    df *ABS*	00000000 wsetup.c
00000000 l    df *ABS*	00000000 dtoa.c
0004869c l     F .text	00000228 quorem
00000000 l    df *ABS*	00000000 fflush.c
00000000 l    df *ABS*	00000000 findfp.c
0004a1f4 l     F .text	00000008 __fp_unlock
0004a208 l     F .text	0000019c __sinit.part.1
0004a3a4 l     F .text	00000008 __fp_lock
00000000 l    df *ABS*	00000000 mallocr.c
00000000 l    df *ABS*	00000000 fvwrite.c
00000000 l    df *ABS*	00000000 fwalk.c
00000000 l    df *ABS*	00000000 impure.c
0005369c l     O .rwdata	00000424 impure_data
00000000 l    df *ABS*	00000000 locale.c
00053ae0 l     O .rwdata	00000020 lc_ctype_charset
00053ac0 l     O .rwdata	00000020 lc_message_charset
00053b00 l     O .rwdata	00000038 lconv
00000000 l    df *ABS*	00000000 makebuf.c
00000000 l    df *ABS*	00000000 mallocr.c
00000000 l    df *ABS*	00000000 memchr.c
00000000 l    df *ABS*	00000000 memcpy.c
00000000 l    df *ABS*	00000000 memmove.c
00000000 l    df *ABS*	00000000 memset.c
00000000 l    df *ABS*	00000000 mprec.c
00052f50 l     O .rodata	0000000c p05.2768
00000000 l    df *ABS*	00000000 mallocr.c
00000000 l    df *ABS*	00000000 s_fpclassify.c
00000000 l    df *ABS*	00000000 sbrkr.c
00000000 l    df *ABS*	00000000 stdio.c
00000000 l    df *ABS*	00000000 strcmp.c
00000000 l    df *ABS*	00000000 vfprintf.c
0004d878 l     F .text	000000fc __sprint_r.part.0
00053074 l     O .rodata	00000010 zeroes.4349
0004eeb4 l     F .text	000000bc __sbprintf
00053084 l     O .rodata	00000010 blanks.4348
00000000 l    df *ABS*	00000000 writer.c
00000000 l    df *ABS*	00000000 closer.c
00000000 l    df *ABS*	00000000 mallocr.c
00000000 l    df *ABS*	00000000 fclose.c
00000000 l    df *ABS*	00000000 fputwc.c
00000000 l    df *ABS*	00000000 fstatr.c
00000000 l    df *ABS*	00000000 int_errno.c
00000000 l    df *ABS*	00000000 isattyr.c
00000000 l    df *ABS*	00000000 lseekr.c
00000000 l    df *ABS*	00000000 readr.c
00000000 l    df *ABS*	00000000 wbuf.c
00000000 l    df *ABS*	00000000 wcrtomb.c
00000000 l    df *ABS*	00000000 wctomb_r.c
00000000 l    df *ABS*	00000000 libgcc2.c
00000000 l    df *ABS*	00000000 libgcc2.c
00000000 l    df *ABS*	00000000 libgcc2.c
00000000 l    df *ABS*	00000000 eqdf2.c
00000000 l    df *ABS*	00000000 floatunsidf.c
00000000 l    df *ABS*	00000000 alt_close.c
000506b8 l     F .text	0000003c alt_get_errno
00000000 l    df *ABS*	00000000 alt_dev.c
000507cc l     F .text	0000002c alt_dev_null_write
00000000 l    df *ABS*	00000000 alt_errno.c
00000000 l    df *ABS*	00000000 alt_fstat.c
000507f8 l     F .text	0000003c alt_get_errno
00000000 l    df *ABS*	00000000 alt_isatty.c
000508ec l     F .text	0000003c alt_get_errno
00000000 l    df *ABS*	00000000 alt_load.c
000509d4 l     F .text	00000068 alt_load_section
00000000 l    df *ABS*	00000000 alt_lseek.c
00050ac0 l     F .text	0000003c alt_get_errno
00000000 l    df *ABS*	00000000 alt_main.c
00000000 l    df *ABS*	00000000 alt_malloc_lock.c
00000000 l    df *ABS*	00000000 alt_read.c
00050c9c l     F .text	0000003c alt_get_errno
00000000 l    df *ABS*	00000000 alt_release_fd.c
00000000 l    df *ABS*	00000000 alt_sbrk.c
0005517c l     O .rwdata	00000004 heap_end
00000000 l    df *ABS*	00000000 alt_write.c
00050f10 l     F .text	0000003c alt_get_errno
00000000 l    df *ABS*	00000000 alt_sys_init.c
0005104c l     F .text	00000034 alt_dev_reg
000540e8 l     O .rwdata	00001060 jtag_uart
00000000 l    df *ABS*	00000000 altera_avalon_jtag_uart_fd.c
00000000 l    df *ABS*	00000000 altera_avalon_jtag_uart_init.c
00051324 l     F .text	0000020c altera_avalon_jtag_uart_irq
00051530 l     F .text	000000a0 altera_avalon_jtag_uart_timeout
00000000 l    df *ABS*	00000000 altera_avalon_jtag_uart_ioctl.c
00000000 l    df *ABS*	00000000 altera_avalon_jtag_uart_read.c
00000000 l    df *ABS*	00000000 altera_avalon_jtag_uart_write.c
00000000 l    df *ABS*	00000000 alt_alarm_start.c
00000000 l    df *ABS*	00000000 alt_dcache_flush_all.c
00000000 l    df *ABS*	00000000 alt_dev_llist_insert.c
00051cb4 l     F .text	0000003c alt_get_errno
00000000 l    df *ABS*	00000000 alt_do_ctors.c
00000000 l    df *ABS*	00000000 alt_do_dtors.c
00000000 l    df *ABS*	00000000 alt_icache_flush_all.c
00000000 l    df *ABS*	00000000 alt_iic.c
00000000 l    df *ABS*	00000000 alt_iic_isr_register.c
00000000 l    df *ABS*	00000000 alt_io_redirect.c
00052114 l     F .text	000000e4 alt_open_fd
00000000 l    df *ABS*	00000000 alt_irq_vars.c
00000000 l    df *ABS*	00000000 alt_open.c
00052274 l     F .text	0000003c alt_get_errno
000522b0 l     F .text	000000ec alt_file_locked
00000000 l    df *ABS*	00000000 alt_tick.c
00000000 l    df *ABS*	00000000 altera_nios2_gen2_irq.c
00000000 l    df *ABS*	00000000 alt_find_dev.c
00000000 l    df *ABS*	00000000 alt_find_file.c
00000000 l    df *ABS*	00000000 alt_get_fd.c
00000000 l    df *ABS*	00000000 atexit.c
00000000 l    df *ABS*	00000000 exit.c
00000000 l    df *ABS*	00000000 memcmp.c
00000000 l    df *ABS*	00000000 __atexit.c
00000000 l    df *ABS*	00000000 __call_atexit.c
00000000 l    df *ABS*	00000000 alt_exit.c
0005728c g     O .bss	00000004 alt_instruction_exception_handler
0004cebc g     F .text	00000074 _mprec_log10
0004cfa8 g     F .text	0000008c __any_on
0004f468 g     F .text	00000054 _isatty_r
00052f5c g     O .rodata	00000028 __mprec_tinytens
00050bd8 g     F .text	0000007c alt_main
00045fac g     F .text	000000c0 _puts_r
000572b8 g     O .bss	00000100 alt_irq
00041d78 g     F .text	00000014 fabs
0004f4bc g     F .text	00000060 _lseek_r
0005518c g       *ABS*	00000000 __flash_rwdata_start
00050588 g     F .text	00000088 .hidden __eqdf2
000573b8 g       *ABS*	00000000 __alt_heap_start
00045f70 g     F .text	0000003c printf
0004f6d4 g     F .text	0000009c _wcrtomb_r
0004d738 g     F .text	0000005c __sseek
0004a554 g     F .text	00000010 __sinit
0004f57c g     F .text	00000140 __swbuf_r
0004b028 g     F .text	0000007c _setlocale_r
0004a3ac g     F .text	00000078 __sfmoreglue
00050c78 g     F .text	00000024 __malloc_unlock
00040b00 g     F .text	000001b8 coefficientOfDetermination
00042430 g     F .text	00000440 .hidden __divsf3
0004bcf8 g     F .text	0000015c memmove
0004a53c g     F .text	00000018 _cleanup
0004bf7c g     F .text	000000a8 _Balloc
00043380 g     F .text	00000070 .hidden __fixsfsi
00044790 g     F .text	000000dc .hidden __gtdf2
0005269c g     F .text	00000024 altera_nios2_gen2_irq_init
00040000 g     F .entry	0000000c __reset
00040020 g       *ABS*	00000000 __flash_exceptions_start
00055149 g     O .rwdata	00000001 size_2
0004f40c g     F .text	0000005c _fstat_r
00057270 g     O .bss	00000004 errno
0004d6b4 g     F .text	00000008 __seofread
00057278 g     O .bss	00000004 alt_argv
0005d148 g       *ABS*	00000000 _gp
00042e9c g     F .text	000004e4 .hidden __subsf3
00053f68 g     O .rwdata	00000180 alt_fd_list
000526c0 g     F .text	00000090 alt_find_dev
0004bbb0 g     F .text	00000148 memcpy
0004a1fc g     F .text	0000000c _cleanup_r
00045b48 g     F .text	000000dc .hidden __floatsidf
00040680 g     F .text	00000104 calculateIntersection
000521f8 g     F .text	0000007c alt_io_redirect
0004486c g     F .text	000000f4 .hidden __ltdf2
00052d4c g       *ABS*	00000000 __DTOR_END__
0004606c g     F .text	00000014 puts
0005291c g     F .text	0000009c alt_exception_cause_generated_bad_addr
0004d598 g     F .text	00000074 __fpclassifyd
0004ce18 g     F .text	000000a4 __ratio
0004ee98 g     F .text	0000001c __vfiprintf_internal
00051728 g     F .text	0000021c altera_avalon_jtag_uart_read
00045f40 g     F .text	00000030 _printf_r
00041e84 g     F .text	00000064 .hidden __udivsi3
00050928 g     F .text	000000ac isatty
00052fac g     O .rodata	000000c8 __mprec_tens
0004b0a4 g     F .text	0000000c __locale_charset
000429a4 g     F .text	000000c8 .hidden __lesf2
0005726c g     O .bss	00000004 __malloc_top_pad
00055154 g     O .rwdata	00000004 __mb_cur_max
0004b0d4 g     F .text	0000000c _localeconv_r
0004c3b0 g     F .text	0000003c __i2b
0004a9d8 g     F .text	000004c8 __sfvwrite_r
00040cb8 g     F .text	00000320 inliersOutliersMemory
0004d60c g     F .text	00000054 _sbrk_r
00041444 g     F .text	000000a0 squareDistanceBetweenPoints
0004f51c g     F .text	00000060 _read_r
00055174 g     O .rwdata	00000004 alt_max_fd
0004f100 g     F .text	000000f0 _fclose_r
0004a1c4 g     F .text	00000030 fflush
00057268 g     O .bss	00000004 __malloc_max_sbrked_mem
00045c24 g     F .text	00000110 .hidden __extendsfdf2
00043514 g     F .text	000008ac .hidden __adddf3
00042870 g     F .text	00000078 .hidden __nesf2
0004cbc0 g     F .text	0000010c __b2d
0004ffc4 g     F .text	000005c4 .hidden __umoddi3
00050afc g     F .text	000000dc lseek
0005514c g     O .rwdata	00000004 _global_impure_ptr
0004d034 g     F .text	00000564 _realloc_r
000573b8 g       *ABS*	00000000 __bss_end
00052024 g     F .text	000000f0 alt_iic_isr_register
000414e4 g     F .text	0000030c RANSAC
00052594 g     F .text	00000108 alt_tick
0004f9c8 g     F .text	000005fc .hidden __udivdi3
0004f368 g     F .text	00000024 _fputwc_r
00052f84 g     O .rodata	00000028 __mprec_bigtens
0004c194 g     F .text	00000104 __s2b
00050610 g     F .text	000000a8 .hidden __floatunsidf
0004c900 g     F .text	00000060 __mcmp
0004a574 g     F .text	00000018 __fp_lock_all
00051fd8 g     F .text	0000004c alt_ic_irq_enabled
000524f8 g     F .text	0000009c alt_alarm_stop
00057280 g     O .bss	00000004 alt_irq_active
000400fc g     F .exceptions	000000d4 alt_irq_handler
00053f40 g     O .rwdata	00000028 alt_dev_null
00000000 g       *ABS*	00000000 __alt_mem_MemoriaDados
00051c94 g     F .text	00000020 alt_dcache_flush_all
0004c298 g     F .text	00000068 __hi0bits
00045ac8 g     F .text	00000080 .hidden __fixdfsi
0005518c g       *ABS*	00000000 __ram_rwdata_end
0005516c g     O .rwdata	00000008 alt_dev_list
00050f4c g     F .text	00000100 write
000428e8 g     F .text	000000bc .hidden __gtsf2
000530c0 g       *ABS*	00000000 __ram_rodata_end
00050834 g     F .text	000000b8 fstat
0004486c g     F .text	000000f4 .hidden __ledf2
0004c678 g     F .text	00000140 __pow5mult
0004d98c g     F .text	0000150c ___vfiprintf_internal_r
00057260 g     O .bss	00000004 __nlocale_changed
00041ee8 g     F .text	00000058 .hidden __umodsi3
000573b8 g       *ABS*	00000000 end
00040000 g       *ABS*	00000000 __alt_mem_MemoriaPrograma
00051264 g     F .text	000000c0 altera_avalon_jtag_uart_init
000401d0 g     F .exceptions	00000060 alt_instruction_exception_entry
00052d4c g       *ABS*	00000000 __CTOR_LIST__
0005c3c0 g       *ABS*	00000000 __alt_stack_pointer
00045edc g     F .text	00000064 .hidden __clzsi2
00051944 g     F .text	00000224 altera_avalon_jtag_uart_write
0004a564 g     F .text	00000004 __sfp_lock_acquire
0004bacc g     F .text	000000e4 memchr
00046194 g     F .text	000022dc ___vfprintf_internal_r
0004a6c8 g     F .text	00000310 _free_r
0004b0b0 g     F .text	00000010 __locale_mb_cur_max
00052b98 g     F .text	00000180 __call_exitprocs
0005725c g     O .bss	00000004 __mlocale_changed
00055158 g     O .rwdata	00000004 __malloc_sbrk_base
00040230 g     F .text	0000003c _start
00057284 g     O .bss	00000004 _alt_tick_rate
00046098 g     F .text	00000064 rand
0004c7b8 g     F .text	00000148 __lshift
00057288 g     O .bss	00000004 _alt_nticks
00050cd8 g     F .text	00000104 read
00055148 g     O .rwdata	00000001 size_1
000510b8 g     F .text	00000048 alt_sys_init
000433f0 g     F .text	00000124 .hidden __floatsisf
00052a80 g     F .text	00000118 __register_exitproc
0004c3ec g     F .text	0000028c __multiply
000515d0 g     F .text	00000068 altera_avalon_jtag_uart_close
00041f40 g     F .text	00000028 .hidden __mulsi3
000530c0 g       *ABS*	00000000 __ram_rwdata_start
00052d4c g       *ABS*	00000000 __ram_rodata_start
00057290 g     O .bss	00000028 __malloc_current_mallinfo
00042870 g     F .text	00000078 .hidden __eqsf2
0004cccc g     F .text	0000014c __d2b
00051100 g     F .text	00000060 altera_avalon_jtag_uart_read_fd
00052858 g     F .text	000000c4 alt_get_fd
0004efd0 g     F .text	00000054 _close_r
00052a04 g     F .text	0000007c memcmp
000511c0 g     F .text	00000050 altera_avalon_jtag_uart_close_fd
000573b8 g       *ABS*	00000000 __alt_stack_base
00051210 g     F .text	00000054 altera_avalon_jtag_uart_ioctl_fd
00040784 g     F .text	00000070 getAngleFromModel
00048548 g     F .text	00000154 __swsetup_r
00043dc0 g     F .text	000009d0 .hidden __divdf3
0004a424 g     F .text	00000118 __sfp
0004cf30 g     F .text	00000078 __copybits
00053b38 g     O .rwdata	00000408 __malloc_av_
0004a570 g     F .text	00000004 __sinit_lock_release
00044960 g     F .text	0000086c .hidden __muldf3
0004d660 g     F .text	00000054 __sread
00052750 g     F .text	00000108 alt_find_file
00051cf0 g     F .text	000000a4 alt_dev_llist_insert
00050c54 g     F .text	00000024 __malloc_lock
00050e60 g     F .text	000000b0 sbrk
0004a168 g     F .text	0000005c _fflush_r
0004f024 g     F .text	000000dc _calloc_r
00057258 g       *ABS*	00000000 __bss_start
0004be54 g     F .text	00000128 memset
0004026c g     F .text	00000360 main
0005727c g     O .bss	00000004 alt_envp
00057264 g     O .bss	00000004 __malloc_max_total_mem
00051160 g     F .text	00000060 altera_avalon_jtag_uart_write_fd
0004f6bc g     F .text	00000018 __swbuf
00046080 g     F .text	00000018 srand
000429a4 g     F .text	000000c8 .hidden __ltsf2
0004d794 g     F .text	00000008 __sclose
0005c3c0 g       *ABS*	00000000 __alt_heap_limit
0004f1f0 g     F .text	00000014 fclose
00045d34 g     F .text	000001a8 .hidden __truncdfsf2
000488c4 g     F .text	00001688 _dtoa_r
0004b2c0 g     F .text	0000080c _malloc_r
0004f830 g     F .text	00000030 __ascii_wctomb
000407f4 g     F .text	0000030c leastSquare
00055178 g     O .rwdata	00000004 alt_errno
0004aea0 g     F .text	000000c4 _fwalk
00041d8c g     F .text	00000084 .hidden __divsi3
0004a5a4 g     F .text	00000124 _malloc_trim_r
00052d4c g       *ABS*	00000000 __CTOR_END__
00042a6c g     F .text	00000430 .hidden __mulsf3
0004d79c g     F .text	000000dc strcmp
00052d4c g       *ABS*	00000000 __flash_rodata_start
00052d4c g       *ABS*	00000000 __DTOR_LIST__
00050588 g     F .text	00000088 .hidden __nedf2
00051080 g     F .text	00000038 alt_irq_init
00050ddc g     F .text	00000084 alt_release_fd
000417f0 g     F .text	00000588 atan
00052dc8 g     O .rodata	00000100 .hidden __clz_tab
00057258 g     O .bss	00000004 _PathLocale
000529b8 g     F .text	00000014 atexit
000428e8 g     F .text	000000bc .hidden __gesf2
0004ef70 g     F .text	00000060 _write_r
0004b0e0 g     F .text	00000018 setlocale
00055150 g     O .rwdata	00000004 _impure_ptr
00057274 g     O .bss	00000004 alt_argc
00049f4c g     F .text	0000021c __sflush_r
00051df4 g     F .text	00000060 _do_dtors
0004b0cc g     F .text	00000008 __locale_cjk_lang
00040020 g       .exceptions	00000000 alt_irq_entry
0004cb5c g     F .text	00000064 __ulp
0004a58c g     F .text	00000018 __fp_unlock_all
000531f4 g     O .rwdata	000004a8 coords_2
00055164 g     O .rwdata	00000008 alt_fs_list
00040fd8 g     F .text	0000026c inliersOutliers
00040020 g       *ABS*	00000000 __ram_exceptions_start
0004b0f8 g     F .text	0000000c localeconv
00051e74 g     F .text	00000050 alt_ic_isr_register
0005518c g       *ABS*	00000000 _edata
000530c0 g     O .rwdata	00000132 coords_1
000573b8 g       *ABS*	00000000 _end
0004f204 g     F .text	00000164 __fputwc
00040230 g       *ABS*	00000000 __ram_exceptions_end
00051638 g     F .text	000000f0 altera_avalon_jtag_uart_ioctl
000405cc g     F .text	000000b4 square_root
00041244 g     F .text	00000200 checkModel
00051f4c g     F .text	0000008c alt_ic_irq_disable
0004d6bc g     F .text	0000007c __swrite
0005515c g     O .rwdata	00000004 __malloc_trim_threshold
0004b0c0 g     F .text	0000000c __locale_msgcharset
000529cc g     F .text	00000038 exit
0004af64 g     F .text	000000c4 _fwalk_reent
0004c960 g     F .text	000001fc __mdiff
00041e10 g     F .text	00000074 .hidden __modsi3
0005c3c0 g       *ABS*	00000000 __alt_data_end
00040020 g     F .exceptions	00000000 alt_exception
0004a568 g     F .text	00000004 __sfp_lock_release
00052d18 g     F .text	00000034 _exit
00051b68 g     F .text	0000012c alt_alarm_start
0004f8bc g     F .text	0000010c .hidden __muldi3
0004b104 g     F .text	000001bc __smakebuf_r
000460fc g     F .text	00000098 strlen
0005239c g     F .text	0000015c open
00044790 g     F .text	000000dc .hidden __gedf2
00055160 g     O .rwdata	00000004 __wctomb
0004d974 g     F .text	00000018 __sprint_r
00051e54 g     F .text	00000020 alt_icache_flush_all
00055180 g     O .rwdata	00000004 alt_priority_mask
00051ec4 g     F .text	00000088 alt_ic_irq_enable
00048470 g     F .text	0000001c __vfprintf_internal
0004f860 g     F .text	0000005c _wctomb_r
000451cc g     F .text	000008fc .hidden __subdf3
0004c300 g     F .text	000000b0 __lo0bits
00055184 g     O .rwdata	00000008 alt_alarm_list
00051d94 g     F .text	00000060 _do_ctors
0004f770 g     F .text	000000c0 wcrtomb
000506f4 g     F .text	000000d8 close
00041f68 g     F .text	000004c8 .hidden __addsf3
00050a3c g     F .text	00000084 alt_load
0004f38c g     F .text	00000080 fputwc
0004a56c g     F .text	00000004 __sinit_lock_acquire
0004c04c g     F .text	00000148 __multadd
0004c024 g     F .text	00000028 _Bfree



Disassembly of section .entry:

00040000 <__reset>:
 * Jump to the _start entry point in the .text section if reset code
 * is allowed or if optimizing for RTL simulation.
 */
#if defined(ALT_ALLOW_CODE_AT_RESET) || defined(ALT_SIM_OPTIMIZE)
    /* Jump to the _start entry point in the .text section. */
    movhi r1, %hi(_start)
   40000:	00400134 	movhi	at,4
    ori r1, r1, %lo(_start)
   40004:	08408c14 	ori	at,at,560
    jmp r1
   40008:	0800683a 	jmp	at
	...

Disassembly of section .exceptions:

00040020 <alt_exception>:

#else /* ALT_EXCEPTION_STACK disabled */
        /* 
         * Reserve space on normal stack for registers about to be pushed.
         */
        addi  sp, sp, -76
   40020:	deffed04 	addi	sp,sp,-76
         * documentation for details).
         *
         * Leave a gap in the stack frame at 4(sp) for the muldiv handler to
         * store zero into.
         */
        stw   ra,  0(sp)
   40024:	dfc00015 	stw	ra,0(sp)
        stw   r1,   8(sp)
   40028:	d8400215 	stw	at,8(sp)
        stw   r2,  12(sp)
   4002c:	d8800315 	stw	r2,12(sp)
        stw   r3,  16(sp)
   40030:	d8c00415 	stw	r3,16(sp)
        stw   r4,  20(sp)
   40034:	d9000515 	stw	r4,20(sp)
        stw   r5,  24(sp)
   40038:	d9400615 	stw	r5,24(sp)
        stw   r6,  28(sp)
   4003c:	d9800715 	stw	r6,28(sp)
        stw   r7,  32(sp)
   40040:	d9c00815 	stw	r7,32(sp)
        rdctl r5, estatus   /* Read early to avoid usage stall */
   40044:	000b307a 	rdctl	r5,estatus
        stw   r8,  36(sp)
   40048:	da000915 	stw	r8,36(sp)
        stw   r9,  40(sp)
   4004c:	da400a15 	stw	r9,40(sp)
        stw   r10, 44(sp)
   40050:	da800b15 	stw	r10,44(sp)
        stw   r11, 48(sp)
   40054:	dac00c15 	stw	r11,48(sp)
        stw   r12, 52(sp)
   40058:	db000d15 	stw	r12,52(sp)
        stw   r13, 56(sp)
   4005c:	db400e15 	stw	r13,56(sp)
        stw   r14, 60(sp)
   40060:	db800f15 	stw	r14,60(sp)
        stw   r15, 64(sp)
   40064:	dbc01015 	stw	r15,64(sp)
        /*
         * ea-4 contains the address of the instruction being executed
         * when the exception occured. For interrupt exceptions, we will
         * will be re-issue the isntruction. Store it in 72(sp)
         */
        stw   r5,  68(sp)  /* estatus */
   40068:	d9401115 	stw	r5,68(sp)
        addi  r15, ea, -4  /* instruction that caused exception */
   4006c:	ebffff04 	addi	r15,ea,-4
        stw   r15,  72(sp)
   40070:	dbc01215 	stw	r15,72(sp)
#else
        /*
         * Test to see if the exception was a software exception or caused 
         * by an external interrupt, and vector accordingly.
         */
        rdctl r4, ipending
   40074:	0009313a 	rdctl	r4,ipending
        andi  r2, r5, 1
   40078:	2880004c 	andi	r2,r5,1
        beq   r2, zero, .Lnot_irq
   4007c:	10000326 	beq	r2,zero,4008c <alt_exception+0x6c>
        beq   r4, zero, .Lnot_irq
   40080:	20000226 	beq	r4,zero,4008c <alt_exception+0x6c>
        /*
         * Now that all necessary registers have been preserved, call 
         * alt_irq_handler() to process the interrupts.
         */

        call alt_irq_handler
   40084:	00400fc0 	call	400fc <alt_irq_handler>

        .section .exceptions.irqreturn, "xa"

        br    .Lexception_exit
   40088:	00000706 	br	400a8 <alt_exception+0x88>
         * upon completion, so we write ea (address of instruction *after*
         * the one where the exception occured) into 72(sp). The actual
         * instruction that caused the exception is written in r2, which these
         * handlers will utilize.
         */
        stw ea, 72(sp) /* EA is PC+4 so will skip over instruction causing exception */
   4008c:	df401215 	stw	ea,72(sp)
.Lunknown_16bit:
        addi.n r4, r4, 2 /* Need PC+2 to skip over instruction causing exception */
        stw r4, 72(sp)

#else /* CDX is not Enabled and all instructions are 32bits */
        ldw r2, -4(ea) /* Instruction value that caused exception */
   40090:	e8bfff17 	ldw	r2,-4(ea)
         * debugger is present) or go into an infinite loop since the
         * handling behavior is undefined; in that case we will not return here.
         */

        /* Load exception-causing address as first argument (r4) */
        addi   r4, ea, -4
   40094:	e93fff04 	addi	r4,ea,-4

        /* Call the instruction-exception entry */
        call   alt_instruction_exception_entry
   40098:	00401d00 	call	401d0 <alt_instruction_exception_entry>
         * instruction
         *
         * Return code was 0: Skip. The instruction after the exception is
         * already stored in 72(sp).
         */
        bne   r2, r0, .Lexception_exit
   4009c:	1000021e 	bne	r2,zero,400a8 <alt_exception+0x88>

        /*
         * Otherwise, modify 72(sp) to re-issue the instruction that caused the
         * exception.
         */
        addi  r15, ea, -4  /* instruction that caused exception */
   400a0:	ebffff04 	addi	r15,ea,-4
        stw   r15,  72(sp)
   400a4:	dbc01215 	stw	r15,72(sp)
        /* 
         * Restore the saved registers, so that all general purpose registers 
         * have been restored to their state at the time the interrupt occured.
         */

        ldw   r5,  68(sp)
   400a8:	d9401117 	ldw	r5,68(sp)
        ldw   ea,  72(sp)  /* This becomes the PC once eret is executed */
   400ac:	df401217 	ldw	ea,72(sp)
        ldw   ra,   0(sp)
   400b0:	dfc00017 	ldw	ra,0(sp)

        wrctl estatus, r5
   400b4:	2801707a 	wrctl	estatus,r5

        ldw   r1,   8(sp)
   400b8:	d8400217 	ldw	at,8(sp)
        ldw   r2,  12(sp)
   400bc:	d8800317 	ldw	r2,12(sp)
        ldw   r3,  16(sp)
   400c0:	d8c00417 	ldw	r3,16(sp)
        ldw   r4,  20(sp)
   400c4:	d9000517 	ldw	r4,20(sp)
        ldw   r5,  24(sp)
   400c8:	d9400617 	ldw	r5,24(sp)
        ldw   r6,  28(sp)
   400cc:	d9800717 	ldw	r6,28(sp)
        ldw   r7,  32(sp)
   400d0:	d9c00817 	ldw	r7,32(sp)

#if defined(ALT_EXCEPTION_STACK) && defined(ALT_STACK_CHECK)
        ldw   et, %gprel(alt_exception_old_stack_limit)(gp)
#endif

        ldw   r8,  36(sp)
   400d4:	da000917 	ldw	r8,36(sp)
        ldw   r9,  40(sp)
   400d8:	da400a17 	ldw	r9,40(sp)
        ldw   r10, 44(sp)
   400dc:	da800b17 	ldw	r10,44(sp)
        ldw   r11, 48(sp)
   400e0:	dac00c17 	ldw	r11,48(sp)
        ldw   r12, 52(sp)
   400e4:	db000d17 	ldw	r12,52(sp)
        ldw   r13, 56(sp)
   400e8:	db400e17 	ldw	r13,56(sp)
        ldw   r14, 60(sp)
   400ec:	db800f17 	ldw	r14,60(sp)
        ldw   r15, 64(sp)
   400f0:	dbc01017 	ldw	r15,64(sp)
        stw   et, %gprel(alt_stack_limit_value)(gp)
        stw   zero, %gprel(alt_exception_old_stack_limit)(gp)
#endif /* ALT_STACK_CHECK */
        ldw   sp,  76(sp)
#else /* ALT_EXCEPTION_STACK disabled */
        addi  sp, sp, 76
   400f4:	dec01304 	addi	sp,sp,76

        /*
         * Return to the interrupted instruction.
         */

        eret
   400f8:	ef80083a 	eret

000400fc <alt_irq_handler>:
 * instruction is present if the macro ALT_CI_INTERRUPT_VECTOR defined.
 */

void alt_irq_handler (void) __attribute__ ((section (".exceptions")));
void alt_irq_handler (void)
{
   400fc:	defff904 	addi	sp,sp,-28
   40100:	dfc00615 	stw	ra,24(sp)
   40104:	df000515 	stw	fp,20(sp)
   40108:	df000504 	addi	fp,sp,20
  
  /*
   * Notify the operating system that we are at interrupt level.
   */ 
  
  ALT_OS_INT_ENTER();
   4010c:	0001883a 	nop
#ifndef NIOS2_EIC_PRESENT
static ALT_INLINE alt_u32 ALT_ALWAYS_INLINE alt_irq_pending (void)
{
  alt_u32 active;

  NIOS2_READ_IPENDING (active);
   40110:	0005313a 	rdctl	r2,ipending
   40114:	e0bffe15 	stw	r2,-8(fp)

  return active;
   40118:	e0bffe17 	ldw	r2,-8(fp)
   * Consider the case where the high priority interupt is asserted during
   * the interrupt entry sequence for a lower priority interrupt to see why
   * this is the case.
   */

  active = alt_irq_pending ();
   4011c:	e0bffb15 	stw	r2,-20(fp)

  do
  {
    i = 0;
   40120:	e03ffd15 	stw	zero,-12(fp)
    mask = 1;
   40124:	00800044 	movi	r2,1
   40128:	e0bffc15 	stw	r2,-16(fp)
     * called to clear the interrupt condition.
     */

    do
    {
      if (active & mask)
   4012c:	e0fffb17 	ldw	r3,-20(fp)
   40130:	e0bffc17 	ldw	r2,-16(fp)
   40134:	1884703a 	and	r2,r3,r2
   40138:	10001426 	beq	r2,zero,4018c <alt_irq_handler+0x90>
      { 
#ifdef ALT_ENHANCED_INTERRUPT_API_PRESENT
        alt_irq[i].handler(alt_irq[i].context); 
   4013c:	00800174 	movhi	r2,5
   40140:	109cae04 	addi	r2,r2,29368
   40144:	e0fffd17 	ldw	r3,-12(fp)
   40148:	180690fa 	slli	r3,r3,3
   4014c:	10c5883a 	add	r2,r2,r3
   40150:	10c00017 	ldw	r3,0(r2)
   40154:	00800174 	movhi	r2,5
   40158:	109cae04 	addi	r2,r2,29368
   4015c:	e13ffd17 	ldw	r4,-12(fp)
   40160:	200890fa 	slli	r4,r4,3
   40164:	1105883a 	add	r2,r2,r4
   40168:	10800104 	addi	r2,r2,4
   4016c:	10800017 	ldw	r2,0(r2)
   40170:	1009883a 	mov	r4,r2
   40174:	183ee83a 	callr	r3
#else
        alt_irq[i].handler(alt_irq[i].context, i); 
#endif
        break;
   40178:	0001883a 	nop
#ifndef NIOS2_EIC_PRESENT
static ALT_INLINE alt_u32 ALT_ALWAYS_INLINE alt_irq_pending (void)
{
  alt_u32 active;

  NIOS2_READ_IPENDING (active);
   4017c:	0005313a 	rdctl	r2,ipending
   40180:	e0bfff15 	stw	r2,-4(fp)

  return active;
   40184:	e0bfff17 	ldw	r2,-4(fp)
   40188:	00000706 	br	401a8 <alt_irq_handler+0xac>
      }
      mask <<= 1;
   4018c:	e0bffc17 	ldw	r2,-16(fp)
   40190:	1085883a 	add	r2,r2,r2
   40194:	e0bffc15 	stw	r2,-16(fp)
      i++;
   40198:	e0bffd17 	ldw	r2,-12(fp)
   4019c:	10800044 	addi	r2,r2,1
   401a0:	e0bffd15 	stw	r2,-12(fp)

    } while (1);
   401a4:	003fe106 	br	4012c <_gp+0xfffe2fe4>

    active = alt_irq_pending ();
   401a8:	e0bffb15 	stw	r2,-20(fp)
    
  } while (active);
   401ac:	e0bffb17 	ldw	r2,-20(fp)
   401b0:	103fdb1e 	bne	r2,zero,40120 <_gp+0xfffe2fd8>

  /*
   * Notify the operating system that interrupt processing is complete.
   */ 

  ALT_OS_INT_EXIT();
   401b4:	0001883a 	nop
}
   401b8:	0001883a 	nop
   401bc:	e037883a 	mov	sp,fp
   401c0:	dfc00117 	ldw	ra,4(sp)
   401c4:	df000017 	ldw	fp,0(sp)
   401c8:	dec00204 	addi	sp,sp,8
   401cc:	f800283a 	ret

000401d0 <alt_instruction_exception_entry>:
 * that handler if it has been registered. Absent a handler, it will
 * break break or hang as discussed below.
 */
int 
alt_instruction_exception_entry (alt_u32 exception_pc)
{
   401d0:	defffb04 	addi	sp,sp,-20
   401d4:	dfc00415 	stw	ra,16(sp)
   401d8:	df000315 	stw	fp,12(sp)
   401dc:	df000304 	addi	fp,sp,12
   401e0:	e13fff15 	stw	r4,-4(fp)
  cause = ( (cause & NIOS2_EXCEPTION_REG_CAUSE_MASK) >>
              NIOS2_EXCEPTION_REG_CAUSE_OFST );

  NIOS2_READ_BADADDR(badaddr);
#else
  cause = NIOS2_EXCEPTION_CAUSE_NOT_PRESENT;
   401e4:	00bfffc4 	movi	r2,-1
   401e8:	e0bffd15 	stw	r2,-12(fp)
  badaddr = 0;
   401ec:	e03ffe15 	stw	zero,-8(fp)
#endif /* NIOS2_HAS_EXTRA_EXCEPTION_INFO */

  if(alt_instruction_exception_handler) {
   401f0:	d0a85117 	ldw	r2,-24252(gp)
   401f4:	10000726 	beq	r2,zero,40214 <alt_instruction_exception_entry+0x44>
     * Call handler. Its return value indicates whether the exception-causing
     * instruction should be re-issued. The code that called us,
     * alt_eceptions_entry.S, will look at this value and adjust the ea
     * register as necessary
     */
    return alt_instruction_exception_handler(cause, exception_pc, badaddr);
   401f8:	d0a85117 	ldw	r2,-24252(gp)
   401fc:	e0fffd17 	ldw	r3,-12(fp)
   40200:	e1bffe17 	ldw	r6,-8(fp)
   40204:	e17fff17 	ldw	r5,-4(fp)
   40208:	1809883a 	mov	r4,r3
   4020c:	103ee83a 	callr	r2
   40210:	00000206 	br	4021c <alt_instruction_exception_entry+0x4c>
   *    (a peripheral which negates its interrupt output before its
   *    interrupt handler has been executed will cause spurious interrupts)
   */
  else {
#ifdef NIOS2_HAS_DEBUG_STUB
    NIOS2_BREAK();
   40214:	003da03a 	break	0
      ;
#endif /* NIOS2_HAS_DEBUG_STUB */
  }

  /* We should not get here. Remove compiler warning. */
  return NIOS2_EXCEPTION_RETURN_REISSUE_INST;
   40218:	0005883a 	mov	r2,zero
}
   4021c:	e037883a 	mov	sp,fp
   40220:	dfc00117 	ldw	ra,4(sp)
   40224:	df000017 	ldw	fp,0(sp)
   40228:	dec00204 	addi	sp,sp,8
   4022c:	f800283a 	ret

Disassembly of section .text:

00040230 <_start>:

    /*
     * Now that the caches are initialized, set up the stack pointer and global pointer.
     * The values provided by the linker are assumed to be correctly aligned.
     */
    movhi sp, %hi(__alt_stack_pointer)
   40230:	06c00174 	movhi	sp,5
    ori sp, sp, %lo(__alt_stack_pointer)
   40234:	def0f014 	ori	sp,sp,50112
    movhi gp, %hi(_gp)
   40238:	06800174 	movhi	gp,5
    ori gp, gp, %lo(_gp)
   4023c:	d6b45214 	ori	gp,gp,53576
 */
#ifndef ALT_SIM_OPTIMIZE
    /* Log that the BSS is about to be cleared. */
    ALT_LOG_PUTS(alt_log_msg_bss)

    movhi r2, %hi(__bss_start)
   40240:	00800174 	movhi	r2,5
    ori r2, r2, %lo(__bss_start)
   40244:	109c9614 	ori	r2,r2,29272

    movhi r3, %hi(__bss_end)
   40248:	00c00174 	movhi	r3,5
    ori r3, r3, %lo(__bss_end)
   4024c:	18dcee14 	ori	r3,r3,29624

    beq r2, r3, 1f
   40250:	10c00326 	beq	r2,r3,40260 <_start+0x30>

0:
    stw zero, (r2)
   40254:	10000015 	stw	zero,0(r2)
    addi r2, r2, 4
   40258:	10800104 	addi	r2,r2,4
    bltu r2, r3, 0b
   4025c:	10fffd36 	bltu	r2,r3,40254 <_gp+0xfffe310c>
     * section aren't defined until alt_load() has been called).
     */
    mov   et, zero
#endif

    call alt_load
   40260:	0050a3c0 	call	50a3c <alt_load>

    /* Log that alt_main is about to be called. */
    ALT_LOG_PUTS(alt_log_msg_alt_main)

    /* Call the C entry point. It should never return. */
    call alt_main
   40264:	0050bd80 	call	50bd8 <alt_main>

00040268 <alt_after_alt_main>:

    /* Wait in infinite loop in case alt_main does return. */
alt_after_alt_main:
    br alt_after_alt_main
   40268:	003fff06 	br	40268 <_gp+0xfffe3120>

0004026c <main>:
#define END_BASE_ANGLE (int *) 0x00010
#define END_BASE_DATA (int *) 0x0018
#define STEP coords_2
#define SIZE size_2

int main() {
   4026c:	defd8f04 	addi	sp,sp,-2500
   40270:	dfc27015 	stw	ra,2496(sp)
   40274:	df026f15 	stw	fp,2492(sp)
   40278:	dc426e15 	stw	r17,2488(sp)
   4027c:	dc026d15 	stw	r16,2484(sp)
   40280:	df026f04 	addi	fp,sp,2492
	int *data = END_BASE_DATA;
   40284:	00800604 	movi	r2,24
   40288:	e0bd9715 	stw	r2,-2468(fp)
    Point outliers[MAX_POINTS];

    int data_size = 0;
   4028c:	e03d9215 	stw	zero,-2488(fp)

    //read data_size
    data_size = (int)(SIZE&0xFF);
   40290:	d0a00043 	ldbu	r2,-32767(gp)
   40294:	10803fcc 	andi	r2,r2,255
   40298:	1080201c 	xori	r2,r2,128
   4029c:	10bfe004 	addi	r2,r2,-128
   402a0:	10803fcc 	andi	r2,r2,255
   402a4:	e0bd9215 	stw	r2,-2488(fp)

    int j = 0;
   402a8:	e03d9315 	stw	zero,-2484(fp)
    for (int i = 0; i<=data_size; i+=1) {
   402ac:	e03d9415 	stw	zero,-2480(fp)
   402b0:	00001f06 	br	40330 <main+0xc4>
    	data[i] = (STEP[X]&0xFF)|(STEP[Y]<<8);
   402b4:	e0bd9417 	ldw	r2,-2480(fp)
   402b8:	1085883a 	add	r2,r2,r2
   402bc:	1085883a 	add	r2,r2,r2
   402c0:	1007883a 	mov	r3,r2
   402c4:	e0bd9717 	ldw	r2,-2468(fp)
   402c8:	10c9883a 	add	r4,r2,r3
   402cc:	00800174 	movhi	r2,5
   402d0:	108c7d04 	addi	r2,r2,12788
   402d4:	e0fd9317 	ldw	r3,-2484(fp)
   402d8:	18c7883a 	add	r3,r3,r3
   402dc:	18c7883a 	add	r3,r3,r3
   402e0:	10c5883a 	add	r2,r2,r3
   402e4:	10800017 	ldw	r2,0(r2)
   402e8:	11403fcc 	andi	r5,r2,255
   402ec:	e0bd9317 	ldw	r2,-2484(fp)
   402f0:	10c00044 	addi	r3,r2,1
   402f4:	00800174 	movhi	r2,5
   402f8:	108c7d04 	addi	r2,r2,12788
   402fc:	18c7883a 	add	r3,r3,r3
   40300:	18c7883a 	add	r3,r3,r3
   40304:	10c5883a 	add	r2,r2,r3
   40308:	10800017 	ldw	r2,0(r2)
   4030c:	1004923a 	slli	r2,r2,8
   40310:	2884b03a 	or	r2,r5,r2
   40314:	20800015 	stw	r2,0(r4)
    	j+=2;
   40318:	e0bd9317 	ldw	r2,-2484(fp)
   4031c:	10800084 	addi	r2,r2,2
   40320:	e0bd9315 	stw	r2,-2484(fp)

    //read data_size
    data_size = (int)(SIZE&0xFF);

    int j = 0;
    for (int i = 0; i<=data_size; i+=1) {
   40324:	e0bd9417 	ldw	r2,-2480(fp)
   40328:	10800044 	addi	r2,r2,1
   4032c:	e0bd9415 	stw	r2,-2480(fp)
   40330:	e0bd9417 	ldw	r2,-2480(fp)
   40334:	e0fd9217 	ldw	r3,-2488(fp)
   40338:	18bfde0e 	bge	r3,r2,402b4 <_gp+0xfffe316c>
    	data[i] = (STEP[X]&0xFF)|(STEP[Y]<<8);
    	j+=2;
    }

    if(data_size > MAX_POINTS) data_size = MAX_POINTS;
   4033c:	e0bd9217 	ldw	r2,-2488(fp)
   40340:	10804b50 	cmplti	r2,r2,301
   40344:	1000021e 	bne	r2,zero,40350 <main+0xe4>
   40348:	00804b04 	movi	r2,300
   4034c:	e0bd9215 	stw	r2,-2488(fp)

        // ------------ Calcula primeiro modelo de linha ------------//
    //Posicao inical do robo
    Point start;
    start.x = 0;
   40350:	e03ff015 	stw	zero,-64(fp)
    start.y = 25;
   40354:	00800644 	movi	r2,25
   40358:	e0bff115 	stw	r2,-60(fp)
    RansacResult model;
    Line reference;
	reference.a = 0;
   4035c:	e03ff615 	stw	zero,-40(fp)
	reference.b = 25;
   40360:	00907234 	movhi	r2,16840
   40364:	e0bff715 	stw	r2,-36(fp)

	*MEDIDOR_ESCRITA = 0; // para resetar a contagem
   40368:	00800074 	movhi	r2,1
   4036c:	10840204 	addi	r2,r2,4104
   40370:	10000015 	stw	zero,0(r2)
	*MEDIDOR_ESCRITA = 1; // para iniciar a contagem
   40374:	00800074 	movhi	r2,1
   40378:	10840204 	addi	r2,r2,4104
   4037c:	00c00044 	movi	r3,1
   40380:	10c00015 	stw	r3,0(r2)
    model = RANSAC(data, &start, outliers, data_size);
   40384:	e0fffa04 	addi	r3,fp,-24
   40388:	e17d9804 	addi	r5,fp,-2464
   4038c:	e13ff004 	addi	r4,fp,-64
   40390:	e0bd9217 	ldw	r2,-2488(fp)
   40394:	d8800015 	stw	r2,0(sp)
   40398:	280f883a 	mov	r7,r5
   4039c:	200d883a 	mov	r6,r4
   403a0:	e17d9717 	ldw	r5,-2468(fp)
   403a4:	1809883a 	mov	r4,r3
   403a8:	00414e40 	call	414e4 <RANSAC>
   403ac:	e0bffa17 	ldw	r2,-24(fp)
   403b0:	e0bff215 	stw	r2,-56(fp)
   403b4:	e0bffb17 	ldw	r2,-20(fp)
   403b8:	e0bff315 	stw	r2,-52(fp)
   403bc:	e0bffc17 	ldw	r2,-16(fp)
   403c0:	e0bff415 	stw	r2,-48(fp)
   403c4:	e0bffd17 	ldw	r2,-12(fp)
   403c8:	e0bff515 	stw	r2,-44(fp)


    // ------------ Variaveis para resultado final -------------//
    Point intersection = { 0.0, 0.0 };
   403cc:	e03ff815 	stw	zero,-32(fp)
   403d0:	e03ff915 	stw	zero,-28(fp)
    int distance = 0;
   403d4:	e03d9515 	stw	zero,-2476(fp)
    float angle = 0.0;
   403d8:	e03d9615 	stw	zero,-2472(fp)

    if  ((model.bestModel.a < 0.1)&&(model.bestModel.a > -0.1)){
   403dc:	e0bff217 	ldw	r2,-56(fp)
   403e0:	1009883a 	mov	r4,r2
   403e4:	0045c240 	call	45c24 <__extendsfdf2>
   403e8:	1011883a 	mov	r8,r2
   403ec:	1813883a 	mov	r9,r3
   403f0:	01a666b4 	movhi	r6,39322
   403f4:	31a66684 	addi	r6,r6,-26214
   403f8:	01cfeeb4 	movhi	r7,16314
   403fc:	39e66644 	addi	r7,r7,-26215
   40400:	4009883a 	mov	r4,r8
   40404:	480b883a 	mov	r5,r9
   40408:	004486c0 	call	4486c <__ledf2>
   4040c:	1000100e 	bge	r2,zero,40450 <main+0x1e4>
   40410:	e0bff217 	ldw	r2,-56(fp)
   40414:	1009883a 	mov	r4,r2
   40418:	0045c240 	call	45c24 <__extendsfdf2>
   4041c:	1011883a 	mov	r8,r2
   40420:	1813883a 	mov	r9,r3
   40424:	01a666b4 	movhi	r6,39322
   40428:	31a66684 	addi	r6,r6,-26214
   4042c:	01efeeb4 	movhi	r7,49082
   40430:	39e66644 	addi	r7,r7,-26215
   40434:	4009883a 	mov	r4,r8
   40438:	480b883a 	mov	r5,r9
   4043c:	00447900 	call	44790 <__gedf2>
   40440:	0080030e 	bge	zero,r2,40450 <main+0x1e4>
    		distance = 50;
   40444:	00800c84 	movi	r2,50
   40448:	e0bd9515 	stw	r2,-2476(fp)
   4044c:	00001906 	br	404b4 <main+0x248>
    }
	else
	{
		intersection = calculateIntersection(&model.bestModel,  &reference);
   40450:	e0fff604 	addi	r3,fp,-40
   40454:	e0bff204 	addi	r2,fp,-56
   40458:	180b883a 	mov	r5,r3
   4045c:	1009883a 	mov	r4,r2
   40460:	00406800 	call	40680 <calculateIntersection>
   40464:	1009883a 	mov	r4,r2
   40468:	180b883a 	mov	r5,r3
   4046c:	e13ff815 	stw	r4,-32(fp)
   40470:	e17ff915 	stw	r5,-28(fp)
		distance = square_root(squareDistanceBetweenPoints(&intersection, &start));
   40474:	e0fff004 	addi	r3,fp,-64
   40478:	e0bff804 	addi	r2,fp,-32
   4047c:	180b883a 	mov	r5,r3
   40480:	1009883a 	mov	r4,r2
   40484:	00414440 	call	41444 <squareDistanceBetweenPoints>
   40488:	1007883a 	mov	r3,r2
   4048c:	1809883a 	mov	r4,r3
   40490:	00405cc0 	call	405cc <square_root>
   40494:	1007883a 	mov	r3,r2
   40498:	1809883a 	mov	r4,r3
   4049c:	00433800 	call	43380 <__fixsfsi>
   404a0:	e0bd9515 	stw	r2,-2476(fp)
		angle = getAngleFromModel (model.bestModel.a);
   404a4:	e0bff217 	ldw	r2,-56(fp)
   404a8:	1009883a 	mov	r4,r2
   404ac:	00407840 	call	40784 <getAngleFromModel>
   404b0:	e0bd9615 	stw	r2,-2472(fp)
	}

    *MEDIDOR_ESCRITA = 2; // para pausar a contagem
   404b4:	00800074 	movhi	r2,1
   404b8:	10840204 	addi	r2,r2,4104
   404bc:	00c00084 	movi	r3,2
   404c0:	10c00015 	stw	r3,0(r2)

	printf("-----LOG-----\n");
   404c4:	01000174 	movhi	r4,5
   404c8:	210b5304 	addi	r4,r4,11596
   404cc:	004606c0 	call	4606c <puts>
    printf("%d %d\n", intersection.x, intersection.y);
   404d0:	e0bff817 	ldw	r2,-32(fp)
   404d4:	e0fff917 	ldw	r3,-28(fp)
   404d8:	180d883a 	mov	r6,r3
   404dc:	100b883a 	mov	r5,r2
   404e0:	01000174 	movhi	r4,5
   404e4:	210b5704 	addi	r4,r4,11612
   404e8:	0045f700 	call	45f70 <printf>
    printf("-----RESULTADO-----\n");
   404ec:	01000174 	movhi	r4,5
   404f0:	210b5904 	addi	r4,r4,11620
   404f4:	004606c0 	call	4606c <puts>
    printf("%f %f\n", model.bestModel.a, model.bestModel.b );
   404f8:	e0bff217 	ldw	r2,-56(fp)
   404fc:	1009883a 	mov	r4,r2
   40500:	0045c240 	call	45c24 <__extendsfdf2>
   40504:	1021883a 	mov	r16,r2
   40508:	1823883a 	mov	r17,r3
   4050c:	e0bff317 	ldw	r2,-52(fp)
   40510:	1009883a 	mov	r4,r2
   40514:	0045c240 	call	45c24 <__extendsfdf2>
   40518:	1009883a 	mov	r4,r2
   4051c:	180b883a 	mov	r5,r3
   40520:	d9400015 	stw	r5,0(sp)
   40524:	200f883a 	mov	r7,r4
   40528:	800b883a 	mov	r5,r16
   4052c:	880d883a 	mov	r6,r17
   40530:	01000174 	movhi	r4,5
   40534:	210b5e04 	addi	r4,r4,11640
   40538:	0045f700 	call	45f70 <printf>
    printf("%f\n", model.bestFit);
   4053c:	e0bff417 	ldw	r2,-48(fp)
   40540:	1009883a 	mov	r4,r2
   40544:	0045c240 	call	45c24 <__extendsfdf2>
   40548:	100d883a 	mov	r6,r2
   4054c:	180f883a 	mov	r7,r3
   40550:	300b883a 	mov	r5,r6
   40554:	380d883a 	mov	r6,r7
   40558:	01000174 	movhi	r4,5
   4055c:	210b6004 	addi	r4,r4,11648
   40560:	0045f700 	call	45f70 <printf>
    printf("%d\n", model.bestQty);
   40564:	e0bff517 	ldw	r2,-44(fp)
   40568:	100b883a 	mov	r5,r2
   4056c:	01000174 	movhi	r4,5
   40570:	210b6104 	addi	r4,r4,11652
   40574:	0045f700 	call	45f70 <printf>
    printf("%f\n", angle);
   40578:	e13d9617 	ldw	r4,-2472(fp)
   4057c:	0045c240 	call	45c24 <__extendsfdf2>
   40580:	100d883a 	mov	r6,r2
   40584:	180f883a 	mov	r7,r3
   40588:	300b883a 	mov	r5,r6
   4058c:	380d883a 	mov	r6,r7
   40590:	01000174 	movhi	r4,5
   40594:	210b6004 	addi	r4,r4,11648
   40598:	0045f700 	call	45f70 <printf>
    printf("%d\n", distance);
   4059c:	e17d9517 	ldw	r5,-2476(fp)
   405a0:	01000174 	movhi	r4,5
   405a4:	210b6104 	addi	r4,r4,11652
   405a8:	0045f700 	call	45f70 <printf>

    return 0;
   405ac:	0005883a 	mov	r2,zero
}
   405b0:	e6fffe04 	addi	sp,fp,-8
   405b4:	dfc00317 	ldw	ra,12(sp)
   405b8:	df000217 	ldw	fp,8(sp)
   405bc:	dc400117 	ldw	r17,4(sp)
   405c0:	dc000017 	ldw	r16,0(sp)
   405c4:	dec00404 	addi	sp,sp,16
   405c8:	f800283a 	ret

000405cc <square_root>:
#define E 5               // - A threshold value to determine data points that are fit well by the model (inlier).
#define N 10                // - Number of iterations required
#define MIN_DIST_POINTS 25  // - The minimum points distance required to select the sample


float square_root(float number) {
   405cc:	defffa04 	addi	sp,sp,-24
   405d0:	dfc00515 	stw	ra,20(sp)
   405d4:	df000415 	stw	fp,16(sp)
   405d8:	df000404 	addi	fp,sp,16
   405dc:	e13fff15 	stw	r4,-4(fp)
	//*MEDIDOR_ESCRITA = 0; // para resetar a contagem
	//*MEDIDOR_ESCRITA = 1; // para iniciar a contagem
	float x = number;
   405e0:	e0bfff17 	ldw	r2,-4(fp)
   405e4:	e0bffc15 	stw	r2,-16(fp)
	float y = 1;
   405e8:	008fe034 	movhi	r2,16256
   405ec:	e0bffd15 	stw	r2,-12(fp)
    float precision = 0.1;
   405f0:	008f7374 	movhi	r2,15821
   405f4:	10b33344 	addi	r2,r2,-13107
   405f8:	e0bffe15 	stw	r2,-8(fp)
    while (x - y > precision) {
   405fc:	00000f06 	br	4063c <square_root+0x70>
        x = (x + y) / 2;
   40600:	e17ffd17 	ldw	r5,-12(fp)
   40604:	e13ffc17 	ldw	r4,-16(fp)
   40608:	0041f680 	call	41f68 <__addsf3>
   4060c:	1007883a 	mov	r3,r2
   40610:	1805883a 	mov	r2,r3
   40614:	01500034 	movhi	r5,16384
   40618:	1009883a 	mov	r4,r2
   4061c:	00424300 	call	42430 <__divsf3>
   40620:	1007883a 	mov	r3,r2
   40624:	e0fffc15 	stw	r3,-16(fp)
        y = number / x;
   40628:	e17ffc17 	ldw	r5,-16(fp)
   4062c:	e13fff17 	ldw	r4,-4(fp)
   40630:	00424300 	call	42430 <__divsf3>
   40634:	1007883a 	mov	r3,r2
   40638:	e0fffd15 	stw	r3,-12(fp)
	//*MEDIDOR_ESCRITA = 0; // para resetar a contagem
	//*MEDIDOR_ESCRITA = 1; // para iniciar a contagem
	float x = number;
	float y = 1;
    float precision = 0.1;
    while (x - y > precision) {
   4063c:	e17ffd17 	ldw	r5,-12(fp)
   40640:	e13ffc17 	ldw	r4,-16(fp)
   40644:	0042e9c0 	call	42e9c <__subsf3>
   40648:	1007883a 	mov	r3,r2
   4064c:	1805883a 	mov	r2,r3
   40650:	e17ffe17 	ldw	r5,-8(fp)
   40654:	1009883a 	mov	r4,r2
   40658:	00428e80 	call	428e8 <__gesf2>
   4065c:	00bfe816 	blt	zero,r2,40600 <_gp+0xfffe34b8>
        y = number / x;
    }

    //*MEDIDOR_ESCRITA = 2; // para pausar a contagem
    //fprintf('square_root = %d', MEDIDOR_LEITURA);
    return x;
   40660:	e0bffc17 	ldw	r2,-16(fp)
   40664:	1007883a 	mov	r3,r2
}
   40668:	1805883a 	mov	r2,r3
   4066c:	e037883a 	mov	sp,fp
   40670:	dfc00117 	ldw	ra,4(sp)
   40674:	df000017 	ldw	fp,0(sp)
   40678:	dec00204 	addi	sp,sp,8
   4067c:	f800283a 	ret

00040680 <calculateIntersection>:

Point calculateIntersection(Line* k, Line* l) {
   40680:	defff904 	addi	sp,sp,-28
   40684:	dfc00615 	stw	ra,24(sp)
   40688:	df000515 	stw	fp,20(sp)
   4068c:	dc000415 	stw	r16,16(sp)
   40690:	df000504 	addi	fp,sp,20
   40694:	e13ffd15 	stw	r4,-12(fp)
   40698:	e17ffe15 	stw	r5,-8(fp)
	//*MEDIDOR_ESCRITA = 0; // para resetar a contagem
	//*MEDIDOR_ESCRITA = 1; // para iniciar a contagem
	Point intersection;
    intersection.x = (l->b - k->b) / (k->a - l->a);
   4069c:	e0bffe17 	ldw	r2,-8(fp)
   406a0:	10c00117 	ldw	r3,4(r2)
   406a4:	e0bffd17 	ldw	r2,-12(fp)
   406a8:	11000117 	ldw	r4,4(r2)
   406ac:	200b883a 	mov	r5,r4
   406b0:	1809883a 	mov	r4,r3
   406b4:	0042e9c0 	call	42e9c <__subsf3>
   406b8:	1007883a 	mov	r3,r2
   406bc:	1821883a 	mov	r16,r3
   406c0:	e0bffd17 	ldw	r2,-12(fp)
   406c4:	10c00017 	ldw	r3,0(r2)
   406c8:	e0bffe17 	ldw	r2,-8(fp)
   406cc:	11000017 	ldw	r4,0(r2)
   406d0:	200b883a 	mov	r5,r4
   406d4:	1809883a 	mov	r4,r3
   406d8:	0042e9c0 	call	42e9c <__subsf3>
   406dc:	1007883a 	mov	r3,r2
   406e0:	1805883a 	mov	r2,r3
   406e4:	100b883a 	mov	r5,r2
   406e8:	8009883a 	mov	r4,r16
   406ec:	00424300 	call	42430 <__divsf3>
   406f0:	1007883a 	mov	r3,r2
   406f4:	1805883a 	mov	r2,r3
   406f8:	1009883a 	mov	r4,r2
   406fc:	00433800 	call	43380 <__fixsfsi>
   40700:	e0bffb15 	stw	r2,-20(fp)
    intersection.y = (k->a * intersection.x + k->b);
   40704:	e0bffd17 	ldw	r2,-12(fp)
   40708:	14000017 	ldw	r16,0(r2)
   4070c:	e0bffb17 	ldw	r2,-20(fp)
   40710:	1009883a 	mov	r4,r2
   40714:	00433f00 	call	433f0 <__floatsisf>
   40718:	1007883a 	mov	r3,r2
   4071c:	180b883a 	mov	r5,r3
   40720:	8009883a 	mov	r4,r16
   40724:	0042a6c0 	call	42a6c <__mulsf3>
   40728:	1007883a 	mov	r3,r2
   4072c:	1809883a 	mov	r4,r3
   40730:	e0bffd17 	ldw	r2,-12(fp)
   40734:	10c00117 	ldw	r3,4(r2)
   40738:	180b883a 	mov	r5,r3
   4073c:	0041f680 	call	41f68 <__addsf3>
   40740:	1007883a 	mov	r3,r2
   40744:	1805883a 	mov	r2,r3
   40748:	1009883a 	mov	r4,r2
   4074c:	00433800 	call	43380 <__fixsfsi>
   40750:	e0bffc15 	stw	r2,-16(fp)
    //*MEDIDOR_ESCRITA = 2; // para pausar a contagem
    return intersection;
   40754:	e0bffb17 	ldw	r2,-20(fp)
   40758:	e0fffc17 	ldw	r3,-16(fp)
   4075c:	1009883a 	mov	r4,r2
   40760:	180b883a 	mov	r5,r3
}
   40764:	2005883a 	mov	r2,r4
   40768:	2807883a 	mov	r3,r5
   4076c:	e6ffff04 	addi	sp,fp,-4
   40770:	dfc00217 	ldw	ra,8(sp)
   40774:	df000117 	ldw	fp,4(sp)
   40778:	dc000017 	ldw	r16,0(sp)
   4077c:	dec00304 	addi	sp,sp,12
   40780:	f800283a 	ret

00040784 <getAngleFromModel>:

float getAngleFromModel(float a) {
   40784:	defffc04 	addi	sp,sp,-16
   40788:	dfc00315 	stw	ra,12(sp)
   4078c:	df000215 	stw	fp,8(sp)
   40790:	df000204 	addi	fp,sp,8
   40794:	e13fff15 	stw	r4,-4(fp)
	//*MEDIDOR_ESCRITA = 0; // para resetar a contagem
	//*MEDIDOR_ESCRITA = 1; // para iniciar a contagem
	float radian = -atan(a);
   40798:	e13fff17 	ldw	r4,-4(fp)
   4079c:	0045c240 	call	45c24 <__extendsfdf2>
   407a0:	100b883a 	mov	r5,r2
   407a4:	180d883a 	mov	r6,r3
   407a8:	2809883a 	mov	r4,r5
   407ac:	300b883a 	mov	r5,r6
   407b0:	00417f00 	call	417f0 <atan>
   407b4:	100b883a 	mov	r5,r2
   407b8:	180d883a 	mov	r6,r3
   407bc:	2809883a 	mov	r4,r5
   407c0:	300b883a 	mov	r5,r6
   407c4:	0045d340 	call	45d34 <__truncdfsf2>
   407c8:	1007883a 	mov	r3,r2
   407cc:	18a0003c 	xorhi	r2,r3,32768
   407d0:	e0bffe15 	stw	r2,-8(fp)
	//*MEDIDOR_ESCRITA = 2; // para pausar a contagem
    return radian;
   407d4:	e0bffe17 	ldw	r2,-8(fp)
   407d8:	1007883a 	mov	r3,r2
}
   407dc:	1805883a 	mov	r2,r3
   407e0:	e037883a 	mov	sp,fp
   407e4:	dfc00117 	ldw	ra,4(sp)
   407e8:	df000017 	ldw	fp,0(sp)
   407ec:	dec00204 	addi	sp,sp,8
   407f0:	f800283a 	ret

000407f4 <leastSquare>:

Line leastSquare(Point* data, int size) {
   407f4:	deffec04 	addi	sp,sp,-80
   407f8:	dfc01315 	stw	ra,76(sp)
   407fc:	df001215 	stw	fp,72(sp)
   40800:	dc001115 	stw	r16,68(sp)
   40804:	df001204 	addi	fp,sp,72
   40808:	e13ffd15 	stw	r4,-12(fp)
   4080c:	e17ffe15 	stw	r5,-8(fp)
	//*MEDIDOR_ESCRITA = 0; // para resetar a contagem
	//*MEDIDOR_ESCRITA = 1; // para iniciar a contagem
	float sx = 0;
   40810:	e03fee15 	stw	zero,-72(fp)
    float sy = 0;
   40814:	e03fef15 	stw	zero,-68(fp)
    float sxy = 0;
   40818:	e03ff015 	stw	zero,-64(fp)
    float sx2 = 0;
   4081c:	e03ff115 	stw	zero,-60(fp)
    if (size == 0) {
   40820:	e0bffe17 	ldw	r2,-8(fp)
   40824:	1000061e 	bne	r2,zero,40840 <leastSquare+0x4c>
        Line line = {INFINITY, 0};
   40828:	009fe034 	movhi	r2,32640
   4082c:	e0bff915 	stw	r2,-28(fp)
   40830:	e03ffa15 	stw	zero,-24(fp)
        return line;
   40834:	e0bff917 	ldw	r2,-28(fp)
   40838:	e0fffa17 	ldw	r3,-24(fp)
   4083c:	0000a606 	br	40ad8 <leastSquare+0x2e4>
    }
    for (int i = 0; i < size; i++) {
   40840:	e03ff215 	stw	zero,-56(fp)
   40844:	00004506 	br	4095c <leastSquare+0x168>
        sx += data[i].x;
   40848:	e0bff217 	ldw	r2,-56(fp)
   4084c:	100490fa 	slli	r2,r2,3
   40850:	e0fffd17 	ldw	r3,-12(fp)
   40854:	1885883a 	add	r2,r3,r2
   40858:	10800017 	ldw	r2,0(r2)
   4085c:	1009883a 	mov	r4,r2
   40860:	00433f00 	call	433f0 <__floatsisf>
   40864:	1007883a 	mov	r3,r2
   40868:	180b883a 	mov	r5,r3
   4086c:	e13fee17 	ldw	r4,-72(fp)
   40870:	0041f680 	call	41f68 <__addsf3>
   40874:	1007883a 	mov	r3,r2
   40878:	e0ffee15 	stw	r3,-72(fp)
        sy += data[i].y;
   4087c:	e0bff217 	ldw	r2,-56(fp)
   40880:	100490fa 	slli	r2,r2,3
   40884:	e0fffd17 	ldw	r3,-12(fp)
   40888:	1885883a 	add	r2,r3,r2
   4088c:	10800117 	ldw	r2,4(r2)
   40890:	1009883a 	mov	r4,r2
   40894:	00433f00 	call	433f0 <__floatsisf>
   40898:	1007883a 	mov	r3,r2
   4089c:	180b883a 	mov	r5,r3
   408a0:	e13fef17 	ldw	r4,-68(fp)
   408a4:	0041f680 	call	41f68 <__addsf3>
   408a8:	1007883a 	mov	r3,r2
   408ac:	e0ffef15 	stw	r3,-68(fp)
        sxy += data[i].x * data[i].y;
   408b0:	e0bff217 	ldw	r2,-56(fp)
   408b4:	100490fa 	slli	r2,r2,3
   408b8:	e0fffd17 	ldw	r3,-12(fp)
   408bc:	1885883a 	add	r2,r3,r2
   408c0:	11000017 	ldw	r4,0(r2)
   408c4:	e0bff217 	ldw	r2,-56(fp)
   408c8:	100490fa 	slli	r2,r2,3
   408cc:	e0fffd17 	ldw	r3,-12(fp)
   408d0:	1885883a 	add	r2,r3,r2
   408d4:	10800117 	ldw	r2,4(r2)
   408d8:	100b883a 	mov	r5,r2
   408dc:	0041f400 	call	41f40 <__mulsi3>
   408e0:	1009883a 	mov	r4,r2
   408e4:	00433f00 	call	433f0 <__floatsisf>
   408e8:	1007883a 	mov	r3,r2
   408ec:	180b883a 	mov	r5,r3
   408f0:	e13ff017 	ldw	r4,-64(fp)
   408f4:	0041f680 	call	41f68 <__addsf3>
   408f8:	1007883a 	mov	r3,r2
   408fc:	e0fff015 	stw	r3,-64(fp)
        sx2 += data[i].x * data[i].x;
   40900:	e0bff217 	ldw	r2,-56(fp)
   40904:	100490fa 	slli	r2,r2,3
   40908:	e0fffd17 	ldw	r3,-12(fp)
   4090c:	1885883a 	add	r2,r3,r2
   40910:	11000017 	ldw	r4,0(r2)
   40914:	e0bff217 	ldw	r2,-56(fp)
   40918:	100490fa 	slli	r2,r2,3
   4091c:	e0fffd17 	ldw	r3,-12(fp)
   40920:	1885883a 	add	r2,r3,r2
   40924:	10800017 	ldw	r2,0(r2)
   40928:	100b883a 	mov	r5,r2
   4092c:	0041f400 	call	41f40 <__mulsi3>
   40930:	1009883a 	mov	r4,r2
   40934:	00433f00 	call	433f0 <__floatsisf>
   40938:	1007883a 	mov	r3,r2
   4093c:	180b883a 	mov	r5,r3
   40940:	e13ff117 	ldw	r4,-60(fp)
   40944:	0041f680 	call	41f68 <__addsf3>
   40948:	1007883a 	mov	r3,r2
   4094c:	e0fff115 	stw	r3,-60(fp)
    float sx2 = 0;
    if (size == 0) {
        Line line = {INFINITY, 0};
        return line;
    }
    for (int i = 0; i < size; i++) {
   40950:	e0bff217 	ldw	r2,-56(fp)
   40954:	10800044 	addi	r2,r2,1
   40958:	e0bff215 	stw	r2,-56(fp)
   4095c:	e0fff217 	ldw	r3,-56(fp)
   40960:	e0bffe17 	ldw	r2,-8(fp)
   40964:	18bfb816 	blt	r3,r2,40848 <_gp+0xfffe3700>
        sx += data[i].x;
        sy += data[i].y;
        sxy += data[i].x * data[i].y;
        sx2 += data[i].x * data[i].x;
    }
    float avg_y = sy / size;
   40968:	e13ffe17 	ldw	r4,-8(fp)
   4096c:	00433f00 	call	433f0 <__floatsisf>
   40970:	1007883a 	mov	r3,r2
   40974:	180b883a 	mov	r5,r3
   40978:	e13fef17 	ldw	r4,-68(fp)
   4097c:	00424300 	call	42430 <__divsf3>
   40980:	1007883a 	mov	r3,r2
   40984:	e0fff315 	stw	r3,-52(fp)
    float den = (size * sx2 - sx * sx);
   40988:	e13ffe17 	ldw	r4,-8(fp)
   4098c:	00433f00 	call	433f0 <__floatsisf>
   40990:	1007883a 	mov	r3,r2
   40994:	e17ff117 	ldw	r5,-60(fp)
   40998:	1809883a 	mov	r4,r3
   4099c:	0042a6c0 	call	42a6c <__mulsf3>
   409a0:	1007883a 	mov	r3,r2
   409a4:	1821883a 	mov	r16,r3
   409a8:	e17fee17 	ldw	r5,-72(fp)
   409ac:	e13fee17 	ldw	r4,-72(fp)
   409b0:	0042a6c0 	call	42a6c <__mulsf3>
   409b4:	1007883a 	mov	r3,r2
   409b8:	1805883a 	mov	r2,r3
   409bc:	100b883a 	mov	r5,r2
   409c0:	8009883a 	mov	r4,r16
   409c4:	0042e9c0 	call	42e9c <__subsf3>
   409c8:	1007883a 	mov	r3,r2
   409cc:	e0fff415 	stw	r3,-48(fp)
    if (den == 0) {
   409d0:	000b883a 	mov	r5,zero
   409d4:	e13ff417 	ldw	r4,-48(fp)
   409d8:	00428700 	call	42870 <__eqsf2>
   409dc:	1000071e 	bne	r2,zero,409fc <leastSquare+0x208>
        Line line = {INFINITY, avg_y};
   409e0:	009fe034 	movhi	r2,32640
   409e4:	e0bffb15 	stw	r2,-20(fp)
   409e8:	e0bff317 	ldw	r2,-52(fp)
   409ec:	e0bffc15 	stw	r2,-16(fp)
        return line;
   409f0:	e0bffb17 	ldw	r2,-20(fp)
   409f4:	e0fffc17 	ldw	r3,-16(fp)
   409f8:	00003706 	br	40ad8 <leastSquare+0x2e4>
    }
    float a = (size * sxy - sx * sy) / den;
   409fc:	e13ffe17 	ldw	r4,-8(fp)
   40a00:	00433f00 	call	433f0 <__floatsisf>
   40a04:	1007883a 	mov	r3,r2
   40a08:	e17ff017 	ldw	r5,-64(fp)
   40a0c:	1809883a 	mov	r4,r3
   40a10:	0042a6c0 	call	42a6c <__mulsf3>
   40a14:	1007883a 	mov	r3,r2
   40a18:	1821883a 	mov	r16,r3
   40a1c:	e17fef17 	ldw	r5,-68(fp)
   40a20:	e13fee17 	ldw	r4,-72(fp)
   40a24:	0042a6c0 	call	42a6c <__mulsf3>
   40a28:	1007883a 	mov	r3,r2
   40a2c:	1805883a 	mov	r2,r3
   40a30:	100b883a 	mov	r5,r2
   40a34:	8009883a 	mov	r4,r16
   40a38:	0042e9c0 	call	42e9c <__subsf3>
   40a3c:	1007883a 	mov	r3,r2
   40a40:	1805883a 	mov	r2,r3
   40a44:	e17ff417 	ldw	r5,-48(fp)
   40a48:	1009883a 	mov	r4,r2
   40a4c:	00424300 	call	42430 <__divsf3>
   40a50:	1007883a 	mov	r3,r2
   40a54:	e0fff515 	stw	r3,-44(fp)
    float b = (sy / size) - a * (sx / size);
   40a58:	e13ffe17 	ldw	r4,-8(fp)
   40a5c:	00433f00 	call	433f0 <__floatsisf>
   40a60:	1007883a 	mov	r3,r2
   40a64:	180b883a 	mov	r5,r3
   40a68:	e13fef17 	ldw	r4,-68(fp)
   40a6c:	00424300 	call	42430 <__divsf3>
   40a70:	1007883a 	mov	r3,r2
   40a74:	1821883a 	mov	r16,r3
   40a78:	e13ffe17 	ldw	r4,-8(fp)
   40a7c:	00433f00 	call	433f0 <__floatsisf>
   40a80:	1007883a 	mov	r3,r2
   40a84:	180b883a 	mov	r5,r3
   40a88:	e13fee17 	ldw	r4,-72(fp)
   40a8c:	00424300 	call	42430 <__divsf3>
   40a90:	1007883a 	mov	r3,r2
   40a94:	1805883a 	mov	r2,r3
   40a98:	e17ff517 	ldw	r5,-44(fp)
   40a9c:	1009883a 	mov	r4,r2
   40aa0:	0042a6c0 	call	42a6c <__mulsf3>
   40aa4:	1007883a 	mov	r3,r2
   40aa8:	1805883a 	mov	r2,r3
   40aac:	100b883a 	mov	r5,r2
   40ab0:	8009883a 	mov	r4,r16
   40ab4:	0042e9c0 	call	42e9c <__subsf3>
   40ab8:	1007883a 	mov	r3,r2
   40abc:	e0fff615 	stw	r3,-40(fp)
    Line line = {a, b};
   40ac0:	e0bff517 	ldw	r2,-44(fp)
   40ac4:	e0bff715 	stw	r2,-36(fp)
   40ac8:	e0bff617 	ldw	r2,-40(fp)
   40acc:	e0bff815 	stw	r2,-32(fp)
    //*MEDIDOR_ESCRITA = 2; // para pausar a contagem
    return line;
   40ad0:	e0bff717 	ldw	r2,-36(fp)
   40ad4:	e0fff817 	ldw	r3,-32(fp)
   40ad8:	1009883a 	mov	r4,r2
   40adc:	180b883a 	mov	r5,r3
}
   40ae0:	2005883a 	mov	r2,r4
   40ae4:	2807883a 	mov	r3,r5
   40ae8:	e6ffff04 	addi	sp,fp,-4
   40aec:	dfc00217 	ldw	ra,8(sp)
   40af0:	df000117 	ldw	fp,4(sp)
   40af4:	dc000017 	ldw	r16,0(sp)
   40af8:	dec00304 	addi	sp,sp,12
   40afc:	f800283a 	ret

00040b00 <coefficientOfDetermination>:

float coefficientOfDetermination(Point* data, Line model, float avg_y, int data_size) {
   40b00:	defff204 	addi	sp,sp,-56
   40b04:	dfc00d15 	stw	ra,52(sp)
   40b08:	df000c15 	stw	fp,48(sp)
   40b0c:	dc000b15 	stw	r16,44(sp)
   40b10:	df000c04 	addi	fp,sp,48
   40b14:	e13ffb15 	stw	r4,-20(fp)
   40b18:	e17ffc15 	stw	r5,-16(fp)
   40b1c:	e1bffd15 	stw	r6,-12(fp)
   40b20:	e1fffe15 	stw	r7,-8(fp)
	//*MEDIDOR_ESCRITA = 0; // para resetar a contagem
	//*MEDIDOR_ESCRITA = 1; // para iniciar a contagem
	float ss_res = 0;
   40b24:	e03ff415 	stw	zero,-48(fp)
    float ss_tot = 0;
   40b28:	e03ff515 	stw	zero,-44(fp)
    for (int i = 0; i < data_size; i++) {
   40b2c:	e03ff615 	stw	zero,-40(fp)
   40b30:	00005006 	br	40c74 <coefficientOfDetermination+0x174>
    	*MEDIDOR_ESCRITA = 0; // para resetar a contagem
   40b34:	00800074 	movhi	r2,1
   40b38:	10840204 	addi	r2,r2,4104
   40b3c:	10000015 	stw	zero,0(r2)
    	*MEDIDOR_ESCRITA = 1; // para iniciar a contagem
   40b40:	00800074 	movhi	r2,1
   40b44:	10840204 	addi	r2,r2,4104
   40b48:	00c00044 	movi	r3,1
   40b4c:	10c00015 	stw	r3,0(r2)
        float f = model.a * data[i].x + model.b;
   40b50:	e43ffc17 	ldw	r16,-16(fp)
   40b54:	e0bff617 	ldw	r2,-40(fp)
   40b58:	100490fa 	slli	r2,r2,3
   40b5c:	e0fffb17 	ldw	r3,-20(fp)
   40b60:	1885883a 	add	r2,r3,r2
   40b64:	10800017 	ldw	r2,0(r2)
   40b68:	1009883a 	mov	r4,r2
   40b6c:	00433f00 	call	433f0 <__floatsisf>
   40b70:	1007883a 	mov	r3,r2
   40b74:	180b883a 	mov	r5,r3
   40b78:	8009883a 	mov	r4,r16
   40b7c:	0042a6c0 	call	42a6c <__mulsf3>
   40b80:	1009883a 	mov	r4,r2
   40b84:	2007883a 	mov	r3,r4
   40b88:	e0bffd17 	ldw	r2,-12(fp)
   40b8c:	100b883a 	mov	r5,r2
   40b90:	1809883a 	mov	r4,r3
   40b94:	0041f680 	call	41f68 <__addsf3>
   40b98:	1007883a 	mov	r3,r2
   40b9c:	e0fff715 	stw	r3,-36(fp)
        float y_f = (data[i].y - f);
   40ba0:	e0bff617 	ldw	r2,-40(fp)
   40ba4:	100490fa 	slli	r2,r2,3
   40ba8:	e0fffb17 	ldw	r3,-20(fp)
   40bac:	1885883a 	add	r2,r3,r2
   40bb0:	10800117 	ldw	r2,4(r2)
   40bb4:	1009883a 	mov	r4,r2
   40bb8:	00433f00 	call	433f0 <__floatsisf>
   40bbc:	1007883a 	mov	r3,r2
   40bc0:	e17ff717 	ldw	r5,-36(fp)
   40bc4:	1809883a 	mov	r4,r3
   40bc8:	0042e9c0 	call	42e9c <__subsf3>
   40bcc:	1007883a 	mov	r3,r2
   40bd0:	e0fff815 	stw	r3,-32(fp)
        float y_y = (data[i].y - avg_y);
   40bd4:	e0bff617 	ldw	r2,-40(fp)
   40bd8:	100490fa 	slli	r2,r2,3
   40bdc:	e0fffb17 	ldw	r3,-20(fp)
   40be0:	1885883a 	add	r2,r3,r2
   40be4:	10800117 	ldw	r2,4(r2)
   40be8:	1009883a 	mov	r4,r2
   40bec:	00433f00 	call	433f0 <__floatsisf>
   40bf0:	1007883a 	mov	r3,r2
   40bf4:	e17ffe17 	ldw	r5,-8(fp)
   40bf8:	1809883a 	mov	r4,r3
   40bfc:	0042e9c0 	call	42e9c <__subsf3>
   40c00:	1007883a 	mov	r3,r2
   40c04:	e0fff915 	stw	r3,-28(fp)
        ss_res += y_f * y_f;
   40c08:	e17ff817 	ldw	r5,-32(fp)
   40c0c:	e13ff817 	ldw	r4,-32(fp)
   40c10:	0042a6c0 	call	42a6c <__mulsf3>
   40c14:	1007883a 	mov	r3,r2
   40c18:	1805883a 	mov	r2,r3
   40c1c:	100b883a 	mov	r5,r2
   40c20:	e13ff417 	ldw	r4,-48(fp)
   40c24:	0041f680 	call	41f68 <__addsf3>
   40c28:	1007883a 	mov	r3,r2
   40c2c:	e0fff415 	stw	r3,-48(fp)
        ss_tot += y_y * y_y;
   40c30:	e17ff917 	ldw	r5,-28(fp)
   40c34:	e13ff917 	ldw	r4,-28(fp)
   40c38:	0042a6c0 	call	42a6c <__mulsf3>
   40c3c:	1007883a 	mov	r3,r2
   40c40:	1805883a 	mov	r2,r3
   40c44:	100b883a 	mov	r5,r2
   40c48:	e13ff517 	ldw	r4,-44(fp)
   40c4c:	0041f680 	call	41f68 <__addsf3>
   40c50:	1007883a 	mov	r3,r2
   40c54:	e0fff515 	stw	r3,-44(fp)
        *MEDIDOR_ESCRITA = 2; // para pausar a contagem
   40c58:	00800074 	movhi	r2,1
   40c5c:	10840204 	addi	r2,r2,4104
   40c60:	00c00084 	movi	r3,2
   40c64:	10c00015 	stw	r3,0(r2)
float coefficientOfDetermination(Point* data, Line model, float avg_y, int data_size) {
	//*MEDIDOR_ESCRITA = 0; // para resetar a contagem
	//*MEDIDOR_ESCRITA = 1; // para iniciar a contagem
	float ss_res = 0;
    float ss_tot = 0;
    for (int i = 0; i < data_size; i++) {
   40c68:	e0bff617 	ldw	r2,-40(fp)
   40c6c:	10800044 	addi	r2,r2,1
   40c70:	e0bff615 	stw	r2,-40(fp)
   40c74:	e0fff617 	ldw	r3,-40(fp)
   40c78:	e0800217 	ldw	r2,8(fp)
   40c7c:	18bfad16 	blt	r3,r2,40b34 <_gp+0xfffe39ec>
        float y_y = (data[i].y - avg_y);
        ss_res += y_f * y_f;
        ss_tot += y_y * y_y;
        *MEDIDOR_ESCRITA = 2; // para pausar a contagem
    }
    float r = (ss_res / ss_tot);
   40c80:	e17ff517 	ldw	r5,-44(fp)
   40c84:	e13ff417 	ldw	r4,-48(fp)
   40c88:	00424300 	call	42430 <__divsf3>
   40c8c:	1007883a 	mov	r3,r2
   40c90:	e0fffa15 	stw	r3,-24(fp)
    //*MEDIDOR_ESCRITA = 2; // para pausar a contagem
    return r;
   40c94:	e0bffa17 	ldw	r2,-24(fp)
   40c98:	1007883a 	mov	r3,r2
}
   40c9c:	1805883a 	mov	r2,r3
   40ca0:	e6ffff04 	addi	sp,fp,-4
   40ca4:	dfc00217 	ldw	ra,8(sp)
   40ca8:	df000117 	ldw	fp,4(sp)
   40cac:	dc000017 	ldw	r16,0(sp)
   40cb0:	dec00304 	addi	sp,sp,12
   40cb4:	f800283a 	ret

00040cb8 <inliersOutliersMemory>:

void inliersOutliersMemory(int* data, Line model, Point* inliers, Point* outliers, int dataSize, int* inlierSize, int* outlierSize) {
   40cb8:	defff404 	addi	sp,sp,-48
   40cbc:	dfc00b15 	stw	ra,44(sp)
   40cc0:	df000a15 	stw	fp,40(sp)
   40cc4:	dc000915 	stw	r16,36(sp)
   40cc8:	df000a04 	addi	fp,sp,40
   40ccc:	e13ffb15 	stw	r4,-20(fp)
   40cd0:	e17ffc15 	stw	r5,-16(fp)
   40cd4:	e1bffd15 	stw	r6,-12(fp)
   40cd8:	e1fffe15 	stw	r7,-8(fp)

	*MEDIDOR_ESCRITA = 0; // para resetar a contagem
   40cdc:	00800074 	movhi	r2,1
   40ce0:	10840204 	addi	r2,r2,4104
   40ce4:	10000015 	stw	zero,0(r2)
	*MEDIDOR_ESCRITA = 1; // para iniciar a contagem
   40ce8:	00800074 	movhi	r2,1
   40cec:	10840204 	addi	r2,r2,4104
   40cf0:	00c00044 	movi	r3,1
   40cf4:	10c00015 	stw	r3,0(r2)
    float square2 = E * E * (model.a * model.a + 1.0);
   40cf8:	e0bffc17 	ldw	r2,-16(fp)
   40cfc:	e0fffc17 	ldw	r3,-16(fp)
   40d00:	180b883a 	mov	r5,r3
   40d04:	1009883a 	mov	r4,r2
   40d08:	0042a6c0 	call	42a6c <__mulsf3>
   40d0c:	1007883a 	mov	r3,r2
   40d10:	1805883a 	mov	r2,r3
   40d14:	1009883a 	mov	r4,r2
   40d18:	0045c240 	call	45c24 <__extendsfdf2>
   40d1c:	1011883a 	mov	r8,r2
   40d20:	1813883a 	mov	r9,r3
   40d24:	000d883a 	mov	r6,zero
   40d28:	01cffc34 	movhi	r7,16368
   40d2c:	4009883a 	mov	r4,r8
   40d30:	480b883a 	mov	r5,r9
   40d34:	00435140 	call	43514 <__adddf3>
   40d38:	1009883a 	mov	r4,r2
   40d3c:	180b883a 	mov	r5,r3
   40d40:	2005883a 	mov	r2,r4
   40d44:	2807883a 	mov	r3,r5
   40d48:	000d883a 	mov	r6,zero
   40d4c:	01d00e74 	movhi	r7,16441
   40d50:	1009883a 	mov	r4,r2
   40d54:	180b883a 	mov	r5,r3
   40d58:	00449600 	call	44960 <__muldf3>
   40d5c:	1009883a 	mov	r4,r2
   40d60:	180b883a 	mov	r5,r3
   40d64:	2005883a 	mov	r2,r4
   40d68:	2807883a 	mov	r3,r5
   40d6c:	1009883a 	mov	r4,r2
   40d70:	180b883a 	mov	r5,r3
   40d74:	0045d340 	call	45d34 <__truncdfsf2>
   40d78:	1007883a 	mov	r3,r2
   40d7c:	e0fff715 	stw	r3,-36(fp)
    *MEDIDOR_ESCRITA = 2; // para pausar a contagem
   40d80:	00800074 	movhi	r2,1
   40d84:	10840204 	addi	r2,r2,4104
   40d88:	00c00084 	movi	r3,2
   40d8c:	10c00015 	stw	r3,0(r2)

    for (int k = 0; k < dataSize; k++) {
   40d90:	e03ff615 	stw	zero,-40(fp)
   40d94:	00008606 	br	40fb0 <inliersOutliersMemory+0x2f8>
    	int tempX = data[k]&0xFF;
   40d98:	e0bff617 	ldw	r2,-40(fp)
   40d9c:	1085883a 	add	r2,r2,r2
   40da0:	1085883a 	add	r2,r2,r2
   40da4:	1007883a 	mov	r3,r2
   40da8:	e0bffb17 	ldw	r2,-20(fp)
   40dac:	10c5883a 	add	r2,r2,r3
   40db0:	10800017 	ldw	r2,0(r2)
   40db4:	10803fcc 	andi	r2,r2,255
   40db8:	e0bff815 	stw	r2,-32(fp)
    	int tempY = (data[k]>>8)&0xFF ;
   40dbc:	e0bff617 	ldw	r2,-40(fp)
   40dc0:	1085883a 	add	r2,r2,r2
   40dc4:	1085883a 	add	r2,r2,r2
   40dc8:	1007883a 	mov	r3,r2
   40dcc:	e0bffb17 	ldw	r2,-20(fp)
   40dd0:	10c5883a 	add	r2,r2,r3
   40dd4:	10800017 	ldw	r2,0(r2)
   40dd8:	1005d23a 	srai	r2,r2,8
   40ddc:	10803fcc 	andi	r2,r2,255
   40de0:	e0bff915 	stw	r2,-28(fp)

    	*MEDIDOR_ESCRITA = 0; // para resetar a contagem
   40de4:	00800074 	movhi	r2,1
   40de8:	10840204 	addi	r2,r2,4104
   40dec:	10000015 	stw	zero,0(r2)
    	*MEDIDOR_ESCRITA = 1; // para iniciar a contagem
   40df0:	00800074 	movhi	r2,1
   40df4:	10840204 	addi	r2,r2,4104
   40df8:	00c00044 	movi	r3,1
   40dfc:	10c00015 	stw	r3,0(r2)
        float dist = (model.a * tempX - tempY + model.b);
   40e00:	e43ffc17 	ldw	r16,-16(fp)
   40e04:	e13ff817 	ldw	r4,-32(fp)
   40e08:	00433f00 	call	433f0 <__floatsisf>
   40e0c:	1007883a 	mov	r3,r2
   40e10:	180b883a 	mov	r5,r3
   40e14:	8009883a 	mov	r4,r16
   40e18:	0042a6c0 	call	42a6c <__mulsf3>
   40e1c:	1007883a 	mov	r3,r2
   40e20:	1821883a 	mov	r16,r3
   40e24:	e13ff917 	ldw	r4,-28(fp)
   40e28:	00433f00 	call	433f0 <__floatsisf>
   40e2c:	1007883a 	mov	r3,r2
   40e30:	180b883a 	mov	r5,r3
   40e34:	8009883a 	mov	r4,r16
   40e38:	0042e9c0 	call	42e9c <__subsf3>
   40e3c:	1009883a 	mov	r4,r2
   40e40:	2007883a 	mov	r3,r4
   40e44:	e0bffd17 	ldw	r2,-12(fp)
   40e48:	100b883a 	mov	r5,r2
   40e4c:	1809883a 	mov	r4,r3
   40e50:	0041f680 	call	41f68 <__addsf3>
   40e54:	1007883a 	mov	r3,r2
   40e58:	e0fffa15 	stw	r3,-24(fp)
        *MEDIDOR_ESCRITA = 2; // para pausar a contagem
   40e5c:	00800074 	movhi	r2,1
   40e60:	10840204 	addi	r2,r2,4104
   40e64:	00c00084 	movi	r3,2
   40e68:	10c00015 	stw	r3,0(r2)

        if (dist * dist <= square2) {
   40e6c:	e17ffa17 	ldw	r5,-24(fp)
   40e70:	e13ffa17 	ldw	r4,-24(fp)
   40e74:	0042a6c0 	call	42a6c <__mulsf3>
   40e78:	1007883a 	mov	r3,r2
   40e7c:	1805883a 	mov	r2,r3
   40e80:	e17ff717 	ldw	r5,-36(fp)
   40e84:	1009883a 	mov	r4,r2
   40e88:	00429a40 	call	429a4 <__lesf2>
   40e8c:	00802316 	blt	zero,r2,40f1c <inliersOutliersMemory+0x264>
        	inliers[*inlierSize].x = data[k]&0xFF;
   40e90:	e0800417 	ldw	r2,16(fp)
   40e94:	10800017 	ldw	r2,0(r2)
   40e98:	100490fa 	slli	r2,r2,3
   40e9c:	e0fffe17 	ldw	r3,-8(fp)
   40ea0:	1887883a 	add	r3,r3,r2
   40ea4:	e0bff617 	ldw	r2,-40(fp)
   40ea8:	1085883a 	add	r2,r2,r2
   40eac:	1085883a 	add	r2,r2,r2
   40eb0:	1009883a 	mov	r4,r2
   40eb4:	e0bffb17 	ldw	r2,-20(fp)
   40eb8:	1105883a 	add	r2,r2,r4
   40ebc:	10800017 	ldw	r2,0(r2)
   40ec0:	10803fcc 	andi	r2,r2,255
   40ec4:	18800015 	stw	r2,0(r3)
        	inliers[*inlierSize].y = (data[k]>>8)&0xFF;
   40ec8:	e0800417 	ldw	r2,16(fp)
   40ecc:	10800017 	ldw	r2,0(r2)
   40ed0:	100490fa 	slli	r2,r2,3
   40ed4:	e0fffe17 	ldw	r3,-8(fp)
   40ed8:	1887883a 	add	r3,r3,r2
   40edc:	e0bff617 	ldw	r2,-40(fp)
   40ee0:	1085883a 	add	r2,r2,r2
   40ee4:	1085883a 	add	r2,r2,r2
   40ee8:	1009883a 	mov	r4,r2
   40eec:	e0bffb17 	ldw	r2,-20(fp)
   40ef0:	1105883a 	add	r2,r2,r4
   40ef4:	10800017 	ldw	r2,0(r2)
   40ef8:	1005d23a 	srai	r2,r2,8
   40efc:	10803fcc 	andi	r2,r2,255
   40f00:	18800115 	stw	r2,4(r3)
            (*inlierSize)++;
   40f04:	e0800417 	ldw	r2,16(fp)
   40f08:	10800017 	ldw	r2,0(r2)
   40f0c:	10c00044 	addi	r3,r2,1
   40f10:	e0800417 	ldw	r2,16(fp)
   40f14:	10c00015 	stw	r3,0(r2)
   40f18:	00002206 	br	40fa4 <inliersOutliersMemory+0x2ec>
        } else {
        	outliers[*outlierSize].x = data[k]&0xFF;
   40f1c:	e0800517 	ldw	r2,20(fp)
   40f20:	10800017 	ldw	r2,0(r2)
   40f24:	100490fa 	slli	r2,r2,3
   40f28:	e0c00217 	ldw	r3,8(fp)
   40f2c:	1887883a 	add	r3,r3,r2
   40f30:	e0bff617 	ldw	r2,-40(fp)
   40f34:	1085883a 	add	r2,r2,r2
   40f38:	1085883a 	add	r2,r2,r2
   40f3c:	1009883a 	mov	r4,r2
   40f40:	e0bffb17 	ldw	r2,-20(fp)
   40f44:	1105883a 	add	r2,r2,r4
   40f48:	10800017 	ldw	r2,0(r2)
   40f4c:	10803fcc 	andi	r2,r2,255
   40f50:	18800015 	stw	r2,0(r3)
        	outliers[*outlierSize].y = (data[k]>>8)&0xFF;
   40f54:	e0800517 	ldw	r2,20(fp)
   40f58:	10800017 	ldw	r2,0(r2)
   40f5c:	100490fa 	slli	r2,r2,3
   40f60:	e0c00217 	ldw	r3,8(fp)
   40f64:	1887883a 	add	r3,r3,r2
   40f68:	e0bff617 	ldw	r2,-40(fp)
   40f6c:	1085883a 	add	r2,r2,r2
   40f70:	1085883a 	add	r2,r2,r2
   40f74:	1009883a 	mov	r4,r2
   40f78:	e0bffb17 	ldw	r2,-20(fp)
   40f7c:	1105883a 	add	r2,r2,r4
   40f80:	10800017 	ldw	r2,0(r2)
   40f84:	1005d23a 	srai	r2,r2,8
   40f88:	10803fcc 	andi	r2,r2,255
   40f8c:	18800115 	stw	r2,4(r3)
            (*outlierSize)++;
   40f90:	e0800517 	ldw	r2,20(fp)
   40f94:	10800017 	ldw	r2,0(r2)
   40f98:	10c00044 	addi	r3,r2,1
   40f9c:	e0800517 	ldw	r2,20(fp)
   40fa0:	10c00015 	stw	r3,0(r2)
	*MEDIDOR_ESCRITA = 0; // para resetar a contagem
	*MEDIDOR_ESCRITA = 1; // para iniciar a contagem
    float square2 = E * E * (model.a * model.a + 1.0);
    *MEDIDOR_ESCRITA = 2; // para pausar a contagem

    for (int k = 0; k < dataSize; k++) {
   40fa4:	e0bff617 	ldw	r2,-40(fp)
   40fa8:	10800044 	addi	r2,r2,1
   40fac:	e0bff615 	stw	r2,-40(fp)
   40fb0:	e0fff617 	ldw	r3,-40(fp)
   40fb4:	e0800317 	ldw	r2,12(fp)
   40fb8:	18bf7716 	blt	r3,r2,40d98 <_gp+0xfffe3c50>
        }
    }
    //*MEDIDOR_ESCRITA = 2; // para pausar a contagem
    //*MEDIDOR_ESCRITA = 2; // para pausar a contagem

}
   40fbc:	0001883a 	nop
   40fc0:	e6ffff04 	addi	sp,fp,-4
   40fc4:	dfc00217 	ldw	ra,8(sp)
   40fc8:	df000117 	ldw	fp,4(sp)
   40fcc:	dc000017 	ldw	r16,0(sp)
   40fd0:	dec00304 	addi	sp,sp,12
   40fd4:	f800283a 	ret

00040fd8 <inliersOutliers>:

void inliersOutliers(Point* data, Line model, Point* inliers, Point* outliers, int dataSize, int* inlierSize, int* outlierSize) {
   40fd8:	defff604 	addi	sp,sp,-40
   40fdc:	dfc00915 	stw	ra,36(sp)
   40fe0:	df000815 	stw	fp,32(sp)
   40fe4:	dc000715 	stw	r16,28(sp)
   40fe8:	df000804 	addi	fp,sp,32
   40fec:	e13ffb15 	stw	r4,-20(fp)
   40ff0:	e17ffc15 	stw	r5,-16(fp)
   40ff4:	e1bffd15 	stw	r6,-12(fp)
   40ff8:	e1fffe15 	stw	r7,-8(fp)
	//*MEDIDOR_ESCRITA = 0; // para resetar a contagem
	//*MEDIDOR_ESCRITA = 1; // para iniciar a contagem
    float square2 = E * E * (model.a * model.a + 1.0);
   40ffc:	e0bffc17 	ldw	r2,-16(fp)
   41000:	e0fffc17 	ldw	r3,-16(fp)
   41004:	180b883a 	mov	r5,r3
   41008:	1009883a 	mov	r4,r2
   4100c:	0042a6c0 	call	42a6c <__mulsf3>
   41010:	1007883a 	mov	r3,r2
   41014:	1805883a 	mov	r2,r3
   41018:	1009883a 	mov	r4,r2
   4101c:	0045c240 	call	45c24 <__extendsfdf2>
   41020:	1011883a 	mov	r8,r2
   41024:	1813883a 	mov	r9,r3
   41028:	000d883a 	mov	r6,zero
   4102c:	01cffc34 	movhi	r7,16368
   41030:	4009883a 	mov	r4,r8
   41034:	480b883a 	mov	r5,r9
   41038:	00435140 	call	43514 <__adddf3>
   4103c:	1009883a 	mov	r4,r2
   41040:	180b883a 	mov	r5,r3
   41044:	2005883a 	mov	r2,r4
   41048:	2807883a 	mov	r3,r5
   4104c:	000d883a 	mov	r6,zero
   41050:	01d00e74 	movhi	r7,16441
   41054:	1009883a 	mov	r4,r2
   41058:	180b883a 	mov	r5,r3
   4105c:	00449600 	call	44960 <__muldf3>
   41060:	1009883a 	mov	r4,r2
   41064:	180b883a 	mov	r5,r3
   41068:	2005883a 	mov	r2,r4
   4106c:	2807883a 	mov	r3,r5
   41070:	1009883a 	mov	r4,r2
   41074:	180b883a 	mov	r5,r3
   41078:	0045d340 	call	45d34 <__truncdfsf2>
   4107c:	1007883a 	mov	r3,r2
   41080:	e0fff915 	stw	r3,-28(fp)

    for (int k = 0; k < dataSize; k++) {
   41084:	e03ff815 	stw	zero,-32(fp)
   41088:	00006406 	br	4121c <inliersOutliers+0x244>
        float dist = (model.a * data[k].x - data[k].y + model.b);
   4108c:	e43ffc17 	ldw	r16,-16(fp)
   41090:	e0bff817 	ldw	r2,-32(fp)
   41094:	100490fa 	slli	r2,r2,3
   41098:	e0fffb17 	ldw	r3,-20(fp)
   4109c:	1885883a 	add	r2,r3,r2
   410a0:	10800017 	ldw	r2,0(r2)
   410a4:	1009883a 	mov	r4,r2
   410a8:	00433f00 	call	433f0 <__floatsisf>
   410ac:	1007883a 	mov	r3,r2
   410b0:	180b883a 	mov	r5,r3
   410b4:	8009883a 	mov	r4,r16
   410b8:	0042a6c0 	call	42a6c <__mulsf3>
   410bc:	1007883a 	mov	r3,r2
   410c0:	1821883a 	mov	r16,r3
   410c4:	e0bff817 	ldw	r2,-32(fp)
   410c8:	100490fa 	slli	r2,r2,3
   410cc:	e0fffb17 	ldw	r3,-20(fp)
   410d0:	1885883a 	add	r2,r3,r2
   410d4:	10800117 	ldw	r2,4(r2)
   410d8:	1009883a 	mov	r4,r2
   410dc:	00433f00 	call	433f0 <__floatsisf>
   410e0:	1007883a 	mov	r3,r2
   410e4:	180b883a 	mov	r5,r3
   410e8:	8009883a 	mov	r4,r16
   410ec:	0042e9c0 	call	42e9c <__subsf3>
   410f0:	1009883a 	mov	r4,r2
   410f4:	2007883a 	mov	r3,r4
   410f8:	e0bffd17 	ldw	r2,-12(fp)
   410fc:	100b883a 	mov	r5,r2
   41100:	1809883a 	mov	r4,r3
   41104:	0041f680 	call	41f68 <__addsf3>
   41108:	1007883a 	mov	r3,r2
   4110c:	e0fffa15 	stw	r3,-24(fp)
        if (dist * dist <= square2) {
   41110:	e17ffa17 	ldw	r5,-24(fp)
   41114:	e13ffa17 	ldw	r4,-24(fp)
   41118:	0042a6c0 	call	42a6c <__mulsf3>
   4111c:	1007883a 	mov	r3,r2
   41120:	1805883a 	mov	r2,r3
   41124:	e17ff917 	ldw	r5,-28(fp)
   41128:	1009883a 	mov	r4,r2
   4112c:	00429a40 	call	429a4 <__lesf2>
   41130:	00801c16 	blt	zero,r2,411a4 <inliersOutliers+0x1cc>
            inliers[*inlierSize].x = data[k].x;
   41134:	e0800417 	ldw	r2,16(fp)
   41138:	10800017 	ldw	r2,0(r2)
   4113c:	100490fa 	slli	r2,r2,3
   41140:	e0fffe17 	ldw	r3,-8(fp)
   41144:	1885883a 	add	r2,r3,r2
   41148:	e0fff817 	ldw	r3,-32(fp)
   4114c:	180690fa 	slli	r3,r3,3
   41150:	e13ffb17 	ldw	r4,-20(fp)
   41154:	20c7883a 	add	r3,r4,r3
   41158:	18c00017 	ldw	r3,0(r3)
   4115c:	10c00015 	stw	r3,0(r2)
            inliers[*inlierSize].y = data[k].y;
   41160:	e0800417 	ldw	r2,16(fp)
   41164:	10800017 	ldw	r2,0(r2)
   41168:	100490fa 	slli	r2,r2,3
   4116c:	e0fffe17 	ldw	r3,-8(fp)
   41170:	1885883a 	add	r2,r3,r2
   41174:	e0fff817 	ldw	r3,-32(fp)
   41178:	180690fa 	slli	r3,r3,3
   4117c:	e13ffb17 	ldw	r4,-20(fp)
   41180:	20c7883a 	add	r3,r4,r3
   41184:	18c00117 	ldw	r3,4(r3)
   41188:	10c00115 	stw	r3,4(r2)
            (*inlierSize)++;
   4118c:	e0800417 	ldw	r2,16(fp)
   41190:	10800017 	ldw	r2,0(r2)
   41194:	10c00044 	addi	r3,r2,1
   41198:	e0800417 	ldw	r2,16(fp)
   4119c:	10c00015 	stw	r3,0(r2)
   411a0:	00001b06 	br	41210 <inliersOutliers+0x238>
        } else {
            outliers[*outlierSize].x = data[k].x;
   411a4:	e0800517 	ldw	r2,20(fp)
   411a8:	10800017 	ldw	r2,0(r2)
   411ac:	100490fa 	slli	r2,r2,3
   411b0:	e0c00217 	ldw	r3,8(fp)
   411b4:	1885883a 	add	r2,r3,r2
   411b8:	e0fff817 	ldw	r3,-32(fp)
   411bc:	180690fa 	slli	r3,r3,3
   411c0:	e13ffb17 	ldw	r4,-20(fp)
   411c4:	20c7883a 	add	r3,r4,r3
   411c8:	18c00017 	ldw	r3,0(r3)
   411cc:	10c00015 	stw	r3,0(r2)
            outliers[*outlierSize].y = data[k].y;
   411d0:	e0800517 	ldw	r2,20(fp)
   411d4:	10800017 	ldw	r2,0(r2)
   411d8:	100490fa 	slli	r2,r2,3
   411dc:	e0c00217 	ldw	r3,8(fp)
   411e0:	1885883a 	add	r2,r3,r2
   411e4:	e0fff817 	ldw	r3,-32(fp)
   411e8:	180690fa 	slli	r3,r3,3
   411ec:	e13ffb17 	ldw	r4,-20(fp)
   411f0:	20c7883a 	add	r3,r4,r3
   411f4:	18c00117 	ldw	r3,4(r3)
   411f8:	10c00115 	stw	r3,4(r2)
            (*outlierSize)++;
   411fc:	e0800517 	ldw	r2,20(fp)
   41200:	10800017 	ldw	r2,0(r2)
   41204:	10c00044 	addi	r3,r2,1
   41208:	e0800517 	ldw	r2,20(fp)
   4120c:	10c00015 	stw	r3,0(r2)
void inliersOutliers(Point* data, Line model, Point* inliers, Point* outliers, int dataSize, int* inlierSize, int* outlierSize) {
	//*MEDIDOR_ESCRITA = 0; // para resetar a contagem
	//*MEDIDOR_ESCRITA = 1; // para iniciar a contagem
    float square2 = E * E * (model.a * model.a + 1.0);

    for (int k = 0; k < dataSize; k++) {
   41210:	e0bff817 	ldw	r2,-32(fp)
   41214:	10800044 	addi	r2,r2,1
   41218:	e0bff815 	stw	r2,-32(fp)
   4121c:	e0fff817 	ldw	r3,-32(fp)
   41220:	e0800317 	ldw	r2,12(fp)
   41224:	18bf9916 	blt	r3,r2,4108c <_gp+0xfffe3f44>
        }
    }
    //*MEDIDOR_ESCRITA = 2; // para pausar a contagem
    //*MEDIDOR_ESCRITA = 2; // para pausar a contagem

}
   41228:	0001883a 	nop
   4122c:	e6ffff04 	addi	sp,fp,-4
   41230:	dfc00217 	ldw	ra,8(sp)
   41234:	df000117 	ldw	fp,4(sp)
   41238:	dc000017 	ldw	r16,0(sp)
   4123c:	dec00304 	addi	sp,sp,12
   41240:	f800283a 	ret

00041244 <checkModel>:

void checkModel(Point* data, Point* temp, RansacResult* rs, int data_size, int temp_size) {
   41244:	defb3d04 	addi	sp,sp,-4876
   41248:	dfc4c215 	stw	ra,4872(sp)
   4124c:	df04c115 	stw	fp,4868(sp)
   41250:	df04c104 	addi	fp,sp,4868
   41254:	e13ffc15 	stw	r4,-16(fp)
   41258:	e17ffd15 	stw	r5,-12(fp)
   4125c:	e1bffe15 	stw	r6,-8(fp)
   41260:	e1ffff15 	stw	r7,-4(fp)
	//*MEDIDOR_ESCRITA = 0; // para resetar a contagem
	//*MEDIDOR_ESCRITA = 1; // para iniciar a contagem
    Point inliers[MAX_POINTS];
    Point outliers[MAX_POINTS];
    int inlinersSize = 0;
   41264:	e03ff615 	stw	zero,-40(fp)
    int outlierSize = 0;
   41268:	e03ff715 	stw	zero,-36(fp)
    Line model = leastSquare(temp, temp_size);
   4126c:	e1400217 	ldw	r5,8(fp)
   41270:	e13ffd17 	ldw	r4,-12(fp)
   41274:	00407f40 	call	407f4 <leastSquare>
   41278:	1009883a 	mov	r4,r2
   4127c:	180b883a 	mov	r5,r3
   41280:	e13ff815 	stw	r4,-32(fp)
   41284:	e17ff915 	stw	r5,-28(fp)

    inliersOutliers(data, model, inliers, outliers, data_size, &inlinersSize, &outlierSize);
   41288:	e0fb4604 	addi	r3,fp,-4840
   4128c:	e0bff704 	addi	r2,fp,-36
   41290:	d8800315 	stw	r2,12(sp)
   41294:	e0bff604 	addi	r2,fp,-40
   41298:	d8800215 	stw	r2,8(sp)
   4129c:	e0bfff17 	ldw	r2,-4(fp)
   412a0:	d8800115 	stw	r2,4(sp)
   412a4:	e0bd9e04 	addi	r2,fp,-2440
   412a8:	d8800015 	stw	r2,0(sp)
   412ac:	180f883a 	mov	r7,r3
   412b0:	e17ff817 	ldw	r5,-32(fp)
   412b4:	e1bff917 	ldw	r6,-28(fp)
   412b8:	e13ffc17 	ldw	r4,-16(fp)
   412bc:	0040fd80 	call	40fd8 <inliersOutliers>

    if(inlinersSize >= rs->bestQty && inlinersSize >= (int)(data_size * C)){
   412c0:	e0bffe17 	ldw	r2,-8(fp)
   412c4:	10800317 	ldw	r2,12(r2)
   412c8:	e0fff617 	ldw	r3,-40(fp)
   412cc:	18805716 	blt	r3,r2,4142c <checkModel+0x1e8>
   412d0:	e13fff17 	ldw	r4,-4(fp)
   412d4:	0045b480 	call	45b48 <__floatsidf>
   412d8:	1011883a 	mov	r8,r2
   412dc:	1813883a 	mov	r9,r3
   412e0:	000d883a 	mov	r6,zero
   412e4:	01cff834 	movhi	r7,16352
   412e8:	4009883a 	mov	r4,r8
   412ec:	480b883a 	mov	r5,r9
   412f0:	00449600 	call	44960 <__muldf3>
   412f4:	1009883a 	mov	r4,r2
   412f8:	180b883a 	mov	r5,r3
   412fc:	2005883a 	mov	r2,r4
   41300:	2807883a 	mov	r3,r5
   41304:	1009883a 	mov	r4,r2
   41308:	180b883a 	mov	r5,r3
   4130c:	0045ac80 	call	45ac8 <__fixdfsi>
   41310:	1007883a 	mov	r3,r2
   41314:	e0bff617 	ldw	r2,-40(fp)
   41318:	10c04416 	blt	r2,r3,4142c <checkModel+0x1e8>
        Line inliersModel = leastSquare(inliers, inlinersSize);
   4131c:	e0fff617 	ldw	r3,-40(fp)
   41320:	e0bb4604 	addi	r2,fp,-4840
   41324:	180b883a 	mov	r5,r3
   41328:	1009883a 	mov	r4,r2
   4132c:	00407f40 	call	407f4 <leastSquare>
   41330:	1009883a 	mov	r4,r2
   41334:	180b883a 	mov	r5,r3
   41338:	e13ffa15 	stw	r4,-24(fp)
   4133c:	e17ffb15 	stw	r5,-20(fp)
        float inliersAvg_y = 0;
   41340:	e03b4315 	stw	zero,-4852(fp)
        for (int i = 0; i < inlinersSize; i++) {
   41344:	e03b4415 	stw	zero,-4848(fp)
   41348:	00001106 	br	41390 <checkModel+0x14c>
            inliersAvg_y += inliers[i].y;
   4134c:	e0bb4417 	ldw	r2,-4848(fp)
   41350:	100490fa 	slli	r2,r2,3
   41354:	e0fb4304 	addi	r3,fp,-4852
   41358:	1885883a 	add	r2,r3,r2
   4135c:	10800404 	addi	r2,r2,16
   41360:	10800017 	ldw	r2,0(r2)
   41364:	1009883a 	mov	r4,r2
   41368:	00433f00 	call	433f0 <__floatsisf>
   4136c:	1007883a 	mov	r3,r2
   41370:	180b883a 	mov	r5,r3
   41374:	e13b4317 	ldw	r4,-4852(fp)
   41378:	0041f680 	call	41f68 <__addsf3>
   4137c:	1007883a 	mov	r3,r2
   41380:	e0fb4315 	stw	r3,-4852(fp)
    inliersOutliers(data, model, inliers, outliers, data_size, &inlinersSize, &outlierSize);

    if(inlinersSize >= rs->bestQty && inlinersSize >= (int)(data_size * C)){
        Line inliersModel = leastSquare(inliers, inlinersSize);
        float inliersAvg_y = 0;
        for (int i = 0; i < inlinersSize; i++) {
   41384:	e0bb4417 	ldw	r2,-4848(fp)
   41388:	10800044 	addi	r2,r2,1
   4138c:	e0bb4415 	stw	r2,-4848(fp)
   41390:	e0bff617 	ldw	r2,-40(fp)
   41394:	e0fb4417 	ldw	r3,-4848(fp)
   41398:	18bfec16 	blt	r3,r2,4134c <_gp+0xfffe4204>
            inliersAvg_y += inliers[i].y;
        }
        inliersAvg_y /= inlinersSize;
   4139c:	e0bff617 	ldw	r2,-40(fp)
   413a0:	1009883a 	mov	r4,r2
   413a4:	00433f00 	call	433f0 <__floatsisf>
   413a8:	1007883a 	mov	r3,r2
   413ac:	180b883a 	mov	r5,r3
   413b0:	e13b4317 	ldw	r4,-4852(fp)
   413b4:	00424300 	call	42430 <__divsf3>
   413b8:	1007883a 	mov	r3,r2
   413bc:	e0fb4315 	stw	r3,-4852(fp)
        float  inliersFit = coefficientOfDetermination(inliers, inliersModel, inliersAvg_y, data_size);
   413c0:	e0fb4604 	addi	r3,fp,-4840
   413c4:	e0bfff17 	ldw	r2,-4(fp)
   413c8:	d8800015 	stw	r2,0(sp)
   413cc:	e1fb4317 	ldw	r7,-4852(fp)
   413d0:	e17ffa17 	ldw	r5,-24(fp)
   413d4:	e1bffb17 	ldw	r6,-20(fp)
   413d8:	1809883a 	mov	r4,r3
   413dc:	0040b000 	call	40b00 <coefficientOfDetermination>
   413e0:	e0bb4515 	stw	r2,-4844(fp)
        if (inliersFit < rs->bestFit) {
   413e4:	e0bffe17 	ldw	r2,-8(fp)
   413e8:	10c00217 	ldw	r3,8(r2)
   413ec:	e17b4517 	ldw	r5,-4844(fp)
   413f0:	1809883a 	mov	r4,r3
   413f4:	00428e80 	call	428e8 <__gesf2>
   413f8:	00800116 	blt	zero,r2,41400 <checkModel+0x1bc>
        rs->bestQty = inlinersSize;
        }
    }
    //*MEDIDOR_ESCRITA = 2; // para pausar a contagem
    //*MEDIDOR_ESCRITA = 2;
}
   413fc:	00000b06 	br	4142c <checkModel+0x1e8>
            inliersAvg_y += inliers[i].y;
        }
        inliersAvg_y /= inlinersSize;
        float  inliersFit = coefficientOfDetermination(inliers, inliersModel, inliersAvg_y, data_size);
        if (inliersFit < rs->bestFit) {
        rs->bestModel = inliersModel;
   41400:	e0bffe17 	ldw	r2,-8(fp)
   41404:	e0fffa17 	ldw	r3,-24(fp)
   41408:	10c00015 	stw	r3,0(r2)
   4140c:	e0fffb17 	ldw	r3,-20(fp)
   41410:	10c00115 	stw	r3,4(r2)
        rs->bestFit = inliersFit;
   41414:	e0bffe17 	ldw	r2,-8(fp)
   41418:	e0fb4517 	ldw	r3,-4844(fp)
   4141c:	10c00215 	stw	r3,8(r2)
        rs->bestQty = inlinersSize;
   41420:	e0fff617 	ldw	r3,-40(fp)
   41424:	e0bffe17 	ldw	r2,-8(fp)
   41428:	10c00315 	stw	r3,12(r2)
        }
    }
    //*MEDIDOR_ESCRITA = 2; // para pausar a contagem
    //*MEDIDOR_ESCRITA = 2;
}
   4142c:	0001883a 	nop
   41430:	e037883a 	mov	sp,fp
   41434:	dfc00117 	ldw	ra,4(sp)
   41438:	df000017 	ldw	fp,0(sp)
   4143c:	dec00204 	addi	sp,sp,8
   41440:	f800283a 	ret

00041444 <squareDistanceBetweenPoints>:

float squareDistanceBetweenPoints (Point* a, Point* b){
   41444:	defff804 	addi	sp,sp,-32
   41448:	dfc00715 	stw	ra,28(sp)
   4144c:	df000615 	stw	fp,24(sp)
   41450:	dc000515 	stw	r16,20(sp)
   41454:	df000604 	addi	fp,sp,24
   41458:	e13ffd15 	stw	r4,-12(fp)
   4145c:	e17ffe15 	stw	r5,-8(fp)
	//*MEDIDOR_ESCRITA = 0; // para resetar a contagem
	//*MEDIDOR_ESCRITA = 1; // para iniciar a contagem
	int dx = a->x - b->x;
   41460:	e0bffd17 	ldw	r2,-12(fp)
   41464:	10c00017 	ldw	r3,0(r2)
   41468:	e0bffe17 	ldw	r2,-8(fp)
   4146c:	10800017 	ldw	r2,0(r2)
   41470:	1885c83a 	sub	r2,r3,r2
   41474:	e0bffa15 	stw	r2,-24(fp)
    int dy = a->y - b->y;
   41478:	e0bffd17 	ldw	r2,-12(fp)
   4147c:	10c00117 	ldw	r3,4(r2)
   41480:	e0bffe17 	ldw	r2,-8(fp)
   41484:	10800117 	ldw	r2,4(r2)
   41488:	1885c83a 	sub	r2,r3,r2
   4148c:	e0bffb15 	stw	r2,-20(fp)
    float resultado = (dx * dx) + (dy * dy);
   41490:	e17ffa17 	ldw	r5,-24(fp)
   41494:	e13ffa17 	ldw	r4,-24(fp)
   41498:	0041f400 	call	41f40 <__mulsi3>
   4149c:	1021883a 	mov	r16,r2
   414a0:	e17ffb17 	ldw	r5,-20(fp)
   414a4:	e13ffb17 	ldw	r4,-20(fp)
   414a8:	0041f400 	call	41f40 <__mulsi3>
   414ac:	8085883a 	add	r2,r16,r2
   414b0:	1009883a 	mov	r4,r2
   414b4:	00433f00 	call	433f0 <__floatsisf>
   414b8:	1007883a 	mov	r3,r2
   414bc:	e0fffc15 	stw	r3,-16(fp)
    //*MEDIDOR_ESCRITA = 2; // para pausar a contagem
    return resultado;
   414c0:	e0bffc17 	ldw	r2,-16(fp)
   414c4:	1007883a 	mov	r3,r2
}
   414c8:	1805883a 	mov	r2,r3
   414cc:	e6ffff04 	addi	sp,fp,-4
   414d0:	dfc00217 	ldw	ra,8(sp)
   414d4:	df000117 	ldw	fp,4(sp)
   414d8:	dc000017 	ldw	r16,0(sp)
   414dc:	dec00304 	addi	sp,sp,12
   414e0:	f800283a 	ret

000414e4 <RANSAC>:

RansacResult RANSAC(int* data, Point* botPos, Point* outliers, int data_size) {
   414e4:	defd8804 	addi	sp,sp,-2528
   414e8:	dfc27715 	stw	ra,2524(sp)
   414ec:	df027615 	stw	fp,2520(sp)
   414f0:	ddc27515 	stw	r23,2516(sp)
   414f4:	dd827415 	stw	r22,2512(sp)
   414f8:	dd427315 	stw	r21,2508(sp)
   414fc:	dd027215 	stw	r20,2504(sp)
   41500:	dcc27115 	stw	r19,2500(sp)
   41504:	dc827015 	stw	r18,2496(sp)
   41508:	dc426f15 	stw	r17,2492(sp)
   4150c:	dc026e15 	stw	r16,2488(sp)
   41510:	df027604 	addi	fp,sp,2520
   41514:	e13ff315 	stw	r4,-52(fp)
   41518:	e17ff415 	stw	r5,-48(fp)
   4151c:	e1bff515 	stw	r6,-44(fp)
   41520:	e1fff615 	stw	r7,-40(fp)
   41524:	d805883a 	mov	r2,sp
   41528:	e0bff715 	stw	r2,-36(fp)
    RansacResult rs;
    //srand(32);
    rs.bestModel.a = 0.0;
   4152c:	e03d9515 	stw	zero,-2476(fp)
    rs.bestModel.b = (float)botPos->y;
   41530:	e0bff517 	ldw	r2,-44(fp)
   41534:	10800117 	ldw	r2,4(r2)
   41538:	1009883a 	mov	r4,r2
   4153c:	00433f00 	call	433f0 <__floatsisf>
   41540:	1007883a 	mov	r3,r2
   41544:	e0fd9615 	stw	r3,-2472(fp)
    rs.bestFit = INFINITY;
   41548:	009fe034 	movhi	r2,32640
   4154c:	e0bd9715 	stw	r2,-2468(fp)
    rs.bestQty = 0;
   41550:	e03d9815 	stw	zero,-2464(fp)

    Point inliers[MAX_POINTS];

    int temp_dist_points = 0;
   41554:	e03d8e15 	stw	zero,-2504(fp)
    int temp_index = 0;
   41558:	e03d9115 	stw	zero,-2492(fp)

    int loopCounter = 0;
   4155c:	e03d8f15 	stw	zero,-2500(fp)
    int inlinersSize = 0;
   41560:	e03ff115 	stw	zero,-60(fp)
    int outlierSize = 0;
   41564:	e03ff215 	stw	zero,-56(fp)

    inliersOutliersMemory(data, rs.bestModel, inliers, outliers, data_size, &inlinersSize, &outlierSize);
   41568:	e0fd9904 	addi	r3,fp,-2460
   4156c:	e0bff204 	addi	r2,fp,-56
   41570:	d8800315 	stw	r2,12(sp)
   41574:	e0bff104 	addi	r2,fp,-60
   41578:	d8800215 	stw	r2,8(sp)
   4157c:	e0800217 	ldw	r2,8(fp)
   41580:	d8800115 	stw	r2,4(sp)
   41584:	e0bff617 	ldw	r2,-40(fp)
   41588:	d8800015 	stw	r2,0(sp)
   4158c:	180f883a 	mov	r7,r3
   41590:	e17d9517 	ldw	r5,-2476(fp)
   41594:	e1bd9617 	ldw	r6,-2472(fp)
   41598:	e13ff417 	ldw	r4,-48(fp)
   4159c:	0040cb80 	call	40cb8 <inliersOutliersMemory>

    if (outlierSize <= 25) {
   415a0:	e0bff217 	ldw	r2,-56(fp)
   415a4:	10800688 	cmpgei	r2,r2,26
   415a8:	10000e1e 	bne	r2,zero,415e4 <RANSAC+0x100>
        rs.bestFit = INFINITY;
   415ac:	009fe034 	movhi	r2,32640
   415b0:	e0bd9715 	stw	r2,-2468(fp)
        rs.bestQty = data_size;
   415b4:	e0800217 	ldw	r2,8(fp)
   415b8:	e0bd9815 	stw	r2,-2464(fp)
        return rs;
   415bc:	e0bff317 	ldw	r2,-52(fp)
   415c0:	e0fd9517 	ldw	r3,-2476(fp)
   415c4:	10c00015 	stw	r3,0(r2)
   415c8:	e0fd9617 	ldw	r3,-2472(fp)
   415cc:	10c00115 	stw	r3,4(r2)
   415d0:	e0fd9717 	ldw	r3,-2468(fp)
   415d4:	10c00215 	stw	r3,8(r2)
   415d8:	e0fd9817 	ldw	r3,-2464(fp)
   415dc:	10c00315 	stw	r3,12(r2)
   415e0:	00007406 	br	417b4 <RANSAC+0x2d0>
    }

    int temp_size = MIN_POINTS;
   415e4:	00800084 	movi	r2,2
   415e8:	e0bd9215 	stw	r2,-2488(fp)
    Point temp[temp_size]; // alocacao tamanho P
   415ec:	e0bd9217 	ldw	r2,-2488(fp)
   415f0:	10ffffc4 	addi	r3,r2,-1
   415f4:	e0fd9315 	stw	r3,-2484(fp)
   415f8:	1007883a 	mov	r3,r2
   415fc:	182d883a 	mov	r22,r3
   41600:	002f883a 	mov	r23,zero
   41604:	b006d6ba 	srli	r3,r22,26
   41608:	b82691ba 	slli	r19,r23,6
   4160c:	1ce6b03a 	or	r19,r3,r19
   41610:	b02491ba 	slli	r18,r22,6
   41614:	1007883a 	mov	r3,r2
   41618:	1829883a 	mov	r20,r3
   4161c:	002b883a 	mov	r21,zero
   41620:	a006d6ba 	srli	r3,r20,26
   41624:	a82291ba 	slli	r17,r21,6
   41628:	1c62b03a 	or	r17,r3,r17
   4162c:	a02091ba 	slli	r16,r20,6
   41630:	100490fa 	slli	r2,r2,3
   41634:	108000c4 	addi	r2,r2,3
   41638:	108000c4 	addi	r2,r2,3
   4163c:	1004d0ba 	srli	r2,r2,2
   41640:	1085883a 	add	r2,r2,r2
   41644:	1085883a 	add	r2,r2,r2
   41648:	d8b7c83a 	sub	sp,sp,r2
   4164c:	d8800404 	addi	r2,sp,16
   41650:	108000c4 	addi	r2,r2,3
   41654:	1004d0ba 	srli	r2,r2,2
   41658:	1085883a 	add	r2,r2,r2
   4165c:	1085883a 	add	r2,r2,r2
   41660:	e0bd9415 	stw	r2,-2480(fp)

    //Posicao inicial do robo
    temp[0] = outliers[0];
   41664:	e0bd9417 	ldw	r2,-2480(fp)
   41668:	e0fff617 	ldw	r3,-40(fp)
   4166c:	19000017 	ldw	r4,0(r3)
   41670:	11000015 	stw	r4,0(r2)
   41674:	18c00117 	ldw	r3,4(r3)
   41678:	10c00115 	stw	r3,4(r2)
    //Execute for N iterations
    while(loopCounter < N) {
   4167c:	00004106 	br	41784 <RANSAC+0x2a0>
		//Sorteia 2 coordenadas que tenham uma distancia minima entre si
		if(temp_dist_points < MIN_DIST_POINTS) {
   41680:	e0bd8e17 	ldw	r2,-2504(fp)
   41684:	10800648 	cmpgei	r2,r2,25
   41688:	1000301e 	bne	r2,zero,4174c <RANSAC+0x268>
		for (int j = 1; j < temp_size; j++) {
   4168c:	00800044 	movi	r2,1
   41690:	e0bd9015 	stw	r2,-2496(fp)
   41694:	00002906 	br	4173c <RANSAC+0x258>
			temp_index = rand() % outlierSize;
   41698:	00460980 	call	46098 <rand>
   4169c:	1007883a 	mov	r3,r2
   416a0:	e0bff217 	ldw	r2,-56(fp)
   416a4:	100b883a 	mov	r5,r2
   416a8:	1809883a 	mov	r4,r3
   416ac:	0041e100 	call	41e10 <__modsi3>
   416b0:	e0bd9115 	stw	r2,-2492(fp)
			temp[j].x = outliers[temp_index].x;
   416b4:	e0bd9117 	ldw	r2,-2492(fp)
   416b8:	100490fa 	slli	r2,r2,3
   416bc:	e0fff617 	ldw	r3,-40(fp)
   416c0:	1885883a 	add	r2,r3,r2
   416c4:	10c00017 	ldw	r3,0(r2)
   416c8:	e13d9417 	ldw	r4,-2480(fp)
   416cc:	e0bd9017 	ldw	r2,-2496(fp)
   416d0:	100490fa 	slli	r2,r2,3
   416d4:	2085883a 	add	r2,r4,r2
   416d8:	10c00015 	stw	r3,0(r2)
			temp[j].y = outliers[temp_index].y;
   416dc:	e0bd9117 	ldw	r2,-2492(fp)
   416e0:	100490fa 	slli	r2,r2,3
   416e4:	e0fff617 	ldw	r3,-40(fp)
   416e8:	1885883a 	add	r2,r3,r2
   416ec:	10c00117 	ldw	r3,4(r2)
   416f0:	e13d9417 	ldw	r4,-2480(fp)
   416f4:	e0bd9017 	ldw	r2,-2496(fp)
   416f8:	100490fa 	slli	r2,r2,3
   416fc:	2085883a 	add	r2,r4,r2
   41700:	10800104 	addi	r2,r2,4
   41704:	10c00015 	stw	r3,0(r2)
			temp_dist_points = squareDistanceBetweenPoints(&temp[0], &temp[1]);
   41708:	e0fd9417 	ldw	r3,-2480(fp)
   4170c:	e0bd9417 	ldw	r2,-2480(fp)
   41710:	10800204 	addi	r2,r2,8
   41714:	100b883a 	mov	r5,r2
   41718:	1809883a 	mov	r4,r3
   4171c:	00414440 	call	41444 <squareDistanceBetweenPoints>
   41720:	1007883a 	mov	r3,r2
   41724:	1809883a 	mov	r4,r3
   41728:	00433800 	call	43380 <__fixsfsi>
   4172c:	e0bd8e15 	stw	r2,-2504(fp)
    temp[0] = outliers[0];
    //Execute for N iterations
    while(loopCounter < N) {
		//Sorteia 2 coordenadas que tenham uma distancia minima entre si
		if(temp_dist_points < MIN_DIST_POINTS) {
		for (int j = 1; j < temp_size; j++) {
   41730:	e0bd9017 	ldw	r2,-2496(fp)
   41734:	10800044 	addi	r2,r2,1
   41738:	e0bd9015 	stw	r2,-2496(fp)
   4173c:	e0fd9017 	ldw	r3,-2496(fp)
   41740:	e0bd9217 	ldw	r2,-2488(fp)
   41744:	18bfd416 	blt	r3,r2,41698 <_gp+0xfffe4550>
   41748:	00000e06 	br	41784 <RANSAC+0x2a0>
			temp[j].y = outliers[temp_index].y;
			temp_dist_points = squareDistanceBetweenPoints(&temp[0], &temp[1]);
		}
        }
        else {
        	checkModel(outliers, temp, &rs, outlierSize, temp_size);
   4174c:	e0fd9417 	ldw	r3,-2480(fp)
   41750:	e17ff217 	ldw	r5,-56(fp)
   41754:	e13d9504 	addi	r4,fp,-2476
   41758:	e0bd9217 	ldw	r2,-2488(fp)
   4175c:	d8800015 	stw	r2,0(sp)
   41760:	280f883a 	mov	r7,r5
   41764:	200d883a 	mov	r6,r4
   41768:	180b883a 	mov	r5,r3
   4176c:	e13ff617 	ldw	r4,-40(fp)
   41770:	00412440 	call	41244 <checkModel>
            temp_dist_points = 0;
   41774:	e03d8e15 	stw	zero,-2504(fp)
            loopCounter++;
   41778:	e0bd8f17 	ldw	r2,-2500(fp)
   4177c:	10800044 	addi	r2,r2,1
   41780:	e0bd8f15 	stw	r2,-2500(fp)
    Point temp[temp_size]; // alocacao tamanho P

    //Posicao inicial do robo
    temp[0] = outliers[0];
    //Execute for N iterations
    while(loopCounter < N) {
   41784:	e0bd8f17 	ldw	r2,-2500(fp)
   41788:	10800290 	cmplti	r2,r2,10
   4178c:	103fbc1e 	bne	r2,zero,41680 <_gp+0xfffe4538>
            temp_dist_points = 0;
            loopCounter++;
        }
    }

    return rs;
   41790:	e0bff317 	ldw	r2,-52(fp)
   41794:	e0fd9517 	ldw	r3,-2476(fp)
   41798:	10c00015 	stw	r3,0(r2)
   4179c:	e0fd9617 	ldw	r3,-2472(fp)
   417a0:	10c00115 	stw	r3,4(r2)
   417a4:	e0fd9717 	ldw	r3,-2468(fp)
   417a8:	10c00215 	stw	r3,8(r2)
   417ac:	e0fd9817 	ldw	r3,-2464(fp)
   417b0:	10c00315 	stw	r3,12(r2)
   417b4:	e6fff717 	ldw	sp,-36(fp)
}
   417b8:	e0bff317 	ldw	r2,-52(fp)
   417bc:	e6fff804 	addi	sp,fp,-32
   417c0:	dfc00917 	ldw	ra,36(sp)
   417c4:	df000817 	ldw	fp,32(sp)
   417c8:	ddc00717 	ldw	r23,28(sp)
   417cc:	dd800617 	ldw	r22,24(sp)
   417d0:	dd400517 	ldw	r21,20(sp)
   417d4:	dd000417 	ldw	r20,16(sp)
   417d8:	dcc00317 	ldw	r19,12(sp)
   417dc:	dc800217 	ldw	r18,8(sp)
   417e0:	dc400117 	ldw	r17,4(sp)
   417e4:	dc000017 	ldw	r16,0(sp)
   417e8:	dec00a04 	addi	sp,sp,40
   417ec:	f800283a 	ret

000417f0 <atan>:
   417f0:	defff704 	addi	sp,sp,-36
   417f4:	dc400115 	stw	r17,4(sp)
   417f8:	04600034 	movhi	r17,32768
   417fc:	8c7fffc4 	addi	r17,r17,-1
   41800:	00910434 	movhi	r2,17424
   41804:	dc800215 	stw	r18,8(sp)
   41808:	dc000015 	stw	r16,0(sp)
   4180c:	dfc00815 	stw	ra,32(sp)
   41810:	ddc00715 	stw	r23,28(sp)
   41814:	dd800615 	stw	r22,24(sp)
   41818:	dd400515 	stw	r21,20(sp)
   4181c:	dd000415 	stw	r20,16(sp)
   41820:	dcc00315 	stw	r19,12(sp)
   41824:	2c62703a 	and	r17,r5,r17
   41828:	10bfffc4 	addi	r2,r2,-1
   4182c:	2821883a 	mov	r16,r5
   41830:	2025883a 	mov	r18,r4
   41834:	1440090e 	bge	r2,r17,4185c <atan+0x6c>
   41838:	009ffc34 	movhi	r2,32752
   4183c:	1440bf16 	blt	r2,r17,41b3c <atan+0x34c>
   41840:	8880bd26 	beq	r17,r2,41b38 <atan+0x348>
   41844:	00951134 	movhi	r2,21572
   41848:	108b4604 	addi	r2,r2,11544
   4184c:	0400fc0e 	bge	zero,r16,41c40 <atan+0x450>
   41850:	00cffe74 	movhi	r3,16377
   41854:	18c87ec4 	addi	r3,r3,8699
   41858:	0000bd06 	br	41b50 <atan+0x360>
   4185c:	008ff734 	movhi	r2,16348
   41860:	10bfffc4 	addi	r2,r2,-1
   41864:	282b883a 	mov	r21,r5
   41868:	1440d216 	blt	r2,r17,41bb4 <atan+0x3c4>
   4186c:	008f8834 	movhi	r2,15904
   41870:	10bfffc4 	addi	r2,r2,-1
   41874:	1440c10e 	bge	r2,r17,41b7c <atan+0x38c>
   41878:	053fffc4 	movi	r20,-1
   4187c:	900d883a 	mov	r6,r18
   41880:	800f883a 	mov	r7,r16
   41884:	9009883a 	mov	r4,r18
   41888:	800b883a 	mov	r5,r16
   4188c:	00449600 	call	44960 <__muldf3>
   41890:	100d883a 	mov	r6,r2
   41894:	180f883a 	mov	r7,r3
   41898:	1009883a 	mov	r4,r2
   4189c:	180b883a 	mov	r5,r3
   418a0:	102f883a 	mov	r23,r2
   418a4:	182d883a 	mov	r22,r3
   418a8:	00449600 	call	44960 <__muldf3>
   418ac:	01b8c8f4 	movhi	r6,58147
   418b0:	01cfe474 	movhi	r7,16273
   418b4:	31b68444 	addi	r6,r6,-9711
   418b8:	39eb4e84 	addi	r7,r7,-21190
   418bc:	1009883a 	mov	r4,r2
   418c0:	180b883a 	mov	r5,r3
   418c4:	1027883a 	mov	r19,r2
   418c8:	1823883a 	mov	r17,r3
   418cc:	00449600 	call	44960 <__muldf3>
   418d0:	01891db4 	movhi	r6,9334
   418d4:	01cfea74 	movhi	r7,16297
   418d8:	31837ac4 	addi	r6,r6,3563
   418dc:	39ded2c4 	addi	r7,r7,31563
   418e0:	1009883a 	mov	r4,r2
   418e4:	180b883a 	mov	r5,r3
   418e8:	00435140 	call	43514 <__adddf3>
   418ec:	980d883a 	mov	r6,r19
   418f0:	880f883a 	mov	r7,r17
   418f4:	1009883a 	mov	r4,r2
   418f8:	180b883a 	mov	r5,r3
   418fc:	00449600 	call	44960 <__muldf3>
   41900:	01a83434 	movhi	r6,41168
   41904:	01cfec74 	movhi	r7,16305
   41908:	318f5444 	addi	r6,r6,15697
   4190c:	39c35984 	addi	r7,r7,3430
   41910:	1009883a 	mov	r4,r2
   41914:	180b883a 	mov	r5,r3
   41918:	00435140 	call	43514 <__adddf3>
   4191c:	980d883a 	mov	r6,r19
   41920:	880f883a 	mov	r7,r17
   41924:	1009883a 	mov	r4,r2
   41928:	180b883a 	mov	r5,r3
   4192c:	00449600 	call	44960 <__muldf3>
   41930:	01b15334 	movhi	r6,50508
   41934:	01cfedf4 	movhi	r7,16311
   41938:	31881b84 	addi	r6,r6,8302
   4193c:	39d17344 	addi	r7,r7,17869
   41940:	1009883a 	mov	r4,r2
   41944:	180b883a 	mov	r5,r3
   41948:	00435140 	call	43514 <__adddf3>
   4194c:	980d883a 	mov	r6,r19
   41950:	880f883a 	mov	r7,r17
   41954:	1009883a 	mov	r4,r2
   41958:	180b883a 	mov	r5,r3
   4195c:	00449600 	call	44960 <__muldf3>
   41960:	01a48074 	movhi	r6,37377
   41964:	01cff0b4 	movhi	r7,16322
   41968:	31a0ffc4 	addi	r6,r6,-31745
   4196c:	39d24904 	addi	r7,r7,18724
   41970:	1009883a 	mov	r4,r2
   41974:	180b883a 	mov	r5,r3
   41978:	00435140 	call	43514 <__adddf3>
   4197c:	980d883a 	mov	r6,r19
   41980:	880f883a 	mov	r7,r17
   41984:	1009883a 	mov	r4,r2
   41988:	180b883a 	mov	r5,r3
   4198c:	00449600 	call	44960 <__muldf3>
   41990:	01955574 	movhi	r6,21845
   41994:	01cff574 	movhi	r7,16341
   41998:	31954344 	addi	r6,r6,21773
   4199c:	39d55544 	addi	r7,r7,21845
   419a0:	1009883a 	mov	r4,r2
   419a4:	180b883a 	mov	r5,r3
   419a8:	00435140 	call	43514 <__adddf3>
   419ac:	b80d883a 	mov	r6,r23
   419b0:	b00f883a 	mov	r7,r22
   419b4:	1009883a 	mov	r4,r2
   419b8:	180b883a 	mov	r5,r3
   419bc:	00449600 	call	44960 <__muldf3>
   419c0:	018b1ab4 	movhi	r6,11370
   419c4:	01efe8f4 	movhi	r7,49059
   419c8:	319b0bc4 	addi	r6,r6,27695
   419cc:	39ed1104 	addi	r7,r7,-19388
   419d0:	9809883a 	mov	r4,r19
   419d4:	880b883a 	mov	r5,r17
   419d8:	102f883a 	mov	r23,r2
   419dc:	182d883a 	mov	r22,r3
   419e0:	00449600 	call	44960 <__muldf3>
   419e4:	0194b7f4 	movhi	r6,21215
   419e8:	01cfebb4 	movhi	r7,16302
   419ec:	31bf6684 	addi	r6,r6,-614
   419f0:	39f78b44 	addi	r7,r7,-8659
   419f4:	1009883a 	mov	r4,r2
   419f8:	180b883a 	mov	r5,r3
   419fc:	00451cc0 	call	451cc <__subdf3>
   41a00:	980d883a 	mov	r6,r19
   41a04:	880f883a 	mov	r7,r17
   41a08:	1009883a 	mov	r4,r2
   41a0c:	180b883a 	mov	r5,r3
   41a10:	00449600 	call	44960 <__muldf3>
   41a14:	01abdd74 	movhi	r6,44917
   41a18:	01cfed34 	movhi	r7,16308
   41a1c:	31a69b44 	addi	r6,r6,-26003
   41a20:	39ec3c84 	addi	r7,r7,-20238
   41a24:	1009883a 	mov	r4,r2
   41a28:	180b883a 	mov	r5,r3
   41a2c:	00451cc0 	call	451cc <__subdf3>
   41a30:	980d883a 	mov	r6,r19
   41a34:	880f883a 	mov	r7,r17
   41a38:	1009883a 	mov	r4,r2
   41a3c:	180b883a 	mov	r5,r3
   41a40:	00449600 	call	44960 <__muldf3>
   41a44:	01bf88f4 	movhi	r6,65059
   41a48:	01cfef34 	movhi	r7,16316
   41a4c:	31859c44 	addi	r6,r6,5745
   41a50:	39dc7184 	addi	r7,r7,29126
   41a54:	1009883a 	mov	r4,r2
   41a58:	180b883a 	mov	r5,r3
   41a5c:	00451cc0 	call	451cc <__subdf3>
   41a60:	980d883a 	mov	r6,r19
   41a64:	880f883a 	mov	r7,r17
   41a68:	1009883a 	mov	r4,r2
   41a6c:	180b883a 	mov	r5,r3
   41a70:	00449600 	call	44960 <__muldf3>
   41a74:	01a66674 	movhi	r6,39321
   41a78:	01cff2b4 	movhi	r7,16330
   41a7c:	31baf104 	addi	r6,r6,-5180
   41a80:	39e66644 	addi	r7,r7,-26215
   41a84:	1009883a 	mov	r4,r2
   41a88:	180b883a 	mov	r5,r3
   41a8c:	00451cc0 	call	451cc <__subdf3>
   41a90:	1009883a 	mov	r4,r2
   41a94:	980d883a 	mov	r6,r19
   41a98:	880f883a 	mov	r7,r17
   41a9c:	180b883a 	mov	r5,r3
   41aa0:	00449600 	call	44960 <__muldf3>
   41aa4:	013fffc4 	movi	r4,-1
   41aa8:	a1006826 	beq	r20,r4,41c4c <atan+0x45c>
   41aac:	100d883a 	mov	r6,r2
   41ab0:	180f883a 	mov	r7,r3
   41ab4:	b809883a 	mov	r4,r23
   41ab8:	b00b883a 	mov	r5,r22
   41abc:	00435140 	call	43514 <__adddf3>
   41ac0:	900d883a 	mov	r6,r18
   41ac4:	800f883a 	mov	r7,r16
   41ac8:	1009883a 	mov	r4,r2
   41acc:	180b883a 	mov	r5,r3
   41ad0:	00449600 	call	44960 <__muldf3>
   41ad4:	a02890fa 	slli	r20,r20,3
   41ad8:	1009883a 	mov	r4,r2
   41adc:	04400174 	movhi	r17,5
   41ae0:	00800174 	movhi	r2,5
   41ae4:	108b6204 	addi	r2,r2,11656
   41ae8:	8c4b6a04 	addi	r17,r17,11688
   41aec:	8d23883a 	add	r17,r17,r20
   41af0:	1529883a 	add	r20,r2,r20
   41af4:	a1800017 	ldw	r6,0(r20)
   41af8:	a1c00117 	ldw	r7,4(r20)
   41afc:	180b883a 	mov	r5,r3
   41b00:	00451cc0 	call	451cc <__subdf3>
   41b04:	900d883a 	mov	r6,r18
   41b08:	800f883a 	mov	r7,r16
   41b0c:	1009883a 	mov	r4,r2
   41b10:	180b883a 	mov	r5,r3
   41b14:	00451cc0 	call	451cc <__subdf3>
   41b18:	89000017 	ldw	r4,0(r17)
   41b1c:	89400117 	ldw	r5,4(r17)
   41b20:	100d883a 	mov	r6,r2
   41b24:	180f883a 	mov	r7,r3
   41b28:	00451cc0 	call	451cc <__subdf3>
   41b2c:	a800080e 	bge	r21,zero,41b50 <atan+0x360>
   41b30:	18e0003c 	xorhi	r3,r3,32768
   41b34:	00000606 	br	41b50 <atan+0x360>
   41b38:	203f4226 	beq	r4,zero,41844 <_gp+0xfffe46fc>
   41b3c:	900d883a 	mov	r6,r18
   41b40:	800f883a 	mov	r7,r16
   41b44:	9009883a 	mov	r4,r18
   41b48:	800b883a 	mov	r5,r16
   41b4c:	00435140 	call	43514 <__adddf3>
   41b50:	dfc00817 	ldw	ra,32(sp)
   41b54:	ddc00717 	ldw	r23,28(sp)
   41b58:	dd800617 	ldw	r22,24(sp)
   41b5c:	dd400517 	ldw	r21,20(sp)
   41b60:	dd000417 	ldw	r20,16(sp)
   41b64:	dcc00317 	ldw	r19,12(sp)
   41b68:	dc800217 	ldw	r18,8(sp)
   41b6c:	dc400117 	ldw	r17,4(sp)
   41b70:	dc000017 	ldw	r16,0(sp)
   41b74:	dec00904 	addi	sp,sp,36
   41b78:	f800283a 	ret
   41b7c:	01a20034 	movhi	r6,34816
   41b80:	01df8e34 	movhi	r7,32312
   41b84:	319d6704 	addi	r6,r6,30108
   41b88:	39f90f04 	addi	r7,r7,-7108
   41b8c:	00435140 	call	43514 <__adddf3>
   41b90:	000d883a 	mov	r6,zero
   41b94:	01cffc34 	movhi	r7,16368
   41b98:	1009883a 	mov	r4,r2
   41b9c:	180b883a 	mov	r5,r3
   41ba0:	00447900 	call	44790 <__gedf2>
   41ba4:	00bf340e 	bge	zero,r2,41878 <_gp+0xfffe4730>
   41ba8:	9005883a 	mov	r2,r18
   41bac:	8007883a 	mov	r3,r16
   41bb0:	003fe706 	br	41b50 <_gp+0xfffe4a08>
   41bb4:	0041d780 	call	41d78 <fabs>
   41bb8:	1025883a 	mov	r18,r2
   41bbc:	008ffcf4 	movhi	r2,16371
   41bc0:	10bfffc4 	addi	r2,r2,-1
   41bc4:	1821883a 	mov	r16,r3
   41bc8:	14403016 	blt	r2,r17,41c8c <atan+0x49c>
   41bcc:	008ff9b4 	movhi	r2,16358
   41bd0:	10bfffc4 	addi	r2,r2,-1
   41bd4:	14405316 	blt	r2,r17,41d24 <atan+0x534>
   41bd8:	900d883a 	mov	r6,r18
   41bdc:	9009883a 	mov	r4,r18
   41be0:	180f883a 	mov	r7,r3
   41be4:	180b883a 	mov	r5,r3
   41be8:	00435140 	call	43514 <__adddf3>
   41bec:	000d883a 	mov	r6,zero
   41bf0:	01cffc34 	movhi	r7,16368
   41bf4:	1009883a 	mov	r4,r2
   41bf8:	180b883a 	mov	r5,r3
   41bfc:	00451cc0 	call	451cc <__subdf3>
   41c00:	9009883a 	mov	r4,r18
   41c04:	800b883a 	mov	r5,r16
   41c08:	000d883a 	mov	r6,zero
   41c0c:	01d00034 	movhi	r7,16384
   41c10:	1027883a 	mov	r19,r2
   41c14:	1823883a 	mov	r17,r3
   41c18:	00435140 	call	43514 <__adddf3>
   41c1c:	100d883a 	mov	r6,r2
   41c20:	180f883a 	mov	r7,r3
   41c24:	9809883a 	mov	r4,r19
   41c28:	880b883a 	mov	r5,r17
   41c2c:	0043dc00 	call	43dc0 <__divdf3>
   41c30:	1025883a 	mov	r18,r2
   41c34:	1821883a 	mov	r16,r3
   41c38:	0029883a 	mov	r20,zero
   41c3c:	003f0f06 	br	4187c <_gp+0xfffe4734>
   41c40:	00effe74 	movhi	r3,49145
   41c44:	18c87ec4 	addi	r3,r3,8699
   41c48:	003fc106 	br	41b50 <_gp+0xfffe4a08>
   41c4c:	b809883a 	mov	r4,r23
   41c50:	b00b883a 	mov	r5,r22
   41c54:	100d883a 	mov	r6,r2
   41c58:	180f883a 	mov	r7,r3
   41c5c:	00435140 	call	43514 <__adddf3>
   41c60:	900d883a 	mov	r6,r18
   41c64:	800f883a 	mov	r7,r16
   41c68:	1009883a 	mov	r4,r2
   41c6c:	180b883a 	mov	r5,r3
   41c70:	00449600 	call	44960 <__muldf3>
   41c74:	100d883a 	mov	r6,r2
   41c78:	180f883a 	mov	r7,r3
   41c7c:	9009883a 	mov	r4,r18
   41c80:	800b883a 	mov	r5,r16
   41c84:	00451cc0 	call	451cc <__subdf3>
   41c88:	003fb106 	br	41b50 <_gp+0xfffe4a08>
   41c8c:	009000f4 	movhi	r2,16387
   41c90:	109fffc4 	addi	r2,r2,32767
   41c94:	14401a16 	blt	r2,r17,41d00 <atan+0x510>
   41c98:	9009883a 	mov	r4,r18
   41c9c:	000d883a 	mov	r6,zero
   41ca0:	01cffe34 	movhi	r7,16376
   41ca4:	180b883a 	mov	r5,r3
   41ca8:	00451cc0 	call	451cc <__subdf3>
   41cac:	9009883a 	mov	r4,r18
   41cb0:	800b883a 	mov	r5,r16
   41cb4:	000d883a 	mov	r6,zero
   41cb8:	01cffe34 	movhi	r7,16376
   41cbc:	1027883a 	mov	r19,r2
   41cc0:	1823883a 	mov	r17,r3
   41cc4:	00449600 	call	44960 <__muldf3>
   41cc8:	000d883a 	mov	r6,zero
   41ccc:	01cffc34 	movhi	r7,16368
   41cd0:	1009883a 	mov	r4,r2
   41cd4:	180b883a 	mov	r5,r3
   41cd8:	00435140 	call	43514 <__adddf3>
   41cdc:	100d883a 	mov	r6,r2
   41ce0:	180f883a 	mov	r7,r3
   41ce4:	9809883a 	mov	r4,r19
   41ce8:	880b883a 	mov	r5,r17
   41cec:	0043dc00 	call	43dc0 <__divdf3>
   41cf0:	1025883a 	mov	r18,r2
   41cf4:	1821883a 	mov	r16,r3
   41cf8:	05000084 	movi	r20,2
   41cfc:	003edf06 	br	4187c <_gp+0xfffe4734>
   41d00:	900d883a 	mov	r6,r18
   41d04:	180f883a 	mov	r7,r3
   41d08:	0009883a 	mov	r4,zero
   41d0c:	016ffc34 	movhi	r5,49136
   41d10:	0043dc00 	call	43dc0 <__divdf3>
   41d14:	1025883a 	mov	r18,r2
   41d18:	1821883a 	mov	r16,r3
   41d1c:	050000c4 	movi	r20,3
   41d20:	003ed606 	br	4187c <_gp+0xfffe4734>
   41d24:	9009883a 	mov	r4,r18
   41d28:	000d883a 	mov	r6,zero
   41d2c:	01cffc34 	movhi	r7,16368
   41d30:	180b883a 	mov	r5,r3
   41d34:	00451cc0 	call	451cc <__subdf3>
   41d38:	9009883a 	mov	r4,r18
   41d3c:	800b883a 	mov	r5,r16
   41d40:	000d883a 	mov	r6,zero
   41d44:	01cffc34 	movhi	r7,16368
   41d48:	1027883a 	mov	r19,r2
   41d4c:	1823883a 	mov	r17,r3
   41d50:	00435140 	call	43514 <__adddf3>
   41d54:	100d883a 	mov	r6,r2
   41d58:	180f883a 	mov	r7,r3
   41d5c:	9809883a 	mov	r4,r19
   41d60:	880b883a 	mov	r5,r17
   41d64:	0043dc00 	call	43dc0 <__divdf3>
   41d68:	1025883a 	mov	r18,r2
   41d6c:	1821883a 	mov	r16,r3
   41d70:	05000044 	movi	r20,1
   41d74:	003ec106 	br	4187c <_gp+0xfffe4734>

00041d78 <fabs>:
   41d78:	00e00034 	movhi	r3,32768
   41d7c:	18ffffc4 	addi	r3,r3,-1
   41d80:	2005883a 	mov	r2,r4
   41d84:	28c6703a 	and	r3,r5,r3
   41d88:	f800283a 	ret

00041d8c <__divsi3>:
   41d8c:	20001b16 	blt	r4,zero,41dfc <__divsi3+0x70>
   41d90:	000f883a 	mov	r7,zero
   41d94:	28001616 	blt	r5,zero,41df0 <__divsi3+0x64>
   41d98:	200d883a 	mov	r6,r4
   41d9c:	29001a2e 	bgeu	r5,r4,41e08 <__divsi3+0x7c>
   41da0:	00800804 	movi	r2,32
   41da4:	00c00044 	movi	r3,1
   41da8:	00000106 	br	41db0 <__divsi3+0x24>
   41dac:	10000d26 	beq	r2,zero,41de4 <__divsi3+0x58>
   41db0:	294b883a 	add	r5,r5,r5
   41db4:	10bfffc4 	addi	r2,r2,-1
   41db8:	18c7883a 	add	r3,r3,r3
   41dbc:	293ffb36 	bltu	r5,r4,41dac <_gp+0xfffe4c64>
   41dc0:	0005883a 	mov	r2,zero
   41dc4:	18000726 	beq	r3,zero,41de4 <__divsi3+0x58>
   41dc8:	0005883a 	mov	r2,zero
   41dcc:	31400236 	bltu	r6,r5,41dd8 <__divsi3+0x4c>
   41dd0:	314dc83a 	sub	r6,r6,r5
   41dd4:	10c4b03a 	or	r2,r2,r3
   41dd8:	1806d07a 	srli	r3,r3,1
   41ddc:	280ad07a 	srli	r5,r5,1
   41de0:	183ffa1e 	bne	r3,zero,41dcc <_gp+0xfffe4c84>
   41de4:	38000126 	beq	r7,zero,41dec <__divsi3+0x60>
   41de8:	0085c83a 	sub	r2,zero,r2
   41dec:	f800283a 	ret
   41df0:	014bc83a 	sub	r5,zero,r5
   41df4:	39c0005c 	xori	r7,r7,1
   41df8:	003fe706 	br	41d98 <_gp+0xfffe4c50>
   41dfc:	0109c83a 	sub	r4,zero,r4
   41e00:	01c00044 	movi	r7,1
   41e04:	003fe306 	br	41d94 <_gp+0xfffe4c4c>
   41e08:	00c00044 	movi	r3,1
   41e0c:	003fee06 	br	41dc8 <_gp+0xfffe4c80>

00041e10 <__modsi3>:
   41e10:	20001716 	blt	r4,zero,41e70 <__modsi3+0x60>
   41e14:	000f883a 	mov	r7,zero
   41e18:	2005883a 	mov	r2,r4
   41e1c:	28001216 	blt	r5,zero,41e68 <__modsi3+0x58>
   41e20:	2900162e 	bgeu	r5,r4,41e7c <__modsi3+0x6c>
   41e24:	01800804 	movi	r6,32
   41e28:	00c00044 	movi	r3,1
   41e2c:	00000106 	br	41e34 <__modsi3+0x24>
   41e30:	30000a26 	beq	r6,zero,41e5c <__modsi3+0x4c>
   41e34:	294b883a 	add	r5,r5,r5
   41e38:	31bfffc4 	addi	r6,r6,-1
   41e3c:	18c7883a 	add	r3,r3,r3
   41e40:	293ffb36 	bltu	r5,r4,41e30 <_gp+0xfffe4ce8>
   41e44:	18000526 	beq	r3,zero,41e5c <__modsi3+0x4c>
   41e48:	1806d07a 	srli	r3,r3,1
   41e4c:	11400136 	bltu	r2,r5,41e54 <__modsi3+0x44>
   41e50:	1145c83a 	sub	r2,r2,r5
   41e54:	280ad07a 	srli	r5,r5,1
   41e58:	183ffb1e 	bne	r3,zero,41e48 <_gp+0xfffe4d00>
   41e5c:	38000126 	beq	r7,zero,41e64 <__modsi3+0x54>
   41e60:	0085c83a 	sub	r2,zero,r2
   41e64:	f800283a 	ret
   41e68:	014bc83a 	sub	r5,zero,r5
   41e6c:	003fec06 	br	41e20 <_gp+0xfffe4cd8>
   41e70:	0109c83a 	sub	r4,zero,r4
   41e74:	01c00044 	movi	r7,1
   41e78:	003fe706 	br	41e18 <_gp+0xfffe4cd0>
   41e7c:	00c00044 	movi	r3,1
   41e80:	003ff106 	br	41e48 <_gp+0xfffe4d00>

00041e84 <__udivsi3>:
   41e84:	200d883a 	mov	r6,r4
   41e88:	2900152e 	bgeu	r5,r4,41ee0 <__udivsi3+0x5c>
   41e8c:	28001416 	blt	r5,zero,41ee0 <__udivsi3+0x5c>
   41e90:	00800804 	movi	r2,32
   41e94:	00c00044 	movi	r3,1
   41e98:	00000206 	br	41ea4 <__udivsi3+0x20>
   41e9c:	10000e26 	beq	r2,zero,41ed8 <__udivsi3+0x54>
   41ea0:	28000516 	blt	r5,zero,41eb8 <__udivsi3+0x34>
   41ea4:	294b883a 	add	r5,r5,r5
   41ea8:	10bfffc4 	addi	r2,r2,-1
   41eac:	18c7883a 	add	r3,r3,r3
   41eb0:	293ffa36 	bltu	r5,r4,41e9c <_gp+0xfffe4d54>
   41eb4:	18000826 	beq	r3,zero,41ed8 <__udivsi3+0x54>
   41eb8:	0005883a 	mov	r2,zero
   41ebc:	31400236 	bltu	r6,r5,41ec8 <__udivsi3+0x44>
   41ec0:	314dc83a 	sub	r6,r6,r5
   41ec4:	10c4b03a 	or	r2,r2,r3
   41ec8:	1806d07a 	srli	r3,r3,1
   41ecc:	280ad07a 	srli	r5,r5,1
   41ed0:	183ffa1e 	bne	r3,zero,41ebc <_gp+0xfffe4d74>
   41ed4:	f800283a 	ret
   41ed8:	0005883a 	mov	r2,zero
   41edc:	f800283a 	ret
   41ee0:	00c00044 	movi	r3,1
   41ee4:	003ff406 	br	41eb8 <_gp+0xfffe4d70>

00041ee8 <__umodsi3>:
   41ee8:	2005883a 	mov	r2,r4
   41eec:	2900122e 	bgeu	r5,r4,41f38 <__umodsi3+0x50>
   41ef0:	28001116 	blt	r5,zero,41f38 <__umodsi3+0x50>
   41ef4:	01800804 	movi	r6,32
   41ef8:	00c00044 	movi	r3,1
   41efc:	00000206 	br	41f08 <__umodsi3+0x20>
   41f00:	30000c26 	beq	r6,zero,41f34 <__umodsi3+0x4c>
   41f04:	28000516 	blt	r5,zero,41f1c <__umodsi3+0x34>
   41f08:	294b883a 	add	r5,r5,r5
   41f0c:	31bfffc4 	addi	r6,r6,-1
   41f10:	18c7883a 	add	r3,r3,r3
   41f14:	293ffa36 	bltu	r5,r4,41f00 <_gp+0xfffe4db8>
   41f18:	18000626 	beq	r3,zero,41f34 <__umodsi3+0x4c>
   41f1c:	1806d07a 	srli	r3,r3,1
   41f20:	11400136 	bltu	r2,r5,41f28 <__umodsi3+0x40>
   41f24:	1145c83a 	sub	r2,r2,r5
   41f28:	280ad07a 	srli	r5,r5,1
   41f2c:	183ffb1e 	bne	r3,zero,41f1c <_gp+0xfffe4dd4>
   41f30:	f800283a 	ret
   41f34:	f800283a 	ret
   41f38:	00c00044 	movi	r3,1
   41f3c:	003ff706 	br	41f1c <_gp+0xfffe4dd4>

00041f40 <__mulsi3>:
   41f40:	0005883a 	mov	r2,zero
   41f44:	20000726 	beq	r4,zero,41f64 <__mulsi3+0x24>
   41f48:	20c0004c 	andi	r3,r4,1
   41f4c:	2008d07a 	srli	r4,r4,1
   41f50:	18000126 	beq	r3,zero,41f58 <__mulsi3+0x18>
   41f54:	1145883a 	add	r2,r2,r5
   41f58:	294b883a 	add	r5,r5,r5
   41f5c:	203ffa1e 	bne	r4,zero,41f48 <_gp+0xfffe4e00>
   41f60:	f800283a 	ret
   41f64:	f800283a 	ret

00041f68 <__addsf3>:
   41f68:	defffc04 	addi	sp,sp,-16
   41f6c:	2004d7fa 	srli	r2,r4,31
   41f70:	280cd5fa 	srli	r6,r5,23
   41f74:	dc000015 	stw	r16,0(sp)
   41f78:	00c02034 	movhi	r3,128
   41f7c:	2020d5fa 	srli	r16,r4,23
   41f80:	280ed7fa 	srli	r7,r5,31
   41f84:	18ffffc4 	addi	r3,r3,-1
   41f88:	dc400115 	stw	r17,4(sp)
   41f8c:	1908703a 	and	r4,r3,r4
   41f90:	194a703a 	and	r5,r3,r5
   41f94:	dfc00315 	stw	ra,12(sp)
   41f98:	dc800215 	stw	r18,8(sp)
   41f9c:	14403fcc 	andi	r17,r2,255
   41fa0:	84003fcc 	andi	r16,r16,255
   41fa4:	200890fa 	slli	r4,r4,3
   41fa8:	31803fcc 	andi	r6,r6,255
   41fac:	280a90fa 	slli	r5,r5,3
   41fb0:	89c05026 	beq	r17,r7,420f4 <__addsf3+0x18c>
   41fb4:	8185c83a 	sub	r2,r16,r6
   41fb8:	00807a0e 	bge	zero,r2,421a4 <__addsf3+0x23c>
   41fbc:	30001e1e 	bne	r6,zero,42038 <__addsf3+0xd0>
   41fc0:	28006d1e 	bne	r5,zero,42178 <__addsf3+0x210>
   41fc4:	208001cc 	andi	r2,r4,7
   41fc8:	10000426 	beq	r2,zero,41fdc <__addsf3+0x74>
   41fcc:	208003cc 	andi	r2,r4,15
   41fd0:	00c00104 	movi	r3,4
   41fd4:	10c00126 	beq	r2,r3,41fdc <__addsf3+0x74>
   41fd8:	20c9883a 	add	r4,r4,r3
   41fdc:	2081002c 	andhi	r2,r4,1024
   41fe0:	10003926 	beq	r2,zero,420c8 <__addsf3+0x160>
   41fe4:	84000044 	addi	r16,r16,1
   41fe8:	00803fc4 	movi	r2,255
   41fec:	80807826 	beq	r16,r2,421d0 <__addsf3+0x268>
   41ff0:	200891ba 	slli	r4,r4,6
   41ff4:	8805883a 	mov	r2,r17
   41ff8:	2008d27a 	srli	r4,r4,9
   41ffc:	84003fcc 	andi	r16,r16,255
   42000:	800695fa 	slli	r3,r16,23
   42004:	10803fcc 	andi	r2,r2,255
   42008:	04002034 	movhi	r16,128
   4200c:	843fffc4 	addi	r16,r16,-1
   42010:	100497fa 	slli	r2,r2,31
   42014:	2408703a 	and	r4,r4,r16
   42018:	20e0b03a 	or	r16,r4,r3
   4201c:	8084b03a 	or	r2,r16,r2
   42020:	dfc00317 	ldw	ra,12(sp)
   42024:	dc800217 	ldw	r18,8(sp)
   42028:	dc400117 	ldw	r17,4(sp)
   4202c:	dc000017 	ldw	r16,0(sp)
   42030:	dec00404 	addi	sp,sp,16
   42034:	f800283a 	ret
   42038:	00c03fc4 	movi	r3,255
   4203c:	80ffe126 	beq	r16,r3,41fc4 <_gp+0xfffe4e7c>
   42040:	29410034 	orhi	r5,r5,1024
   42044:	00c006c4 	movi	r3,27
   42048:	18807516 	blt	r3,r2,42220 <__addsf3+0x2b8>
   4204c:	00c00804 	movi	r3,32
   42050:	1887c83a 	sub	r3,r3,r2
   42054:	28c6983a 	sll	r3,r5,r3
   42058:	288ad83a 	srl	r5,r5,r2
   4205c:	1804c03a 	cmpne	r2,r3,zero
   42060:	288ab03a 	or	r5,r5,r2
   42064:	2149c83a 	sub	r4,r4,r5
   42068:	2081002c 	andhi	r2,r4,1024
   4206c:	10001426 	beq	r2,zero,420c0 <__addsf3+0x158>
   42070:	04810034 	movhi	r18,1024
   42074:	94bfffc4 	addi	r18,r18,-1
   42078:	24a4703a 	and	r18,r4,r18
   4207c:	9009883a 	mov	r4,r18
   42080:	0045edc0 	call	45edc <__clzsi2>
   42084:	10bffec4 	addi	r2,r2,-5
   42088:	90a4983a 	sll	r18,r18,r2
   4208c:	14005416 	blt	r2,r16,421e0 <__addsf3+0x278>
   42090:	1405c83a 	sub	r2,r2,r16
   42094:	11000044 	addi	r4,r2,1
   42098:	00800804 	movi	r2,32
   4209c:	1105c83a 	sub	r2,r2,r4
   420a0:	9084983a 	sll	r2,r18,r2
   420a4:	9124d83a 	srl	r18,r18,r4
   420a8:	0021883a 	mov	r16,zero
   420ac:	1008c03a 	cmpne	r4,r2,zero
   420b0:	9108b03a 	or	r4,r18,r4
   420b4:	003fc306 	br	41fc4 <_gp+0xfffe4e7c>
   420b8:	1000db26 	beq	r2,zero,42428 <__addsf3+0x4c0>
   420bc:	1009883a 	mov	r4,r2
   420c0:	208001cc 	andi	r2,r4,7
   420c4:	103fc11e 	bne	r2,zero,41fcc <_gp+0xfffe4e84>
   420c8:	2006d0fa 	srli	r3,r4,3
   420cc:	01003fc4 	movi	r4,255
   420d0:	8805883a 	mov	r2,r17
   420d4:	8100241e 	bne	r16,r4,42168 <__addsf3+0x200>
   420d8:	18006e26 	beq	r3,zero,42294 <__addsf3+0x32c>
   420dc:	19001034 	orhi	r4,r3,64
   420e0:	00c02034 	movhi	r3,128
   420e4:	18ffffc4 	addi	r3,r3,-1
   420e8:	043fffc4 	movi	r16,-1
   420ec:	20c8703a 	and	r4,r4,r3
   420f0:	003fc206 	br	41ffc <_gp+0xfffe4eb4>
   420f4:	8187c83a 	sub	r3,r16,r6
   420f8:	00c03e0e 	bge	zero,r3,421f4 <__addsf3+0x28c>
   420fc:	30002326 	beq	r6,zero,4218c <__addsf3+0x224>
   42100:	01803fc4 	movi	r6,255
   42104:	81bfaf26 	beq	r16,r6,41fc4 <_gp+0xfffe4e7c>
   42108:	29410034 	orhi	r5,r5,1024
   4210c:	018006c4 	movi	r6,27
   42110:	30c07416 	blt	r6,r3,422e4 <__addsf3+0x37c>
   42114:	01800804 	movi	r6,32
   42118:	30cdc83a 	sub	r6,r6,r3
   4211c:	298c983a 	sll	r6,r5,r6
   42120:	28cad83a 	srl	r5,r5,r3
   42124:	3006c03a 	cmpne	r3,r6,zero
   42128:	28cab03a 	or	r5,r5,r3
   4212c:	2149883a 	add	r4,r4,r5
   42130:	20c1002c 	andhi	r3,r4,1024
   42134:	183fe226 	beq	r3,zero,420c0 <_gp+0xfffe4f78>
   42138:	84000044 	addi	r16,r16,1
   4213c:	00c03fc4 	movi	r3,255
   42140:	80c05426 	beq	r16,r3,42294 <__addsf3+0x32c>
   42144:	00bf0034 	movhi	r2,64512
   42148:	10bfffc4 	addi	r2,r2,-1
   4214c:	20c0004c 	andi	r3,r4,1
   42150:	2088703a 	and	r4,r4,r2
   42154:	2008d07a 	srli	r4,r4,1
   42158:	20c8b03a 	or	r4,r4,r3
   4215c:	003f9906 	br	41fc4 <_gp+0xfffe4e7c>
   42160:	0007883a 	mov	r3,zero
   42164:	0005883a 	mov	r2,zero
   42168:	01002034 	movhi	r4,128
   4216c:	213fffc4 	addi	r4,r4,-1
   42170:	1908703a 	and	r4,r3,r4
   42174:	003fa106 	br	41ffc <_gp+0xfffe4eb4>
   42178:	10bfffc4 	addi	r2,r2,-1
   4217c:	103fb926 	beq	r2,zero,42064 <_gp+0xfffe4f1c>
   42180:	00c03fc4 	movi	r3,255
   42184:	80ffaf1e 	bne	r16,r3,42044 <_gp+0xfffe4efc>
   42188:	003f8e06 	br	41fc4 <_gp+0xfffe4e7c>
   4218c:	283f8d26 	beq	r5,zero,41fc4 <_gp+0xfffe4e7c>
   42190:	18ffffc4 	addi	r3,r3,-1
   42194:	183fe526 	beq	r3,zero,4212c <_gp+0xfffe4fe4>
   42198:	01803fc4 	movi	r6,255
   4219c:	81bfdb1e 	bne	r16,r6,4210c <_gp+0xfffe4fc4>
   421a0:	003f8806 	br	41fc4 <_gp+0xfffe4e7c>
   421a4:	1000201e 	bne	r2,zero,42228 <__addsf3+0x2c0>
   421a8:	80800044 	addi	r2,r16,1
   421ac:	10803fcc 	andi	r2,r2,255
   421b0:	01800044 	movi	r6,1
   421b4:	3080450e 	bge	r6,r2,422cc <__addsf3+0x364>
   421b8:	2165c83a 	sub	r18,r4,r5
   421bc:	90c1002c 	andhi	r3,r18,1024
   421c0:	18002b26 	beq	r3,zero,42270 <__addsf3+0x308>
   421c4:	2925c83a 	sub	r18,r5,r4
   421c8:	3823883a 	mov	r17,r7
   421cc:	003fab06 	br	4207c <_gp+0xfffe4f34>
   421d0:	8805883a 	mov	r2,r17
   421d4:	043fffc4 	movi	r16,-1
   421d8:	0009883a 	mov	r4,zero
   421dc:	003f8706 	br	41ffc <_gp+0xfffe4eb4>
   421e0:	013f0034 	movhi	r4,64512
   421e4:	213fffc4 	addi	r4,r4,-1
   421e8:	80a1c83a 	sub	r16,r16,r2
   421ec:	9108703a 	and	r4,r18,r4
   421f0:	003f7406 	br	41fc4 <_gp+0xfffe4e7c>
   421f4:	1800411e 	bne	r3,zero,422fc <__addsf3+0x394>
   421f8:	80c00044 	addi	r3,r16,1
   421fc:	19c03fcc 	andi	r7,r3,255
   42200:	01800044 	movi	r6,1
   42204:	31c0260e 	bge	r6,r7,422a0 <__addsf3+0x338>
   42208:	01803fc4 	movi	r6,255
   4220c:	19802126 	beq	r3,r6,42294 <__addsf3+0x32c>
   42210:	2149883a 	add	r4,r4,r5
   42214:	2008d07a 	srli	r4,r4,1
   42218:	1821883a 	mov	r16,r3
   4221c:	003f6906 	br	41fc4 <_gp+0xfffe4e7c>
   42220:	01400044 	movi	r5,1
   42224:	003f8f06 	br	42064 <_gp+0xfffe4f1c>
   42228:	8000151e 	bne	r16,zero,42280 <__addsf3+0x318>
   4222c:	20002f26 	beq	r4,zero,422ec <__addsf3+0x384>
   42230:	0084303a 	nor	r2,zero,r2
   42234:	10000a26 	beq	r2,zero,42260 <__addsf3+0x2f8>
   42238:	00c03fc4 	movi	r3,255
   4223c:	30c02b26 	beq	r6,r3,422ec <__addsf3+0x384>
   42240:	00c006c4 	movi	r3,27
   42244:	18806d16 	blt	r3,r2,423fc <__addsf3+0x494>
   42248:	00c00804 	movi	r3,32
   4224c:	1887c83a 	sub	r3,r3,r2
   42250:	20c6983a 	sll	r3,r4,r3
   42254:	2084d83a 	srl	r2,r4,r2
   42258:	1808c03a 	cmpne	r4,r3,zero
   4225c:	1108b03a 	or	r4,r2,r4
   42260:	2909c83a 	sub	r4,r5,r4
   42264:	3021883a 	mov	r16,r6
   42268:	3823883a 	mov	r17,r7
   4226c:	003f7e06 	br	42068 <_gp+0xfffe4f20>
   42270:	903f821e 	bne	r18,zero,4207c <_gp+0xfffe4f34>
   42274:	0005883a 	mov	r2,zero
   42278:	0021883a 	mov	r16,zero
   4227c:	003fba06 	br	42168 <_gp+0xfffe5020>
   42280:	00c03fc4 	movi	r3,255
   42284:	30c01926 	beq	r6,r3,422ec <__addsf3+0x384>
   42288:	0085c83a 	sub	r2,zero,r2
   4228c:	21010034 	orhi	r4,r4,1024
   42290:	003feb06 	br	42240 <_gp+0xfffe50f8>
   42294:	043fffc4 	movi	r16,-1
   42298:	0009883a 	mov	r4,zero
   4229c:	003f5706 	br	41ffc <_gp+0xfffe4eb4>
   422a0:	80004a1e 	bne	r16,zero,423cc <__addsf3+0x464>
   422a4:	20005926 	beq	r4,zero,4240c <__addsf3+0x4a4>
   422a8:	283f4626 	beq	r5,zero,41fc4 <_gp+0xfffe4e7c>
   422ac:	2149883a 	add	r4,r4,r5
   422b0:	2081002c 	andhi	r2,r4,1024
   422b4:	103f8226 	beq	r2,zero,420c0 <_gp+0xfffe4f78>
   422b8:	00bf0034 	movhi	r2,64512
   422bc:	10bfffc4 	addi	r2,r2,-1
   422c0:	3021883a 	mov	r16,r6
   422c4:	2088703a 	and	r4,r4,r2
   422c8:	003f3e06 	br	41fc4 <_gp+0xfffe4e7c>
   422cc:	8000121e 	bne	r16,zero,42318 <__addsf3+0x3b0>
   422d0:	2000261e 	bne	r4,zero,4236c <__addsf3+0x404>
   422d4:	283fa226 	beq	r5,zero,42160 <_gp+0xfffe5018>
   422d8:	2809883a 	mov	r4,r5
   422dc:	3823883a 	mov	r17,r7
   422e0:	003f3806 	br	41fc4 <_gp+0xfffe4e7c>
   422e4:	01400044 	movi	r5,1
   422e8:	003f9006 	br	4212c <_gp+0xfffe4fe4>
   422ec:	2809883a 	mov	r4,r5
   422f0:	3021883a 	mov	r16,r6
   422f4:	3823883a 	mov	r17,r7
   422f8:	003f3206 	br	41fc4 <_gp+0xfffe4e7c>
   422fc:	80000c1e 	bne	r16,zero,42330 <__addsf3+0x3c8>
   42300:	20002f26 	beq	r4,zero,423c0 <__addsf3+0x458>
   42304:	00c6303a 	nor	r3,zero,r3
   42308:	18002b1e 	bne	r3,zero,423b8 <__addsf3+0x450>
   4230c:	2149883a 	add	r4,r4,r5
   42310:	3021883a 	mov	r16,r6
   42314:	003f8606 	br	42130 <_gp+0xfffe4fe8>
   42318:	20001b1e 	bne	r4,zero,42388 <__addsf3+0x420>
   4231c:	28003926 	beq	r5,zero,42404 <__addsf3+0x49c>
   42320:	2809883a 	mov	r4,r5
   42324:	3823883a 	mov	r17,r7
   42328:	04003fc4 	movi	r16,255
   4232c:	003f2506 	br	41fc4 <_gp+0xfffe4e7c>
   42330:	01c03fc4 	movi	r7,255
   42334:	31c02226 	beq	r6,r7,423c0 <__addsf3+0x458>
   42338:	00c7c83a 	sub	r3,zero,r3
   4233c:	21010034 	orhi	r4,r4,1024
   42340:	01c006c4 	movi	r7,27
   42344:	38c03616 	blt	r7,r3,42420 <__addsf3+0x4b8>
   42348:	01c00804 	movi	r7,32
   4234c:	38cfc83a 	sub	r7,r7,r3
   42350:	21ce983a 	sll	r7,r4,r7
   42354:	20c6d83a 	srl	r3,r4,r3
   42358:	3808c03a 	cmpne	r4,r7,zero
   4235c:	1906b03a 	or	r3,r3,r4
   42360:	1949883a 	add	r4,r3,r5
   42364:	3021883a 	mov	r16,r6
   42368:	003f7106 	br	42130 <_gp+0xfffe4fe8>
   4236c:	283f1526 	beq	r5,zero,41fc4 <_gp+0xfffe4e7c>
   42370:	2145c83a 	sub	r2,r4,r5
   42374:	10c1002c 	andhi	r3,r2,1024
   42378:	183f4f26 	beq	r3,zero,420b8 <_gp+0xfffe4f70>
   4237c:	2909c83a 	sub	r4,r5,r4
   42380:	3823883a 	mov	r17,r7
   42384:	003f0f06 	br	41fc4 <_gp+0xfffe4e7c>
   42388:	28001a26 	beq	r5,zero,423f4 <__addsf3+0x48c>
   4238c:	2008d0fa 	srli	r4,r4,3
   42390:	2080102c 	andhi	r2,r4,64
   42394:	10000526 	beq	r2,zero,423ac <__addsf3+0x444>
   42398:	280ad0fa 	srli	r5,r5,3
   4239c:	2880102c 	andhi	r2,r5,64
   423a0:	1000021e 	bne	r2,zero,423ac <__addsf3+0x444>
   423a4:	2809883a 	mov	r4,r5
   423a8:	3823883a 	mov	r17,r7
   423ac:	200890fa 	slli	r4,r4,3
   423b0:	04003fc4 	movi	r16,255
   423b4:	003f0306 	br	41fc4 <_gp+0xfffe4e7c>
   423b8:	01c03fc4 	movi	r7,255
   423bc:	31ffe01e 	bne	r6,r7,42340 <_gp+0xfffe51f8>
   423c0:	2809883a 	mov	r4,r5
   423c4:	3021883a 	mov	r16,r6
   423c8:	003efe06 	br	41fc4 <_gp+0xfffe4e7c>
   423cc:	20001126 	beq	r4,zero,42414 <__addsf3+0x4ac>
   423d0:	28000826 	beq	r5,zero,423f4 <__addsf3+0x48c>
   423d4:	2008d0fa 	srli	r4,r4,3
   423d8:	2080102c 	andhi	r2,r4,64
   423dc:	103ff326 	beq	r2,zero,423ac <_gp+0xfffe5264>
   423e0:	280ad0fa 	srli	r5,r5,3
   423e4:	2880102c 	andhi	r2,r5,64
   423e8:	103ff01e 	bne	r2,zero,423ac <_gp+0xfffe5264>
   423ec:	2809883a 	mov	r4,r5
   423f0:	003fee06 	br	423ac <_gp+0xfffe5264>
   423f4:	04003fc4 	movi	r16,255
   423f8:	003ef206 	br	41fc4 <_gp+0xfffe4e7c>
   423fc:	01000044 	movi	r4,1
   42400:	003f9706 	br	42260 <_gp+0xfffe5118>
   42404:	0005883a 	mov	r2,zero
   42408:	003f3406 	br	420dc <_gp+0xfffe4f94>
   4240c:	2809883a 	mov	r4,r5
   42410:	003eec06 	br	41fc4 <_gp+0xfffe4e7c>
   42414:	2809883a 	mov	r4,r5
   42418:	04003fc4 	movi	r16,255
   4241c:	003ee906 	br	41fc4 <_gp+0xfffe4e7c>
   42420:	00c00044 	movi	r3,1
   42424:	003fce06 	br	42360 <_gp+0xfffe5218>
   42428:	0005883a 	mov	r2,zero
   4242c:	003f4e06 	br	42168 <_gp+0xfffe5020>

00042430 <__divsf3>:
   42430:	defff504 	addi	sp,sp,-44
   42434:	200cd5fa 	srli	r6,r4,23
   42438:	dcc00415 	stw	r19,16(sp)
   4243c:	2026d7fa 	srli	r19,r4,31
   42440:	00c02034 	movhi	r3,128
   42444:	dd800715 	stw	r22,28(sp)
   42448:	dd000515 	stw	r20,20(sp)
   4244c:	dc800315 	stw	r18,12(sp)
   42450:	18ffffc4 	addi	r3,r3,-1
   42454:	dfc00a15 	stw	ra,40(sp)
   42458:	df000915 	stw	fp,36(sp)
   4245c:	ddc00815 	stw	r23,32(sp)
   42460:	dd400615 	stw	r21,24(sp)
   42464:	dc400215 	stw	r17,8(sp)
   42468:	dc000115 	stw	r16,4(sp)
   4246c:	35003fcc 	andi	r20,r6,255
   42470:	1924703a 	and	r18,r3,r4
   42474:	9d803fcc 	andi	r22,r19,255
   42478:	a0005226 	beq	r20,zero,425c4 <__divsf3+0x194>
   4247c:	00803fc4 	movi	r2,255
   42480:	a0802e26 	beq	r20,r2,4253c <__divsf3+0x10c>
   42484:	91002034 	orhi	r4,r18,128
   42488:	202490fa 	slli	r18,r4,3
   4248c:	a53fe044 	addi	r20,r20,-127
   42490:	0021883a 	mov	r16,zero
   42494:	002f883a 	mov	r23,zero
   42498:	280cd5fa 	srli	r6,r5,23
   4249c:	282ad7fa 	srli	r21,r5,31
   424a0:	00c02034 	movhi	r3,128
   424a4:	18ffffc4 	addi	r3,r3,-1
   424a8:	31803fcc 	andi	r6,r6,255
   424ac:	1962703a 	and	r17,r3,r5
   424b0:	af003fcc 	andi	fp,r21,255
   424b4:	30004a26 	beq	r6,zero,425e0 <__divsf3+0x1b0>
   424b8:	00803fc4 	movi	r2,255
   424bc:	30804526 	beq	r6,r2,425d4 <__divsf3+0x1a4>
   424c0:	89402034 	orhi	r5,r17,128
   424c4:	282290fa 	slli	r17,r5,3
   424c8:	31bfe044 	addi	r6,r6,-127
   424cc:	000b883a 	mov	r5,zero
   424d0:	2c20b03a 	or	r16,r5,r16
   424d4:	802090ba 	slli	r16,r16,2
   424d8:	00800134 	movhi	r2,4
   424dc:	10893f04 	addi	r2,r2,9468
   424e0:	80a1883a 	add	r16,r16,r2
   424e4:	81000017 	ldw	r4,0(r16)
   424e8:	9d46f03a 	xor	r3,r19,r21
   424ec:	180f883a 	mov	r7,r3
   424f0:	18803fcc 	andi	r2,r3,255
   424f4:	a18dc83a 	sub	r6,r20,r6
   424f8:	2000683a 	jmp	r4
   424fc:	000426e0 	cmpeqi	zero,zero,4251
   42500:	00042564 	muli	zero,zero,4245
   42504:	000426d4 	movui	zero,4251
   42508:	00042550 	cmplti	zero,zero,4245
   4250c:	000426d4 	movui	zero,4251
   42510:	000426ac 	andhi	zero,zero,4250
   42514:	000426d4 	movui	zero,4251
   42518:	00042550 	cmplti	zero,zero,4245
   4251c:	00042564 	muli	zero,zero,4245
   42520:	00042564 	muli	zero,zero,4245
   42524:	000426ac 	andhi	zero,zero,4250
   42528:	00042550 	cmplti	zero,zero,4245
   4252c:	000427c0 	call	427c <__alt_mem_MemoriaDados+0x427c>
   42530:	000427c0 	call	427c <__alt_mem_MemoriaDados+0x427c>
   42534:	000427c0 	call	427c <__alt_mem_MemoriaDados+0x427c>
   42538:	00042774 	movhi	zero,4253
   4253c:	9000581e 	bne	r18,zero,426a0 <__divsf3+0x270>
   42540:	04000204 	movi	r16,8
   42544:	05c00084 	movi	r23,2
   42548:	003fd306 	br	42498 <_gp+0xfffe5350>
   4254c:	0023883a 	mov	r17,zero
   42550:	e02d883a 	mov	r22,fp
   42554:	282f883a 	mov	r23,r5
   42558:	00800084 	movi	r2,2
   4255c:	b8808f1e 	bne	r23,r2,4279c <__divsf3+0x36c>
   42560:	b005883a 	mov	r2,r22
   42564:	11c0004c 	andi	r7,r2,1
   42568:	013fffc4 	movi	r4,-1
   4256c:	000d883a 	mov	r6,zero
   42570:	21003fcc 	andi	r4,r4,255
   42574:	200895fa 	slli	r4,r4,23
   42578:	38803fcc 	andi	r2,r7,255
   4257c:	00c02034 	movhi	r3,128
   42580:	100497fa 	slli	r2,r2,31
   42584:	18ffffc4 	addi	r3,r3,-1
   42588:	30c6703a 	and	r3,r6,r3
   4258c:	1906b03a 	or	r3,r3,r4
   42590:	1884b03a 	or	r2,r3,r2
   42594:	dfc00a17 	ldw	ra,40(sp)
   42598:	df000917 	ldw	fp,36(sp)
   4259c:	ddc00817 	ldw	r23,32(sp)
   425a0:	dd800717 	ldw	r22,28(sp)
   425a4:	dd400617 	ldw	r21,24(sp)
   425a8:	dd000517 	ldw	r20,20(sp)
   425ac:	dcc00417 	ldw	r19,16(sp)
   425b0:	dc800317 	ldw	r18,12(sp)
   425b4:	dc400217 	ldw	r17,8(sp)
   425b8:	dc000117 	ldw	r16,4(sp)
   425bc:	dec00b04 	addi	sp,sp,44
   425c0:	f800283a 	ret
   425c4:	90002b1e 	bne	r18,zero,42674 <__divsf3+0x244>
   425c8:	04000104 	movi	r16,4
   425cc:	05c00044 	movi	r23,1
   425d0:	003fb106 	br	42498 <_gp+0xfffe5350>
   425d4:	8800251e 	bne	r17,zero,4266c <__divsf3+0x23c>
   425d8:	01400084 	movi	r5,2
   425dc:	00000206 	br	425e8 <__divsf3+0x1b8>
   425e0:	88001a1e 	bne	r17,zero,4264c <__divsf3+0x21c>
   425e4:	01400044 	movi	r5,1
   425e8:	8160b03a 	or	r16,r16,r5
   425ec:	802090ba 	slli	r16,r16,2
   425f0:	00c00134 	movhi	r3,4
   425f4:	18c98304 	addi	r3,r3,9740
   425f8:	80e1883a 	add	r16,r16,r3
   425fc:	80c00017 	ldw	r3,0(r16)
   42600:	9d44f03a 	xor	r2,r19,r21
   42604:	a18dc83a 	sub	r6,r20,r6
   42608:	1800683a 	jmp	r3
   4260c:	00042564 	muli	zero,zero,4245
   42610:	00042564 	muli	zero,zero,4245
   42614:	000427b0 	cmpltui	zero,zero,4254
   42618:	0004254c 	andi	zero,zero,4245
   4261c:	000427b0 	cmpltui	zero,zero,4254
   42620:	000426ac 	andhi	zero,zero,4250
   42624:	000427b0 	cmpltui	zero,zero,4254
   42628:	0004254c 	andi	zero,zero,4245
   4262c:	00042564 	muli	zero,zero,4245
   42630:	00042564 	muli	zero,zero,4245
   42634:	000426ac 	andhi	zero,zero,4250
   42638:	0004254c 	andi	zero,zero,4245
   4263c:	000427c0 	call	427c <__alt_mem_MemoriaDados+0x427c>
   42640:	000427c0 	call	427c <__alt_mem_MemoriaDados+0x427c>
   42644:	000427c0 	call	427c <__alt_mem_MemoriaDados+0x427c>
   42648:	000427d8 	cmpnei	zero,zero,4255
   4264c:	8809883a 	mov	r4,r17
   42650:	0045edc0 	call	45edc <__clzsi2>
   42654:	10fffec4 	addi	r3,r2,-5
   42658:	10801d84 	addi	r2,r2,118
   4265c:	88e2983a 	sll	r17,r17,r3
   42660:	008dc83a 	sub	r6,zero,r2
   42664:	000b883a 	mov	r5,zero
   42668:	003f9906 	br	424d0 <_gp+0xfffe5388>
   4266c:	014000c4 	movi	r5,3
   42670:	003f9706 	br	424d0 <_gp+0xfffe5388>
   42674:	9009883a 	mov	r4,r18
   42678:	d9400015 	stw	r5,0(sp)
   4267c:	0045edc0 	call	45edc <__clzsi2>
   42680:	10fffec4 	addi	r3,r2,-5
   42684:	11801d84 	addi	r6,r2,118
   42688:	90e4983a 	sll	r18,r18,r3
   4268c:	01a9c83a 	sub	r20,zero,r6
   42690:	0021883a 	mov	r16,zero
   42694:	002f883a 	mov	r23,zero
   42698:	d9400017 	ldw	r5,0(sp)
   4269c:	003f7e06 	br	42498 <_gp+0xfffe5350>
   426a0:	04000304 	movi	r16,12
   426a4:	05c000c4 	movi	r23,3
   426a8:	003f7b06 	br	42498 <_gp+0xfffe5350>
   426ac:	01802034 	movhi	r6,128
   426b0:	000f883a 	mov	r7,zero
   426b4:	31bfffc4 	addi	r6,r6,-1
   426b8:	013fffc4 	movi	r4,-1
   426bc:	003fac06 	br	42570 <_gp+0xfffe5428>
   426c0:	01400044 	movi	r5,1
   426c4:	2909c83a 	sub	r4,r5,r4
   426c8:	00c006c4 	movi	r3,27
   426cc:	19004b0e 	bge	r3,r4,427fc <__divsf3+0x3cc>
   426d0:	114e703a 	and	r7,r2,r5
   426d4:	0009883a 	mov	r4,zero
   426d8:	000d883a 	mov	r6,zero
   426dc:	003fa406 	br	42570 <_gp+0xfffe5428>
   426e0:	9006917a 	slli	r3,r18,5
   426e4:	8822917a 	slli	r17,r17,5
   426e8:	1c40372e 	bgeu	r3,r17,427c8 <__divsf3+0x398>
   426ec:	31bfffc4 	addi	r6,r6,-1
   426f0:	010006c4 	movi	r4,27
   426f4:	000b883a 	mov	r5,zero
   426f8:	180f883a 	mov	r7,r3
   426fc:	294b883a 	add	r5,r5,r5
   42700:	18c7883a 	add	r3,r3,r3
   42704:	38000116 	blt	r7,zero,4270c <__divsf3+0x2dc>
   42708:	1c400236 	bltu	r3,r17,42714 <__divsf3+0x2e4>
   4270c:	1c47c83a 	sub	r3,r3,r17
   42710:	29400054 	ori	r5,r5,1
   42714:	213fffc4 	addi	r4,r4,-1
   42718:	203ff71e 	bne	r4,zero,426f8 <_gp+0xfffe55b0>
   4271c:	1806c03a 	cmpne	r3,r3,zero
   42720:	1962b03a 	or	r17,r3,r5
   42724:	31001fc4 	addi	r4,r6,127
   42728:	013fe50e 	bge	zero,r4,426c0 <_gp+0xfffe5578>
   4272c:	88c001cc 	andi	r3,r17,7
   42730:	18000426 	beq	r3,zero,42744 <__divsf3+0x314>
   42734:	88c003cc 	andi	r3,r17,15
   42738:	01400104 	movi	r5,4
   4273c:	19400126 	beq	r3,r5,42744 <__divsf3+0x314>
   42740:	8963883a 	add	r17,r17,r5
   42744:	88c2002c 	andhi	r3,r17,2048
   42748:	18000426 	beq	r3,zero,4275c <__divsf3+0x32c>
   4274c:	00fe0034 	movhi	r3,63488
   42750:	18ffffc4 	addi	r3,r3,-1
   42754:	31002004 	addi	r4,r6,128
   42758:	88e2703a 	and	r17,r17,r3
   4275c:	00c03f84 	movi	r3,254
   42760:	193f8016 	blt	r3,r4,42564 <_gp+0xfffe541c>
   42764:	880c91ba 	slli	r6,r17,6
   42768:	11c0004c 	andi	r7,r2,1
   4276c:	300cd27a 	srli	r6,r6,9
   42770:	003f7f06 	br	42570 <_gp+0xfffe5428>
   42774:	9080102c 	andhi	r2,r18,64
   42778:	10000226 	beq	r2,zero,42784 <__divsf3+0x354>
   4277c:	8880102c 	andhi	r2,r17,64
   42780:	10001826 	beq	r2,zero,427e4 <__divsf3+0x3b4>
   42784:	00802034 	movhi	r2,128
   42788:	91801034 	orhi	r6,r18,64
   4278c:	10bfffc4 	addi	r2,r2,-1
   42790:	980f883a 	mov	r7,r19
   42794:	308c703a 	and	r6,r6,r2
   42798:	003fc706 	br	426b8 <_gp+0xfffe5570>
   4279c:	008000c4 	movi	r2,3
   427a0:	b8802d26 	beq	r23,r2,42858 <__divsf3+0x428>
   427a4:	00c00044 	movi	r3,1
   427a8:	b005883a 	mov	r2,r22
   427ac:	b8ffdd1e 	bne	r23,r3,42724 <_gp+0xfffe55dc>
   427b0:	11c0004c 	andi	r7,r2,1
   427b4:	0009883a 	mov	r4,zero
   427b8:	000d883a 	mov	r6,zero
   427bc:	003f6c06 	br	42570 <_gp+0xfffe5428>
   427c0:	9023883a 	mov	r17,r18
   427c4:	003f6406 	br	42558 <_gp+0xfffe5410>
   427c8:	1c47c83a 	sub	r3,r3,r17
   427cc:	01000684 	movi	r4,26
   427d0:	01400044 	movi	r5,1
   427d4:	003fc806 	br	426f8 <_gp+0xfffe55b0>
   427d8:	9080102c 	andhi	r2,r18,64
   427dc:	103fe926 	beq	r2,zero,42784 <_gp+0xfffe563c>
   427e0:	0023883a 	mov	r17,zero
   427e4:	00802034 	movhi	r2,128
   427e8:	89801034 	orhi	r6,r17,64
   427ec:	10bfffc4 	addi	r2,r2,-1
   427f0:	a80f883a 	mov	r7,r21
   427f4:	308c703a 	and	r6,r6,r2
   427f8:	003faf06 	br	426b8 <_gp+0xfffe5570>
   427fc:	01c00804 	movi	r7,32
   42800:	390fc83a 	sub	r7,r7,r4
   42804:	89ce983a 	sll	r7,r17,r7
   42808:	890ad83a 	srl	r5,r17,r4
   4280c:	380ec03a 	cmpne	r7,r7,zero
   42810:	29cab03a 	or	r5,r5,r7
   42814:	28c001cc 	andi	r3,r5,7
   42818:	18000426 	beq	r3,zero,4282c <__divsf3+0x3fc>
   4281c:	28c003cc 	andi	r3,r5,15
   42820:	01000104 	movi	r4,4
   42824:	19000126 	beq	r3,r4,4282c <__divsf3+0x3fc>
   42828:	290b883a 	add	r5,r5,r4
   4282c:	28c1002c 	andhi	r3,r5,1024
   42830:	18000426 	beq	r3,zero,42844 <__divsf3+0x414>
   42834:	11c0004c 	andi	r7,r2,1
   42838:	01000044 	movi	r4,1
   4283c:	000d883a 	mov	r6,zero
   42840:	003f4b06 	br	42570 <_gp+0xfffe5428>
   42844:	280a91ba 	slli	r5,r5,6
   42848:	11c0004c 	andi	r7,r2,1
   4284c:	0009883a 	mov	r4,zero
   42850:	280cd27a 	srli	r6,r5,9
   42854:	003f4606 	br	42570 <_gp+0xfffe5428>
   42858:	00802034 	movhi	r2,128
   4285c:	89801034 	orhi	r6,r17,64
   42860:	10bfffc4 	addi	r2,r2,-1
   42864:	b00f883a 	mov	r7,r22
   42868:	308c703a 	and	r6,r6,r2
   4286c:	003f9206 	br	426b8 <_gp+0xfffe5570>

00042870 <__eqsf2>:
   42870:	2006d5fa 	srli	r3,r4,23
   42874:	280cd5fa 	srli	r6,r5,23
   42878:	01c02034 	movhi	r7,128
   4287c:	39ffffc4 	addi	r7,r7,-1
   42880:	18c03fcc 	andi	r3,r3,255
   42884:	02003fc4 	movi	r8,255
   42888:	3904703a 	and	r2,r7,r4
   4288c:	31803fcc 	andi	r6,r6,255
   42890:	394e703a 	and	r7,r7,r5
   42894:	2008d7fa 	srli	r4,r4,31
   42898:	280ad7fa 	srli	r5,r5,31
   4289c:	1a000d26 	beq	r3,r8,428d4 <__eqsf2+0x64>
   428a0:	02003fc4 	movi	r8,255
   428a4:	32000826 	beq	r6,r8,428c8 <__eqsf2+0x58>
   428a8:	19800226 	beq	r3,r6,428b4 <__eqsf2+0x44>
   428ac:	00800044 	movi	r2,1
   428b0:	f800283a 	ret
   428b4:	11fffd1e 	bne	r2,r7,428ac <_gp+0xfffe5764>
   428b8:	21400926 	beq	r4,r5,428e0 <__eqsf2+0x70>
   428bc:	183ffb1e 	bne	r3,zero,428ac <_gp+0xfffe5764>
   428c0:	1004c03a 	cmpne	r2,r2,zero
   428c4:	f800283a 	ret
   428c8:	383ff726 	beq	r7,zero,428a8 <_gp+0xfffe5760>
   428cc:	00800044 	movi	r2,1
   428d0:	f800283a 	ret
   428d4:	103ff226 	beq	r2,zero,428a0 <_gp+0xfffe5758>
   428d8:	00800044 	movi	r2,1
   428dc:	f800283a 	ret
   428e0:	0005883a 	mov	r2,zero
   428e4:	f800283a 	ret

000428e8 <__gesf2>:
   428e8:	2004d5fa 	srli	r2,r4,23
   428ec:	2806d5fa 	srli	r3,r5,23
   428f0:	01802034 	movhi	r6,128
   428f4:	31bfffc4 	addi	r6,r6,-1
   428f8:	10803fcc 	andi	r2,r2,255
   428fc:	01c03fc4 	movi	r7,255
   42900:	3110703a 	and	r8,r6,r4
   42904:	18c03fcc 	andi	r3,r3,255
   42908:	314c703a 	and	r6,r6,r5
   4290c:	2008d7fa 	srli	r4,r4,31
   42910:	280ad7fa 	srli	r5,r5,31
   42914:	11c01926 	beq	r2,r7,4297c <__gesf2+0x94>
   42918:	01c03fc4 	movi	r7,255
   4291c:	19c00f26 	beq	r3,r7,4295c <__gesf2+0x74>
   42920:	1000061e 	bne	r2,zero,4293c <__gesf2+0x54>
   42924:	400f003a 	cmpeq	r7,r8,zero
   42928:	1800071e 	bne	r3,zero,42948 <__gesf2+0x60>
   4292c:	3000061e 	bne	r6,zero,42948 <__gesf2+0x60>
   42930:	0005883a 	mov	r2,zero
   42934:	40000e1e 	bne	r8,zero,42970 <__gesf2+0x88>
   42938:	f800283a 	ret
   4293c:	18000a1e 	bne	r3,zero,42968 <__gesf2+0x80>
   42940:	30000b26 	beq	r6,zero,42970 <__gesf2+0x88>
   42944:	000f883a 	mov	r7,zero
   42948:	29403fcc 	andi	r5,r5,255
   4294c:	38000726 	beq	r7,zero,4296c <__gesf2+0x84>
   42950:	28000826 	beq	r5,zero,42974 <__gesf2+0x8c>
   42954:	00800044 	movi	r2,1
   42958:	f800283a 	ret
   4295c:	303ff026 	beq	r6,zero,42920 <_gp+0xfffe57d8>
   42960:	00bfff84 	movi	r2,-2
   42964:	f800283a 	ret
   42968:	29403fcc 	andi	r5,r5,255
   4296c:	21400526 	beq	r4,r5,42984 <__gesf2+0x9c>
   42970:	203ff826 	beq	r4,zero,42954 <_gp+0xfffe580c>
   42974:	00bfffc4 	movi	r2,-1
   42978:	f800283a 	ret
   4297c:	403fe626 	beq	r8,zero,42918 <_gp+0xfffe57d0>
   42980:	003ff706 	br	42960 <_gp+0xfffe5818>
   42984:	18bffa16 	blt	r3,r2,42970 <_gp+0xfffe5828>
   42988:	10c00216 	blt	r2,r3,42994 <__gesf2+0xac>
   4298c:	323ff836 	bltu	r6,r8,42970 <_gp+0xfffe5828>
   42990:	4180022e 	bgeu	r8,r6,4299c <__gesf2+0xb4>
   42994:	203fef1e 	bne	r4,zero,42954 <_gp+0xfffe580c>
   42998:	003ff606 	br	42974 <_gp+0xfffe582c>
   4299c:	0005883a 	mov	r2,zero
   429a0:	f800283a 	ret

000429a4 <__lesf2>:
   429a4:	2004d5fa 	srli	r2,r4,23
   429a8:	280cd5fa 	srli	r6,r5,23
   429ac:	00c02034 	movhi	r3,128
   429b0:	18ffffc4 	addi	r3,r3,-1
   429b4:	10803fcc 	andi	r2,r2,255
   429b8:	01c03fc4 	movi	r7,255
   429bc:	1910703a 	and	r8,r3,r4
   429c0:	31803fcc 	andi	r6,r6,255
   429c4:	1946703a 	and	r3,r3,r5
   429c8:	2008d7fa 	srli	r4,r4,31
   429cc:	280ad7fa 	srli	r5,r5,31
   429d0:	11c01b26 	beq	r2,r7,42a40 <__lesf2+0x9c>
   429d4:	01c03fc4 	movi	r7,255
   429d8:	31c01126 	beq	r6,r7,42a20 <__lesf2+0x7c>
   429dc:	1000071e 	bne	r2,zero,429fc <__lesf2+0x58>
   429e0:	400f003a 	cmpeq	r7,r8,zero
   429e4:	21003fcc 	andi	r4,r4,255
   429e8:	3000081e 	bne	r6,zero,42a0c <__lesf2+0x68>
   429ec:	1800071e 	bne	r3,zero,42a0c <__lesf2+0x68>
   429f0:	0005883a 	mov	r2,zero
   429f4:	40000f1e 	bne	r8,zero,42a34 <__lesf2+0x90>
   429f8:	f800283a 	ret
   429fc:	21003fcc 	andi	r4,r4,255
   42a00:	30000a1e 	bne	r6,zero,42a2c <__lesf2+0x88>
   42a04:	18000b26 	beq	r3,zero,42a34 <__lesf2+0x90>
   42a08:	000f883a 	mov	r7,zero
   42a0c:	29403fcc 	andi	r5,r5,255
   42a10:	38000726 	beq	r7,zero,42a30 <__lesf2+0x8c>
   42a14:	28000826 	beq	r5,zero,42a38 <__lesf2+0x94>
   42a18:	00800044 	movi	r2,1
   42a1c:	f800283a 	ret
   42a20:	183fee26 	beq	r3,zero,429dc <_gp+0xfffe5894>
   42a24:	00800084 	movi	r2,2
   42a28:	f800283a 	ret
   42a2c:	29403fcc 	andi	r5,r5,255
   42a30:	21400626 	beq	r4,r5,42a4c <__lesf2+0xa8>
   42a34:	203ff826 	beq	r4,zero,42a18 <_gp+0xfffe58d0>
   42a38:	00bfffc4 	movi	r2,-1
   42a3c:	f800283a 	ret
   42a40:	403fe426 	beq	r8,zero,429d4 <_gp+0xfffe588c>
   42a44:	00800084 	movi	r2,2
   42a48:	f800283a 	ret
   42a4c:	30bff916 	blt	r6,r2,42a34 <_gp+0xfffe58ec>
   42a50:	11800216 	blt	r2,r6,42a5c <__lesf2+0xb8>
   42a54:	1a3ff736 	bltu	r3,r8,42a34 <_gp+0xfffe58ec>
   42a58:	40c0022e 	bgeu	r8,r3,42a64 <__lesf2+0xc0>
   42a5c:	203fee1e 	bne	r4,zero,42a18 <_gp+0xfffe58d0>
   42a60:	003ff506 	br	42a38 <_gp+0xfffe58f0>
   42a64:	0005883a 	mov	r2,zero
   42a68:	f800283a 	ret

00042a6c <__mulsf3>:
   42a6c:	defff504 	addi	sp,sp,-44
   42a70:	dc000115 	stw	r16,4(sp)
   42a74:	2020d5fa 	srli	r16,r4,23
   42a78:	dd400615 	stw	r21,24(sp)
   42a7c:	202ad7fa 	srli	r21,r4,31
   42a80:	dc800315 	stw	r18,12(sp)
   42a84:	04802034 	movhi	r18,128
   42a88:	df000915 	stw	fp,36(sp)
   42a8c:	dd000515 	stw	r20,20(sp)
   42a90:	94bfffc4 	addi	r18,r18,-1
   42a94:	dfc00a15 	stw	ra,40(sp)
   42a98:	ddc00815 	stw	r23,32(sp)
   42a9c:	dd800715 	stw	r22,28(sp)
   42aa0:	dcc00415 	stw	r19,16(sp)
   42aa4:	dc400215 	stw	r17,8(sp)
   42aa8:	84003fcc 	andi	r16,r16,255
   42aac:	9124703a 	and	r18,r18,r4
   42ab0:	a829883a 	mov	r20,r21
   42ab4:	af003fcc 	andi	fp,r21,255
   42ab8:	80005426 	beq	r16,zero,42c0c <__mulsf3+0x1a0>
   42abc:	00803fc4 	movi	r2,255
   42ac0:	80802f26 	beq	r16,r2,42b80 <__mulsf3+0x114>
   42ac4:	91002034 	orhi	r4,r18,128
   42ac8:	202490fa 	slli	r18,r4,3
   42acc:	843fe044 	addi	r16,r16,-127
   42ad0:	0023883a 	mov	r17,zero
   42ad4:	002f883a 	mov	r23,zero
   42ad8:	2804d5fa 	srli	r2,r5,23
   42adc:	282cd7fa 	srli	r22,r5,31
   42ae0:	01002034 	movhi	r4,128
   42ae4:	213fffc4 	addi	r4,r4,-1
   42ae8:	10803fcc 	andi	r2,r2,255
   42aec:	2166703a 	and	r19,r4,r5
   42af0:	b1803fcc 	andi	r6,r22,255
   42af4:	10004c26 	beq	r2,zero,42c28 <__mulsf3+0x1bc>
   42af8:	00c03fc4 	movi	r3,255
   42afc:	10c04726 	beq	r2,r3,42c1c <__mulsf3+0x1b0>
   42b00:	99002034 	orhi	r4,r19,128
   42b04:	202690fa 	slli	r19,r4,3
   42b08:	10bfe044 	addi	r2,r2,-127
   42b0c:	0007883a 	mov	r3,zero
   42b10:	80a1883a 	add	r16,r16,r2
   42b14:	010003c4 	movi	r4,15
   42b18:	1c44b03a 	or	r2,r3,r17
   42b1c:	b56af03a 	xor	r21,r22,r21
   42b20:	81c00044 	addi	r7,r16,1
   42b24:	20806b36 	bltu	r4,r2,42cd4 <__mulsf3+0x268>
   42b28:	100490ba 	slli	r2,r2,2
   42b2c:	01000134 	movhi	r4,4
   42b30:	210ad004 	addi	r4,r4,11072
   42b34:	1105883a 	add	r2,r2,r4
   42b38:	10800017 	ldw	r2,0(r2)
   42b3c:	1000683a 	jmp	r2
   42b40:	00042cd4 	movui	zero,4275
   42b44:	00042b94 	movui	zero,4270
   42b48:	00042b94 	movui	zero,4270
   42b4c:	00042b90 	cmplti	zero,zero,4270
   42b50:	00042cb8 	rdprs	zero,zero,4274
   42b54:	00042cb8 	rdprs	zero,zero,4274
   42b58:	00042ca4 	muli	zero,zero,4274
   42b5c:	00042b90 	cmplti	zero,zero,4270
   42b60:	00042cb8 	rdprs	zero,zero,4274
   42b64:	00042ca4 	muli	zero,zero,4274
   42b68:	00042cb8 	rdprs	zero,zero,4274
   42b6c:	00042b90 	cmplti	zero,zero,4270
   42b70:	00042cc4 	movi	zero,4275
   42b74:	00042cc4 	movi	zero,4275
   42b78:	00042cc4 	movi	zero,4275
   42b7c:	00042dd4 	movui	zero,4279
   42b80:	90003b1e 	bne	r18,zero,42c70 <__mulsf3+0x204>
   42b84:	04400204 	movi	r17,8
   42b88:	05c00084 	movi	r23,2
   42b8c:	003fd206 	br	42ad8 <_gp+0xfffe5990>
   42b90:	302b883a 	mov	r21,r6
   42b94:	00800084 	movi	r2,2
   42b98:	18802626 	beq	r3,r2,42c34 <__mulsf3+0x1c8>
   42b9c:	008000c4 	movi	r2,3
   42ba0:	1880b826 	beq	r3,r2,42e84 <__mulsf3+0x418>
   42ba4:	00800044 	movi	r2,1
   42ba8:	1880af1e 	bne	r3,r2,42e68 <__mulsf3+0x3fc>
   42bac:	a829883a 	mov	r20,r21
   42bb0:	0007883a 	mov	r3,zero
   42bb4:	0009883a 	mov	r4,zero
   42bb8:	18803fcc 	andi	r2,r3,255
   42bbc:	100695fa 	slli	r3,r2,23
   42bc0:	a0803fcc 	andi	r2,r20,255
   42bc4:	100a97fa 	slli	r5,r2,31
   42bc8:	00802034 	movhi	r2,128
   42bcc:	10bfffc4 	addi	r2,r2,-1
   42bd0:	2084703a 	and	r2,r4,r2
   42bd4:	10c4b03a 	or	r2,r2,r3
   42bd8:	1144b03a 	or	r2,r2,r5
   42bdc:	dfc00a17 	ldw	ra,40(sp)
   42be0:	df000917 	ldw	fp,36(sp)
   42be4:	ddc00817 	ldw	r23,32(sp)
   42be8:	dd800717 	ldw	r22,28(sp)
   42bec:	dd400617 	ldw	r21,24(sp)
   42bf0:	dd000517 	ldw	r20,20(sp)
   42bf4:	dcc00417 	ldw	r19,16(sp)
   42bf8:	dc800317 	ldw	r18,12(sp)
   42bfc:	dc400217 	ldw	r17,8(sp)
   42c00:	dc000117 	ldw	r16,4(sp)
   42c04:	dec00b04 	addi	sp,sp,44
   42c08:	f800283a 	ret
   42c0c:	90000d1e 	bne	r18,zero,42c44 <__mulsf3+0x1d8>
   42c10:	04400104 	movi	r17,4
   42c14:	05c00044 	movi	r23,1
   42c18:	003faf06 	br	42ad8 <_gp+0xfffe5990>
   42c1c:	9806c03a 	cmpne	r3,r19,zero
   42c20:	18c00084 	addi	r3,r3,2
   42c24:	003fba06 	br	42b10 <_gp+0xfffe59c8>
   42c28:	9800141e 	bne	r19,zero,42c7c <__mulsf3+0x210>
   42c2c:	00c00044 	movi	r3,1
   42c30:	003fb706 	br	42b10 <_gp+0xfffe59c8>
   42c34:	a829883a 	mov	r20,r21
   42c38:	00ffffc4 	movi	r3,-1
   42c3c:	0009883a 	mov	r4,zero
   42c40:	003fdd06 	br	42bb8 <_gp+0xfffe5a70>
   42c44:	9009883a 	mov	r4,r18
   42c48:	d9400015 	stw	r5,0(sp)
   42c4c:	0045edc0 	call	45edc <__clzsi2>
   42c50:	10fffec4 	addi	r3,r2,-5
   42c54:	10801d84 	addi	r2,r2,118
   42c58:	90e4983a 	sll	r18,r18,r3
   42c5c:	00a1c83a 	sub	r16,zero,r2
   42c60:	0023883a 	mov	r17,zero
   42c64:	002f883a 	mov	r23,zero
   42c68:	d9400017 	ldw	r5,0(sp)
   42c6c:	003f9a06 	br	42ad8 <_gp+0xfffe5990>
   42c70:	04400304 	movi	r17,12
   42c74:	05c000c4 	movi	r23,3
   42c78:	003f9706 	br	42ad8 <_gp+0xfffe5990>
   42c7c:	9809883a 	mov	r4,r19
   42c80:	d9800015 	stw	r6,0(sp)
   42c84:	0045edc0 	call	45edc <__clzsi2>
   42c88:	10fffec4 	addi	r3,r2,-5
   42c8c:	10801d84 	addi	r2,r2,118
   42c90:	98e6983a 	sll	r19,r19,r3
   42c94:	0085c83a 	sub	r2,zero,r2
   42c98:	0007883a 	mov	r3,zero
   42c9c:	d9800017 	ldw	r6,0(sp)
   42ca0:	003f9b06 	br	42b10 <_gp+0xfffe59c8>
   42ca4:	01002034 	movhi	r4,128
   42ca8:	0029883a 	mov	r20,zero
   42cac:	213fffc4 	addi	r4,r4,-1
   42cb0:	00ffffc4 	movi	r3,-1
   42cb4:	003fc006 	br	42bb8 <_gp+0xfffe5a70>
   42cb8:	9027883a 	mov	r19,r18
   42cbc:	b807883a 	mov	r3,r23
   42cc0:	003fb406 	br	42b94 <_gp+0xfffe5a4c>
   42cc4:	9027883a 	mov	r19,r18
   42cc8:	e02b883a 	mov	r21,fp
   42ccc:	b807883a 	mov	r3,r23
   42cd0:	003fb006 	br	42b94 <_gp+0xfffe5a4c>
   42cd4:	9028d43a 	srli	r20,r18,16
   42cd8:	982cd43a 	srli	r22,r19,16
   42cdc:	94bfffcc 	andi	r18,r18,65535
   42ce0:	9cffffcc 	andi	r19,r19,65535
   42ce4:	980b883a 	mov	r5,r19
   42ce8:	9009883a 	mov	r4,r18
   42cec:	d9c00015 	stw	r7,0(sp)
   42cf0:	0041f400 	call	41f40 <__mulsi3>
   42cf4:	a00b883a 	mov	r5,r20
   42cf8:	9809883a 	mov	r4,r19
   42cfc:	1023883a 	mov	r17,r2
   42d00:	0041f400 	call	41f40 <__mulsi3>
   42d04:	a009883a 	mov	r4,r20
   42d08:	b00b883a 	mov	r5,r22
   42d0c:	1027883a 	mov	r19,r2
   42d10:	0041f400 	call	41f40 <__mulsi3>
   42d14:	b00b883a 	mov	r5,r22
   42d18:	9009883a 	mov	r4,r18
   42d1c:	1029883a 	mov	r20,r2
   42d20:	0041f400 	call	41f40 <__mulsi3>
   42d24:	8806d43a 	srli	r3,r17,16
   42d28:	14c5883a 	add	r2,r2,r19
   42d2c:	d9c00017 	ldw	r7,0(sp)
   42d30:	1885883a 	add	r2,r3,r2
   42d34:	14c0022e 	bgeu	r2,r19,42d40 <__mulsf3+0x2d4>
   42d38:	00c00074 	movhi	r3,1
   42d3c:	a0e9883a 	add	r20,r20,r3
   42d40:	1026943a 	slli	r19,r2,16
   42d44:	8c7fffcc 	andi	r17,r17,65535
   42d48:	1004d43a 	srli	r2,r2,16
   42d4c:	9c63883a 	add	r17,r19,r17
   42d50:	882691ba 	slli	r19,r17,6
   42d54:	1505883a 	add	r2,r2,r20
   42d58:	8822d6ba 	srli	r17,r17,26
   42d5c:	100891ba 	slli	r4,r2,6
   42d60:	9826c03a 	cmpne	r19,r19,zero
   42d64:	9c62b03a 	or	r17,r19,r17
   42d68:	8926b03a 	or	r19,r17,r4
   42d6c:	9882002c 	andhi	r2,r19,2048
   42d70:	10000426 	beq	r2,zero,42d84 <__mulsf3+0x318>
   42d74:	9804d07a 	srli	r2,r19,1
   42d78:	9900004c 	andi	r4,r19,1
   42d7c:	3821883a 	mov	r16,r7
   42d80:	1126b03a 	or	r19,r2,r4
   42d84:	80c01fc4 	addi	r3,r16,127
   42d88:	00c0210e 	bge	zero,r3,42e10 <__mulsf3+0x3a4>
   42d8c:	988001cc 	andi	r2,r19,7
   42d90:	10000426 	beq	r2,zero,42da4 <__mulsf3+0x338>
   42d94:	988003cc 	andi	r2,r19,15
   42d98:	01000104 	movi	r4,4
   42d9c:	11000126 	beq	r2,r4,42da4 <__mulsf3+0x338>
   42da0:	9927883a 	add	r19,r19,r4
   42da4:	9882002c 	andhi	r2,r19,2048
   42da8:	10000426 	beq	r2,zero,42dbc <__mulsf3+0x350>
   42dac:	00be0034 	movhi	r2,63488
   42db0:	10bfffc4 	addi	r2,r2,-1
   42db4:	80c02004 	addi	r3,r16,128
   42db8:	98a6703a 	and	r19,r19,r2
   42dbc:	00803f84 	movi	r2,254
   42dc0:	10ff9c16 	blt	r2,r3,42c34 <_gp+0xfffe5aec>
   42dc4:	980891ba 	slli	r4,r19,6
   42dc8:	a829883a 	mov	r20,r21
   42dcc:	2008d27a 	srli	r4,r4,9
   42dd0:	003f7906 	br	42bb8 <_gp+0xfffe5a70>
   42dd4:	9080102c 	andhi	r2,r18,64
   42dd8:	10000826 	beq	r2,zero,42dfc <__mulsf3+0x390>
   42ddc:	9880102c 	andhi	r2,r19,64
   42de0:	1000061e 	bne	r2,zero,42dfc <__mulsf3+0x390>
   42de4:	00802034 	movhi	r2,128
   42de8:	99001034 	orhi	r4,r19,64
   42dec:	10bfffc4 	addi	r2,r2,-1
   42df0:	b029883a 	mov	r20,r22
   42df4:	2088703a 	and	r4,r4,r2
   42df8:	003fad06 	br	42cb0 <_gp+0xfffe5b68>
   42dfc:	00802034 	movhi	r2,128
   42e00:	91001034 	orhi	r4,r18,64
   42e04:	10bfffc4 	addi	r2,r2,-1
   42e08:	2088703a 	and	r4,r4,r2
   42e0c:	003fa806 	br	42cb0 <_gp+0xfffe5b68>
   42e10:	00800044 	movi	r2,1
   42e14:	10c7c83a 	sub	r3,r2,r3
   42e18:	008006c4 	movi	r2,27
   42e1c:	10ff6316 	blt	r2,r3,42bac <_gp+0xfffe5a64>
   42e20:	00800804 	movi	r2,32
   42e24:	10c5c83a 	sub	r2,r2,r3
   42e28:	9884983a 	sll	r2,r19,r2
   42e2c:	98c6d83a 	srl	r3,r19,r3
   42e30:	1004c03a 	cmpne	r2,r2,zero
   42e34:	1884b03a 	or	r2,r3,r2
   42e38:	10c001cc 	andi	r3,r2,7
   42e3c:	18000426 	beq	r3,zero,42e50 <__mulsf3+0x3e4>
   42e40:	10c003cc 	andi	r3,r2,15
   42e44:	01000104 	movi	r4,4
   42e48:	19000126 	beq	r3,r4,42e50 <__mulsf3+0x3e4>
   42e4c:	1105883a 	add	r2,r2,r4
   42e50:	10c1002c 	andhi	r3,r2,1024
   42e54:	18000626 	beq	r3,zero,42e70 <__mulsf3+0x404>
   42e58:	a829883a 	mov	r20,r21
   42e5c:	00c00044 	movi	r3,1
   42e60:	0009883a 	mov	r4,zero
   42e64:	003f5406 	br	42bb8 <_gp+0xfffe5a70>
   42e68:	3821883a 	mov	r16,r7
   42e6c:	003fc506 	br	42d84 <_gp+0xfffe5c3c>
   42e70:	100491ba 	slli	r2,r2,6
   42e74:	a829883a 	mov	r20,r21
   42e78:	0007883a 	mov	r3,zero
   42e7c:	1008d27a 	srli	r4,r2,9
   42e80:	003f4d06 	br	42bb8 <_gp+0xfffe5a70>
   42e84:	00802034 	movhi	r2,128
   42e88:	99001034 	orhi	r4,r19,64
   42e8c:	10bfffc4 	addi	r2,r2,-1
   42e90:	a829883a 	mov	r20,r21
   42e94:	2088703a 	and	r4,r4,r2
   42e98:	003f8506 	br	42cb0 <_gp+0xfffe5b68>

00042e9c <__subsf3>:
   42e9c:	defffc04 	addi	sp,sp,-16
   42ea0:	280cd5fa 	srli	r6,r5,23
   42ea4:	dc000015 	stw	r16,0(sp)
   42ea8:	01c02034 	movhi	r7,128
   42eac:	2020d5fa 	srli	r16,r4,23
   42eb0:	39ffffc4 	addi	r7,r7,-1
   42eb4:	3906703a 	and	r3,r7,r4
   42eb8:	dc400115 	stw	r17,4(sp)
   42ebc:	394e703a 	and	r7,r7,r5
   42ec0:	2022d7fa 	srli	r17,r4,31
   42ec4:	dfc00315 	stw	ra,12(sp)
   42ec8:	dc800215 	stw	r18,8(sp)
   42ecc:	31803fcc 	andi	r6,r6,255
   42ed0:	01003fc4 	movi	r4,255
   42ed4:	84003fcc 	andi	r16,r16,255
   42ed8:	180690fa 	slli	r3,r3,3
   42edc:	2804d7fa 	srli	r2,r5,31
   42ee0:	380e90fa 	slli	r7,r7,3
   42ee4:	31006d26 	beq	r6,r4,4309c <__subsf3+0x200>
   42ee8:	1080005c 	xori	r2,r2,1
   42eec:	8189c83a 	sub	r4,r16,r6
   42ef0:	14404f26 	beq	r2,r17,43030 <__subsf3+0x194>
   42ef4:	0100770e 	bge	zero,r4,430d4 <__subsf3+0x238>
   42ef8:	30001e1e 	bne	r6,zero,42f74 <__subsf3+0xd8>
   42efc:	38006a1e 	bne	r7,zero,430a8 <__subsf3+0x20c>
   42f00:	188001cc 	andi	r2,r3,7
   42f04:	10000426 	beq	r2,zero,42f18 <__subsf3+0x7c>
   42f08:	188003cc 	andi	r2,r3,15
   42f0c:	01000104 	movi	r4,4
   42f10:	11000126 	beq	r2,r4,42f18 <__subsf3+0x7c>
   42f14:	1907883a 	add	r3,r3,r4
   42f18:	1881002c 	andhi	r2,r3,1024
   42f1c:	10003926 	beq	r2,zero,43004 <__subsf3+0x168>
   42f20:	84000044 	addi	r16,r16,1
   42f24:	00803fc4 	movi	r2,255
   42f28:	80807526 	beq	r16,r2,43100 <__subsf3+0x264>
   42f2c:	180691ba 	slli	r3,r3,6
   42f30:	8880004c 	andi	r2,r17,1
   42f34:	180ad27a 	srli	r5,r3,9
   42f38:	84003fcc 	andi	r16,r16,255
   42f3c:	800695fa 	slli	r3,r16,23
   42f40:	10803fcc 	andi	r2,r2,255
   42f44:	01002034 	movhi	r4,128
   42f48:	213fffc4 	addi	r4,r4,-1
   42f4c:	100497fa 	slli	r2,r2,31
   42f50:	2920703a 	and	r16,r5,r4
   42f54:	80e0b03a 	or	r16,r16,r3
   42f58:	8084b03a 	or	r2,r16,r2
   42f5c:	dfc00317 	ldw	ra,12(sp)
   42f60:	dc800217 	ldw	r18,8(sp)
   42f64:	dc400117 	ldw	r17,4(sp)
   42f68:	dc000017 	ldw	r16,0(sp)
   42f6c:	dec00404 	addi	sp,sp,16
   42f70:	f800283a 	ret
   42f74:	00803fc4 	movi	r2,255
   42f78:	80bfe126 	beq	r16,r2,42f00 <_gp+0xfffe5db8>
   42f7c:	39c10034 	orhi	r7,r7,1024
   42f80:	008006c4 	movi	r2,27
   42f84:	11007416 	blt	r2,r4,43158 <__subsf3+0x2bc>
   42f88:	00800804 	movi	r2,32
   42f8c:	1105c83a 	sub	r2,r2,r4
   42f90:	3884983a 	sll	r2,r7,r2
   42f94:	390ed83a 	srl	r7,r7,r4
   42f98:	1008c03a 	cmpne	r4,r2,zero
   42f9c:	390eb03a 	or	r7,r7,r4
   42fa0:	19c7c83a 	sub	r3,r3,r7
   42fa4:	1881002c 	andhi	r2,r3,1024
   42fa8:	10001426 	beq	r2,zero,42ffc <__subsf3+0x160>
   42fac:	04810034 	movhi	r18,1024
   42fb0:	94bfffc4 	addi	r18,r18,-1
   42fb4:	1ca4703a 	and	r18,r3,r18
   42fb8:	9009883a 	mov	r4,r18
   42fbc:	0045edc0 	call	45edc <__clzsi2>
   42fc0:	10bffec4 	addi	r2,r2,-5
   42fc4:	90a4983a 	sll	r18,r18,r2
   42fc8:	14005116 	blt	r2,r16,43110 <__subsf3+0x274>
   42fcc:	1405c83a 	sub	r2,r2,r16
   42fd0:	10c00044 	addi	r3,r2,1
   42fd4:	00800804 	movi	r2,32
   42fd8:	10c5c83a 	sub	r2,r2,r3
   42fdc:	9084983a 	sll	r2,r18,r2
   42fe0:	90e4d83a 	srl	r18,r18,r3
   42fe4:	0021883a 	mov	r16,zero
   42fe8:	1006c03a 	cmpne	r3,r2,zero
   42fec:	90c6b03a 	or	r3,r18,r3
   42ff0:	003fc306 	br	42f00 <_gp+0xfffe5db8>
   42ff4:	2000e026 	beq	r4,zero,43378 <__subsf3+0x4dc>
   42ff8:	2007883a 	mov	r3,r4
   42ffc:	188001cc 	andi	r2,r3,7
   43000:	103fc11e 	bne	r2,zero,42f08 <_gp+0xfffe5dc0>
   43004:	180ad0fa 	srli	r5,r3,3
   43008:	00c03fc4 	movi	r3,255
   4300c:	8880004c 	andi	r2,r17,1
   43010:	80c0031e 	bne	r16,r3,43020 <__subsf3+0x184>
   43014:	28006d26 	beq	r5,zero,431cc <__subsf3+0x330>
   43018:	29401034 	orhi	r5,r5,64
   4301c:	043fffc4 	movi	r16,-1
   43020:	00c02034 	movhi	r3,128
   43024:	18ffffc4 	addi	r3,r3,-1
   43028:	28ca703a 	and	r5,r5,r3
   4302c:	003fc206 	br	42f38 <_gp+0xfffe5df0>
   43030:	01003c0e 	bge	zero,r4,43124 <__subsf3+0x288>
   43034:	30002126 	beq	r6,zero,430bc <__subsf3+0x220>
   43038:	01403fc4 	movi	r5,255
   4303c:	817fb026 	beq	r16,r5,42f00 <_gp+0xfffe5db8>
   43040:	39c10034 	orhi	r7,r7,1024
   43044:	014006c4 	movi	r5,27
   43048:	29007416 	blt	r5,r4,4321c <__subsf3+0x380>
   4304c:	01400804 	movi	r5,32
   43050:	290bc83a 	sub	r5,r5,r4
   43054:	394a983a 	sll	r5,r7,r5
   43058:	390ed83a 	srl	r7,r7,r4
   4305c:	2808c03a 	cmpne	r4,r5,zero
   43060:	390eb03a 	or	r7,r7,r4
   43064:	19c7883a 	add	r3,r3,r7
   43068:	1901002c 	andhi	r4,r3,1024
   4306c:	20003826 	beq	r4,zero,43150 <__subsf3+0x2b4>
   43070:	84000044 	addi	r16,r16,1
   43074:	01003fc4 	movi	r4,255
   43078:	81005426 	beq	r16,r4,431cc <__subsf3+0x330>
   4307c:	1023883a 	mov	r17,r2
   43080:	00bf0034 	movhi	r2,64512
   43084:	10bfffc4 	addi	r2,r2,-1
   43088:	1900004c 	andi	r4,r3,1
   4308c:	1886703a 	and	r3,r3,r2
   43090:	1806d07a 	srli	r3,r3,1
   43094:	1906b03a 	or	r3,r3,r4
   43098:	003f9906 	br	42f00 <_gp+0xfffe5db8>
   4309c:	383f9226 	beq	r7,zero,42ee8 <_gp+0xfffe5da0>
   430a0:	10803fcc 	andi	r2,r2,255
   430a4:	003f9106 	br	42eec <_gp+0xfffe5da4>
   430a8:	213fffc4 	addi	r4,r4,-1
   430ac:	203fbc26 	beq	r4,zero,42fa0 <_gp+0xfffe5e58>
   430b0:	00803fc4 	movi	r2,255
   430b4:	80bfb21e 	bne	r16,r2,42f80 <_gp+0xfffe5e38>
   430b8:	003f9106 	br	42f00 <_gp+0xfffe5db8>
   430bc:	383f9026 	beq	r7,zero,42f00 <_gp+0xfffe5db8>
   430c0:	213fffc4 	addi	r4,r4,-1
   430c4:	203fe726 	beq	r4,zero,43064 <_gp+0xfffe5f1c>
   430c8:	01403fc4 	movi	r5,255
   430cc:	817fdd1e 	bne	r16,r5,43044 <_gp+0xfffe5efc>
   430d0:	003f8b06 	br	42f00 <_gp+0xfffe5db8>
   430d4:	2000221e 	bne	r4,zero,43160 <__subsf3+0x2c4>
   430d8:	81000044 	addi	r4,r16,1
   430dc:	21003fcc 	andi	r4,r4,255
   430e0:	01400044 	movi	r5,1
   430e4:	2900470e 	bge	r5,r4,43204 <__subsf3+0x368>
   430e8:	19e5c83a 	sub	r18,r3,r7
   430ec:	9141002c 	andhi	r5,r18,1024
   430f0:	28002d26 	beq	r5,zero,431a8 <__subsf3+0x30c>
   430f4:	38e5c83a 	sub	r18,r7,r3
   430f8:	1023883a 	mov	r17,r2
   430fc:	003fae06 	br	42fb8 <_gp+0xfffe5e70>
   43100:	8880004c 	andi	r2,r17,1
   43104:	043fffc4 	movi	r16,-1
   43108:	000b883a 	mov	r5,zero
   4310c:	003f8a06 	br	42f38 <_gp+0xfffe5df0>
   43110:	00ff0034 	movhi	r3,64512
   43114:	18ffffc4 	addi	r3,r3,-1
   43118:	80a1c83a 	sub	r16,r16,r2
   4311c:	90c6703a 	and	r3,r18,r3
   43120:	003f7706 	br	42f00 <_gp+0xfffe5db8>
   43124:	2000431e 	bne	r4,zero,43234 <__subsf3+0x398>
   43128:	81000044 	addi	r4,r16,1
   4312c:	21803fcc 	andi	r6,r4,255
   43130:	01400044 	movi	r5,1
   43134:	2980280e 	bge	r5,r6,431d8 <__subsf3+0x33c>
   43138:	01403fc4 	movi	r5,255
   4313c:	21402326 	beq	r4,r5,431cc <__subsf3+0x330>
   43140:	19c7883a 	add	r3,r3,r7
   43144:	1806d07a 	srli	r3,r3,1
   43148:	2021883a 	mov	r16,r4
   4314c:	003f6c06 	br	42f00 <_gp+0xfffe5db8>
   43150:	1023883a 	mov	r17,r2
   43154:	003fa906 	br	42ffc <_gp+0xfffe5eb4>
   43158:	01c00044 	movi	r7,1
   4315c:	003f9006 	br	42fa0 <_gp+0xfffe5e58>
   43160:	8000151e 	bne	r16,zero,431b8 <__subsf3+0x31c>
   43164:	18002f26 	beq	r3,zero,43224 <__subsf3+0x388>
   43168:	0108303a 	nor	r4,zero,r4
   4316c:	20000a26 	beq	r4,zero,43198 <__subsf3+0x2fc>
   43170:	01403fc4 	movi	r5,255
   43174:	31402b26 	beq	r6,r5,43224 <__subsf3+0x388>
   43178:	014006c4 	movi	r5,27
   4317c:	29006e16 	blt	r5,r4,43338 <__subsf3+0x49c>
   43180:	01400804 	movi	r5,32
   43184:	290bc83a 	sub	r5,r5,r4
   43188:	194a983a 	sll	r5,r3,r5
   4318c:	1908d83a 	srl	r4,r3,r4
   43190:	2806c03a 	cmpne	r3,r5,zero
   43194:	20c6b03a 	or	r3,r4,r3
   43198:	38c7c83a 	sub	r3,r7,r3
   4319c:	3021883a 	mov	r16,r6
   431a0:	1023883a 	mov	r17,r2
   431a4:	003f7f06 	br	42fa4 <_gp+0xfffe5e5c>
   431a8:	903f831e 	bne	r18,zero,42fb8 <_gp+0xfffe5e70>
   431ac:	0005883a 	mov	r2,zero
   431b0:	0021883a 	mov	r16,zero
   431b4:	003f9a06 	br	43020 <_gp+0xfffe5ed8>
   431b8:	01403fc4 	movi	r5,255
   431bc:	31401926 	beq	r6,r5,43224 <__subsf3+0x388>
   431c0:	0109c83a 	sub	r4,zero,r4
   431c4:	18c10034 	orhi	r3,r3,1024
   431c8:	003feb06 	br	43178 <_gp+0xfffe6030>
   431cc:	043fffc4 	movi	r16,-1
   431d0:	000b883a 	mov	r5,zero
   431d4:	003f5806 	br	42f38 <_gp+0xfffe5df0>
   431d8:	8000481e 	bne	r16,zero,432fc <__subsf3+0x460>
   431dc:	18006226 	beq	r3,zero,43368 <__subsf3+0x4cc>
   431e0:	383f4726 	beq	r7,zero,42f00 <_gp+0xfffe5db8>
   431e4:	19c7883a 	add	r3,r3,r7
   431e8:	1881002c 	andhi	r2,r3,1024
   431ec:	103f8326 	beq	r2,zero,42ffc <_gp+0xfffe5eb4>
   431f0:	00bf0034 	movhi	r2,64512
   431f4:	10bfffc4 	addi	r2,r2,-1
   431f8:	2821883a 	mov	r16,r5
   431fc:	1886703a 	and	r3,r3,r2
   43200:	003f3f06 	br	42f00 <_gp+0xfffe5db8>
   43204:	80001c1e 	bne	r16,zero,43278 <__subsf3+0x3dc>
   43208:	1800261e 	bne	r3,zero,432a4 <__subsf3+0x408>
   4320c:	38004c26 	beq	r7,zero,43340 <__subsf3+0x4a4>
   43210:	3807883a 	mov	r3,r7
   43214:	1023883a 	mov	r17,r2
   43218:	003f3906 	br	42f00 <_gp+0xfffe5db8>
   4321c:	01c00044 	movi	r7,1
   43220:	003f9006 	br	43064 <_gp+0xfffe5f1c>
   43224:	3807883a 	mov	r3,r7
   43228:	3021883a 	mov	r16,r6
   4322c:	1023883a 	mov	r17,r2
   43230:	003f3306 	br	42f00 <_gp+0xfffe5db8>
   43234:	8000161e 	bne	r16,zero,43290 <__subsf3+0x3f4>
   43238:	18002d26 	beq	r3,zero,432f0 <__subsf3+0x454>
   4323c:	0108303a 	nor	r4,zero,r4
   43240:	20000a26 	beq	r4,zero,4326c <__subsf3+0x3d0>
   43244:	01403fc4 	movi	r5,255
   43248:	31402926 	beq	r6,r5,432f0 <__subsf3+0x454>
   4324c:	014006c4 	movi	r5,27
   43250:	29004716 	blt	r5,r4,43370 <__subsf3+0x4d4>
   43254:	01400804 	movi	r5,32
   43258:	290bc83a 	sub	r5,r5,r4
   4325c:	194a983a 	sll	r5,r3,r5
   43260:	1908d83a 	srl	r4,r3,r4
   43264:	2806c03a 	cmpne	r3,r5,zero
   43268:	20c6b03a 	or	r3,r4,r3
   4326c:	19c7883a 	add	r3,r3,r7
   43270:	3021883a 	mov	r16,r6
   43274:	003f7c06 	br	43068 <_gp+0xfffe5f20>
   43278:	1800111e 	bne	r3,zero,432c0 <__subsf3+0x424>
   4327c:	38003326 	beq	r7,zero,4334c <__subsf3+0x4b0>
   43280:	3807883a 	mov	r3,r7
   43284:	1023883a 	mov	r17,r2
   43288:	04003fc4 	movi	r16,255
   4328c:	003f1c06 	br	42f00 <_gp+0xfffe5db8>
   43290:	01403fc4 	movi	r5,255
   43294:	31401626 	beq	r6,r5,432f0 <__subsf3+0x454>
   43298:	0109c83a 	sub	r4,zero,r4
   4329c:	18c10034 	orhi	r3,r3,1024
   432a0:	003fea06 	br	4324c <_gp+0xfffe6104>
   432a4:	383f1626 	beq	r7,zero,42f00 <_gp+0xfffe5db8>
   432a8:	19c9c83a 	sub	r4,r3,r7
   432ac:	2141002c 	andhi	r5,r4,1024
   432b0:	283f5026 	beq	r5,zero,42ff4 <_gp+0xfffe5eac>
   432b4:	38c7c83a 	sub	r3,r7,r3
   432b8:	1023883a 	mov	r17,r2
   432bc:	003f1006 	br	42f00 <_gp+0xfffe5db8>
   432c0:	38001b26 	beq	r7,zero,43330 <__subsf3+0x494>
   432c4:	1806d0fa 	srli	r3,r3,3
   432c8:	1900102c 	andhi	r4,r3,64
   432cc:	20000526 	beq	r4,zero,432e4 <__subsf3+0x448>
   432d0:	380ed0fa 	srli	r7,r7,3
   432d4:	3900102c 	andhi	r4,r7,64
   432d8:	2000021e 	bne	r4,zero,432e4 <__subsf3+0x448>
   432dc:	3807883a 	mov	r3,r7
   432e0:	1023883a 	mov	r17,r2
   432e4:	180690fa 	slli	r3,r3,3
   432e8:	04003fc4 	movi	r16,255
   432ec:	003f0406 	br	42f00 <_gp+0xfffe5db8>
   432f0:	3807883a 	mov	r3,r7
   432f4:	3021883a 	mov	r16,r6
   432f8:	003f0106 	br	42f00 <_gp+0xfffe5db8>
   432fc:	18001726 	beq	r3,zero,4335c <__subsf3+0x4c0>
   43300:	38000b26 	beq	r7,zero,43330 <__subsf3+0x494>
   43304:	1806d0fa 	srli	r3,r3,3
   43308:	1900102c 	andhi	r4,r3,64
   4330c:	20000426 	beq	r4,zero,43320 <__subsf3+0x484>
   43310:	380ed0fa 	srli	r7,r7,3
   43314:	3900102c 	andhi	r4,r7,64
   43318:	2000011e 	bne	r4,zero,43320 <__subsf3+0x484>
   4331c:	3807883a 	mov	r3,r7
   43320:	180690fa 	slli	r3,r3,3
   43324:	1023883a 	mov	r17,r2
   43328:	04003fc4 	movi	r16,255
   4332c:	003ef406 	br	42f00 <_gp+0xfffe5db8>
   43330:	04003fc4 	movi	r16,255
   43334:	003ef206 	br	42f00 <_gp+0xfffe5db8>
   43338:	00c00044 	movi	r3,1
   4333c:	003f9606 	br	43198 <_gp+0xfffe6050>
   43340:	000b883a 	mov	r5,zero
   43344:	0005883a 	mov	r2,zero
   43348:	003f3506 	br	43020 <_gp+0xfffe5ed8>
   4334c:	01402034 	movhi	r5,128
   43350:	297fffc4 	addi	r5,r5,-1
   43354:	0005883a 	mov	r2,zero
   43358:	003f2f06 	br	43018 <_gp+0xfffe5ed0>
   4335c:	3807883a 	mov	r3,r7
   43360:	04003fc4 	movi	r16,255
   43364:	003ee606 	br	42f00 <_gp+0xfffe5db8>
   43368:	3807883a 	mov	r3,r7
   4336c:	003ee406 	br	42f00 <_gp+0xfffe5db8>
   43370:	00c00044 	movi	r3,1
   43374:	003fbd06 	br	4326c <_gp+0xfffe6124>
   43378:	0005883a 	mov	r2,zero
   4337c:	003f2806 	br	43020 <_gp+0xfffe5ed8>

00043380 <__fixsfsi>:
   43380:	200ad5fa 	srli	r5,r4,23
   43384:	00c02034 	movhi	r3,128
   43388:	18ffffc4 	addi	r3,r3,-1
   4338c:	29403fcc 	andi	r5,r5,255
   43390:	00801f84 	movi	r2,126
   43394:	1906703a 	and	r3,r3,r4
   43398:	2008d7fa 	srli	r4,r4,31
   4339c:	11400e0e 	bge	r2,r5,433d8 <__fixsfsi+0x58>
   433a0:	00802744 	movi	r2,157
   433a4:	11400816 	blt	r2,r5,433c8 <__fixsfsi+0x48>
   433a8:	00802544 	movi	r2,149
   433ac:	18c02034 	orhi	r3,r3,128
   433b0:	11400b0e 	bge	r2,r5,433e0 <__fixsfsi+0x60>
   433b4:	28bfda84 	addi	r2,r5,-150
   433b8:	1884983a 	sll	r2,r3,r2
   433bc:	20000726 	beq	r4,zero,433dc <__fixsfsi+0x5c>
   433c0:	0085c83a 	sub	r2,zero,r2
   433c4:	f800283a 	ret
   433c8:	00a00034 	movhi	r2,32768
   433cc:	10bfffc4 	addi	r2,r2,-1
   433d0:	2085883a 	add	r2,r4,r2
   433d4:	f800283a 	ret
   433d8:	0005883a 	mov	r2,zero
   433dc:	f800283a 	ret
   433e0:	00802584 	movi	r2,150
   433e4:	1145c83a 	sub	r2,r2,r5
   433e8:	1884d83a 	srl	r2,r3,r2
   433ec:	003ff306 	br	433bc <_gp+0xfffe6274>

000433f0 <__floatsisf>:
   433f0:	defffd04 	addi	sp,sp,-12
   433f4:	dfc00215 	stw	ra,8(sp)
   433f8:	dc400115 	stw	r17,4(sp)
   433fc:	dc000015 	stw	r16,0(sp)
   43400:	20003526 	beq	r4,zero,434d8 <__floatsisf+0xe8>
   43404:	2021883a 	mov	r16,r4
   43408:	2022d7fa 	srli	r17,r4,31
   4340c:	20003616 	blt	r4,zero,434e8 <__floatsisf+0xf8>
   43410:	8009883a 	mov	r4,r16
   43414:	0045edc0 	call	45edc <__clzsi2>
   43418:	00c02784 	movi	r3,158
   4341c:	1887c83a 	sub	r3,r3,r2
   43420:	01002584 	movi	r4,150
   43424:	20c01416 	blt	r4,r3,43478 <__floatsisf+0x88>
   43428:	20c9c83a 	sub	r4,r4,r3
   4342c:	8120983a 	sll	r16,r16,r4
   43430:	00802034 	movhi	r2,128
   43434:	10bfffc4 	addi	r2,r2,-1
   43438:	8809883a 	mov	r4,r17
   4343c:	80a0703a 	and	r16,r16,r2
   43440:	18803fcc 	andi	r2,r3,255
   43444:	100695fa 	slli	r3,r2,23
   43448:	20803fcc 	andi	r2,r4,255
   4344c:	100897fa 	slli	r4,r2,31
   43450:	00802034 	movhi	r2,128
   43454:	10bfffc4 	addi	r2,r2,-1
   43458:	8084703a 	and	r2,r16,r2
   4345c:	10c4b03a 	or	r2,r2,r3
   43460:	1104b03a 	or	r2,r2,r4
   43464:	dfc00217 	ldw	ra,8(sp)
   43468:	dc400117 	ldw	r17,4(sp)
   4346c:	dc000017 	ldw	r16,0(sp)
   43470:	dec00304 	addi	sp,sp,12
   43474:	f800283a 	ret
   43478:	01002644 	movi	r4,153
   4347c:	20c01c16 	blt	r4,r3,434f0 <__floatsisf+0x100>
   43480:	20c9c83a 	sub	r4,r4,r3
   43484:	8120983a 	sll	r16,r16,r4
   43488:	013f0034 	movhi	r4,64512
   4348c:	213fffc4 	addi	r4,r4,-1
   43490:	814001cc 	andi	r5,r16,7
   43494:	8108703a 	and	r4,r16,r4
   43498:	28000426 	beq	r5,zero,434ac <__floatsisf+0xbc>
   4349c:	840003cc 	andi	r16,r16,15
   434a0:	01400104 	movi	r5,4
   434a4:	81400126 	beq	r16,r5,434ac <__floatsisf+0xbc>
   434a8:	2149883a 	add	r4,r4,r5
   434ac:	2141002c 	andhi	r5,r4,1024
   434b0:	28000526 	beq	r5,zero,434c8 <__floatsisf+0xd8>
   434b4:	00c027c4 	movi	r3,159
   434b8:	1887c83a 	sub	r3,r3,r2
   434bc:	00bf0034 	movhi	r2,64512
   434c0:	10bfffc4 	addi	r2,r2,-1
   434c4:	2088703a 	and	r4,r4,r2
   434c8:	202091ba 	slli	r16,r4,6
   434cc:	8809883a 	mov	r4,r17
   434d0:	8020d27a 	srli	r16,r16,9
   434d4:	003fda06 	br	43440 <_gp+0xfffe62f8>
   434d8:	0009883a 	mov	r4,zero
   434dc:	0007883a 	mov	r3,zero
   434e0:	0021883a 	mov	r16,zero
   434e4:	003fd606 	br	43440 <_gp+0xfffe62f8>
   434e8:	0121c83a 	sub	r16,zero,r4
   434ec:	003fc806 	br	43410 <_gp+0xfffe62c8>
   434f0:	01002e44 	movi	r4,185
   434f4:	20c9c83a 	sub	r4,r4,r3
   434f8:	01400144 	movi	r5,5
   434fc:	8108983a 	sll	r4,r16,r4
   43500:	288bc83a 	sub	r5,r5,r2
   43504:	8160d83a 	srl	r16,r16,r5
   43508:	2008c03a 	cmpne	r4,r4,zero
   4350c:	8120b03a 	or	r16,r16,r4
   43510:	003fdd06 	br	43488 <_gp+0xfffe6340>

00043514 <__adddf3>:
   43514:	02c00434 	movhi	r11,16
   43518:	5affffc4 	addi	r11,r11,-1
   4351c:	2806d7fa 	srli	r3,r5,31
   43520:	2ad4703a 	and	r10,r5,r11
   43524:	3ad2703a 	and	r9,r7,r11
   43528:	3804d53a 	srli	r2,r7,20
   4352c:	3018d77a 	srli	r12,r6,29
   43530:	280ad53a 	srli	r5,r5,20
   43534:	501490fa 	slli	r10,r10,3
   43538:	2010d77a 	srli	r8,r4,29
   4353c:	481290fa 	slli	r9,r9,3
   43540:	380ed7fa 	srli	r7,r7,31
   43544:	defffb04 	addi	sp,sp,-20
   43548:	dc800215 	stw	r18,8(sp)
   4354c:	dc400115 	stw	r17,4(sp)
   43550:	dc000015 	stw	r16,0(sp)
   43554:	dfc00415 	stw	ra,16(sp)
   43558:	dcc00315 	stw	r19,12(sp)
   4355c:	1c803fcc 	andi	r18,r3,255
   43560:	2c01ffcc 	andi	r16,r5,2047
   43564:	5210b03a 	or	r8,r10,r8
   43568:	202290fa 	slli	r17,r4,3
   4356c:	1081ffcc 	andi	r2,r2,2047
   43570:	4b12b03a 	or	r9,r9,r12
   43574:	300c90fa 	slli	r6,r6,3
   43578:	91c07526 	beq	r18,r7,43750 <__adddf3+0x23c>
   4357c:	8087c83a 	sub	r3,r16,r2
   43580:	00c0ab0e 	bge	zero,r3,43830 <__adddf3+0x31c>
   43584:	10002a1e 	bne	r2,zero,43630 <__adddf3+0x11c>
   43588:	4984b03a 	or	r2,r9,r6
   4358c:	1000961e 	bne	r2,zero,437e8 <__adddf3+0x2d4>
   43590:	888001cc 	andi	r2,r17,7
   43594:	10000726 	beq	r2,zero,435b4 <__adddf3+0xa0>
   43598:	888003cc 	andi	r2,r17,15
   4359c:	00c00104 	movi	r3,4
   435a0:	10c00426 	beq	r2,r3,435b4 <__adddf3+0xa0>
   435a4:	88c7883a 	add	r3,r17,r3
   435a8:	1c63803a 	cmpltu	r17,r3,r17
   435ac:	4451883a 	add	r8,r8,r17
   435b0:	1823883a 	mov	r17,r3
   435b4:	4080202c 	andhi	r2,r8,128
   435b8:	10005926 	beq	r2,zero,43720 <__adddf3+0x20c>
   435bc:	84000044 	addi	r16,r16,1
   435c0:	0081ffc4 	movi	r2,2047
   435c4:	8080ba26 	beq	r16,r2,438b0 <__adddf3+0x39c>
   435c8:	00bfe034 	movhi	r2,65408
   435cc:	10bfffc4 	addi	r2,r2,-1
   435d0:	4090703a 	and	r8,r8,r2
   435d4:	4004977a 	slli	r2,r8,29
   435d8:	4010927a 	slli	r8,r8,9
   435dc:	8822d0fa 	srli	r17,r17,3
   435e0:	8401ffcc 	andi	r16,r16,2047
   435e4:	4010d33a 	srli	r8,r8,12
   435e8:	9007883a 	mov	r3,r18
   435ec:	1444b03a 	or	r2,r2,r17
   435f0:	8401ffcc 	andi	r16,r16,2047
   435f4:	8020953a 	slli	r16,r16,20
   435f8:	18c03fcc 	andi	r3,r3,255
   435fc:	01000434 	movhi	r4,16
   43600:	213fffc4 	addi	r4,r4,-1
   43604:	180697fa 	slli	r3,r3,31
   43608:	4110703a 	and	r8,r8,r4
   4360c:	4410b03a 	or	r8,r8,r16
   43610:	40c6b03a 	or	r3,r8,r3
   43614:	dfc00417 	ldw	ra,16(sp)
   43618:	dcc00317 	ldw	r19,12(sp)
   4361c:	dc800217 	ldw	r18,8(sp)
   43620:	dc400117 	ldw	r17,4(sp)
   43624:	dc000017 	ldw	r16,0(sp)
   43628:	dec00504 	addi	sp,sp,20
   4362c:	f800283a 	ret
   43630:	0081ffc4 	movi	r2,2047
   43634:	80bfd626 	beq	r16,r2,43590 <_gp+0xfffe6448>
   43638:	4a402034 	orhi	r9,r9,128
   4363c:	00800e04 	movi	r2,56
   43640:	10c09f16 	blt	r2,r3,438c0 <__adddf3+0x3ac>
   43644:	008007c4 	movi	r2,31
   43648:	10c0c216 	blt	r2,r3,43954 <__adddf3+0x440>
   4364c:	00800804 	movi	r2,32
   43650:	10c5c83a 	sub	r2,r2,r3
   43654:	488a983a 	sll	r5,r9,r2
   43658:	30c8d83a 	srl	r4,r6,r3
   4365c:	3084983a 	sll	r2,r6,r2
   43660:	48c6d83a 	srl	r3,r9,r3
   43664:	290cb03a 	or	r6,r5,r4
   43668:	1004c03a 	cmpne	r2,r2,zero
   4366c:	308cb03a 	or	r6,r6,r2
   43670:	898dc83a 	sub	r6,r17,r6
   43674:	89a3803a 	cmpltu	r17,r17,r6
   43678:	40d1c83a 	sub	r8,r8,r3
   4367c:	4451c83a 	sub	r8,r8,r17
   43680:	3023883a 	mov	r17,r6
   43684:	4080202c 	andhi	r2,r8,128
   43688:	10002326 	beq	r2,zero,43718 <__adddf3+0x204>
   4368c:	04c02034 	movhi	r19,128
   43690:	9cffffc4 	addi	r19,r19,-1
   43694:	44e6703a 	and	r19,r8,r19
   43698:	98007626 	beq	r19,zero,43874 <__adddf3+0x360>
   4369c:	9809883a 	mov	r4,r19
   436a0:	0045edc0 	call	45edc <__clzsi2>
   436a4:	10fffe04 	addi	r3,r2,-8
   436a8:	010007c4 	movi	r4,31
   436ac:	20c07716 	blt	r4,r3,4388c <__adddf3+0x378>
   436b0:	00800804 	movi	r2,32
   436b4:	10c5c83a 	sub	r2,r2,r3
   436b8:	8884d83a 	srl	r2,r17,r2
   436bc:	98d0983a 	sll	r8,r19,r3
   436c0:	88e2983a 	sll	r17,r17,r3
   436c4:	1204b03a 	or	r2,r2,r8
   436c8:	1c007416 	blt	r3,r16,4389c <__adddf3+0x388>
   436cc:	1c21c83a 	sub	r16,r3,r16
   436d0:	82000044 	addi	r8,r16,1
   436d4:	00c007c4 	movi	r3,31
   436d8:	1a009116 	blt	r3,r8,43920 <__adddf3+0x40c>
   436dc:	00c00804 	movi	r3,32
   436e0:	1a07c83a 	sub	r3,r3,r8
   436e4:	8a08d83a 	srl	r4,r17,r8
   436e8:	88e2983a 	sll	r17,r17,r3
   436ec:	10c6983a 	sll	r3,r2,r3
   436f0:	1210d83a 	srl	r8,r2,r8
   436f4:	8804c03a 	cmpne	r2,r17,zero
   436f8:	1906b03a 	or	r3,r3,r4
   436fc:	18a2b03a 	or	r17,r3,r2
   43700:	0021883a 	mov	r16,zero
   43704:	003fa206 	br	43590 <_gp+0xfffe6448>
   43708:	1890b03a 	or	r8,r3,r2
   4370c:	40017d26 	beq	r8,zero,43d04 <__adddf3+0x7f0>
   43710:	1011883a 	mov	r8,r2
   43714:	1823883a 	mov	r17,r3
   43718:	888001cc 	andi	r2,r17,7
   4371c:	103f9e1e 	bne	r2,zero,43598 <_gp+0xfffe6450>
   43720:	4004977a 	slli	r2,r8,29
   43724:	8822d0fa 	srli	r17,r17,3
   43728:	4010d0fa 	srli	r8,r8,3
   4372c:	9007883a 	mov	r3,r18
   43730:	1444b03a 	or	r2,r2,r17
   43734:	0101ffc4 	movi	r4,2047
   43738:	81002426 	beq	r16,r4,437cc <__adddf3+0x2b8>
   4373c:	8120703a 	and	r16,r16,r4
   43740:	01000434 	movhi	r4,16
   43744:	213fffc4 	addi	r4,r4,-1
   43748:	4110703a 	and	r8,r8,r4
   4374c:	003fa806 	br	435f0 <_gp+0xfffe64a8>
   43750:	8089c83a 	sub	r4,r16,r2
   43754:	01005e0e 	bge	zero,r4,438d0 <__adddf3+0x3bc>
   43758:	10002b26 	beq	r2,zero,43808 <__adddf3+0x2f4>
   4375c:	0081ffc4 	movi	r2,2047
   43760:	80bf8b26 	beq	r16,r2,43590 <_gp+0xfffe6448>
   43764:	4a402034 	orhi	r9,r9,128
   43768:	00800e04 	movi	r2,56
   4376c:	1100a40e 	bge	r2,r4,43a00 <__adddf3+0x4ec>
   43770:	498cb03a 	or	r6,r9,r6
   43774:	300ac03a 	cmpne	r5,r6,zero
   43778:	0013883a 	mov	r9,zero
   4377c:	2c4b883a 	add	r5,r5,r17
   43780:	2c63803a 	cmpltu	r17,r5,r17
   43784:	4a11883a 	add	r8,r9,r8
   43788:	8a11883a 	add	r8,r17,r8
   4378c:	2823883a 	mov	r17,r5
   43790:	4080202c 	andhi	r2,r8,128
   43794:	103fe026 	beq	r2,zero,43718 <_gp+0xfffe65d0>
   43798:	84000044 	addi	r16,r16,1
   4379c:	0081ffc4 	movi	r2,2047
   437a0:	8080d226 	beq	r16,r2,43aec <__adddf3+0x5d8>
   437a4:	00bfe034 	movhi	r2,65408
   437a8:	10bfffc4 	addi	r2,r2,-1
   437ac:	4090703a 	and	r8,r8,r2
   437b0:	880ad07a 	srli	r5,r17,1
   437b4:	400897fa 	slli	r4,r8,31
   437b8:	88c0004c 	andi	r3,r17,1
   437bc:	28e2b03a 	or	r17,r5,r3
   437c0:	4010d07a 	srli	r8,r8,1
   437c4:	2462b03a 	or	r17,r4,r17
   437c8:	003f7106 	br	43590 <_gp+0xfffe6448>
   437cc:	4088b03a 	or	r4,r8,r2
   437d0:	20014526 	beq	r4,zero,43ce8 <__adddf3+0x7d4>
   437d4:	01000434 	movhi	r4,16
   437d8:	42000234 	orhi	r8,r8,8
   437dc:	213fffc4 	addi	r4,r4,-1
   437e0:	4110703a 	and	r8,r8,r4
   437e4:	003f8206 	br	435f0 <_gp+0xfffe64a8>
   437e8:	18ffffc4 	addi	r3,r3,-1
   437ec:	1800491e 	bne	r3,zero,43914 <__adddf3+0x400>
   437f0:	898bc83a 	sub	r5,r17,r6
   437f4:	8963803a 	cmpltu	r17,r17,r5
   437f8:	4251c83a 	sub	r8,r8,r9
   437fc:	4451c83a 	sub	r8,r8,r17
   43800:	2823883a 	mov	r17,r5
   43804:	003f9f06 	br	43684 <_gp+0xfffe653c>
   43808:	4984b03a 	or	r2,r9,r6
   4380c:	103f6026 	beq	r2,zero,43590 <_gp+0xfffe6448>
   43810:	213fffc4 	addi	r4,r4,-1
   43814:	2000931e 	bne	r4,zero,43a64 <__adddf3+0x550>
   43818:	898d883a 	add	r6,r17,r6
   4381c:	3463803a 	cmpltu	r17,r6,r17
   43820:	4251883a 	add	r8,r8,r9
   43824:	8a11883a 	add	r8,r17,r8
   43828:	3023883a 	mov	r17,r6
   4382c:	003fd806 	br	43790 <_gp+0xfffe6648>
   43830:	1800541e 	bne	r3,zero,43984 <__adddf3+0x470>
   43834:	80800044 	addi	r2,r16,1
   43838:	1081ffcc 	andi	r2,r2,2047
   4383c:	00c00044 	movi	r3,1
   43840:	1880a00e 	bge	r3,r2,43ac4 <__adddf3+0x5b0>
   43844:	8989c83a 	sub	r4,r17,r6
   43848:	8905803a 	cmpltu	r2,r17,r4
   4384c:	4267c83a 	sub	r19,r8,r9
   43850:	98a7c83a 	sub	r19,r19,r2
   43854:	9880202c 	andhi	r2,r19,128
   43858:	10006326 	beq	r2,zero,439e8 <__adddf3+0x4d4>
   4385c:	3463c83a 	sub	r17,r6,r17
   43860:	4a07c83a 	sub	r3,r9,r8
   43864:	344d803a 	cmpltu	r6,r6,r17
   43868:	19a7c83a 	sub	r19,r3,r6
   4386c:	3825883a 	mov	r18,r7
   43870:	983f8a1e 	bne	r19,zero,4369c <_gp+0xfffe6554>
   43874:	8809883a 	mov	r4,r17
   43878:	0045edc0 	call	45edc <__clzsi2>
   4387c:	10800804 	addi	r2,r2,32
   43880:	10fffe04 	addi	r3,r2,-8
   43884:	010007c4 	movi	r4,31
   43888:	20ff890e 	bge	r4,r3,436b0 <_gp+0xfffe6568>
   4388c:	10bff604 	addi	r2,r2,-40
   43890:	8884983a 	sll	r2,r17,r2
   43894:	0023883a 	mov	r17,zero
   43898:	1c3f8c0e 	bge	r3,r16,436cc <_gp+0xfffe6584>
   4389c:	023fe034 	movhi	r8,65408
   438a0:	423fffc4 	addi	r8,r8,-1
   438a4:	80e1c83a 	sub	r16,r16,r3
   438a8:	1210703a 	and	r8,r2,r8
   438ac:	003f3806 	br	43590 <_gp+0xfffe6448>
   438b0:	9007883a 	mov	r3,r18
   438b4:	0011883a 	mov	r8,zero
   438b8:	0005883a 	mov	r2,zero
   438bc:	003f4c06 	br	435f0 <_gp+0xfffe64a8>
   438c0:	498cb03a 	or	r6,r9,r6
   438c4:	300cc03a 	cmpne	r6,r6,zero
   438c8:	0007883a 	mov	r3,zero
   438cc:	003f6806 	br	43670 <_gp+0xfffe6528>
   438d0:	20009c1e 	bne	r4,zero,43b44 <__adddf3+0x630>
   438d4:	80800044 	addi	r2,r16,1
   438d8:	1141ffcc 	andi	r5,r2,2047
   438dc:	01000044 	movi	r4,1
   438e0:	2140670e 	bge	r4,r5,43a80 <__adddf3+0x56c>
   438e4:	0101ffc4 	movi	r4,2047
   438e8:	11007f26 	beq	r2,r4,43ae8 <__adddf3+0x5d4>
   438ec:	898d883a 	add	r6,r17,r6
   438f0:	4247883a 	add	r3,r8,r9
   438f4:	3451803a 	cmpltu	r8,r6,r17
   438f8:	40d1883a 	add	r8,r8,r3
   438fc:	402297fa 	slli	r17,r8,31
   43900:	300cd07a 	srli	r6,r6,1
   43904:	4010d07a 	srli	r8,r8,1
   43908:	1021883a 	mov	r16,r2
   4390c:	89a2b03a 	or	r17,r17,r6
   43910:	003f1f06 	br	43590 <_gp+0xfffe6448>
   43914:	0081ffc4 	movi	r2,2047
   43918:	80bf481e 	bne	r16,r2,4363c <_gp+0xfffe64f4>
   4391c:	003f1c06 	br	43590 <_gp+0xfffe6448>
   43920:	843ff844 	addi	r16,r16,-31
   43924:	01000804 	movi	r4,32
   43928:	1406d83a 	srl	r3,r2,r16
   4392c:	41005026 	beq	r8,r4,43a70 <__adddf3+0x55c>
   43930:	01001004 	movi	r4,64
   43934:	2211c83a 	sub	r8,r4,r8
   43938:	1204983a 	sll	r2,r2,r8
   4393c:	88a2b03a 	or	r17,r17,r2
   43940:	8822c03a 	cmpne	r17,r17,zero
   43944:	1c62b03a 	or	r17,r3,r17
   43948:	0011883a 	mov	r8,zero
   4394c:	0021883a 	mov	r16,zero
   43950:	003f7106 	br	43718 <_gp+0xfffe65d0>
   43954:	193ff804 	addi	r4,r3,-32
   43958:	00800804 	movi	r2,32
   4395c:	4908d83a 	srl	r4,r9,r4
   43960:	18804526 	beq	r3,r2,43a78 <__adddf3+0x564>
   43964:	00801004 	movi	r2,64
   43968:	10c5c83a 	sub	r2,r2,r3
   4396c:	4886983a 	sll	r3,r9,r2
   43970:	198cb03a 	or	r6,r3,r6
   43974:	300cc03a 	cmpne	r6,r6,zero
   43978:	218cb03a 	or	r6,r4,r6
   4397c:	0007883a 	mov	r3,zero
   43980:	003f3b06 	br	43670 <_gp+0xfffe6528>
   43984:	80002a26 	beq	r16,zero,43a30 <__adddf3+0x51c>
   43988:	0101ffc4 	movi	r4,2047
   4398c:	11006826 	beq	r2,r4,43b30 <__adddf3+0x61c>
   43990:	00c7c83a 	sub	r3,zero,r3
   43994:	42002034 	orhi	r8,r8,128
   43998:	01000e04 	movi	r4,56
   4399c:	20c07c16 	blt	r4,r3,43b90 <__adddf3+0x67c>
   439a0:	010007c4 	movi	r4,31
   439a4:	20c0da16 	blt	r4,r3,43d10 <__adddf3+0x7fc>
   439a8:	01000804 	movi	r4,32
   439ac:	20c9c83a 	sub	r4,r4,r3
   439b0:	4114983a 	sll	r10,r8,r4
   439b4:	88cad83a 	srl	r5,r17,r3
   439b8:	8908983a 	sll	r4,r17,r4
   439bc:	40c6d83a 	srl	r3,r8,r3
   439c0:	5162b03a 	or	r17,r10,r5
   439c4:	2008c03a 	cmpne	r4,r4,zero
   439c8:	8922b03a 	or	r17,r17,r4
   439cc:	3463c83a 	sub	r17,r6,r17
   439d0:	48c7c83a 	sub	r3,r9,r3
   439d4:	344d803a 	cmpltu	r6,r6,r17
   439d8:	1991c83a 	sub	r8,r3,r6
   439dc:	1021883a 	mov	r16,r2
   439e0:	3825883a 	mov	r18,r7
   439e4:	003f2706 	br	43684 <_gp+0xfffe653c>
   439e8:	24d0b03a 	or	r8,r4,r19
   439ec:	40001b1e 	bne	r8,zero,43a5c <__adddf3+0x548>
   439f0:	0005883a 	mov	r2,zero
   439f4:	0007883a 	mov	r3,zero
   439f8:	0021883a 	mov	r16,zero
   439fc:	003f4d06 	br	43734 <_gp+0xfffe65ec>
   43a00:	008007c4 	movi	r2,31
   43a04:	11003c16 	blt	r2,r4,43af8 <__adddf3+0x5e4>
   43a08:	00800804 	movi	r2,32
   43a0c:	1105c83a 	sub	r2,r2,r4
   43a10:	488e983a 	sll	r7,r9,r2
   43a14:	310ad83a 	srl	r5,r6,r4
   43a18:	3084983a 	sll	r2,r6,r2
   43a1c:	4912d83a 	srl	r9,r9,r4
   43a20:	394ab03a 	or	r5,r7,r5
   43a24:	1004c03a 	cmpne	r2,r2,zero
   43a28:	288ab03a 	or	r5,r5,r2
   43a2c:	003f5306 	br	4377c <_gp+0xfffe6634>
   43a30:	4448b03a 	or	r4,r8,r17
   43a34:	20003e26 	beq	r4,zero,43b30 <__adddf3+0x61c>
   43a38:	00c6303a 	nor	r3,zero,r3
   43a3c:	18003a1e 	bne	r3,zero,43b28 <__adddf3+0x614>
   43a40:	3463c83a 	sub	r17,r6,r17
   43a44:	4a07c83a 	sub	r3,r9,r8
   43a48:	344d803a 	cmpltu	r6,r6,r17
   43a4c:	1991c83a 	sub	r8,r3,r6
   43a50:	1021883a 	mov	r16,r2
   43a54:	3825883a 	mov	r18,r7
   43a58:	003f0a06 	br	43684 <_gp+0xfffe653c>
   43a5c:	2023883a 	mov	r17,r4
   43a60:	003f0d06 	br	43698 <_gp+0xfffe6550>
   43a64:	0081ffc4 	movi	r2,2047
   43a68:	80bf3f1e 	bne	r16,r2,43768 <_gp+0xfffe6620>
   43a6c:	003ec806 	br	43590 <_gp+0xfffe6448>
   43a70:	0005883a 	mov	r2,zero
   43a74:	003fb106 	br	4393c <_gp+0xfffe67f4>
   43a78:	0007883a 	mov	r3,zero
   43a7c:	003fbc06 	br	43970 <_gp+0xfffe6828>
   43a80:	4444b03a 	or	r2,r8,r17
   43a84:	8000871e 	bne	r16,zero,43ca4 <__adddf3+0x790>
   43a88:	1000ba26 	beq	r2,zero,43d74 <__adddf3+0x860>
   43a8c:	4984b03a 	or	r2,r9,r6
   43a90:	103ebf26 	beq	r2,zero,43590 <_gp+0xfffe6448>
   43a94:	8985883a 	add	r2,r17,r6
   43a98:	4247883a 	add	r3,r8,r9
   43a9c:	1451803a 	cmpltu	r8,r2,r17
   43aa0:	40d1883a 	add	r8,r8,r3
   43aa4:	40c0202c 	andhi	r3,r8,128
   43aa8:	1023883a 	mov	r17,r2
   43aac:	183f1a26 	beq	r3,zero,43718 <_gp+0xfffe65d0>
   43ab0:	00bfe034 	movhi	r2,65408
   43ab4:	10bfffc4 	addi	r2,r2,-1
   43ab8:	2021883a 	mov	r16,r4
   43abc:	4090703a 	and	r8,r8,r2
   43ac0:	003eb306 	br	43590 <_gp+0xfffe6448>
   43ac4:	4444b03a 	or	r2,r8,r17
   43ac8:	8000291e 	bne	r16,zero,43b70 <__adddf3+0x65c>
   43acc:	10004b1e 	bne	r2,zero,43bfc <__adddf3+0x6e8>
   43ad0:	4990b03a 	or	r8,r9,r6
   43ad4:	40008b26 	beq	r8,zero,43d04 <__adddf3+0x7f0>
   43ad8:	4811883a 	mov	r8,r9
   43adc:	3023883a 	mov	r17,r6
   43ae0:	3825883a 	mov	r18,r7
   43ae4:	003eaa06 	br	43590 <_gp+0xfffe6448>
   43ae8:	1021883a 	mov	r16,r2
   43aec:	0011883a 	mov	r8,zero
   43af0:	0005883a 	mov	r2,zero
   43af4:	003f0f06 	br	43734 <_gp+0xfffe65ec>
   43af8:	217ff804 	addi	r5,r4,-32
   43afc:	00800804 	movi	r2,32
   43b00:	494ad83a 	srl	r5,r9,r5
   43b04:	20807d26 	beq	r4,r2,43cfc <__adddf3+0x7e8>
   43b08:	00801004 	movi	r2,64
   43b0c:	1109c83a 	sub	r4,r2,r4
   43b10:	4912983a 	sll	r9,r9,r4
   43b14:	498cb03a 	or	r6,r9,r6
   43b18:	300cc03a 	cmpne	r6,r6,zero
   43b1c:	298ab03a 	or	r5,r5,r6
   43b20:	0013883a 	mov	r9,zero
   43b24:	003f1506 	br	4377c <_gp+0xfffe6634>
   43b28:	0101ffc4 	movi	r4,2047
   43b2c:	113f9a1e 	bne	r2,r4,43998 <_gp+0xfffe6850>
   43b30:	4811883a 	mov	r8,r9
   43b34:	3023883a 	mov	r17,r6
   43b38:	1021883a 	mov	r16,r2
   43b3c:	3825883a 	mov	r18,r7
   43b40:	003e9306 	br	43590 <_gp+0xfffe6448>
   43b44:	8000161e 	bne	r16,zero,43ba0 <__adddf3+0x68c>
   43b48:	444ab03a 	or	r5,r8,r17
   43b4c:	28005126 	beq	r5,zero,43c94 <__adddf3+0x780>
   43b50:	0108303a 	nor	r4,zero,r4
   43b54:	20004d1e 	bne	r4,zero,43c8c <__adddf3+0x778>
   43b58:	89a3883a 	add	r17,r17,r6
   43b5c:	4253883a 	add	r9,r8,r9
   43b60:	898d803a 	cmpltu	r6,r17,r6
   43b64:	3251883a 	add	r8,r6,r9
   43b68:	1021883a 	mov	r16,r2
   43b6c:	003f0806 	br	43790 <_gp+0xfffe6648>
   43b70:	1000301e 	bne	r2,zero,43c34 <__adddf3+0x720>
   43b74:	4984b03a 	or	r2,r9,r6
   43b78:	10007126 	beq	r2,zero,43d40 <__adddf3+0x82c>
   43b7c:	4811883a 	mov	r8,r9
   43b80:	3023883a 	mov	r17,r6
   43b84:	3825883a 	mov	r18,r7
   43b88:	0401ffc4 	movi	r16,2047
   43b8c:	003e8006 	br	43590 <_gp+0xfffe6448>
   43b90:	4462b03a 	or	r17,r8,r17
   43b94:	8822c03a 	cmpne	r17,r17,zero
   43b98:	0007883a 	mov	r3,zero
   43b9c:	003f8b06 	br	439cc <_gp+0xfffe6884>
   43ba0:	0141ffc4 	movi	r5,2047
   43ba4:	11403b26 	beq	r2,r5,43c94 <__adddf3+0x780>
   43ba8:	0109c83a 	sub	r4,zero,r4
   43bac:	42002034 	orhi	r8,r8,128
   43bb0:	01400e04 	movi	r5,56
   43bb4:	29006716 	blt	r5,r4,43d54 <__adddf3+0x840>
   43bb8:	014007c4 	movi	r5,31
   43bbc:	29007016 	blt	r5,r4,43d80 <__adddf3+0x86c>
   43bc0:	01400804 	movi	r5,32
   43bc4:	290bc83a 	sub	r5,r5,r4
   43bc8:	4154983a 	sll	r10,r8,r5
   43bcc:	890ed83a 	srl	r7,r17,r4
   43bd0:	894a983a 	sll	r5,r17,r5
   43bd4:	4108d83a 	srl	r4,r8,r4
   43bd8:	51e2b03a 	or	r17,r10,r7
   43bdc:	280ac03a 	cmpne	r5,r5,zero
   43be0:	8962b03a 	or	r17,r17,r5
   43be4:	89a3883a 	add	r17,r17,r6
   43be8:	2253883a 	add	r9,r4,r9
   43bec:	898d803a 	cmpltu	r6,r17,r6
   43bf0:	3251883a 	add	r8,r6,r9
   43bf4:	1021883a 	mov	r16,r2
   43bf8:	003ee506 	br	43790 <_gp+0xfffe6648>
   43bfc:	4984b03a 	or	r2,r9,r6
   43c00:	103e6326 	beq	r2,zero,43590 <_gp+0xfffe6448>
   43c04:	8987c83a 	sub	r3,r17,r6
   43c08:	88c9803a 	cmpltu	r4,r17,r3
   43c0c:	4245c83a 	sub	r2,r8,r9
   43c10:	1105c83a 	sub	r2,r2,r4
   43c14:	1100202c 	andhi	r4,r2,128
   43c18:	203ebb26 	beq	r4,zero,43708 <_gp+0xfffe65c0>
   43c1c:	3463c83a 	sub	r17,r6,r17
   43c20:	4a07c83a 	sub	r3,r9,r8
   43c24:	344d803a 	cmpltu	r6,r6,r17
   43c28:	1991c83a 	sub	r8,r3,r6
   43c2c:	3825883a 	mov	r18,r7
   43c30:	003e5706 	br	43590 <_gp+0xfffe6448>
   43c34:	4984b03a 	or	r2,r9,r6
   43c38:	10002e26 	beq	r2,zero,43cf4 <__adddf3+0x7e0>
   43c3c:	4004d0fa 	srli	r2,r8,3
   43c40:	8822d0fa 	srli	r17,r17,3
   43c44:	4010977a 	slli	r8,r8,29
   43c48:	10c0022c 	andhi	r3,r2,8
   43c4c:	4462b03a 	or	r17,r8,r17
   43c50:	18000826 	beq	r3,zero,43c74 <__adddf3+0x760>
   43c54:	4808d0fa 	srli	r4,r9,3
   43c58:	20c0022c 	andhi	r3,r4,8
   43c5c:	1800051e 	bne	r3,zero,43c74 <__adddf3+0x760>
   43c60:	300cd0fa 	srli	r6,r6,3
   43c64:	4806977a 	slli	r3,r9,29
   43c68:	2005883a 	mov	r2,r4
   43c6c:	3825883a 	mov	r18,r7
   43c70:	19a2b03a 	or	r17,r3,r6
   43c74:	8810d77a 	srli	r8,r17,29
   43c78:	100490fa 	slli	r2,r2,3
   43c7c:	882290fa 	slli	r17,r17,3
   43c80:	0401ffc4 	movi	r16,2047
   43c84:	4090b03a 	or	r8,r8,r2
   43c88:	003e4106 	br	43590 <_gp+0xfffe6448>
   43c8c:	0141ffc4 	movi	r5,2047
   43c90:	117fc71e 	bne	r2,r5,43bb0 <_gp+0xfffe6a68>
   43c94:	4811883a 	mov	r8,r9
   43c98:	3023883a 	mov	r17,r6
   43c9c:	1021883a 	mov	r16,r2
   43ca0:	003e3b06 	br	43590 <_gp+0xfffe6448>
   43ca4:	10002f26 	beq	r2,zero,43d64 <__adddf3+0x850>
   43ca8:	4984b03a 	or	r2,r9,r6
   43cac:	10001126 	beq	r2,zero,43cf4 <__adddf3+0x7e0>
   43cb0:	4004d0fa 	srli	r2,r8,3
   43cb4:	8822d0fa 	srli	r17,r17,3
   43cb8:	4010977a 	slli	r8,r8,29
   43cbc:	10c0022c 	andhi	r3,r2,8
   43cc0:	4462b03a 	or	r17,r8,r17
   43cc4:	183feb26 	beq	r3,zero,43c74 <_gp+0xfffe6b2c>
   43cc8:	4808d0fa 	srli	r4,r9,3
   43ccc:	20c0022c 	andhi	r3,r4,8
   43cd0:	183fe81e 	bne	r3,zero,43c74 <_gp+0xfffe6b2c>
   43cd4:	300cd0fa 	srli	r6,r6,3
   43cd8:	4806977a 	slli	r3,r9,29
   43cdc:	2005883a 	mov	r2,r4
   43ce0:	19a2b03a 	or	r17,r3,r6
   43ce4:	003fe306 	br	43c74 <_gp+0xfffe6b2c>
   43ce8:	0011883a 	mov	r8,zero
   43cec:	0005883a 	mov	r2,zero
   43cf0:	003e3f06 	br	435f0 <_gp+0xfffe64a8>
   43cf4:	0401ffc4 	movi	r16,2047
   43cf8:	003e2506 	br	43590 <_gp+0xfffe6448>
   43cfc:	0013883a 	mov	r9,zero
   43d00:	003f8406 	br	43b14 <_gp+0xfffe69cc>
   43d04:	0005883a 	mov	r2,zero
   43d08:	0007883a 	mov	r3,zero
   43d0c:	003e8906 	br	43734 <_gp+0xfffe65ec>
   43d10:	197ff804 	addi	r5,r3,-32
   43d14:	01000804 	movi	r4,32
   43d18:	414ad83a 	srl	r5,r8,r5
   43d1c:	19002426 	beq	r3,r4,43db0 <__adddf3+0x89c>
   43d20:	01001004 	movi	r4,64
   43d24:	20c7c83a 	sub	r3,r4,r3
   43d28:	40c6983a 	sll	r3,r8,r3
   43d2c:	1c46b03a 	or	r3,r3,r17
   43d30:	1806c03a 	cmpne	r3,r3,zero
   43d34:	28e2b03a 	or	r17,r5,r3
   43d38:	0007883a 	mov	r3,zero
   43d3c:	003f2306 	br	439cc <_gp+0xfffe6884>
   43d40:	0007883a 	mov	r3,zero
   43d44:	5811883a 	mov	r8,r11
   43d48:	00bfffc4 	movi	r2,-1
   43d4c:	0401ffc4 	movi	r16,2047
   43d50:	003e7806 	br	43734 <_gp+0xfffe65ec>
   43d54:	4462b03a 	or	r17,r8,r17
   43d58:	8822c03a 	cmpne	r17,r17,zero
   43d5c:	0009883a 	mov	r4,zero
   43d60:	003fa006 	br	43be4 <_gp+0xfffe6a9c>
   43d64:	4811883a 	mov	r8,r9
   43d68:	3023883a 	mov	r17,r6
   43d6c:	0401ffc4 	movi	r16,2047
   43d70:	003e0706 	br	43590 <_gp+0xfffe6448>
   43d74:	4811883a 	mov	r8,r9
   43d78:	3023883a 	mov	r17,r6
   43d7c:	003e0406 	br	43590 <_gp+0xfffe6448>
   43d80:	21fff804 	addi	r7,r4,-32
   43d84:	01400804 	movi	r5,32
   43d88:	41ced83a 	srl	r7,r8,r7
   43d8c:	21400a26 	beq	r4,r5,43db8 <__adddf3+0x8a4>
   43d90:	01401004 	movi	r5,64
   43d94:	2909c83a 	sub	r4,r5,r4
   43d98:	4108983a 	sll	r4,r8,r4
   43d9c:	2448b03a 	or	r4,r4,r17
   43da0:	2008c03a 	cmpne	r4,r4,zero
   43da4:	3922b03a 	or	r17,r7,r4
   43da8:	0009883a 	mov	r4,zero
   43dac:	003f8d06 	br	43be4 <_gp+0xfffe6a9c>
   43db0:	0007883a 	mov	r3,zero
   43db4:	003fdd06 	br	43d2c <_gp+0xfffe6be4>
   43db8:	0009883a 	mov	r4,zero
   43dbc:	003ff706 	br	43d9c <_gp+0xfffe6c54>

00043dc0 <__divdf3>:
   43dc0:	defff004 	addi	sp,sp,-64
   43dc4:	dc800815 	stw	r18,32(sp)
   43dc8:	2824d53a 	srli	r18,r5,20
   43dcc:	dd800c15 	stw	r22,48(sp)
   43dd0:	282cd7fa 	srli	r22,r5,31
   43dd4:	dc000615 	stw	r16,24(sp)
   43dd8:	04000434 	movhi	r16,16
   43ddc:	843fffc4 	addi	r16,r16,-1
   43de0:	dfc00f15 	stw	ra,60(sp)
   43de4:	df000e15 	stw	fp,56(sp)
   43de8:	ddc00d15 	stw	r23,52(sp)
   43dec:	dd400b15 	stw	r21,44(sp)
   43df0:	dd000a15 	stw	r20,40(sp)
   43df4:	dcc00915 	stw	r19,36(sp)
   43df8:	dc400715 	stw	r17,28(sp)
   43dfc:	9481ffcc 	andi	r18,r18,2047
   43e00:	2c20703a 	and	r16,r5,r16
   43e04:	b2003fcc 	andi	r8,r22,255
   43e08:	90006126 	beq	r18,zero,43f90 <__divdf3+0x1d0>
   43e0c:	0081ffc4 	movi	r2,2047
   43e10:	202b883a 	mov	r21,r4
   43e14:	90803726 	beq	r18,r2,43ef4 <__divdf3+0x134>
   43e18:	80800434 	orhi	r2,r16,16
   43e1c:	100490fa 	slli	r2,r2,3
   43e20:	2020d77a 	srli	r16,r4,29
   43e24:	202a90fa 	slli	r21,r4,3
   43e28:	94bf0044 	addi	r18,r18,-1023
   43e2c:	80a0b03a 	or	r16,r16,r2
   43e30:	0013883a 	mov	r9,zero
   43e34:	000b883a 	mov	r5,zero
   43e38:	3806d53a 	srli	r3,r7,20
   43e3c:	382ed7fa 	srli	r23,r7,31
   43e40:	04400434 	movhi	r17,16
   43e44:	8c7fffc4 	addi	r17,r17,-1
   43e48:	18c1ffcc 	andi	r3,r3,2047
   43e4c:	3029883a 	mov	r20,r6
   43e50:	3c62703a 	and	r17,r7,r17
   43e54:	bf003fcc 	andi	fp,r23,255
   43e58:	18006e26 	beq	r3,zero,44014 <__divdf3+0x254>
   43e5c:	0081ffc4 	movi	r2,2047
   43e60:	18806626 	beq	r3,r2,43ffc <__divdf3+0x23c>
   43e64:	88800434 	orhi	r2,r17,16
   43e68:	100490fa 	slli	r2,r2,3
   43e6c:	3022d77a 	srli	r17,r6,29
   43e70:	302890fa 	slli	r20,r6,3
   43e74:	18ff0044 	addi	r3,r3,-1023
   43e78:	88a2b03a 	or	r17,r17,r2
   43e7c:	000f883a 	mov	r7,zero
   43e80:	b5e6f03a 	xor	r19,r22,r23
   43e84:	3a4cb03a 	or	r6,r7,r9
   43e88:	008003c4 	movi	r2,15
   43e8c:	9809883a 	mov	r4,r19
   43e90:	90c7c83a 	sub	r3,r18,r3
   43e94:	9cc03fcc 	andi	r19,r19,255
   43e98:	11809636 	bltu	r2,r6,440f4 <__divdf3+0x334>
   43e9c:	300c90ba 	slli	r6,r6,2
   43ea0:	00800134 	movhi	r2,4
   43ea4:	108fad04 	addi	r2,r2,16052
   43ea8:	308d883a 	add	r6,r6,r2
   43eac:	30800017 	ldw	r2,0(r6)
   43eb0:	1000683a 	jmp	r2
   43eb4:	000440f4 	movhi	zero,4355
   43eb8:	00043f2c 	andhi	zero,zero,4348
   43ebc:	000440e4 	muli	zero,zero,4355
   43ec0:	00043f20 	cmpeqi	zero,zero,4348
   43ec4:	000440e4 	muli	zero,zero,4355
   43ec8:	000440b8 	rdprs	zero,zero,4354
   43ecc:	000440e4 	muli	zero,zero,4355
   43ed0:	00043f20 	cmpeqi	zero,zero,4348
   43ed4:	00043f2c 	andhi	zero,zero,4348
   43ed8:	00043f2c 	andhi	zero,zero,4348
   43edc:	000440b8 	rdprs	zero,zero,4354
   43ee0:	00043f20 	cmpeqi	zero,zero,4348
   43ee4:	00043f10 	cmplti	zero,zero,4348
   43ee8:	00043f10 	cmplti	zero,zero,4348
   43eec:	00043f10 	cmplti	zero,zero,4348
   43ef0:	0004447c 	xorhi	zero,zero,4369
   43ef4:	2404b03a 	or	r2,r4,r16
   43ef8:	10006c1e 	bne	r2,zero,440ac <__divdf3+0x2ec>
   43efc:	02400204 	movi	r9,8
   43f00:	0021883a 	mov	r16,zero
   43f04:	002b883a 	mov	r21,zero
   43f08:	01400084 	movi	r5,2
   43f0c:	003fca06 	br	43e38 <_gp+0xfffe6cf0>
   43f10:	8023883a 	mov	r17,r16
   43f14:	a829883a 	mov	r20,r21
   43f18:	4039883a 	mov	fp,r8
   43f1c:	280f883a 	mov	r7,r5
   43f20:	00800084 	movi	r2,2
   43f24:	3881601e 	bne	r7,r2,444a8 <__divdf3+0x6e8>
   43f28:	e027883a 	mov	r19,fp
   43f2c:	9900004c 	andi	r4,r19,1
   43f30:	0081ffc4 	movi	r2,2047
   43f34:	0021883a 	mov	r16,zero
   43f38:	002b883a 	mov	r21,zero
   43f3c:	1004953a 	slli	r2,r2,20
   43f40:	20c03fcc 	andi	r3,r4,255
   43f44:	01400434 	movhi	r5,16
   43f48:	297fffc4 	addi	r5,r5,-1
   43f4c:	180697fa 	slli	r3,r3,31
   43f50:	8160703a 	and	r16,r16,r5
   43f54:	80a0b03a 	or	r16,r16,r2
   43f58:	80c6b03a 	or	r3,r16,r3
   43f5c:	a805883a 	mov	r2,r21
   43f60:	dfc00f17 	ldw	ra,60(sp)
   43f64:	df000e17 	ldw	fp,56(sp)
   43f68:	ddc00d17 	ldw	r23,52(sp)
   43f6c:	dd800c17 	ldw	r22,48(sp)
   43f70:	dd400b17 	ldw	r21,44(sp)
   43f74:	dd000a17 	ldw	r20,40(sp)
   43f78:	dcc00917 	ldw	r19,36(sp)
   43f7c:	dc800817 	ldw	r18,32(sp)
   43f80:	dc400717 	ldw	r17,28(sp)
   43f84:	dc000617 	ldw	r16,24(sp)
   43f88:	dec01004 	addi	sp,sp,64
   43f8c:	f800283a 	ret
   43f90:	2404b03a 	or	r2,r4,r16
   43f94:	2023883a 	mov	r17,r4
   43f98:	10003f26 	beq	r2,zero,44098 <__divdf3+0x2d8>
   43f9c:	80015e26 	beq	r16,zero,44518 <__divdf3+0x758>
   43fa0:	8009883a 	mov	r4,r16
   43fa4:	d9800215 	stw	r6,8(sp)
   43fa8:	d9c00515 	stw	r7,20(sp)
   43fac:	da000415 	stw	r8,16(sp)
   43fb0:	0045edc0 	call	45edc <__clzsi2>
   43fb4:	d9800217 	ldw	r6,8(sp)
   43fb8:	d9c00517 	ldw	r7,20(sp)
   43fbc:	da000417 	ldw	r8,16(sp)
   43fc0:	113ffd44 	addi	r4,r2,-11
   43fc4:	00c00704 	movi	r3,28
   43fc8:	19014f16 	blt	r3,r4,44508 <__divdf3+0x748>
   43fcc:	00c00744 	movi	r3,29
   43fd0:	157ffe04 	addi	r21,r2,-8
   43fd4:	1907c83a 	sub	r3,r3,r4
   43fd8:	8560983a 	sll	r16,r16,r21
   43fdc:	88c6d83a 	srl	r3,r17,r3
   43fe0:	8d6a983a 	sll	r21,r17,r21
   43fe4:	1c20b03a 	or	r16,r3,r16
   43fe8:	1080fcc4 	addi	r2,r2,1011
   43fec:	00a5c83a 	sub	r18,zero,r2
   43ff0:	0013883a 	mov	r9,zero
   43ff4:	000b883a 	mov	r5,zero
   43ff8:	003f8f06 	br	43e38 <_gp+0xfffe6cf0>
   43ffc:	3444b03a 	or	r2,r6,r17
   44000:	1000231e 	bne	r2,zero,44090 <__divdf3+0x2d0>
   44004:	0023883a 	mov	r17,zero
   44008:	0029883a 	mov	r20,zero
   4400c:	01c00084 	movi	r7,2
   44010:	003f9b06 	br	43e80 <_gp+0xfffe6d38>
   44014:	3444b03a 	or	r2,r6,r17
   44018:	10001926 	beq	r2,zero,44080 <__divdf3+0x2c0>
   4401c:	88014b26 	beq	r17,zero,4454c <__divdf3+0x78c>
   44020:	8809883a 	mov	r4,r17
   44024:	d9400115 	stw	r5,4(sp)
   44028:	d9800215 	stw	r6,8(sp)
   4402c:	da000415 	stw	r8,16(sp)
   44030:	da400315 	stw	r9,12(sp)
   44034:	0045edc0 	call	45edc <__clzsi2>
   44038:	d9400117 	ldw	r5,4(sp)
   4403c:	d9800217 	ldw	r6,8(sp)
   44040:	da000417 	ldw	r8,16(sp)
   44044:	da400317 	ldw	r9,12(sp)
   44048:	113ffd44 	addi	r4,r2,-11
   4404c:	00c00704 	movi	r3,28
   44050:	19013a16 	blt	r3,r4,4453c <__divdf3+0x77c>
   44054:	00c00744 	movi	r3,29
   44058:	153ffe04 	addi	r20,r2,-8
   4405c:	1907c83a 	sub	r3,r3,r4
   44060:	8d22983a 	sll	r17,r17,r20
   44064:	30c6d83a 	srl	r3,r6,r3
   44068:	3528983a 	sll	r20,r6,r20
   4406c:	1c62b03a 	or	r17,r3,r17
   44070:	1080fcc4 	addi	r2,r2,1011
   44074:	0087c83a 	sub	r3,zero,r2
   44078:	000f883a 	mov	r7,zero
   4407c:	003f8006 	br	43e80 <_gp+0xfffe6d38>
   44080:	0023883a 	mov	r17,zero
   44084:	0029883a 	mov	r20,zero
   44088:	01c00044 	movi	r7,1
   4408c:	003f7c06 	br	43e80 <_gp+0xfffe6d38>
   44090:	01c000c4 	movi	r7,3
   44094:	003f7a06 	br	43e80 <_gp+0xfffe6d38>
   44098:	02400104 	movi	r9,4
   4409c:	0021883a 	mov	r16,zero
   440a0:	002b883a 	mov	r21,zero
   440a4:	01400044 	movi	r5,1
   440a8:	003f6306 	br	43e38 <_gp+0xfffe6cf0>
   440ac:	02400304 	movi	r9,12
   440b0:	014000c4 	movi	r5,3
   440b4:	003f6006 	br	43e38 <_gp+0xfffe6cf0>
   440b8:	04000434 	movhi	r16,16
   440bc:	0009883a 	mov	r4,zero
   440c0:	843fffc4 	addi	r16,r16,-1
   440c4:	057fffc4 	movi	r21,-1
   440c8:	0081ffc4 	movi	r2,2047
   440cc:	003f9b06 	br	43f3c <_gp+0xfffe6df4>
   440d0:	00c00044 	movi	r3,1
   440d4:	1887c83a 	sub	r3,r3,r2
   440d8:	01000e04 	movi	r4,56
   440dc:	20c1530e 	bge	r4,r3,4462c <__divdf3+0x86c>
   440e0:	9900004c 	andi	r4,r19,1
   440e4:	0005883a 	mov	r2,zero
   440e8:	0021883a 	mov	r16,zero
   440ec:	002b883a 	mov	r21,zero
   440f0:	003f9206 	br	43f3c <_gp+0xfffe6df4>
   440f4:	8c012e36 	bltu	r17,r16,445b0 <__divdf3+0x7f0>
   440f8:	84412c26 	beq	r16,r17,445ac <__divdf3+0x7ec>
   440fc:	a82f883a 	mov	r23,r21
   44100:	18ffffc4 	addi	r3,r3,-1
   44104:	002b883a 	mov	r21,zero
   44108:	a004d63a 	srli	r2,r20,24
   4410c:	8822923a 	slli	r17,r17,8
   44110:	a028923a 	slli	r20,r20,8
   44114:	8009883a 	mov	r4,r16
   44118:	88acb03a 	or	r22,r17,r2
   4411c:	dd000015 	stw	r20,0(sp)
   44120:	b028d43a 	srli	r20,r22,16
   44124:	d8c00215 	stw	r3,8(sp)
   44128:	b4bfffcc 	andi	r18,r22,65535
   4412c:	a00b883a 	mov	r5,r20
   44130:	0041e840 	call	41e84 <__udivsi3>
   44134:	100b883a 	mov	r5,r2
   44138:	9009883a 	mov	r4,r18
   4413c:	1023883a 	mov	r17,r2
   44140:	0041f400 	call	41f40 <__mulsi3>
   44144:	8009883a 	mov	r4,r16
   44148:	a00b883a 	mov	r5,r20
   4414c:	1039883a 	mov	fp,r2
   44150:	0041ee80 	call	41ee8 <__umodsi3>
   44154:	1004943a 	slli	r2,r2,16
   44158:	b808d43a 	srli	r4,r23,16
   4415c:	d8c00217 	ldw	r3,8(sp)
   44160:	2084b03a 	or	r2,r4,r2
   44164:	1700062e 	bgeu	r2,fp,44180 <__divdf3+0x3c0>
   44168:	1585883a 	add	r2,r2,r22
   4416c:	893fffc4 	addi	r4,r17,-1
   44170:	15811d36 	bltu	r2,r22,445e8 <__divdf3+0x828>
   44174:	17011c2e 	bgeu	r2,fp,445e8 <__divdf3+0x828>
   44178:	8c7fff84 	addi	r17,r17,-2
   4417c:	1585883a 	add	r2,r2,r22
   44180:	1739c83a 	sub	fp,r2,fp
   44184:	a00b883a 	mov	r5,r20
   44188:	e009883a 	mov	r4,fp
   4418c:	d8c00215 	stw	r3,8(sp)
   44190:	0041e840 	call	41e84 <__udivsi3>
   44194:	100b883a 	mov	r5,r2
   44198:	9009883a 	mov	r4,r18
   4419c:	1021883a 	mov	r16,r2
   441a0:	0041f400 	call	41f40 <__mulsi3>
   441a4:	a00b883a 	mov	r5,r20
   441a8:	e009883a 	mov	r4,fp
   441ac:	d8800415 	stw	r2,16(sp)
   441b0:	0041ee80 	call	41ee8 <__umodsi3>
   441b4:	1004943a 	slli	r2,r2,16
   441b8:	da000417 	ldw	r8,16(sp)
   441bc:	bdffffcc 	andi	r23,r23,65535
   441c0:	b884b03a 	or	r2,r23,r2
   441c4:	d8c00217 	ldw	r3,8(sp)
   441c8:	1200062e 	bgeu	r2,r8,441e4 <__divdf3+0x424>
   441cc:	1585883a 	add	r2,r2,r22
   441d0:	813fffc4 	addi	r4,r16,-1
   441d4:	15810236 	bltu	r2,r22,445e0 <__divdf3+0x820>
   441d8:	1201012e 	bgeu	r2,r8,445e0 <__divdf3+0x820>
   441dc:	843fff84 	addi	r16,r16,-2
   441e0:	1585883a 	add	r2,r2,r22
   441e4:	8822943a 	slli	r17,r17,16
   441e8:	d9800017 	ldw	r6,0(sp)
   441ec:	1211c83a 	sub	r8,r2,r8
   441f0:	8c22b03a 	or	r17,r17,r16
   441f4:	373fffcc 	andi	fp,r6,65535
   441f8:	8abfffcc 	andi	r10,r17,65535
   441fc:	8820d43a 	srli	r16,r17,16
   44200:	5009883a 	mov	r4,r10
   44204:	e00b883a 	mov	r5,fp
   44208:	302ed43a 	srli	r23,r6,16
   4420c:	d8c00215 	stw	r3,8(sp)
   44210:	da000415 	stw	r8,16(sp)
   44214:	da800115 	stw	r10,4(sp)
   44218:	0041f400 	call	41f40 <__mulsi3>
   4421c:	800b883a 	mov	r5,r16
   44220:	e009883a 	mov	r4,fp
   44224:	d8800515 	stw	r2,20(sp)
   44228:	0041f400 	call	41f40 <__mulsi3>
   4422c:	8009883a 	mov	r4,r16
   44230:	b80b883a 	mov	r5,r23
   44234:	d8800315 	stw	r2,12(sp)
   44238:	0041f400 	call	41f40 <__mulsi3>
   4423c:	da800117 	ldw	r10,4(sp)
   44240:	b80b883a 	mov	r5,r23
   44244:	1021883a 	mov	r16,r2
   44248:	5009883a 	mov	r4,r10
   4424c:	0041f400 	call	41f40 <__mulsi3>
   44250:	d9c00517 	ldw	r7,20(sp)
   44254:	da400317 	ldw	r9,12(sp)
   44258:	d8c00217 	ldw	r3,8(sp)
   4425c:	3808d43a 	srli	r4,r7,16
   44260:	1245883a 	add	r2,r2,r9
   44264:	da000417 	ldw	r8,16(sp)
   44268:	2085883a 	add	r2,r4,r2
   4426c:	1240022e 	bgeu	r2,r9,44278 <__divdf3+0x4b8>
   44270:	01000074 	movhi	r4,1
   44274:	8121883a 	add	r16,r16,r4
   44278:	1008d43a 	srli	r4,r2,16
   4427c:	1004943a 	slli	r2,r2,16
   44280:	39ffffcc 	andi	r7,r7,65535
   44284:	2409883a 	add	r4,r4,r16
   44288:	11c5883a 	add	r2,r2,r7
   4428c:	4100bb36 	bltu	r8,r4,4457c <__divdf3+0x7bc>
   44290:	4100d726 	beq	r8,r4,445f0 <__divdf3+0x830>
   44294:	4109c83a 	sub	r4,r8,r4
   44298:	a8a1c83a 	sub	r16,r21,r2
   4429c:	ac2b803a 	cmpltu	r21,r21,r16
   442a0:	256bc83a 	sub	r21,r4,r21
   442a4:	b540d926 	beq	r22,r21,4460c <__divdf3+0x84c>
   442a8:	a00b883a 	mov	r5,r20
   442ac:	a809883a 	mov	r4,r21
   442b0:	d8c00215 	stw	r3,8(sp)
   442b4:	0041e840 	call	41e84 <__udivsi3>
   442b8:	100b883a 	mov	r5,r2
   442bc:	9009883a 	mov	r4,r18
   442c0:	d8800515 	stw	r2,20(sp)
   442c4:	0041f400 	call	41f40 <__mulsi3>
   442c8:	a809883a 	mov	r4,r21
   442cc:	a00b883a 	mov	r5,r20
   442d0:	d8800415 	stw	r2,16(sp)
   442d4:	0041ee80 	call	41ee8 <__umodsi3>
   442d8:	1004943a 	slli	r2,r2,16
   442dc:	8008d43a 	srli	r4,r16,16
   442e0:	da000417 	ldw	r8,16(sp)
   442e4:	d8c00217 	ldw	r3,8(sp)
   442e8:	2084b03a 	or	r2,r4,r2
   442ec:	d9c00517 	ldw	r7,20(sp)
   442f0:	1200062e 	bgeu	r2,r8,4430c <__divdf3+0x54c>
   442f4:	1585883a 	add	r2,r2,r22
   442f8:	393fffc4 	addi	r4,r7,-1
   442fc:	1580c536 	bltu	r2,r22,44614 <__divdf3+0x854>
   44300:	1200c42e 	bgeu	r2,r8,44614 <__divdf3+0x854>
   44304:	39ffff84 	addi	r7,r7,-2
   44308:	1585883a 	add	r2,r2,r22
   4430c:	122bc83a 	sub	r21,r2,r8
   44310:	a00b883a 	mov	r5,r20
   44314:	a809883a 	mov	r4,r21
   44318:	d8c00215 	stw	r3,8(sp)
   4431c:	d9c00515 	stw	r7,20(sp)
   44320:	0041e840 	call	41e84 <__udivsi3>
   44324:	9009883a 	mov	r4,r18
   44328:	100b883a 	mov	r5,r2
   4432c:	d8800415 	stw	r2,16(sp)
   44330:	0041f400 	call	41f40 <__mulsi3>
   44334:	a809883a 	mov	r4,r21
   44338:	a00b883a 	mov	r5,r20
   4433c:	1025883a 	mov	r18,r2
   44340:	0041ee80 	call	41ee8 <__umodsi3>
   44344:	1004943a 	slli	r2,r2,16
   44348:	813fffcc 	andi	r4,r16,65535
   4434c:	d8c00217 	ldw	r3,8(sp)
   44350:	20a0b03a 	or	r16,r4,r2
   44354:	d9c00517 	ldw	r7,20(sp)
   44358:	da000417 	ldw	r8,16(sp)
   4435c:	8480062e 	bgeu	r16,r18,44378 <__divdf3+0x5b8>
   44360:	85a1883a 	add	r16,r16,r22
   44364:	40bfffc4 	addi	r2,r8,-1
   44368:	8580ac36 	bltu	r16,r22,4461c <__divdf3+0x85c>
   4436c:	8480ab2e 	bgeu	r16,r18,4461c <__divdf3+0x85c>
   44370:	423fff84 	addi	r8,r8,-2
   44374:	85a1883a 	add	r16,r16,r22
   44378:	3804943a 	slli	r2,r7,16
   4437c:	84a1c83a 	sub	r16,r16,r18
   44380:	e009883a 	mov	r4,fp
   44384:	1228b03a 	or	r20,r2,r8
   44388:	a1ffffcc 	andi	r7,r20,65535
   4438c:	a024d43a 	srli	r18,r20,16
   44390:	380b883a 	mov	r5,r7
   44394:	d8c00215 	stw	r3,8(sp)
   44398:	d9c00515 	stw	r7,20(sp)
   4439c:	0041f400 	call	41f40 <__mulsi3>
   443a0:	900b883a 	mov	r5,r18
   443a4:	e009883a 	mov	r4,fp
   443a8:	102b883a 	mov	r21,r2
   443ac:	0041f400 	call	41f40 <__mulsi3>
   443b0:	900b883a 	mov	r5,r18
   443b4:	b809883a 	mov	r4,r23
   443b8:	1039883a 	mov	fp,r2
   443bc:	0041f400 	call	41f40 <__mulsi3>
   443c0:	d9c00517 	ldw	r7,20(sp)
   443c4:	b80b883a 	mov	r5,r23
   443c8:	1025883a 	mov	r18,r2
   443cc:	3809883a 	mov	r4,r7
   443d0:	0041f400 	call	41f40 <__mulsi3>
   443d4:	a808d43a 	srli	r4,r21,16
   443d8:	1705883a 	add	r2,r2,fp
   443dc:	d8c00217 	ldw	r3,8(sp)
   443e0:	2085883a 	add	r2,r4,r2
   443e4:	1700022e 	bgeu	r2,fp,443f0 <__divdf3+0x630>
   443e8:	01000074 	movhi	r4,1
   443ec:	9125883a 	add	r18,r18,r4
   443f0:	1008d43a 	srli	r4,r2,16
   443f4:	1004943a 	slli	r2,r2,16
   443f8:	ad7fffcc 	andi	r21,r21,65535
   443fc:	2489883a 	add	r4,r4,r18
   44400:	1545883a 	add	r2,r2,r21
   44404:	81003836 	bltu	r16,r4,444e8 <__divdf3+0x728>
   44408:	81003626 	beq	r16,r4,444e4 <__divdf3+0x724>
   4440c:	a5000054 	ori	r20,r20,1
   44410:	1880ffc4 	addi	r2,r3,1023
   44414:	00bf2e0e 	bge	zero,r2,440d0 <_gp+0xfffe6f88>
   44418:	a10001cc 	andi	r4,r20,7
   4441c:	20000726 	beq	r4,zero,4443c <__divdf3+0x67c>
   44420:	a10003cc 	andi	r4,r20,15
   44424:	01400104 	movi	r5,4
   44428:	21400426 	beq	r4,r5,4443c <__divdf3+0x67c>
   4442c:	a149883a 	add	r4,r20,r5
   44430:	2529803a 	cmpltu	r20,r4,r20
   44434:	8d23883a 	add	r17,r17,r20
   44438:	2029883a 	mov	r20,r4
   4443c:	8900402c 	andhi	r4,r17,256
   44440:	20000426 	beq	r4,zero,44454 <__divdf3+0x694>
   44444:	18810004 	addi	r2,r3,1024
   44448:	00ffc034 	movhi	r3,65280
   4444c:	18ffffc4 	addi	r3,r3,-1
   44450:	88e2703a 	and	r17,r17,r3
   44454:	00c1ff84 	movi	r3,2046
   44458:	18beb416 	blt	r3,r2,43f2c <_gp+0xfffe6de4>
   4445c:	a028d0fa 	srli	r20,r20,3
   44460:	882a977a 	slli	r21,r17,29
   44464:	8820927a 	slli	r16,r17,9
   44468:	1081ffcc 	andi	r2,r2,2047
   4446c:	ad2ab03a 	or	r21,r21,r20
   44470:	8020d33a 	srli	r16,r16,12
   44474:	9900004c 	andi	r4,r19,1
   44478:	003eb006 	br	43f3c <_gp+0xfffe6df4>
   4447c:	8080022c 	andhi	r2,r16,8
   44480:	10001226 	beq	r2,zero,444cc <__divdf3+0x70c>
   44484:	8880022c 	andhi	r2,r17,8
   44488:	1000101e 	bne	r2,zero,444cc <__divdf3+0x70c>
   4448c:	00800434 	movhi	r2,16
   44490:	8c000234 	orhi	r16,r17,8
   44494:	10bfffc4 	addi	r2,r2,-1
   44498:	b809883a 	mov	r4,r23
   4449c:	80a0703a 	and	r16,r16,r2
   444a0:	a02b883a 	mov	r21,r20
   444a4:	003f0806 	br	440c8 <_gp+0xfffe6f80>
   444a8:	008000c4 	movi	r2,3
   444ac:	3880b126 	beq	r7,r2,44774 <__divdf3+0x9b4>
   444b0:	00800044 	movi	r2,1
   444b4:	38805b1e 	bne	r7,r2,44624 <__divdf3+0x864>
   444b8:	e009883a 	mov	r4,fp
   444bc:	0005883a 	mov	r2,zero
   444c0:	0021883a 	mov	r16,zero
   444c4:	002b883a 	mov	r21,zero
   444c8:	003e9c06 	br	43f3c <_gp+0xfffe6df4>
   444cc:	00800434 	movhi	r2,16
   444d0:	84000234 	orhi	r16,r16,8
   444d4:	10bfffc4 	addi	r2,r2,-1
   444d8:	b009883a 	mov	r4,r22
   444dc:	80a0703a 	and	r16,r16,r2
   444e0:	003ef906 	br	440c8 <_gp+0xfffe6f80>
   444e4:	103fca26 	beq	r2,zero,44410 <_gp+0xfffe72c8>
   444e8:	b421883a 	add	r16,r22,r16
   444ec:	a17fffc4 	addi	r5,r20,-1
   444f0:	8580422e 	bgeu	r16,r22,445fc <__divdf3+0x83c>
   444f4:	2829883a 	mov	r20,r5
   444f8:	813fc41e 	bne	r16,r4,4440c <_gp+0xfffe72c4>
   444fc:	d9800017 	ldw	r6,0(sp)
   44500:	30bfc21e 	bne	r6,r2,4440c <_gp+0xfffe72c4>
   44504:	003fc206 	br	44410 <_gp+0xfffe72c8>
   44508:	143ff604 	addi	r16,r2,-40
   4450c:	8c20983a 	sll	r16,r17,r16
   44510:	002b883a 	mov	r21,zero
   44514:	003eb406 	br	43fe8 <_gp+0xfffe6ea0>
   44518:	d9800215 	stw	r6,8(sp)
   4451c:	d9c00515 	stw	r7,20(sp)
   44520:	da000415 	stw	r8,16(sp)
   44524:	0045edc0 	call	45edc <__clzsi2>
   44528:	10800804 	addi	r2,r2,32
   4452c:	da000417 	ldw	r8,16(sp)
   44530:	d9c00517 	ldw	r7,20(sp)
   44534:	d9800217 	ldw	r6,8(sp)
   44538:	003ea106 	br	43fc0 <_gp+0xfffe6e78>
   4453c:	147ff604 	addi	r17,r2,-40
   44540:	3462983a 	sll	r17,r6,r17
   44544:	0029883a 	mov	r20,zero
   44548:	003ec906 	br	44070 <_gp+0xfffe6f28>
   4454c:	3009883a 	mov	r4,r6
   44550:	d9400115 	stw	r5,4(sp)
   44554:	d9800215 	stw	r6,8(sp)
   44558:	da000415 	stw	r8,16(sp)
   4455c:	da400315 	stw	r9,12(sp)
   44560:	0045edc0 	call	45edc <__clzsi2>
   44564:	10800804 	addi	r2,r2,32
   44568:	da400317 	ldw	r9,12(sp)
   4456c:	da000417 	ldw	r8,16(sp)
   44570:	d9800217 	ldw	r6,8(sp)
   44574:	d9400117 	ldw	r5,4(sp)
   44578:	003eb306 	br	44048 <_gp+0xfffe6f00>
   4457c:	d9800017 	ldw	r6,0(sp)
   44580:	a9ab883a 	add	r21,r21,r6
   44584:	a98b803a 	cmpltu	r5,r21,r6
   44588:	2d8b883a 	add	r5,r5,r22
   4458c:	2a11883a 	add	r8,r5,r8
   44590:	897fffc4 	addi	r5,r17,-1
   44594:	b2000c2e 	bgeu	r22,r8,445c8 <__divdf3+0x808>
   44598:	41003f36 	bltu	r8,r4,44698 <__divdf3+0x8d8>
   4459c:	22006c26 	beq	r4,r8,44750 <__divdf3+0x990>
   445a0:	4109c83a 	sub	r4,r8,r4
   445a4:	2823883a 	mov	r17,r5
   445a8:	003f3b06 	br	44298 <_gp+0xfffe7150>
   445ac:	ad3ed336 	bltu	r21,r20,440fc <_gp+0xfffe6fb4>
   445b0:	a804d07a 	srli	r2,r21,1
   445b4:	802e97fa 	slli	r23,r16,31
   445b8:	a82a97fa 	slli	r21,r21,31
   445bc:	8020d07a 	srli	r16,r16,1
   445c0:	b8aeb03a 	or	r23,r23,r2
   445c4:	003ed006 	br	44108 <_gp+0xfffe6fc0>
   445c8:	b23ff51e 	bne	r22,r8,445a0 <_gp+0xfffe7458>
   445cc:	d9800017 	ldw	r6,0(sp)
   445d0:	a9bff12e 	bgeu	r21,r6,44598 <_gp+0xfffe7450>
   445d4:	b109c83a 	sub	r4,r22,r4
   445d8:	2823883a 	mov	r17,r5
   445dc:	003f2e06 	br	44298 <_gp+0xfffe7150>
   445e0:	2021883a 	mov	r16,r4
   445e4:	003eff06 	br	441e4 <_gp+0xfffe709c>
   445e8:	2023883a 	mov	r17,r4
   445ec:	003ee406 	br	44180 <_gp+0xfffe7038>
   445f0:	a8bfe236 	bltu	r21,r2,4457c <_gp+0xfffe7434>
   445f4:	0009883a 	mov	r4,zero
   445f8:	003f2706 	br	44298 <_gp+0xfffe7150>
   445fc:	81002d36 	bltu	r16,r4,446b4 <__divdf3+0x8f4>
   44600:	24005626 	beq	r4,r16,4475c <__divdf3+0x99c>
   44604:	2829883a 	mov	r20,r5
   44608:	003f8006 	br	4440c <_gp+0xfffe72c4>
   4460c:	053fffc4 	movi	r20,-1
   44610:	003f7f06 	br	44410 <_gp+0xfffe72c8>
   44614:	200f883a 	mov	r7,r4
   44618:	003f3c06 	br	4430c <_gp+0xfffe71c4>
   4461c:	1011883a 	mov	r8,r2
   44620:	003f5506 	br	44378 <_gp+0xfffe7230>
   44624:	e027883a 	mov	r19,fp
   44628:	003f7906 	br	44410 <_gp+0xfffe72c8>
   4462c:	010007c4 	movi	r4,31
   44630:	20c02816 	blt	r4,r3,446d4 <__divdf3+0x914>
   44634:	00800804 	movi	r2,32
   44638:	10c5c83a 	sub	r2,r2,r3
   4463c:	888a983a 	sll	r5,r17,r2
   44640:	a0c8d83a 	srl	r4,r20,r3
   44644:	a084983a 	sll	r2,r20,r2
   44648:	88e2d83a 	srl	r17,r17,r3
   4464c:	2906b03a 	or	r3,r5,r4
   44650:	1004c03a 	cmpne	r2,r2,zero
   44654:	1886b03a 	or	r3,r3,r2
   44658:	188001cc 	andi	r2,r3,7
   4465c:	10000726 	beq	r2,zero,4467c <__divdf3+0x8bc>
   44660:	188003cc 	andi	r2,r3,15
   44664:	01000104 	movi	r4,4
   44668:	11000426 	beq	r2,r4,4467c <__divdf3+0x8bc>
   4466c:	1805883a 	mov	r2,r3
   44670:	10c00104 	addi	r3,r2,4
   44674:	1885803a 	cmpltu	r2,r3,r2
   44678:	88a3883a 	add	r17,r17,r2
   4467c:	8880202c 	andhi	r2,r17,128
   44680:	10002926 	beq	r2,zero,44728 <__divdf3+0x968>
   44684:	9900004c 	andi	r4,r19,1
   44688:	00800044 	movi	r2,1
   4468c:	0021883a 	mov	r16,zero
   44690:	002b883a 	mov	r21,zero
   44694:	003e2906 	br	43f3c <_gp+0xfffe6df4>
   44698:	d9800017 	ldw	r6,0(sp)
   4469c:	8c7fff84 	addi	r17,r17,-2
   446a0:	a9ab883a 	add	r21,r21,r6
   446a4:	a98b803a 	cmpltu	r5,r21,r6
   446a8:	2d8b883a 	add	r5,r5,r22
   446ac:	2a11883a 	add	r8,r5,r8
   446b0:	003ef806 	br	44294 <_gp+0xfffe714c>
   446b4:	d9800017 	ldw	r6,0(sp)
   446b8:	318f883a 	add	r7,r6,r6
   446bc:	398b803a 	cmpltu	r5,r7,r6
   446c0:	2d8d883a 	add	r6,r5,r22
   446c4:	81a1883a 	add	r16,r16,r6
   446c8:	a17fff84 	addi	r5,r20,-2
   446cc:	d9c00015 	stw	r7,0(sp)
   446d0:	003f8806 	br	444f4 <_gp+0xfffe73ac>
   446d4:	013ff844 	movi	r4,-31
   446d8:	2085c83a 	sub	r2,r4,r2
   446dc:	8888d83a 	srl	r4,r17,r2
   446e0:	00800804 	movi	r2,32
   446e4:	18802126 	beq	r3,r2,4476c <__divdf3+0x9ac>
   446e8:	04001004 	movi	r16,64
   446ec:	80c7c83a 	sub	r3,r16,r3
   446f0:	88e0983a 	sll	r16,r17,r3
   446f4:	8504b03a 	or	r2,r16,r20
   446f8:	1004c03a 	cmpne	r2,r2,zero
   446fc:	2084b03a 	or	r2,r4,r2
   44700:	144001cc 	andi	r17,r2,7
   44704:	88000d1e 	bne	r17,zero,4473c <__divdf3+0x97c>
   44708:	0021883a 	mov	r16,zero
   4470c:	102ad0fa 	srli	r21,r2,3
   44710:	9900004c 	andi	r4,r19,1
   44714:	0005883a 	mov	r2,zero
   44718:	ac6ab03a 	or	r21,r21,r17
   4471c:	003e0706 	br	43f3c <_gp+0xfffe6df4>
   44720:	1007883a 	mov	r3,r2
   44724:	0023883a 	mov	r17,zero
   44728:	8820927a 	slli	r16,r17,9
   4472c:	1805883a 	mov	r2,r3
   44730:	8822977a 	slli	r17,r17,29
   44734:	8020d33a 	srli	r16,r16,12
   44738:	003ff406 	br	4470c <_gp+0xfffe75c4>
   4473c:	10c003cc 	andi	r3,r2,15
   44740:	01000104 	movi	r4,4
   44744:	193ff626 	beq	r3,r4,44720 <_gp+0xfffe75d8>
   44748:	0023883a 	mov	r17,zero
   4474c:	003fc806 	br	44670 <_gp+0xfffe7528>
   44750:	a8bfd136 	bltu	r21,r2,44698 <_gp+0xfffe7550>
   44754:	2823883a 	mov	r17,r5
   44758:	003fa606 	br	445f4 <_gp+0xfffe74ac>
   4475c:	d9800017 	ldw	r6,0(sp)
   44760:	30bfd436 	bltu	r6,r2,446b4 <_gp+0xfffe756c>
   44764:	2829883a 	mov	r20,r5
   44768:	003f6406 	br	444fc <_gp+0xfffe73b4>
   4476c:	0021883a 	mov	r16,zero
   44770:	003fe006 	br	446f4 <_gp+0xfffe75ac>
   44774:	00800434 	movhi	r2,16
   44778:	8c000234 	orhi	r16,r17,8
   4477c:	10bfffc4 	addi	r2,r2,-1
   44780:	e009883a 	mov	r4,fp
   44784:	80a0703a 	and	r16,r16,r2
   44788:	a02b883a 	mov	r21,r20
   4478c:	003e4e06 	br	440c8 <_gp+0xfffe6f80>

00044790 <__gedf2>:
   44790:	2804d53a 	srli	r2,r5,20
   44794:	3806d53a 	srli	r3,r7,20
   44798:	02000434 	movhi	r8,16
   4479c:	423fffc4 	addi	r8,r8,-1
   447a0:	1081ffcc 	andi	r2,r2,2047
   447a4:	0241ffc4 	movi	r9,2047
   447a8:	2a14703a 	and	r10,r5,r8
   447ac:	18c1ffcc 	andi	r3,r3,2047
   447b0:	3a10703a 	and	r8,r7,r8
   447b4:	280ad7fa 	srli	r5,r5,31
   447b8:	380ed7fa 	srli	r7,r7,31
   447bc:	12401d26 	beq	r2,r9,44834 <__gedf2+0xa4>
   447c0:	0241ffc4 	movi	r9,2047
   447c4:	1a401226 	beq	r3,r9,44810 <__gedf2+0x80>
   447c8:	1000081e 	bne	r2,zero,447ec <__gedf2+0x5c>
   447cc:	2296b03a 	or	r11,r4,r10
   447d0:	5813003a 	cmpeq	r9,r11,zero
   447d4:	1800091e 	bne	r3,zero,447fc <__gedf2+0x6c>
   447d8:	3218b03a 	or	r12,r6,r8
   447dc:	6000071e 	bne	r12,zero,447fc <__gedf2+0x6c>
   447e0:	0005883a 	mov	r2,zero
   447e4:	5800101e 	bne	r11,zero,44828 <__gedf2+0x98>
   447e8:	f800283a 	ret
   447ec:	18000c1e 	bne	r3,zero,44820 <__gedf2+0x90>
   447f0:	3212b03a 	or	r9,r6,r8
   447f4:	48000c26 	beq	r9,zero,44828 <__gedf2+0x98>
   447f8:	0013883a 	mov	r9,zero
   447fc:	39c03fcc 	andi	r7,r7,255
   44800:	48000826 	beq	r9,zero,44824 <__gedf2+0x94>
   44804:	38000926 	beq	r7,zero,4482c <__gedf2+0x9c>
   44808:	00800044 	movi	r2,1
   4480c:	f800283a 	ret
   44810:	3212b03a 	or	r9,r6,r8
   44814:	483fec26 	beq	r9,zero,447c8 <_gp+0xfffe7680>
   44818:	00bfff84 	movi	r2,-2
   4481c:	f800283a 	ret
   44820:	39c03fcc 	andi	r7,r7,255
   44824:	29c00626 	beq	r5,r7,44840 <__gedf2+0xb0>
   44828:	283ff726 	beq	r5,zero,44808 <_gp+0xfffe76c0>
   4482c:	00bfffc4 	movi	r2,-1
   44830:	f800283a 	ret
   44834:	2292b03a 	or	r9,r4,r10
   44838:	483fe126 	beq	r9,zero,447c0 <_gp+0xfffe7678>
   4483c:	003ff606 	br	44818 <_gp+0xfffe76d0>
   44840:	18bff916 	blt	r3,r2,44828 <_gp+0xfffe76e0>
   44844:	10c00316 	blt	r2,r3,44854 <__gedf2+0xc4>
   44848:	42bff736 	bltu	r8,r10,44828 <_gp+0xfffe76e0>
   4484c:	52000326 	beq	r10,r8,4485c <__gedf2+0xcc>
   44850:	5200042e 	bgeu	r10,r8,44864 <__gedf2+0xd4>
   44854:	283fec1e 	bne	r5,zero,44808 <_gp+0xfffe76c0>
   44858:	003ff406 	br	4482c <_gp+0xfffe76e4>
   4485c:	313ff236 	bltu	r6,r4,44828 <_gp+0xfffe76e0>
   44860:	21bffc36 	bltu	r4,r6,44854 <_gp+0xfffe770c>
   44864:	0005883a 	mov	r2,zero
   44868:	f800283a 	ret

0004486c <__ledf2>:
   4486c:	2804d53a 	srli	r2,r5,20
   44870:	3810d53a 	srli	r8,r7,20
   44874:	00c00434 	movhi	r3,16
   44878:	18ffffc4 	addi	r3,r3,-1
   4487c:	1081ffcc 	andi	r2,r2,2047
   44880:	0241ffc4 	movi	r9,2047
   44884:	28d4703a 	and	r10,r5,r3
   44888:	4201ffcc 	andi	r8,r8,2047
   4488c:	38c6703a 	and	r3,r7,r3
   44890:	280ad7fa 	srli	r5,r5,31
   44894:	380ed7fa 	srli	r7,r7,31
   44898:	12401f26 	beq	r2,r9,44918 <__ledf2+0xac>
   4489c:	0241ffc4 	movi	r9,2047
   448a0:	42401426 	beq	r8,r9,448f4 <__ledf2+0x88>
   448a4:	1000091e 	bne	r2,zero,448cc <__ledf2+0x60>
   448a8:	2296b03a 	or	r11,r4,r10
   448ac:	5813003a 	cmpeq	r9,r11,zero
   448b0:	29403fcc 	andi	r5,r5,255
   448b4:	40000a1e 	bne	r8,zero,448e0 <__ledf2+0x74>
   448b8:	30d8b03a 	or	r12,r6,r3
   448bc:	6000081e 	bne	r12,zero,448e0 <__ledf2+0x74>
   448c0:	0005883a 	mov	r2,zero
   448c4:	5800111e 	bne	r11,zero,4490c <__ledf2+0xa0>
   448c8:	f800283a 	ret
   448cc:	29403fcc 	andi	r5,r5,255
   448d0:	40000c1e 	bne	r8,zero,44904 <__ledf2+0x98>
   448d4:	30d2b03a 	or	r9,r6,r3
   448d8:	48000c26 	beq	r9,zero,4490c <__ledf2+0xa0>
   448dc:	0013883a 	mov	r9,zero
   448e0:	39c03fcc 	andi	r7,r7,255
   448e4:	48000826 	beq	r9,zero,44908 <__ledf2+0x9c>
   448e8:	38001126 	beq	r7,zero,44930 <__ledf2+0xc4>
   448ec:	00800044 	movi	r2,1
   448f0:	f800283a 	ret
   448f4:	30d2b03a 	or	r9,r6,r3
   448f8:	483fea26 	beq	r9,zero,448a4 <_gp+0xfffe775c>
   448fc:	00800084 	movi	r2,2
   44900:	f800283a 	ret
   44904:	39c03fcc 	andi	r7,r7,255
   44908:	39400726 	beq	r7,r5,44928 <__ledf2+0xbc>
   4490c:	2800081e 	bne	r5,zero,44930 <__ledf2+0xc4>
   44910:	00800044 	movi	r2,1
   44914:	f800283a 	ret
   44918:	2292b03a 	or	r9,r4,r10
   4491c:	483fdf26 	beq	r9,zero,4489c <_gp+0xfffe7754>
   44920:	00800084 	movi	r2,2
   44924:	f800283a 	ret
   44928:	4080030e 	bge	r8,r2,44938 <__ledf2+0xcc>
   4492c:	383fef26 	beq	r7,zero,448ec <_gp+0xfffe77a4>
   44930:	00bfffc4 	movi	r2,-1
   44934:	f800283a 	ret
   44938:	123feb16 	blt	r2,r8,448e8 <_gp+0xfffe77a0>
   4493c:	1abff336 	bltu	r3,r10,4490c <_gp+0xfffe77c4>
   44940:	50c00326 	beq	r10,r3,44950 <__ledf2+0xe4>
   44944:	50c0042e 	bgeu	r10,r3,44958 <__ledf2+0xec>
   44948:	283fe81e 	bne	r5,zero,448ec <_gp+0xfffe77a4>
   4494c:	003ff806 	br	44930 <_gp+0xfffe77e8>
   44950:	313fee36 	bltu	r6,r4,4490c <_gp+0xfffe77c4>
   44954:	21bffc36 	bltu	r4,r6,44948 <_gp+0xfffe7800>
   44958:	0005883a 	mov	r2,zero
   4495c:	f800283a 	ret

00044960 <__muldf3>:
   44960:	deffee04 	addi	sp,sp,-72
   44964:	dd000c15 	stw	r20,48(sp)
   44968:	2828d53a 	srli	r20,r5,20
   4496c:	ddc00f15 	stw	r23,60(sp)
   44970:	282ed7fa 	srli	r23,r5,31
   44974:	dc000815 	stw	r16,32(sp)
   44978:	04000434 	movhi	r16,16
   4497c:	dcc00b15 	stw	r19,44(sp)
   44980:	843fffc4 	addi	r16,r16,-1
   44984:	dfc01115 	stw	ra,68(sp)
   44988:	df001015 	stw	fp,64(sp)
   4498c:	dd800e15 	stw	r22,56(sp)
   44990:	dd400d15 	stw	r21,52(sp)
   44994:	dc800a15 	stw	r18,40(sp)
   44998:	dc400915 	stw	r17,36(sp)
   4499c:	a501ffcc 	andi	r20,r20,2047
   449a0:	2c20703a 	and	r16,r5,r16
   449a4:	b827883a 	mov	r19,r23
   449a8:	ba403fcc 	andi	r9,r23,255
   449ac:	a0006026 	beq	r20,zero,44b30 <__muldf3+0x1d0>
   449b0:	0081ffc4 	movi	r2,2047
   449b4:	202d883a 	mov	r22,r4
   449b8:	a0803626 	beq	r20,r2,44a94 <__muldf3+0x134>
   449bc:	84000434 	orhi	r16,r16,16
   449c0:	200ad77a 	srli	r5,r4,29
   449c4:	800490fa 	slli	r2,r16,3
   449c8:	202c90fa 	slli	r22,r4,3
   449cc:	a53f0044 	addi	r20,r20,-1023
   449d0:	28a0b03a 	or	r16,r5,r2
   449d4:	002b883a 	mov	r21,zero
   449d8:	000b883a 	mov	r5,zero
   449dc:	3804d53a 	srli	r2,r7,20
   449e0:	3838d7fa 	srli	fp,r7,31
   449e4:	04400434 	movhi	r17,16
   449e8:	8c7fffc4 	addi	r17,r17,-1
   449ec:	1081ffcc 	andi	r2,r2,2047
   449f0:	3025883a 	mov	r18,r6
   449f4:	3c62703a 	and	r17,r7,r17
   449f8:	e2803fcc 	andi	r10,fp,255
   449fc:	10006d26 	beq	r2,zero,44bb4 <__muldf3+0x254>
   44a00:	00c1ffc4 	movi	r3,2047
   44a04:	10c06526 	beq	r2,r3,44b9c <__muldf3+0x23c>
   44a08:	8c400434 	orhi	r17,r17,16
   44a0c:	300ed77a 	srli	r7,r6,29
   44a10:	880690fa 	slli	r3,r17,3
   44a14:	302490fa 	slli	r18,r6,3
   44a18:	10bf0044 	addi	r2,r2,-1023
   44a1c:	38e2b03a 	or	r17,r7,r3
   44a20:	000f883a 	mov	r7,zero
   44a24:	a087883a 	add	r3,r20,r2
   44a28:	010003c4 	movi	r4,15
   44a2c:	3d44b03a 	or	r2,r7,r21
   44a30:	e5ccf03a 	xor	r6,fp,r23
   44a34:	1a000044 	addi	r8,r3,1
   44a38:	20809b36 	bltu	r4,r2,44ca8 <__muldf3+0x348>
   44a3c:	100490ba 	slli	r2,r2,2
   44a40:	01000134 	movhi	r4,4
   44a44:	21129504 	addi	r4,r4,19028
   44a48:	1105883a 	add	r2,r2,r4
   44a4c:	10800017 	ldw	r2,0(r2)
   44a50:	1000683a 	jmp	r2
   44a54:	00044ca8 	cmpgeui	zero,zero,4402
   44a58:	00044ab4 	movhi	zero,4394
   44a5c:	00044ab4 	movhi	zero,4394
   44a60:	00044ab0 	cmpltui	zero,zero,4394
   44a64:	00044c84 	movi	zero,4402
   44a68:	00044c84 	movi	zero,4402
   44a6c:	00044c6c 	andhi	zero,zero,4401
   44a70:	00044ab0 	cmpltui	zero,zero,4394
   44a74:	00044c84 	movi	zero,4402
   44a78:	00044c6c 	andhi	zero,zero,4401
   44a7c:	00044c84 	movi	zero,4402
   44a80:	00044ab0 	cmpltui	zero,zero,4394
   44a84:	00044c94 	movui	zero,4402
   44a88:	00044c94 	movui	zero,4402
   44a8c:	00044c94 	movui	zero,4402
   44a90:	00044ff4 	movhi	zero,4415
   44a94:	2404b03a 	or	r2,r4,r16
   44a98:	1000711e 	bne	r2,zero,44c60 <__muldf3+0x300>
   44a9c:	05400204 	movi	r21,8
   44aa0:	0021883a 	mov	r16,zero
   44aa4:	002d883a 	mov	r22,zero
   44aa8:	01400084 	movi	r5,2
   44aac:	003fcb06 	br	449dc <_gp+0xfffe7894>
   44ab0:	500d883a 	mov	r6,r10
   44ab4:	00800084 	movi	r2,2
   44ab8:	38805926 	beq	r7,r2,44c20 <__muldf3+0x2c0>
   44abc:	008000c4 	movi	r2,3
   44ac0:	3881bb26 	beq	r7,r2,451b0 <__muldf3+0x850>
   44ac4:	00800044 	movi	r2,1
   44ac8:	3881961e 	bne	r7,r2,45124 <__muldf3+0x7c4>
   44acc:	3027883a 	mov	r19,r6
   44ad0:	0005883a 	mov	r2,zero
   44ad4:	0021883a 	mov	r16,zero
   44ad8:	002d883a 	mov	r22,zero
   44adc:	1004953a 	slli	r2,r2,20
   44ae0:	98c03fcc 	andi	r3,r19,255
   44ae4:	04400434 	movhi	r17,16
   44ae8:	8c7fffc4 	addi	r17,r17,-1
   44aec:	180697fa 	slli	r3,r3,31
   44af0:	8460703a 	and	r16,r16,r17
   44af4:	80a0b03a 	or	r16,r16,r2
   44af8:	80c6b03a 	or	r3,r16,r3
   44afc:	b005883a 	mov	r2,r22
   44b00:	dfc01117 	ldw	ra,68(sp)
   44b04:	df001017 	ldw	fp,64(sp)
   44b08:	ddc00f17 	ldw	r23,60(sp)
   44b0c:	dd800e17 	ldw	r22,56(sp)
   44b10:	dd400d17 	ldw	r21,52(sp)
   44b14:	dd000c17 	ldw	r20,48(sp)
   44b18:	dcc00b17 	ldw	r19,44(sp)
   44b1c:	dc800a17 	ldw	r18,40(sp)
   44b20:	dc400917 	ldw	r17,36(sp)
   44b24:	dc000817 	ldw	r16,32(sp)
   44b28:	dec01204 	addi	sp,sp,72
   44b2c:	f800283a 	ret
   44b30:	2404b03a 	or	r2,r4,r16
   44b34:	202b883a 	mov	r21,r4
   44b38:	10004426 	beq	r2,zero,44c4c <__muldf3+0x2ec>
   44b3c:	80015126 	beq	r16,zero,45084 <__muldf3+0x724>
   44b40:	8009883a 	mov	r4,r16
   44b44:	d9800715 	stw	r6,28(sp)
   44b48:	d9c00215 	stw	r7,8(sp)
   44b4c:	da400415 	stw	r9,16(sp)
   44b50:	0045edc0 	call	45edc <__clzsi2>
   44b54:	d9800717 	ldw	r6,28(sp)
   44b58:	d9c00217 	ldw	r7,8(sp)
   44b5c:	da400417 	ldw	r9,16(sp)
   44b60:	113ffd44 	addi	r4,r2,-11
   44b64:	00c00704 	movi	r3,28
   44b68:	19014216 	blt	r3,r4,45074 <__muldf3+0x714>
   44b6c:	00c00744 	movi	r3,29
   44b70:	15bffe04 	addi	r22,r2,-8
   44b74:	1907c83a 	sub	r3,r3,r4
   44b78:	85a0983a 	sll	r16,r16,r22
   44b7c:	a8c6d83a 	srl	r3,r21,r3
   44b80:	adac983a 	sll	r22,r21,r22
   44b84:	1c20b03a 	or	r16,r3,r16
   44b88:	1080fcc4 	addi	r2,r2,1011
   44b8c:	00a9c83a 	sub	r20,zero,r2
   44b90:	002b883a 	mov	r21,zero
   44b94:	000b883a 	mov	r5,zero
   44b98:	003f9006 	br	449dc <_gp+0xfffe7894>
   44b9c:	3446b03a 	or	r3,r6,r17
   44ba0:	1800281e 	bne	r3,zero,44c44 <__muldf3+0x2e4>
   44ba4:	0023883a 	mov	r17,zero
   44ba8:	0025883a 	mov	r18,zero
   44bac:	01c00084 	movi	r7,2
   44bb0:	003f9c06 	br	44a24 <_gp+0xfffe78dc>
   44bb4:	3446b03a 	or	r3,r6,r17
   44bb8:	18001e26 	beq	r3,zero,44c34 <__muldf3+0x2d4>
   44bbc:	88012126 	beq	r17,zero,45044 <__muldf3+0x6e4>
   44bc0:	8809883a 	mov	r4,r17
   44bc4:	d9400215 	stw	r5,8(sp)
   44bc8:	d9800715 	stw	r6,28(sp)
   44bcc:	da400415 	stw	r9,16(sp)
   44bd0:	da800315 	stw	r10,12(sp)
   44bd4:	0045edc0 	call	45edc <__clzsi2>
   44bd8:	d9400217 	ldw	r5,8(sp)
   44bdc:	d9800717 	ldw	r6,28(sp)
   44be0:	da400417 	ldw	r9,16(sp)
   44be4:	da800317 	ldw	r10,12(sp)
   44be8:	113ffd44 	addi	r4,r2,-11
   44bec:	00c00704 	movi	r3,28
   44bf0:	19011016 	blt	r3,r4,45034 <__muldf3+0x6d4>
   44bf4:	00c00744 	movi	r3,29
   44bf8:	14bffe04 	addi	r18,r2,-8
   44bfc:	1907c83a 	sub	r3,r3,r4
   44c00:	8ca2983a 	sll	r17,r17,r18
   44c04:	30c6d83a 	srl	r3,r6,r3
   44c08:	34a4983a 	sll	r18,r6,r18
   44c0c:	1c62b03a 	or	r17,r3,r17
   44c10:	1080fcc4 	addi	r2,r2,1011
   44c14:	0085c83a 	sub	r2,zero,r2
   44c18:	000f883a 	mov	r7,zero
   44c1c:	003f8106 	br	44a24 <_gp+0xfffe78dc>
   44c20:	3027883a 	mov	r19,r6
   44c24:	0081ffc4 	movi	r2,2047
   44c28:	0021883a 	mov	r16,zero
   44c2c:	002d883a 	mov	r22,zero
   44c30:	003faa06 	br	44adc <_gp+0xfffe7994>
   44c34:	0023883a 	mov	r17,zero
   44c38:	0025883a 	mov	r18,zero
   44c3c:	01c00044 	movi	r7,1
   44c40:	003f7806 	br	44a24 <_gp+0xfffe78dc>
   44c44:	01c000c4 	movi	r7,3
   44c48:	003f7606 	br	44a24 <_gp+0xfffe78dc>
   44c4c:	05400104 	movi	r21,4
   44c50:	0021883a 	mov	r16,zero
   44c54:	002d883a 	mov	r22,zero
   44c58:	01400044 	movi	r5,1
   44c5c:	003f5f06 	br	449dc <_gp+0xfffe7894>
   44c60:	05400304 	movi	r21,12
   44c64:	014000c4 	movi	r5,3
   44c68:	003f5c06 	br	449dc <_gp+0xfffe7894>
   44c6c:	04000434 	movhi	r16,16
   44c70:	0027883a 	mov	r19,zero
   44c74:	843fffc4 	addi	r16,r16,-1
   44c78:	05bfffc4 	movi	r22,-1
   44c7c:	0081ffc4 	movi	r2,2047
   44c80:	003f9606 	br	44adc <_gp+0xfffe7994>
   44c84:	8023883a 	mov	r17,r16
   44c88:	b025883a 	mov	r18,r22
   44c8c:	280f883a 	mov	r7,r5
   44c90:	003f8806 	br	44ab4 <_gp+0xfffe796c>
   44c94:	8023883a 	mov	r17,r16
   44c98:	b025883a 	mov	r18,r22
   44c9c:	480d883a 	mov	r6,r9
   44ca0:	280f883a 	mov	r7,r5
   44ca4:	003f8306 	br	44ab4 <_gp+0xfffe796c>
   44ca8:	b026d43a 	srli	r19,r22,16
   44cac:	902ed43a 	srli	r23,r18,16
   44cb0:	b5bfffcc 	andi	r22,r22,65535
   44cb4:	94bfffcc 	andi	r18,r18,65535
   44cb8:	b00b883a 	mov	r5,r22
   44cbc:	9009883a 	mov	r4,r18
   44cc0:	d8c00515 	stw	r3,20(sp)
   44cc4:	d9800715 	stw	r6,28(sp)
   44cc8:	da000615 	stw	r8,24(sp)
   44ccc:	0041f400 	call	41f40 <__mulsi3>
   44cd0:	980b883a 	mov	r5,r19
   44cd4:	9009883a 	mov	r4,r18
   44cd8:	1029883a 	mov	r20,r2
   44cdc:	0041f400 	call	41f40 <__mulsi3>
   44ce0:	b80b883a 	mov	r5,r23
   44ce4:	9809883a 	mov	r4,r19
   44ce8:	102b883a 	mov	r21,r2
   44cec:	0041f400 	call	41f40 <__mulsi3>
   44cf0:	b809883a 	mov	r4,r23
   44cf4:	b00b883a 	mov	r5,r22
   44cf8:	1039883a 	mov	fp,r2
   44cfc:	0041f400 	call	41f40 <__mulsi3>
   44d00:	a008d43a 	srli	r4,r20,16
   44d04:	1545883a 	add	r2,r2,r21
   44d08:	d8c00517 	ldw	r3,20(sp)
   44d0c:	2085883a 	add	r2,r4,r2
   44d10:	d9800717 	ldw	r6,28(sp)
   44d14:	da000617 	ldw	r8,24(sp)
   44d18:	1540022e 	bgeu	r2,r21,44d24 <__muldf3+0x3c4>
   44d1c:	01000074 	movhi	r4,1
   44d20:	e139883a 	add	fp,fp,r4
   44d24:	100e943a 	slli	r7,r2,16
   44d28:	1004d43a 	srli	r2,r2,16
   44d2c:	882ad43a 	srli	r21,r17,16
   44d30:	a53fffcc 	andi	r20,r20,65535
   44d34:	8c7fffcc 	andi	r17,r17,65535
   44d38:	3d29883a 	add	r20,r7,r20
   44d3c:	b00b883a 	mov	r5,r22
   44d40:	8809883a 	mov	r4,r17
   44d44:	d8c00515 	stw	r3,20(sp)
   44d48:	d9800715 	stw	r6,28(sp)
   44d4c:	da000615 	stw	r8,24(sp)
   44d50:	dd000115 	stw	r20,4(sp)
   44d54:	d8800015 	stw	r2,0(sp)
   44d58:	0041f400 	call	41f40 <__mulsi3>
   44d5c:	980b883a 	mov	r5,r19
   44d60:	8809883a 	mov	r4,r17
   44d64:	d8800215 	stw	r2,8(sp)
   44d68:	0041f400 	call	41f40 <__mulsi3>
   44d6c:	9809883a 	mov	r4,r19
   44d70:	a80b883a 	mov	r5,r21
   44d74:	1029883a 	mov	r20,r2
   44d78:	0041f400 	call	41f40 <__mulsi3>
   44d7c:	b00b883a 	mov	r5,r22
   44d80:	a809883a 	mov	r4,r21
   44d84:	d8800415 	stw	r2,16(sp)
   44d88:	0041f400 	call	41f40 <__mulsi3>
   44d8c:	d9c00217 	ldw	r7,8(sp)
   44d90:	1505883a 	add	r2,r2,r20
   44d94:	d8c00517 	ldw	r3,20(sp)
   44d98:	3826d43a 	srli	r19,r7,16
   44d9c:	d9800717 	ldw	r6,28(sp)
   44da0:	da000617 	ldw	r8,24(sp)
   44da4:	9885883a 	add	r2,r19,r2
   44da8:	da400417 	ldw	r9,16(sp)
   44dac:	1500022e 	bgeu	r2,r20,44db8 <__muldf3+0x458>
   44db0:	01000074 	movhi	r4,1
   44db4:	4913883a 	add	r9,r9,r4
   44db8:	1028d43a 	srli	r20,r2,16
   44dbc:	1004943a 	slli	r2,r2,16
   44dc0:	802cd43a 	srli	r22,r16,16
   44dc4:	843fffcc 	andi	r16,r16,65535
   44dc8:	3cffffcc 	andi	r19,r7,65535
   44dcc:	9009883a 	mov	r4,r18
   44dd0:	800b883a 	mov	r5,r16
   44dd4:	a269883a 	add	r20,r20,r9
   44dd8:	d8c00515 	stw	r3,20(sp)
   44ddc:	d9800715 	stw	r6,28(sp)
   44de0:	da000615 	stw	r8,24(sp)
   44de4:	14e7883a 	add	r19,r2,r19
   44de8:	0041f400 	call	41f40 <__mulsi3>
   44dec:	9009883a 	mov	r4,r18
   44df0:	b00b883a 	mov	r5,r22
   44df4:	d8800315 	stw	r2,12(sp)
   44df8:	0041f400 	call	41f40 <__mulsi3>
   44dfc:	b809883a 	mov	r4,r23
   44e00:	b00b883a 	mov	r5,r22
   44e04:	d8800215 	stw	r2,8(sp)
   44e08:	0041f400 	call	41f40 <__mulsi3>
   44e0c:	b80b883a 	mov	r5,r23
   44e10:	8009883a 	mov	r4,r16
   44e14:	d8800415 	stw	r2,16(sp)
   44e18:	0041f400 	call	41f40 <__mulsi3>
   44e1c:	da800317 	ldw	r10,12(sp)
   44e20:	d9c00217 	ldw	r7,8(sp)
   44e24:	d9000017 	ldw	r4,0(sp)
   44e28:	502ed43a 	srli	r23,r10,16
   44e2c:	11c5883a 	add	r2,r2,r7
   44e30:	24e5883a 	add	r18,r4,r19
   44e34:	b885883a 	add	r2,r23,r2
   44e38:	d8c00517 	ldw	r3,20(sp)
   44e3c:	d9800717 	ldw	r6,28(sp)
   44e40:	da000617 	ldw	r8,24(sp)
   44e44:	da400417 	ldw	r9,16(sp)
   44e48:	11c0022e 	bgeu	r2,r7,44e54 <__muldf3+0x4f4>
   44e4c:	01000074 	movhi	r4,1
   44e50:	4913883a 	add	r9,r9,r4
   44e54:	100ed43a 	srli	r7,r2,16
   44e58:	1004943a 	slli	r2,r2,16
   44e5c:	55ffffcc 	andi	r23,r10,65535
   44e60:	3a53883a 	add	r9,r7,r9
   44e64:	8809883a 	mov	r4,r17
   44e68:	800b883a 	mov	r5,r16
   44e6c:	d8c00515 	stw	r3,20(sp)
   44e70:	d9800715 	stw	r6,28(sp)
   44e74:	da000615 	stw	r8,24(sp)
   44e78:	da400415 	stw	r9,16(sp)
   44e7c:	15ef883a 	add	r23,r2,r23
   44e80:	0041f400 	call	41f40 <__mulsi3>
   44e84:	8809883a 	mov	r4,r17
   44e88:	b00b883a 	mov	r5,r22
   44e8c:	d8800215 	stw	r2,8(sp)
   44e90:	0041f400 	call	41f40 <__mulsi3>
   44e94:	b00b883a 	mov	r5,r22
   44e98:	a809883a 	mov	r4,r21
   44e9c:	d8800315 	stw	r2,12(sp)
   44ea0:	0041f400 	call	41f40 <__mulsi3>
   44ea4:	8009883a 	mov	r4,r16
   44ea8:	a80b883a 	mov	r5,r21
   44eac:	1023883a 	mov	r17,r2
   44eb0:	0041f400 	call	41f40 <__mulsi3>
   44eb4:	d9c00217 	ldw	r7,8(sp)
   44eb8:	da800317 	ldw	r10,12(sp)
   44ebc:	d8c00517 	ldw	r3,20(sp)
   44ec0:	3808d43a 	srli	r4,r7,16
   44ec4:	1285883a 	add	r2,r2,r10
   44ec8:	d9800717 	ldw	r6,28(sp)
   44ecc:	2085883a 	add	r2,r4,r2
   44ed0:	da000617 	ldw	r8,24(sp)
   44ed4:	da400417 	ldw	r9,16(sp)
   44ed8:	1280022e 	bgeu	r2,r10,44ee4 <__muldf3+0x584>
   44edc:	01000074 	movhi	r4,1
   44ee0:	8923883a 	add	r17,r17,r4
   44ee4:	1008943a 	slli	r4,r2,16
   44ee8:	39ffffcc 	andi	r7,r7,65535
   44eec:	e4b9883a 	add	fp,fp,r18
   44ef0:	21cf883a 	add	r7,r4,r7
   44ef4:	e4e7803a 	cmpltu	r19,fp,r19
   44ef8:	3d0f883a 	add	r7,r7,r20
   44efc:	bf39883a 	add	fp,r23,fp
   44f00:	99c9883a 	add	r4,r19,r7
   44f04:	e5ef803a 	cmpltu	r23,fp,r23
   44f08:	490b883a 	add	r5,r9,r4
   44f0c:	1004d43a 	srli	r2,r2,16
   44f10:	b965883a 	add	r18,r23,r5
   44f14:	24c9803a 	cmpltu	r4,r4,r19
   44f18:	3d29803a 	cmpltu	r20,r7,r20
   44f1c:	a128b03a 	or	r20,r20,r4
   44f20:	95ef803a 	cmpltu	r23,r18,r23
   44f24:	2a53803a 	cmpltu	r9,r5,r9
   44f28:	a0a9883a 	add	r20,r20,r2
   44f2c:	4deeb03a 	or	r23,r9,r23
   44f30:	a5ef883a 	add	r23,r20,r23
   44f34:	bc63883a 	add	r17,r23,r17
   44f38:	e004927a 	slli	r2,fp,9
   44f3c:	d9000117 	ldw	r4,4(sp)
   44f40:	882e927a 	slli	r23,r17,9
   44f44:	9022d5fa 	srli	r17,r18,23
   44f48:	e038d5fa 	srli	fp,fp,23
   44f4c:	1104b03a 	or	r2,r2,r4
   44f50:	9024927a 	slli	r18,r18,9
   44f54:	1004c03a 	cmpne	r2,r2,zero
   44f58:	bc62b03a 	or	r17,r23,r17
   44f5c:	1738b03a 	or	fp,r2,fp
   44f60:	8880402c 	andhi	r2,r17,256
   44f64:	e4a4b03a 	or	r18,fp,r18
   44f68:	10000726 	beq	r2,zero,44f88 <__muldf3+0x628>
   44f6c:	9006d07a 	srli	r3,r18,1
   44f70:	880497fa 	slli	r2,r17,31
   44f74:	9480004c 	andi	r18,r18,1
   44f78:	8822d07a 	srli	r17,r17,1
   44f7c:	1ca4b03a 	or	r18,r3,r18
   44f80:	14a4b03a 	or	r18,r2,r18
   44f84:	4007883a 	mov	r3,r8
   44f88:	1880ffc4 	addi	r2,r3,1023
   44f8c:	0080460e 	bge	zero,r2,450a8 <__muldf3+0x748>
   44f90:	910001cc 	andi	r4,r18,7
   44f94:	20000726 	beq	r4,zero,44fb4 <__muldf3+0x654>
   44f98:	910003cc 	andi	r4,r18,15
   44f9c:	01400104 	movi	r5,4
   44fa0:	21400426 	beq	r4,r5,44fb4 <__muldf3+0x654>
   44fa4:	9149883a 	add	r4,r18,r5
   44fa8:	24a5803a 	cmpltu	r18,r4,r18
   44fac:	8ca3883a 	add	r17,r17,r18
   44fb0:	2025883a 	mov	r18,r4
   44fb4:	8900402c 	andhi	r4,r17,256
   44fb8:	20000426 	beq	r4,zero,44fcc <__muldf3+0x66c>
   44fbc:	18810004 	addi	r2,r3,1024
   44fc0:	00ffc034 	movhi	r3,65280
   44fc4:	18ffffc4 	addi	r3,r3,-1
   44fc8:	88e2703a 	and	r17,r17,r3
   44fcc:	00c1ff84 	movi	r3,2046
   44fd0:	18bf1316 	blt	r3,r2,44c20 <_gp+0xfffe7ad8>
   44fd4:	882c977a 	slli	r22,r17,29
   44fd8:	9024d0fa 	srli	r18,r18,3
   44fdc:	8822927a 	slli	r17,r17,9
   44fe0:	1081ffcc 	andi	r2,r2,2047
   44fe4:	b4acb03a 	or	r22,r22,r18
   44fe8:	8820d33a 	srli	r16,r17,12
   44fec:	3027883a 	mov	r19,r6
   44ff0:	003eba06 	br	44adc <_gp+0xfffe7994>
   44ff4:	8080022c 	andhi	r2,r16,8
   44ff8:	10000926 	beq	r2,zero,45020 <__muldf3+0x6c0>
   44ffc:	8880022c 	andhi	r2,r17,8
   45000:	1000071e 	bne	r2,zero,45020 <__muldf3+0x6c0>
   45004:	00800434 	movhi	r2,16
   45008:	8c000234 	orhi	r16,r17,8
   4500c:	10bfffc4 	addi	r2,r2,-1
   45010:	e027883a 	mov	r19,fp
   45014:	80a0703a 	and	r16,r16,r2
   45018:	902d883a 	mov	r22,r18
   4501c:	003f1706 	br	44c7c <_gp+0xfffe7b34>
   45020:	00800434 	movhi	r2,16
   45024:	84000234 	orhi	r16,r16,8
   45028:	10bfffc4 	addi	r2,r2,-1
   4502c:	80a0703a 	and	r16,r16,r2
   45030:	003f1206 	br	44c7c <_gp+0xfffe7b34>
   45034:	147ff604 	addi	r17,r2,-40
   45038:	3462983a 	sll	r17,r6,r17
   4503c:	0025883a 	mov	r18,zero
   45040:	003ef306 	br	44c10 <_gp+0xfffe7ac8>
   45044:	3009883a 	mov	r4,r6
   45048:	d9400215 	stw	r5,8(sp)
   4504c:	d9800715 	stw	r6,28(sp)
   45050:	da400415 	stw	r9,16(sp)
   45054:	da800315 	stw	r10,12(sp)
   45058:	0045edc0 	call	45edc <__clzsi2>
   4505c:	10800804 	addi	r2,r2,32
   45060:	da800317 	ldw	r10,12(sp)
   45064:	da400417 	ldw	r9,16(sp)
   45068:	d9800717 	ldw	r6,28(sp)
   4506c:	d9400217 	ldw	r5,8(sp)
   45070:	003edd06 	br	44be8 <_gp+0xfffe7aa0>
   45074:	143ff604 	addi	r16,r2,-40
   45078:	ac20983a 	sll	r16,r21,r16
   4507c:	002d883a 	mov	r22,zero
   45080:	003ec106 	br	44b88 <_gp+0xfffe7a40>
   45084:	d9800715 	stw	r6,28(sp)
   45088:	d9c00215 	stw	r7,8(sp)
   4508c:	da400415 	stw	r9,16(sp)
   45090:	0045edc0 	call	45edc <__clzsi2>
   45094:	10800804 	addi	r2,r2,32
   45098:	da400417 	ldw	r9,16(sp)
   4509c:	d9c00217 	ldw	r7,8(sp)
   450a0:	d9800717 	ldw	r6,28(sp)
   450a4:	003eae06 	br	44b60 <_gp+0xfffe7a18>
   450a8:	00c00044 	movi	r3,1
   450ac:	1887c83a 	sub	r3,r3,r2
   450b0:	01000e04 	movi	r4,56
   450b4:	20fe8516 	blt	r4,r3,44acc <_gp+0xfffe7984>
   450b8:	010007c4 	movi	r4,31
   450bc:	20c01b16 	blt	r4,r3,4512c <__muldf3+0x7cc>
   450c0:	00800804 	movi	r2,32
   450c4:	10c5c83a 	sub	r2,r2,r3
   450c8:	888a983a 	sll	r5,r17,r2
   450cc:	90c8d83a 	srl	r4,r18,r3
   450d0:	9084983a 	sll	r2,r18,r2
   450d4:	88e2d83a 	srl	r17,r17,r3
   450d8:	2906b03a 	or	r3,r5,r4
   450dc:	1004c03a 	cmpne	r2,r2,zero
   450e0:	1886b03a 	or	r3,r3,r2
   450e4:	188001cc 	andi	r2,r3,7
   450e8:	10000726 	beq	r2,zero,45108 <__muldf3+0x7a8>
   450ec:	188003cc 	andi	r2,r3,15
   450f0:	01000104 	movi	r4,4
   450f4:	11000426 	beq	r2,r4,45108 <__muldf3+0x7a8>
   450f8:	1805883a 	mov	r2,r3
   450fc:	10c00104 	addi	r3,r2,4
   45100:	1885803a 	cmpltu	r2,r3,r2
   45104:	88a3883a 	add	r17,r17,r2
   45108:	8880202c 	andhi	r2,r17,128
   4510c:	10001c26 	beq	r2,zero,45180 <__muldf3+0x820>
   45110:	3027883a 	mov	r19,r6
   45114:	00800044 	movi	r2,1
   45118:	0021883a 	mov	r16,zero
   4511c:	002d883a 	mov	r22,zero
   45120:	003e6e06 	br	44adc <_gp+0xfffe7994>
   45124:	4007883a 	mov	r3,r8
   45128:	003f9706 	br	44f88 <_gp+0xfffe7e40>
   4512c:	017ff844 	movi	r5,-31
   45130:	2885c83a 	sub	r2,r5,r2
   45134:	888ad83a 	srl	r5,r17,r2
   45138:	00800804 	movi	r2,32
   4513c:	18801a26 	beq	r3,r2,451a8 <__muldf3+0x848>
   45140:	01001004 	movi	r4,64
   45144:	20c7c83a 	sub	r3,r4,r3
   45148:	88e2983a 	sll	r17,r17,r3
   4514c:	8ca4b03a 	or	r18,r17,r18
   45150:	9004c03a 	cmpne	r2,r18,zero
   45154:	2884b03a 	or	r2,r5,r2
   45158:	144001cc 	andi	r17,r2,7
   4515c:	88000d1e 	bne	r17,zero,45194 <__muldf3+0x834>
   45160:	0021883a 	mov	r16,zero
   45164:	102cd0fa 	srli	r22,r2,3
   45168:	3027883a 	mov	r19,r6
   4516c:	0005883a 	mov	r2,zero
   45170:	b46cb03a 	or	r22,r22,r17
   45174:	003e5906 	br	44adc <_gp+0xfffe7994>
   45178:	1007883a 	mov	r3,r2
   4517c:	0023883a 	mov	r17,zero
   45180:	8820927a 	slli	r16,r17,9
   45184:	1805883a 	mov	r2,r3
   45188:	8822977a 	slli	r17,r17,29
   4518c:	8020d33a 	srli	r16,r16,12
   45190:	003ff406 	br	45164 <_gp+0xfffe801c>
   45194:	10c003cc 	andi	r3,r2,15
   45198:	01000104 	movi	r4,4
   4519c:	193ff626 	beq	r3,r4,45178 <_gp+0xfffe8030>
   451a0:	0023883a 	mov	r17,zero
   451a4:	003fd506 	br	450fc <_gp+0xfffe7fb4>
   451a8:	0023883a 	mov	r17,zero
   451ac:	003fe706 	br	4514c <_gp+0xfffe8004>
   451b0:	00800434 	movhi	r2,16
   451b4:	8c000234 	orhi	r16,r17,8
   451b8:	10bfffc4 	addi	r2,r2,-1
   451bc:	3027883a 	mov	r19,r6
   451c0:	80a0703a 	and	r16,r16,r2
   451c4:	902d883a 	mov	r22,r18
   451c8:	003eac06 	br	44c7c <_gp+0xfffe7b34>

000451cc <__subdf3>:
   451cc:	02000434 	movhi	r8,16
   451d0:	423fffc4 	addi	r8,r8,-1
   451d4:	defffb04 	addi	sp,sp,-20
   451d8:	2a14703a 	and	r10,r5,r8
   451dc:	3812d53a 	srli	r9,r7,20
   451e0:	3a10703a 	and	r8,r7,r8
   451e4:	2006d77a 	srli	r3,r4,29
   451e8:	3004d77a 	srli	r2,r6,29
   451ec:	dc000015 	stw	r16,0(sp)
   451f0:	501490fa 	slli	r10,r10,3
   451f4:	2820d53a 	srli	r16,r5,20
   451f8:	401090fa 	slli	r8,r8,3
   451fc:	dc800215 	stw	r18,8(sp)
   45200:	dc400115 	stw	r17,4(sp)
   45204:	dfc00415 	stw	ra,16(sp)
   45208:	202290fa 	slli	r17,r4,3
   4520c:	dcc00315 	stw	r19,12(sp)
   45210:	4a41ffcc 	andi	r9,r9,2047
   45214:	0101ffc4 	movi	r4,2047
   45218:	2824d7fa 	srli	r18,r5,31
   4521c:	8401ffcc 	andi	r16,r16,2047
   45220:	50c6b03a 	or	r3,r10,r3
   45224:	380ed7fa 	srli	r7,r7,31
   45228:	408ab03a 	or	r5,r8,r2
   4522c:	300c90fa 	slli	r6,r6,3
   45230:	49009626 	beq	r9,r4,4548c <__subdf3+0x2c0>
   45234:	39c0005c 	xori	r7,r7,1
   45238:	8245c83a 	sub	r2,r16,r9
   4523c:	3c807426 	beq	r7,r18,45410 <__subdf3+0x244>
   45240:	0080af0e 	bge	zero,r2,45500 <__subdf3+0x334>
   45244:	48002a1e 	bne	r9,zero,452f0 <__subdf3+0x124>
   45248:	2988b03a 	or	r4,r5,r6
   4524c:	20009a1e 	bne	r4,zero,454b8 <__subdf3+0x2ec>
   45250:	888001cc 	andi	r2,r17,7
   45254:	10000726 	beq	r2,zero,45274 <__subdf3+0xa8>
   45258:	888003cc 	andi	r2,r17,15
   4525c:	01000104 	movi	r4,4
   45260:	11000426 	beq	r2,r4,45274 <__subdf3+0xa8>
   45264:	890b883a 	add	r5,r17,r4
   45268:	2c63803a 	cmpltu	r17,r5,r17
   4526c:	1c47883a 	add	r3,r3,r17
   45270:	2823883a 	mov	r17,r5
   45274:	1880202c 	andhi	r2,r3,128
   45278:	10005926 	beq	r2,zero,453e0 <__subdf3+0x214>
   4527c:	84000044 	addi	r16,r16,1
   45280:	0081ffc4 	movi	r2,2047
   45284:	8080be26 	beq	r16,r2,45580 <__subdf3+0x3b4>
   45288:	017fe034 	movhi	r5,65408
   4528c:	297fffc4 	addi	r5,r5,-1
   45290:	1946703a 	and	r3,r3,r5
   45294:	1804977a 	slli	r2,r3,29
   45298:	1806927a 	slli	r3,r3,9
   4529c:	8822d0fa 	srli	r17,r17,3
   452a0:	8401ffcc 	andi	r16,r16,2047
   452a4:	180ad33a 	srli	r5,r3,12
   452a8:	9100004c 	andi	r4,r18,1
   452ac:	1444b03a 	or	r2,r2,r17
   452b0:	80c1ffcc 	andi	r3,r16,2047
   452b4:	1820953a 	slli	r16,r3,20
   452b8:	20c03fcc 	andi	r3,r4,255
   452bc:	180897fa 	slli	r4,r3,31
   452c0:	00c00434 	movhi	r3,16
   452c4:	18ffffc4 	addi	r3,r3,-1
   452c8:	28c6703a 	and	r3,r5,r3
   452cc:	1c06b03a 	or	r3,r3,r16
   452d0:	1906b03a 	or	r3,r3,r4
   452d4:	dfc00417 	ldw	ra,16(sp)
   452d8:	dcc00317 	ldw	r19,12(sp)
   452dc:	dc800217 	ldw	r18,8(sp)
   452e0:	dc400117 	ldw	r17,4(sp)
   452e4:	dc000017 	ldw	r16,0(sp)
   452e8:	dec00504 	addi	sp,sp,20
   452ec:	f800283a 	ret
   452f0:	0101ffc4 	movi	r4,2047
   452f4:	813fd626 	beq	r16,r4,45250 <_gp+0xfffe8108>
   452f8:	29402034 	orhi	r5,r5,128
   452fc:	01000e04 	movi	r4,56
   45300:	2080a316 	blt	r4,r2,45590 <__subdf3+0x3c4>
   45304:	010007c4 	movi	r4,31
   45308:	2080c616 	blt	r4,r2,45624 <__subdf3+0x458>
   4530c:	01000804 	movi	r4,32
   45310:	2089c83a 	sub	r4,r4,r2
   45314:	2910983a 	sll	r8,r5,r4
   45318:	308ed83a 	srl	r7,r6,r2
   4531c:	3108983a 	sll	r4,r6,r4
   45320:	2884d83a 	srl	r2,r5,r2
   45324:	41ccb03a 	or	r6,r8,r7
   45328:	2008c03a 	cmpne	r4,r4,zero
   4532c:	310cb03a 	or	r6,r6,r4
   45330:	898dc83a 	sub	r6,r17,r6
   45334:	89a3803a 	cmpltu	r17,r17,r6
   45338:	1887c83a 	sub	r3,r3,r2
   4533c:	1c47c83a 	sub	r3,r3,r17
   45340:	3023883a 	mov	r17,r6
   45344:	1880202c 	andhi	r2,r3,128
   45348:	10002326 	beq	r2,zero,453d8 <__subdf3+0x20c>
   4534c:	04c02034 	movhi	r19,128
   45350:	9cffffc4 	addi	r19,r19,-1
   45354:	1ce6703a 	and	r19,r3,r19
   45358:	98007a26 	beq	r19,zero,45544 <__subdf3+0x378>
   4535c:	9809883a 	mov	r4,r19
   45360:	0045edc0 	call	45edc <__clzsi2>
   45364:	113ffe04 	addi	r4,r2,-8
   45368:	00c007c4 	movi	r3,31
   4536c:	19007b16 	blt	r3,r4,4555c <__subdf3+0x390>
   45370:	00800804 	movi	r2,32
   45374:	1105c83a 	sub	r2,r2,r4
   45378:	8884d83a 	srl	r2,r17,r2
   4537c:	9906983a 	sll	r3,r19,r4
   45380:	8922983a 	sll	r17,r17,r4
   45384:	10c4b03a 	or	r2,r2,r3
   45388:	24007816 	blt	r4,r16,4556c <__subdf3+0x3a0>
   4538c:	2421c83a 	sub	r16,r4,r16
   45390:	80c00044 	addi	r3,r16,1
   45394:	010007c4 	movi	r4,31
   45398:	20c09516 	blt	r4,r3,455f0 <__subdf3+0x424>
   4539c:	01400804 	movi	r5,32
   453a0:	28cbc83a 	sub	r5,r5,r3
   453a4:	88c8d83a 	srl	r4,r17,r3
   453a8:	8962983a 	sll	r17,r17,r5
   453ac:	114a983a 	sll	r5,r2,r5
   453b0:	10c6d83a 	srl	r3,r2,r3
   453b4:	8804c03a 	cmpne	r2,r17,zero
   453b8:	290ab03a 	or	r5,r5,r4
   453bc:	28a2b03a 	or	r17,r5,r2
   453c0:	0021883a 	mov	r16,zero
   453c4:	003fa206 	br	45250 <_gp+0xfffe8108>
   453c8:	2090b03a 	or	r8,r4,r2
   453cc:	40018e26 	beq	r8,zero,45a08 <__subdf3+0x83c>
   453d0:	1007883a 	mov	r3,r2
   453d4:	2023883a 	mov	r17,r4
   453d8:	888001cc 	andi	r2,r17,7
   453dc:	103f9e1e 	bne	r2,zero,45258 <_gp+0xfffe8110>
   453e0:	1804977a 	slli	r2,r3,29
   453e4:	8822d0fa 	srli	r17,r17,3
   453e8:	1810d0fa 	srli	r8,r3,3
   453ec:	9100004c 	andi	r4,r18,1
   453f0:	1444b03a 	or	r2,r2,r17
   453f4:	00c1ffc4 	movi	r3,2047
   453f8:	80c02826 	beq	r16,r3,4549c <__subdf3+0x2d0>
   453fc:	01400434 	movhi	r5,16
   45400:	297fffc4 	addi	r5,r5,-1
   45404:	80e0703a 	and	r16,r16,r3
   45408:	414a703a 	and	r5,r8,r5
   4540c:	003fa806 	br	452b0 <_gp+0xfffe8168>
   45410:	0080630e 	bge	zero,r2,455a0 <__subdf3+0x3d4>
   45414:	48003026 	beq	r9,zero,454d8 <__subdf3+0x30c>
   45418:	0101ffc4 	movi	r4,2047
   4541c:	813f8c26 	beq	r16,r4,45250 <_gp+0xfffe8108>
   45420:	29402034 	orhi	r5,r5,128
   45424:	01000e04 	movi	r4,56
   45428:	2080a90e 	bge	r4,r2,456d0 <__subdf3+0x504>
   4542c:	298cb03a 	or	r6,r5,r6
   45430:	3012c03a 	cmpne	r9,r6,zero
   45434:	0005883a 	mov	r2,zero
   45438:	4c53883a 	add	r9,r9,r17
   4543c:	4c63803a 	cmpltu	r17,r9,r17
   45440:	10c7883a 	add	r3,r2,r3
   45444:	88c7883a 	add	r3,r17,r3
   45448:	4823883a 	mov	r17,r9
   4544c:	1880202c 	andhi	r2,r3,128
   45450:	1000d026 	beq	r2,zero,45794 <__subdf3+0x5c8>
   45454:	84000044 	addi	r16,r16,1
   45458:	0081ffc4 	movi	r2,2047
   4545c:	8080fe26 	beq	r16,r2,45858 <__subdf3+0x68c>
   45460:	00bfe034 	movhi	r2,65408
   45464:	10bfffc4 	addi	r2,r2,-1
   45468:	1886703a 	and	r3,r3,r2
   4546c:	880ad07a 	srli	r5,r17,1
   45470:	180497fa 	slli	r2,r3,31
   45474:	8900004c 	andi	r4,r17,1
   45478:	2922b03a 	or	r17,r5,r4
   4547c:	1806d07a 	srli	r3,r3,1
   45480:	1462b03a 	or	r17,r2,r17
   45484:	3825883a 	mov	r18,r7
   45488:	003f7106 	br	45250 <_gp+0xfffe8108>
   4548c:	2984b03a 	or	r2,r5,r6
   45490:	103f6826 	beq	r2,zero,45234 <_gp+0xfffe80ec>
   45494:	39c03fcc 	andi	r7,r7,255
   45498:	003f6706 	br	45238 <_gp+0xfffe80f0>
   4549c:	4086b03a 	or	r3,r8,r2
   454a0:	18015226 	beq	r3,zero,459ec <__subdf3+0x820>
   454a4:	00c00434 	movhi	r3,16
   454a8:	41400234 	orhi	r5,r8,8
   454ac:	18ffffc4 	addi	r3,r3,-1
   454b0:	28ca703a 	and	r5,r5,r3
   454b4:	003f7e06 	br	452b0 <_gp+0xfffe8168>
   454b8:	10bfffc4 	addi	r2,r2,-1
   454bc:	1000491e 	bne	r2,zero,455e4 <__subdf3+0x418>
   454c0:	898fc83a 	sub	r7,r17,r6
   454c4:	89e3803a 	cmpltu	r17,r17,r7
   454c8:	1947c83a 	sub	r3,r3,r5
   454cc:	1c47c83a 	sub	r3,r3,r17
   454d0:	3823883a 	mov	r17,r7
   454d4:	003f9b06 	br	45344 <_gp+0xfffe81fc>
   454d8:	2988b03a 	or	r4,r5,r6
   454dc:	203f5c26 	beq	r4,zero,45250 <_gp+0xfffe8108>
   454e0:	10bfffc4 	addi	r2,r2,-1
   454e4:	1000931e 	bne	r2,zero,45734 <__subdf3+0x568>
   454e8:	898d883a 	add	r6,r17,r6
   454ec:	3463803a 	cmpltu	r17,r6,r17
   454f0:	1947883a 	add	r3,r3,r5
   454f4:	88c7883a 	add	r3,r17,r3
   454f8:	3023883a 	mov	r17,r6
   454fc:	003fd306 	br	4544c <_gp+0xfffe8304>
   45500:	1000541e 	bne	r2,zero,45654 <__subdf3+0x488>
   45504:	80800044 	addi	r2,r16,1
   45508:	1081ffcc 	andi	r2,r2,2047
   4550c:	01000044 	movi	r4,1
   45510:	2080a20e 	bge	r4,r2,4579c <__subdf3+0x5d0>
   45514:	8989c83a 	sub	r4,r17,r6
   45518:	8905803a 	cmpltu	r2,r17,r4
   4551c:	1967c83a 	sub	r19,r3,r5
   45520:	98a7c83a 	sub	r19,r19,r2
   45524:	9880202c 	andhi	r2,r19,128
   45528:	10006326 	beq	r2,zero,456b8 <__subdf3+0x4ec>
   4552c:	3463c83a 	sub	r17,r6,r17
   45530:	28c7c83a 	sub	r3,r5,r3
   45534:	344d803a 	cmpltu	r6,r6,r17
   45538:	19a7c83a 	sub	r19,r3,r6
   4553c:	3825883a 	mov	r18,r7
   45540:	983f861e 	bne	r19,zero,4535c <_gp+0xfffe8214>
   45544:	8809883a 	mov	r4,r17
   45548:	0045edc0 	call	45edc <__clzsi2>
   4554c:	10800804 	addi	r2,r2,32
   45550:	113ffe04 	addi	r4,r2,-8
   45554:	00c007c4 	movi	r3,31
   45558:	193f850e 	bge	r3,r4,45370 <_gp+0xfffe8228>
   4555c:	10bff604 	addi	r2,r2,-40
   45560:	8884983a 	sll	r2,r17,r2
   45564:	0023883a 	mov	r17,zero
   45568:	243f880e 	bge	r4,r16,4538c <_gp+0xfffe8244>
   4556c:	00ffe034 	movhi	r3,65408
   45570:	18ffffc4 	addi	r3,r3,-1
   45574:	8121c83a 	sub	r16,r16,r4
   45578:	10c6703a 	and	r3,r2,r3
   4557c:	003f3406 	br	45250 <_gp+0xfffe8108>
   45580:	9100004c 	andi	r4,r18,1
   45584:	000b883a 	mov	r5,zero
   45588:	0005883a 	mov	r2,zero
   4558c:	003f4806 	br	452b0 <_gp+0xfffe8168>
   45590:	298cb03a 	or	r6,r5,r6
   45594:	300cc03a 	cmpne	r6,r6,zero
   45598:	0005883a 	mov	r2,zero
   4559c:	003f6406 	br	45330 <_gp+0xfffe81e8>
   455a0:	10009a1e 	bne	r2,zero,4580c <__subdf3+0x640>
   455a4:	82400044 	addi	r9,r16,1
   455a8:	4881ffcc 	andi	r2,r9,2047
   455ac:	02800044 	movi	r10,1
   455b0:	5080670e 	bge	r10,r2,45750 <__subdf3+0x584>
   455b4:	0081ffc4 	movi	r2,2047
   455b8:	4880af26 	beq	r9,r2,45878 <__subdf3+0x6ac>
   455bc:	898d883a 	add	r6,r17,r6
   455c0:	1945883a 	add	r2,r3,r5
   455c4:	3447803a 	cmpltu	r3,r6,r17
   455c8:	1887883a 	add	r3,r3,r2
   455cc:	182297fa 	slli	r17,r3,31
   455d0:	300cd07a 	srli	r6,r6,1
   455d4:	1806d07a 	srli	r3,r3,1
   455d8:	4821883a 	mov	r16,r9
   455dc:	89a2b03a 	or	r17,r17,r6
   455e0:	003f1b06 	br	45250 <_gp+0xfffe8108>
   455e4:	0101ffc4 	movi	r4,2047
   455e8:	813f441e 	bne	r16,r4,452fc <_gp+0xfffe81b4>
   455ec:	003f1806 	br	45250 <_gp+0xfffe8108>
   455f0:	843ff844 	addi	r16,r16,-31
   455f4:	01400804 	movi	r5,32
   455f8:	1408d83a 	srl	r4,r2,r16
   455fc:	19405026 	beq	r3,r5,45740 <__subdf3+0x574>
   45600:	01401004 	movi	r5,64
   45604:	28c7c83a 	sub	r3,r5,r3
   45608:	10c4983a 	sll	r2,r2,r3
   4560c:	88a2b03a 	or	r17,r17,r2
   45610:	8822c03a 	cmpne	r17,r17,zero
   45614:	2462b03a 	or	r17,r4,r17
   45618:	0007883a 	mov	r3,zero
   4561c:	0021883a 	mov	r16,zero
   45620:	003f6d06 	br	453d8 <_gp+0xfffe8290>
   45624:	11fff804 	addi	r7,r2,-32
   45628:	01000804 	movi	r4,32
   4562c:	29ced83a 	srl	r7,r5,r7
   45630:	11004526 	beq	r2,r4,45748 <__subdf3+0x57c>
   45634:	01001004 	movi	r4,64
   45638:	2089c83a 	sub	r4,r4,r2
   4563c:	2904983a 	sll	r2,r5,r4
   45640:	118cb03a 	or	r6,r2,r6
   45644:	300cc03a 	cmpne	r6,r6,zero
   45648:	398cb03a 	or	r6,r7,r6
   4564c:	0005883a 	mov	r2,zero
   45650:	003f3706 	br	45330 <_gp+0xfffe81e8>
   45654:	80002a26 	beq	r16,zero,45700 <__subdf3+0x534>
   45658:	0101ffc4 	movi	r4,2047
   4565c:	49006626 	beq	r9,r4,457f8 <__subdf3+0x62c>
   45660:	0085c83a 	sub	r2,zero,r2
   45664:	18c02034 	orhi	r3,r3,128
   45668:	01000e04 	movi	r4,56
   4566c:	20807e16 	blt	r4,r2,45868 <__subdf3+0x69c>
   45670:	010007c4 	movi	r4,31
   45674:	2080e716 	blt	r4,r2,45a14 <__subdf3+0x848>
   45678:	01000804 	movi	r4,32
   4567c:	2089c83a 	sub	r4,r4,r2
   45680:	1914983a 	sll	r10,r3,r4
   45684:	8890d83a 	srl	r8,r17,r2
   45688:	8908983a 	sll	r4,r17,r4
   4568c:	1884d83a 	srl	r2,r3,r2
   45690:	5222b03a 	or	r17,r10,r8
   45694:	2006c03a 	cmpne	r3,r4,zero
   45698:	88e2b03a 	or	r17,r17,r3
   4569c:	3463c83a 	sub	r17,r6,r17
   456a0:	2885c83a 	sub	r2,r5,r2
   456a4:	344d803a 	cmpltu	r6,r6,r17
   456a8:	1187c83a 	sub	r3,r2,r6
   456ac:	4821883a 	mov	r16,r9
   456b0:	3825883a 	mov	r18,r7
   456b4:	003f2306 	br	45344 <_gp+0xfffe81fc>
   456b8:	24d0b03a 	or	r8,r4,r19
   456bc:	40001b1e 	bne	r8,zero,4572c <__subdf3+0x560>
   456c0:	0005883a 	mov	r2,zero
   456c4:	0009883a 	mov	r4,zero
   456c8:	0021883a 	mov	r16,zero
   456cc:	003f4906 	br	453f4 <_gp+0xfffe82ac>
   456d0:	010007c4 	movi	r4,31
   456d4:	20803a16 	blt	r4,r2,457c0 <__subdf3+0x5f4>
   456d8:	01000804 	movi	r4,32
   456dc:	2089c83a 	sub	r4,r4,r2
   456e0:	2912983a 	sll	r9,r5,r4
   456e4:	3090d83a 	srl	r8,r6,r2
   456e8:	3108983a 	sll	r4,r6,r4
   456ec:	2884d83a 	srl	r2,r5,r2
   456f0:	4a12b03a 	or	r9,r9,r8
   456f4:	2008c03a 	cmpne	r4,r4,zero
   456f8:	4912b03a 	or	r9,r9,r4
   456fc:	003f4e06 	br	45438 <_gp+0xfffe82f0>
   45700:	1c48b03a 	or	r4,r3,r17
   45704:	20003c26 	beq	r4,zero,457f8 <__subdf3+0x62c>
   45708:	0084303a 	nor	r2,zero,r2
   4570c:	1000381e 	bne	r2,zero,457f0 <__subdf3+0x624>
   45710:	3463c83a 	sub	r17,r6,r17
   45714:	28c5c83a 	sub	r2,r5,r3
   45718:	344d803a 	cmpltu	r6,r6,r17
   4571c:	1187c83a 	sub	r3,r2,r6
   45720:	4821883a 	mov	r16,r9
   45724:	3825883a 	mov	r18,r7
   45728:	003f0606 	br	45344 <_gp+0xfffe81fc>
   4572c:	2023883a 	mov	r17,r4
   45730:	003f0906 	br	45358 <_gp+0xfffe8210>
   45734:	0101ffc4 	movi	r4,2047
   45738:	813f3a1e 	bne	r16,r4,45424 <_gp+0xfffe82dc>
   4573c:	003ec406 	br	45250 <_gp+0xfffe8108>
   45740:	0005883a 	mov	r2,zero
   45744:	003fb106 	br	4560c <_gp+0xfffe84c4>
   45748:	0005883a 	mov	r2,zero
   4574c:	003fbc06 	br	45640 <_gp+0xfffe84f8>
   45750:	1c44b03a 	or	r2,r3,r17
   45754:	80008e1e 	bne	r16,zero,45990 <__subdf3+0x7c4>
   45758:	1000c826 	beq	r2,zero,45a7c <__subdf3+0x8b0>
   4575c:	2984b03a 	or	r2,r5,r6
   45760:	103ebb26 	beq	r2,zero,45250 <_gp+0xfffe8108>
   45764:	8989883a 	add	r4,r17,r6
   45768:	1945883a 	add	r2,r3,r5
   4576c:	2447803a 	cmpltu	r3,r4,r17
